   1              		.syntax unified
   2              		.cpu cortex-m4
   3              		.fpu softvfp
   4              		.eabi_attribute 20, 1
   5              		.eabi_attribute 21, 1
   6              		.eabi_attribute 23, 3
   7              		.eabi_attribute 24, 1
   8              		.eabi_attribute 25, 1
   9              		.eabi_attribute 26, 1
  10              		.eabi_attribute 30, 6
  11              		.eabi_attribute 34, 1
  12              		.eabi_attribute 18, 4
  13              		.thumb
  14              		.file	"debug_frmwrk.c"
  15              		.text
  16              	.Ltext0:
  17              		.cfi_sections	.debug_frame
  18              		.comm	_db_msg,4,4
  19              		.comm	_db_msg_,4,4
  20              		.comm	_db_char,4,4
  21              		.comm	_db_dec,4,4
  22              		.comm	_db_dec_16,4,4
  23              		.comm	_db_dec_32,4,4
  24              		.comm	_db_hex,4,4
  25              		.comm	_db_hex_16,4,4
  26              		.comm	_db_hex_32,4,4
  27              		.comm	_db_hex_,4,4
  28              		.comm	_db_hex_16_,4,4
  29              		.comm	_db_hex_32_,4,4
  30              		.comm	_db_get_char,4,4
  31              		.comm	_db_get_char_nonblocking,4,4
  32              		.comm	_db_get_val,4,4
  33              		.align	2
  34              		.global	UARTPutChar
  35              		.thumb
  36              		.thumb_func
  38              	UARTPutChar:
  39              	.LFB55:
  40              		.file 1 "../src/lib/lpc177x_8x/Drivers/source/debug_frmwrk.c"
   1:../src/lib/lpc177x_8x/Drivers/source/debug_frmwrk.c **** /**********************************************************************
   2:../src/lib/lpc177x_8x/Drivers/source/debug_frmwrk.c **** * $Id$      debug_frmwrk.c          2011-06-02
   3:../src/lib/lpc177x_8x/Drivers/source/debug_frmwrk.c **** *//**
   4:../src/lib/lpc177x_8x/Drivers/source/debug_frmwrk.c **** * @file     debug_frmwrk.c
   5:../src/lib/lpc177x_8x/Drivers/source/debug_frmwrk.c **** * @brief    Contains some utilities that used for debugging through UART
   6:../src/lib/lpc177x_8x/Drivers/source/debug_frmwrk.c **** * @version  1.0
   7:../src/lib/lpc177x_8x/Drivers/source/debug_frmwrk.c **** * @date     02. June. 2011
   8:../src/lib/lpc177x_8x/Drivers/source/debug_frmwrk.c **** * @author   NXP MCU SW Application Team
   9:../src/lib/lpc177x_8x/Drivers/source/debug_frmwrk.c **** * 
  10:../src/lib/lpc177x_8x/Drivers/source/debug_frmwrk.c **** * Copyright(C) 2011, NXP Semiconductor
  11:../src/lib/lpc177x_8x/Drivers/source/debug_frmwrk.c **** * All rights reserved.
  12:../src/lib/lpc177x_8x/Drivers/source/debug_frmwrk.c **** *
  13:../src/lib/lpc177x_8x/Drivers/source/debug_frmwrk.c **** ***********************************************************************
  14:../src/lib/lpc177x_8x/Drivers/source/debug_frmwrk.c **** * Software that is described herein is for illustrative purposes only
  15:../src/lib/lpc177x_8x/Drivers/source/debug_frmwrk.c **** * which provides customers with programming information regarding the
  16:../src/lib/lpc177x_8x/Drivers/source/debug_frmwrk.c **** * products. This software is supplied "AS IS" without any warranties.
  17:../src/lib/lpc177x_8x/Drivers/source/debug_frmwrk.c **** * NXP Semiconductors assumes no responsibility or liability for the
  18:../src/lib/lpc177x_8x/Drivers/source/debug_frmwrk.c **** * use of the software, conveys no license or title under any patent,
  19:../src/lib/lpc177x_8x/Drivers/source/debug_frmwrk.c **** * copyright, or mask work right to the product. NXP Semiconductors
  20:../src/lib/lpc177x_8x/Drivers/source/debug_frmwrk.c **** * reserves the right to make changes in the software without
  21:../src/lib/lpc177x_8x/Drivers/source/debug_frmwrk.c **** * notification. NXP Semiconductors also make no representation or
  22:../src/lib/lpc177x_8x/Drivers/source/debug_frmwrk.c **** * warranty that such application will be suitable for the specified
  23:../src/lib/lpc177x_8x/Drivers/source/debug_frmwrk.c **** * use without further testing or modification.
  24:../src/lib/lpc177x_8x/Drivers/source/debug_frmwrk.c **** * Permission to use, copy, modify, and distribute this software and its
  25:../src/lib/lpc177x_8x/Drivers/source/debug_frmwrk.c **** * documentation is hereby granted, under NXP Semiconductors'
  26:../src/lib/lpc177x_8x/Drivers/source/debug_frmwrk.c **** * relevant copyright in the software, without fee, provided that it
  27:../src/lib/lpc177x_8x/Drivers/source/debug_frmwrk.c **** * is used in conjunction with NXP Semiconductors microcontrollers.  This
  28:../src/lib/lpc177x_8x/Drivers/source/debug_frmwrk.c **** * copyright, permission, and disclaimer notice must appear in all copies of
  29:../src/lib/lpc177x_8x/Drivers/source/debug_frmwrk.c **** * this code.
  30:../src/lib/lpc177x_8x/Drivers/source/debug_frmwrk.c **** **********************************************************************/
  31:../src/lib/lpc177x_8x/Drivers/source/debug_frmwrk.c **** #ifdef __BUILD_WITH_EXAMPLE__
  32:../src/lib/lpc177x_8x/Drivers/source/debug_frmwrk.c **** #include "lpc177x_8x_libcfg.h"
  33:../src/lib/lpc177x_8x/Drivers/source/debug_frmwrk.c **** #else
  34:../src/lib/lpc177x_8x/Drivers/source/debug_frmwrk.c **** #include "lpc177x_8x_libcfg_default.h"
  35:../src/lib/lpc177x_8x/Drivers/source/debug_frmwrk.c **** #endif /* __BUILD_WITH_EXAMPLE__ */
  36:../src/lib/lpc177x_8x/Drivers/source/debug_frmwrk.c **** #ifdef _DBGFWK
  37:../src/lib/lpc177x_8x/Drivers/source/debug_frmwrk.c **** #include "debug_frmwrk.h"
  38:../src/lib/lpc177x_8x/Drivers/source/debug_frmwrk.c **** #include "lpc177x_8x_pinsel.h"
  39:../src/lib/lpc177x_8x/Drivers/source/debug_frmwrk.c **** 
  40:../src/lib/lpc177x_8x/Drivers/source/debug_frmwrk.c **** /* Debug framework */
  41:../src/lib/lpc177x_8x/Drivers/source/debug_frmwrk.c **** 
  42:../src/lib/lpc177x_8x/Drivers/source/debug_frmwrk.c **** void (*_db_msg)(UART_ID_Type UartID, const void *s);
  43:../src/lib/lpc177x_8x/Drivers/source/debug_frmwrk.c **** void (*_db_msg_)(UART_ID_Type UartID, const void *s);
  44:../src/lib/lpc177x_8x/Drivers/source/debug_frmwrk.c **** void (*_db_char)(UART_ID_Type UartID, uint8_t ch);
  45:../src/lib/lpc177x_8x/Drivers/source/debug_frmwrk.c **** void (*_db_dec)(UART_ID_Type UartID, uint8_t decn);
  46:../src/lib/lpc177x_8x/Drivers/source/debug_frmwrk.c **** void (*_db_dec_16)(UART_ID_Type UartID, uint16_t decn);
  47:../src/lib/lpc177x_8x/Drivers/source/debug_frmwrk.c **** void (*_db_dec_32)(UART_ID_Type UartID, uint32_t decn);
  48:../src/lib/lpc177x_8x/Drivers/source/debug_frmwrk.c **** void (*_db_hex)(UART_ID_Type UartID, uint8_t hexn);
  49:../src/lib/lpc177x_8x/Drivers/source/debug_frmwrk.c **** void (*_db_hex_16)(UART_ID_Type UartID, uint16_t hexn);
  50:../src/lib/lpc177x_8x/Drivers/source/debug_frmwrk.c **** void (*_db_hex_32)(UART_ID_Type UartID, uint32_t hexn);
  51:../src/lib/lpc177x_8x/Drivers/source/debug_frmwrk.c **** void (*_db_hex_)(UART_ID_Type UartID, uint8_t hexn);
  52:../src/lib/lpc177x_8x/Drivers/source/debug_frmwrk.c **** void (*_db_hex_16_)(UART_ID_Type UartID, uint16_t hexn);
  53:../src/lib/lpc177x_8x/Drivers/source/debug_frmwrk.c **** void (*_db_hex_32_)(UART_ID_Type UartID, uint32_t hexn);
  54:../src/lib/lpc177x_8x/Drivers/source/debug_frmwrk.c **** 
  55:../src/lib/lpc177x_8x/Drivers/source/debug_frmwrk.c **** uint8_t (*_db_get_char)(UART_ID_Type UartID);
  56:../src/lib/lpc177x_8x/Drivers/source/debug_frmwrk.c **** Bool (*_db_get_char_nonblocking)(UART_ID_Type UartID, uint8_t* c);
  57:../src/lib/lpc177x_8x/Drivers/source/debug_frmwrk.c **** uint8_t (*_db_get_val)(UART_ID_Type UartID, uint8_t option, uint8_t numCh, uint32_t * val);
  58:../src/lib/lpc177x_8x/Drivers/source/debug_frmwrk.c **** 
  59:../src/lib/lpc177x_8x/Drivers/source/debug_frmwrk.c **** 
  60:../src/lib/lpc177x_8x/Drivers/source/debug_frmwrk.c **** /*********************************************************************//**
  61:../src/lib/lpc177x_8x/Drivers/source/debug_frmwrk.c ****  * @brief       Puts a character to UART port
  62:../src/lib/lpc177x_8x/Drivers/source/debug_frmwrk.c ****  * @param[in]   UARTx   Pointer to UART peripheral
  63:../src/lib/lpc177x_8x/Drivers/source/debug_frmwrk.c ****  * @param[in]   ch      Character to put
  64:../src/lib/lpc177x_8x/Drivers/source/debug_frmwrk.c ****  * @return      None
  65:../src/lib/lpc177x_8x/Drivers/source/debug_frmwrk.c ****  **********************************************************************/
  66:../src/lib/lpc177x_8x/Drivers/source/debug_frmwrk.c **** void UARTPutChar (UART_ID_Type UartID, uint8_t ch)
  67:../src/lib/lpc177x_8x/Drivers/source/debug_frmwrk.c **** {
  41              		.loc 1 67 0
  42              		.cfi_startproc
  43              		@ args = 0, pretend = 0, frame = 8
  44              		@ frame_needed = 1, uses_anonymous_args = 0
  45 0000 80B5     		push	{r7, lr}
  46              	.LCFI0:
  47              		.cfi_def_cfa_offset 8
  48              		.cfi_offset 7, -8
  49              		.cfi_offset 14, -4
  50 0002 82B0     		sub	sp, sp, #8
  51              	.LCFI1:
  52              		.cfi_def_cfa_offset 16
  53 0004 00AF     		add	r7, sp, #0
  54              	.LCFI2:
  55              		.cfi_def_cfa_register 7
  56 0006 0246     		mov	r2, r0
  57 0008 0B46     		mov	r3, r1
  58 000a FA71     		strb	r2, [r7, #7]
  59 000c BB71     		strb	r3, [r7, #6]
  68:../src/lib/lpc177x_8x/Drivers/source/debug_frmwrk.c ****     UART_Send(UartID, &ch, 1, BLOCKING);
  60              		.loc 1 68 0
  61 000e FA79     		ldrb	r2, [r7, #7]	@ zero_extendqisi2
  62 0010 07F10603 		add	r3, r7, #6
  63 0014 1046     		mov	r0, r2
  64 0016 1946     		mov	r1, r3
  65 0018 4FF00102 		mov	r2, #1
  66 001c 4FF00103 		mov	r3, #1
  67 0020 FFF7FEFF 		bl	UART_Send
  69:../src/lib/lpc177x_8x/Drivers/source/debug_frmwrk.c **** }
  68              		.loc 1 69 0
  69 0024 07F10807 		add	r7, r7, #8
  70 0028 BD46     		mov	sp, r7
  71 002a 80BD     		pop	{r7, pc}
  72              		.cfi_endproc
  73              	.LFE55:
  75              		.align	2
  76              		.global	UARTGetChar
  77              		.thumb
  78              		.thumb_func
  80              	UARTGetChar:
  81              	.LFB56:
  70:../src/lib/lpc177x_8x/Drivers/source/debug_frmwrk.c **** 
  71:../src/lib/lpc177x_8x/Drivers/source/debug_frmwrk.c **** 
  72:../src/lib/lpc177x_8x/Drivers/source/debug_frmwrk.c **** /*********************************************************************//**
  73:../src/lib/lpc177x_8x/Drivers/source/debug_frmwrk.c ****  * @brief       Get a character to UART port
  74:../src/lib/lpc177x_8x/Drivers/source/debug_frmwrk.c ****  * @param[in]   UARTx   Pointer to UART peripheral
  75:../src/lib/lpc177x_8x/Drivers/source/debug_frmwrk.c ****  * @return      character value that returned
  76:../src/lib/lpc177x_8x/Drivers/source/debug_frmwrk.c ****  **********************************************************************/
  77:../src/lib/lpc177x_8x/Drivers/source/debug_frmwrk.c **** uint8_t UARTGetChar (UART_ID_Type UartID)
  78:../src/lib/lpc177x_8x/Drivers/source/debug_frmwrk.c **** {
  82              		.loc 1 78 0
  83              		.cfi_startproc
  84              		@ args = 0, pretend = 0, frame = 16
  85              		@ frame_needed = 1, uses_anonymous_args = 0
  86 002c 80B5     		push	{r7, lr}
  87              	.LCFI3:
  88              		.cfi_def_cfa_offset 8
  89              		.cfi_offset 7, -8
  90              		.cfi_offset 14, -4
  91 002e 84B0     		sub	sp, sp, #16
  92              	.LCFI4:
  93              		.cfi_def_cfa_offset 24
  94 0030 00AF     		add	r7, sp, #0
  95              	.LCFI5:
  96              		.cfi_def_cfa_register 7
  97 0032 0346     		mov	r3, r0
  98 0034 FB71     		strb	r3, [r7, #7]
  79:../src/lib/lpc177x_8x/Drivers/source/debug_frmwrk.c ****     uint8_t tmp = 0;
  99              		.loc 1 79 0
 100 0036 4FF00003 		mov	r3, #0
 101 003a FB73     		strb	r3, [r7, #15]
  80:../src/lib/lpc177x_8x/Drivers/source/debug_frmwrk.c **** 
  81:../src/lib/lpc177x_8x/Drivers/source/debug_frmwrk.c ****     UART_Receive(UartID, &tmp, 1, BLOCKING);
 102              		.loc 1 81 0
 103 003c FA79     		ldrb	r2, [r7, #7]	@ zero_extendqisi2
 104 003e 07F10F03 		add	r3, r7, #15
 105 0042 1046     		mov	r0, r2
 106 0044 1946     		mov	r1, r3
 107 0046 4FF00102 		mov	r2, #1
 108 004a 4FF00103 		mov	r3, #1
 109 004e FFF7FEFF 		bl	UART_Receive
  82:../src/lib/lpc177x_8x/Drivers/source/debug_frmwrk.c **** 
  83:../src/lib/lpc177x_8x/Drivers/source/debug_frmwrk.c ****     return(tmp);
 110              		.loc 1 83 0
 111 0052 FB7B     		ldrb	r3, [r7, #15]	@ zero_extendqisi2
  84:../src/lib/lpc177x_8x/Drivers/source/debug_frmwrk.c **** }
 112              		.loc 1 84 0
 113 0054 1846     		mov	r0, r3
 114 0056 07F11007 		add	r7, r7, #16
 115 005a BD46     		mov	sp, r7
 116 005c 80BD     		pop	{r7, pc}
 117              		.cfi_endproc
 118              	.LFE56:
 120 005e 00BF     		.align	2
 121              		.global	UARTGetCharInNonBlock
 122              		.thumb
 123              		.thumb_func
 125              	UARTGetCharInNonBlock:
 126              	.LFB57:
  85:../src/lib/lpc177x_8x/Drivers/source/debug_frmwrk.c **** /*********************************************************************//**
  86:../src/lib/lpc177x_8x/Drivers/source/debug_frmwrk.c ****  * @brief       Get a character to UART port in non-blocking mode
  87:../src/lib/lpc177x_8x/Drivers/source/debug_frmwrk.c ****  * @param[in]        UARTx  Pointer to UART peripheral
  88:../src/lib/lpc177x_8x/Drivers/source/debug_frmwrk.c ****   * @param[out] c   character value that returned
  89:../src/lib/lpc177x_8x/Drivers/source/debug_frmwrk.c ****  * @return      TRUE (there is a character for procesisng)/FALSE
  90:../src/lib/lpc177x_8x/Drivers/source/debug_frmwrk.c ****  **********************************************************************/
  91:../src/lib/lpc177x_8x/Drivers/source/debug_frmwrk.c **** 
  92:../src/lib/lpc177x_8x/Drivers/source/debug_frmwrk.c **** Bool UARTGetCharInNonBlock(UART_ID_Type UartID, uint8_t* c)
  93:../src/lib/lpc177x_8x/Drivers/source/debug_frmwrk.c **** {   
 127              		.loc 1 93 0
 128              		.cfi_startproc
 129              		@ args = 0, pretend = 0, frame = 8
 130              		@ frame_needed = 1, uses_anonymous_args = 0
 131 0060 80B5     		push	{r7, lr}
 132              	.LCFI6:
 133              		.cfi_def_cfa_offset 8
 134              		.cfi_offset 7, -8
 135              		.cfi_offset 14, -4
 136 0062 82B0     		sub	sp, sp, #8
 137              	.LCFI7:
 138              		.cfi_def_cfa_offset 16
 139 0064 00AF     		add	r7, sp, #0
 140              	.LCFI8:
 141              		.cfi_def_cfa_register 7
 142 0066 0346     		mov	r3, r0
 143 0068 3960     		str	r1, [r7, #0]
 144 006a FB71     		strb	r3, [r7, #7]
  94:../src/lib/lpc177x_8x/Drivers/source/debug_frmwrk.c ****     if(c == NULL)
 145              		.loc 1 94 0
 146 006c 3B68     		ldr	r3, [r7, #0]
 147 006e 002B     		cmp	r3, #0
 148 0070 02D1     		bne	.L5
  95:../src/lib/lpc177x_8x/Drivers/source/debug_frmwrk.c ****         return FALSE;       
 149              		.loc 1 95 0
 150 0072 4FF00003 		mov	r3, #0
 151 0076 10E0     		b	.L6
 152              	.L5:
  96:../src/lib/lpc177x_8x/Drivers/source/debug_frmwrk.c ****     if(UART_Receive(UartID, c, 1, NONE_BLOCKING))
 153              		.loc 1 96 0
 154 0078 FB79     		ldrb	r3, [r7, #7]	@ zero_extendqisi2
 155 007a 1846     		mov	r0, r3
 156 007c 3968     		ldr	r1, [r7, #0]
 157 007e 4FF00102 		mov	r2, #1
 158 0082 4FF00003 		mov	r3, #0
 159 0086 FFF7FEFF 		bl	UART_Receive
 160 008a 0346     		mov	r3, r0
 161 008c 002B     		cmp	r3, #0
 162 008e 02D0     		beq	.L7
  97:../src/lib/lpc177x_8x/Drivers/source/debug_frmwrk.c ****         return TRUE;    
 163              		.loc 1 97 0
 164 0090 4FF00103 		mov	r3, #1
 165 0094 01E0     		b	.L6
 166              	.L7:
  98:../src/lib/lpc177x_8x/Drivers/source/debug_frmwrk.c ****     return FALSE;
 167              		.loc 1 98 0
 168 0096 4FF00003 		mov	r3, #0
 169              	.L6:
  99:../src/lib/lpc177x_8x/Drivers/source/debug_frmwrk.c **** }
 170              		.loc 1 99 0
 171 009a 1846     		mov	r0, r3
 172 009c 07F10807 		add	r7, r7, #8
 173 00a0 BD46     		mov	sp, r7
 174 00a2 80BD     		pop	{r7, pc}
 175              		.cfi_endproc
 176              	.LFE57:
 178              		.section	.rodata
 179              		.align	2
 180              	.LC0:
 181 0000 506C6561 		.ascii	"Please enter a char from '0' to '9'!!!\015\012\000"
 181      73652065 
 181      6E746572 
 181      20612063 
 181      68617220 
 182 0029 000000   		.align	2
 183              	.LC1:
 184 002c 506C6561 		.ascii	"Please enter a char from '0' to '9', and 'a/A', 'b/"
 184      73652065 
 184      6E746572 
 184      20612063 
 184      68617220 
 185 005f 42272C20 		.ascii	"B', c/C', 'd/D', 'e/E' and 'f/F'!!!\015\012\000"
 185      632F4327 
 185      2C202764 
 185      2F44272C 
 185      2027652F 
 186 0085 000000   		.align	2
 187              	.LC2:
 188 0088 52656163 		.ascii	"Reach limitation of re-tries. Return FAILED\015\012"
 188      68206C69 
 188      6D697461 
 188      74696F6E 
 188      206F6620 
 189 00b5 00       		.ascii	"\000"
 190              		.text
 191              		.align	2
 192              		.global	UARTGetValue
 193              		.thumb
 194              		.thumb_func
 196              	UARTGetValue:
 197              	.LFB58:
 100:../src/lib/lpc177x_8x/Drivers/source/debug_frmwrk.c **** 
 101:../src/lib/lpc177x_8x/Drivers/source/debug_frmwrk.c **** 
 102:../src/lib/lpc177x_8x/Drivers/source/debug_frmwrk.c **** /*********************************************************************//**
 103:../src/lib/lpc177x_8x/Drivers/source/debug_frmwrk.c ****  * @brief       Get a character to UART port
 104:../src/lib/lpc177x_8x/Drivers/source/debug_frmwrk.c ****  * @param[in]   UARTx   Pointer to UART peripheral
 105:../src/lib/lpc177x_8x/Drivers/source/debug_frmwrk.c ****  * @return      character value that returned
 106:../src/lib/lpc177x_8x/Drivers/source/debug_frmwrk.c ****  **********************************************************************/
 107:../src/lib/lpc177x_8x/Drivers/source/debug_frmwrk.c **** uint8_t UARTGetValue (UART_ID_Type UartID, uint8_t option,
 108:../src/lib/lpc177x_8x/Drivers/source/debug_frmwrk.c ****                                                 uint8_t numCh, uint32_t* val)
 109:../src/lib/lpc177x_8x/Drivers/source/debug_frmwrk.c **** {
 198              		.loc 1 109 0
 199              		.cfi_startproc
 200              		@ args = 0, pretend = 0, frame = 32
 201              		@ frame_needed = 1, uses_anonymous_args = 0
 202 00a4 80B5     		push	{r7, lr}
 203              	.LCFI9:
 204              		.cfi_def_cfa_offset 8
 205              		.cfi_offset 7, -8
 206              		.cfi_offset 14, -4
 207 00a6 88B0     		sub	sp, sp, #32
 208              	.LCFI10:
 209              		.cfi_def_cfa_offset 40
 210 00a8 00AF     		add	r7, sp, #0
 211              	.LCFI11:
 212              		.cfi_def_cfa_register 7
 213 00aa 3B60     		str	r3, [r7, #0]
 214 00ac 0346     		mov	r3, r0
 215 00ae FB71     		strb	r3, [r7, #7]
 216 00b0 0B46     		mov	r3, r1
 217 00b2 BB71     		strb	r3, [r7, #6]
 218 00b4 1346     		mov	r3, r2
 219 00b6 7B71     		strb	r3, [r7, #5]
 110:../src/lib/lpc177x_8x/Drivers/source/debug_frmwrk.c ****     uint8_t tmpCh = 0, cnt, factor, isValidCh = FALSE;
 220              		.loc 1 110 0
 221 00b8 4FF00003 		mov	r3, #0
 222 00bc FB72     		strb	r3, [r7, #11]
 223 00be 4FF00003 		mov	r3, #0
 224 00c2 7B77     		strb	r3, [r7, #29]
 111:../src/lib/lpc177x_8x/Drivers/source/debug_frmwrk.c ****     uint32_t tmpVal, rVal, cntFailed, multiplier;
 112:../src/lib/lpc177x_8x/Drivers/source/debug_frmwrk.c **** 
 113:../src/lib/lpc177x_8x/Drivers/source/debug_frmwrk.c ****     //it does not get any value
 114:../src/lib/lpc177x_8x/Drivers/source/debug_frmwrk.c ****     if(numCh <= 0)
 225              		.loc 1 114 0
 226 00c4 7B79     		ldrb	r3, [r7, #5]	@ zero_extendqisi2
 227 00c6 002B     		cmp	r3, #0
 228 00c8 06D1     		bne	.L9
 115:../src/lib/lpc177x_8x/Drivers/source/debug_frmwrk.c ****     {
 116:../src/lib/lpc177x_8x/Drivers/source/debug_frmwrk.c ****         *val = 0;
 229              		.loc 1 116 0
 230 00ca 3B68     		ldr	r3, [r7, #0]
 231 00cc 4FF00002 		mov	r2, #0
 232 00d0 1A60     		str	r2, [r3, #0]
 117:../src/lib/lpc177x_8x/Drivers/source/debug_frmwrk.c ****         return 0;
 233              		.loc 1 117 0
 234 00d2 4FF00003 		mov	r3, #0
 235 00d6 10E1     		b	.L37
 236              	.L9:
 118:../src/lib/lpc177x_8x/Drivers/source/debug_frmwrk.c ****     }
 119:../src/lib/lpc177x_8x/Drivers/source/debug_frmwrk.c **** 
 120:../src/lib/lpc177x_8x/Drivers/source/debug_frmwrk.c ****     cntFailed = 0;
 237              		.loc 1 120 0
 238 00d8 4FF00003 		mov	r3, #0
 239 00dc 3B61     		str	r3, [r7, #16]
 121:../src/lib/lpc177x_8x/Drivers/source/debug_frmwrk.c **** 
 122:../src/lib/lpc177x_8x/Drivers/source/debug_frmwrk.c ****     // To store the multiplier of Decimal (10) or Heximal (16)
 123:../src/lib/lpc177x_8x/Drivers/source/debug_frmwrk.c ****     factor = (option == DBG_GETVAL_IN_HEX) ? 16 : ((option == DBG_GETVAL_IN_DEC) ? 10 : 0);
 240              		.loc 1 123 0
 241 00de BB79     		ldrb	r3, [r7, #6]	@ zero_extendqisi2
 242 00e0 012B     		cmp	r3, #1
 243 00e2 08D0     		beq	.L11
 244              		.loc 1 123 0 is_stmt 0 discriminator 1
 245 00e4 BB79     		ldrb	r3, [r7, #6]	@ zero_extendqisi2
 246 00e6 002B     		cmp	r3, #0
 247 00e8 02D1     		bne	.L12
 248              		.loc 1 123 0 discriminator 3
 249 00ea 4FF00A03 		mov	r3, #10
 250 00ee 01E0     		b	.L13
 251              	.L12:
 252              		.loc 1 123 0 discriminator 4
 253 00f0 4FF00003 		mov	r3, #0
 254              	.L13:
 255 00f4 01E0     		b	.L14
 256              	.L11:
 257              		.loc 1 123 0 discriminator 2
 258 00f6 4FF01003 		mov	r3, #16
 259              	.L14:
 260              		.loc 1 123 0 discriminator 6
 261 00fa BB77     		strb	r3, [r7, #30]
 124:../src/lib/lpc177x_8x/Drivers/source/debug_frmwrk.c **** 
 125:../src/lib/lpc177x_8x/Drivers/source/debug_frmwrk.c ****     if (factor == 0)
 262              		.loc 1 125 0 is_stmt 1 discriminator 6
 263 00fc BB7F     		ldrb	r3, [r7, #30]	@ zero_extendqisi2
 264 00fe 002B     		cmp	r3, #0
 265 0100 06D1     		bne	.L15
 126:../src/lib/lpc177x_8x/Drivers/source/debug_frmwrk.c ****     {
 127:../src/lib/lpc177x_8x/Drivers/source/debug_frmwrk.c ****         *val = 0;
 266              		.loc 1 127 0
 267 0102 3B68     		ldr	r3, [r7, #0]
 268 0104 4FF00002 		mov	r2, #0
 269 0108 1A60     		str	r2, [r3, #0]
 128:../src/lib/lpc177x_8x/Drivers/source/debug_frmwrk.c **** 
 129:../src/lib/lpc177x_8x/Drivers/source/debug_frmwrk.c ****         return 0;
 270              		.loc 1 129 0
 271 010a 4FF00003 		mov	r3, #0
 272 010e F4E0     		b	.L37
 273              	.L15:
 130:../src/lib/lpc177x_8x/Drivers/source/debug_frmwrk.c ****     }
 131:../src/lib/lpc177x_8x/Drivers/source/debug_frmwrk.c **** 
 132:../src/lib/lpc177x_8x/Drivers/source/debug_frmwrk.c ****     rVal = 0;
 274              		.loc 1 132 0
 275 0110 4FF00003 		mov	r3, #0
 276 0114 7B61     		str	r3, [r7, #20]
 133:../src/lib/lpc177x_8x/Drivers/source/debug_frmwrk.c **** 
 134:../src/lib/lpc177x_8x/Drivers/source/debug_frmwrk.c ****     while (numCh > 0)
 277              		.loc 1 134 0
 278 0116 E7E0     		b	.L16
 279              	.L36:
 135:../src/lib/lpc177x_8x/Drivers/source/debug_frmwrk.c ****     {
 136:../src/lib/lpc177x_8x/Drivers/source/debug_frmwrk.c ****         isValidCh = TRUE;
 280              		.loc 1 136 0
 281 0118 4FF00103 		mov	r3, #1
 282 011c 7B77     		strb	r3, [r7, #29]
 137:../src/lib/lpc177x_8x/Drivers/source/debug_frmwrk.c **** 
 138:../src/lib/lpc177x_8x/Drivers/source/debug_frmwrk.c ****         UART_Receive(UartID, &tmpCh, 1, BLOCKING);
 283              		.loc 1 138 0
 284 011e FA79     		ldrb	r2, [r7, #7]	@ zero_extendqisi2
 285 0120 07F10B03 		add	r3, r7, #11
 286 0124 1046     		mov	r0, r2
 287 0126 1946     		mov	r1, r3
 288 0128 4FF00102 		mov	r2, #1
 289 012c 4FF00103 		mov	r3, #1
 290 0130 FFF7FEFF 		bl	UART_Receive
 139:../src/lib/lpc177x_8x/Drivers/source/debug_frmwrk.c **** 
 140:../src/lib/lpc177x_8x/Drivers/source/debug_frmwrk.c ****         if((tmpCh >= '0') && (tmpCh<= '9'))
 291              		.loc 1 140 0
 292 0134 FB7A     		ldrb	r3, [r7, #11]	@ zero_extendqisi2
 293 0136 2F2B     		cmp	r3, #47
 294 0138 07D9     		bls	.L17
 295              		.loc 1 140 0 is_stmt 0 discriminator 1
 296 013a FB7A     		ldrb	r3, [r7, #11]	@ zero_extendqisi2
 297 013c 392B     		cmp	r3, #57
 298 013e 04D8     		bhi	.L17
 141:../src/lib/lpc177x_8x/Drivers/source/debug_frmwrk.c ****         {
 142:../src/lib/lpc177x_8x/Drivers/source/debug_frmwrk.c ****             tmpVal = (uint32_t) (tmpCh - '0');
 299              		.loc 1 142 0 is_stmt 1
 300 0140 FB7A     		ldrb	r3, [r7, #11]	@ zero_extendqisi2
 301 0142 A3F13003 		sub	r3, r3, #48
 302 0146 BB61     		str	r3, [r7, #24]
 303 0148 7AE0     		b	.L18
 304              	.L17:
 143:../src/lib/lpc177x_8x/Drivers/source/debug_frmwrk.c ****         }
 144:../src/lib/lpc177x_8x/Drivers/source/debug_frmwrk.c ****         else if (option == DBG_GETVAL_IN_HEX)
 305              		.loc 1 144 0
 306 014a BB79     		ldrb	r3, [r7, #6]	@ zero_extendqisi2
 307 014c 012B     		cmp	r3, #1
 308 014e 74D1     		bne	.L19
 145:../src/lib/lpc177x_8x/Drivers/source/debug_frmwrk.c ****         {
 146:../src/lib/lpc177x_8x/Drivers/source/debug_frmwrk.c ****             factor = 16;
 309              		.loc 1 146 0
 310 0150 4FF01003 		mov	r3, #16
 311 0154 BB77     		strb	r3, [r7, #30]
 147:../src/lib/lpc177x_8x/Drivers/source/debug_frmwrk.c **** 
 148:../src/lib/lpc177x_8x/Drivers/source/debug_frmwrk.c ****             switch (tmpCh)
 312              		.loc 1 148 0
 313 0156 FB7A     		ldrb	r3, [r7, #11]	@ zero_extendqisi2
 314 0158 A3F14103 		sub	r3, r3, #65
 315 015c 252B     		cmp	r3, #37
 316 015e 68D8     		bhi	.L20
 317 0160 01A2     		adr	r2, .L27
 318 0162 52F823F0 		ldr	pc, [r2, r3, lsl #2]
 319 0166 00BF     		.align	2
 320              	.L27:
 321 0168 01020000 		.word	.L21+1
 322 016c 09020000 		.word	.L22+1
 323 0170 11020000 		.word	.L23+1
 324 0174 19020000 		.word	.L24+1
 325 0178 21020000 		.word	.L25+1
 326 017c 29020000 		.word	.L26+1
 327 0180 33020000 		.word	.L20+1
 328 0184 33020000 		.word	.L20+1
 329 0188 33020000 		.word	.L20+1
 330 018c 33020000 		.word	.L20+1
 331 0190 33020000 		.word	.L20+1
 332 0194 33020000 		.word	.L20+1
 333 0198 33020000 		.word	.L20+1
 334 019c 33020000 		.word	.L20+1
 335 01a0 33020000 		.word	.L20+1
 336 01a4 33020000 		.word	.L20+1
 337 01a8 33020000 		.word	.L20+1
 338 01ac 33020000 		.word	.L20+1
 339 01b0 33020000 		.word	.L20+1
 340 01b4 33020000 		.word	.L20+1
 341 01b8 33020000 		.word	.L20+1
 342 01bc 33020000 		.word	.L20+1
 343 01c0 33020000 		.word	.L20+1
 344 01c4 33020000 		.word	.L20+1
 345 01c8 33020000 		.word	.L20+1
 346 01cc 33020000 		.word	.L20+1
 347 01d0 33020000 		.word	.L20+1
 348 01d4 33020000 		.word	.L20+1
 349 01d8 33020000 		.word	.L20+1
 350 01dc 33020000 		.word	.L20+1
 351 01e0 33020000 		.word	.L20+1
 352 01e4 33020000 		.word	.L20+1
 353 01e8 01020000 		.word	.L21+1
 354 01ec 09020000 		.word	.L22+1
 355 01f0 11020000 		.word	.L23+1
 356 01f4 19020000 		.word	.L24+1
 357 01f8 21020000 		.word	.L25+1
 358 01fc 29020000 		.word	.L26+1
 359              	.L21:
 149:../src/lib/lpc177x_8x/Drivers/source/debug_frmwrk.c ****             {
 150:../src/lib/lpc177x_8x/Drivers/source/debug_frmwrk.c ****                 case 'a':
 151:../src/lib/lpc177x_8x/Drivers/source/debug_frmwrk.c **** 
 152:../src/lib/lpc177x_8x/Drivers/source/debug_frmwrk.c ****                 case 'A':
 153:../src/lib/lpc177x_8x/Drivers/source/debug_frmwrk.c ****                     tmpVal = 10;
 360              		.loc 1 153 0
 361 0200 4FF00A03 		mov	r3, #10
 362 0204 BB61     		str	r3, [r7, #24]
 154:../src/lib/lpc177x_8x/Drivers/source/debug_frmwrk.c **** 
 155:../src/lib/lpc177x_8x/Drivers/source/debug_frmwrk.c ****                     break;
 363              		.loc 1 155 0
 364 0206 1BE0     		b	.L18
 365              	.L22:
 156:../src/lib/lpc177x_8x/Drivers/source/debug_frmwrk.c **** 
 157:../src/lib/lpc177x_8x/Drivers/source/debug_frmwrk.c ****                 case 'b':
 158:../src/lib/lpc177x_8x/Drivers/source/debug_frmwrk.c **** 
 159:../src/lib/lpc177x_8x/Drivers/source/debug_frmwrk.c ****                 case 'B':
 160:../src/lib/lpc177x_8x/Drivers/source/debug_frmwrk.c ****                     tmpVal = 11;
 366              		.loc 1 160 0
 367 0208 4FF00B03 		mov	r3, #11
 368 020c BB61     		str	r3, [r7, #24]
 161:../src/lib/lpc177x_8x/Drivers/source/debug_frmwrk.c **** 
 162:../src/lib/lpc177x_8x/Drivers/source/debug_frmwrk.c ****                     break;
 369              		.loc 1 162 0
 370 020e 17E0     		b	.L18
 371              	.L23:
 163:../src/lib/lpc177x_8x/Drivers/source/debug_frmwrk.c **** 
 164:../src/lib/lpc177x_8x/Drivers/source/debug_frmwrk.c ****                 case 'c':
 165:../src/lib/lpc177x_8x/Drivers/source/debug_frmwrk.c **** 
 166:../src/lib/lpc177x_8x/Drivers/source/debug_frmwrk.c ****                 case 'C':
 167:../src/lib/lpc177x_8x/Drivers/source/debug_frmwrk.c ****                     tmpVal = 12;
 372              		.loc 1 167 0
 373 0210 4FF00C03 		mov	r3, #12
 374 0214 BB61     		str	r3, [r7, #24]
 168:../src/lib/lpc177x_8x/Drivers/source/debug_frmwrk.c **** 
 169:../src/lib/lpc177x_8x/Drivers/source/debug_frmwrk.c ****                     break;
 375              		.loc 1 169 0
 376 0216 13E0     		b	.L18
 377              	.L24:
 170:../src/lib/lpc177x_8x/Drivers/source/debug_frmwrk.c **** 
 171:../src/lib/lpc177x_8x/Drivers/source/debug_frmwrk.c ****                 case 'd':
 172:../src/lib/lpc177x_8x/Drivers/source/debug_frmwrk.c **** 
 173:../src/lib/lpc177x_8x/Drivers/source/debug_frmwrk.c ****                 case 'D':
 174:../src/lib/lpc177x_8x/Drivers/source/debug_frmwrk.c ****                     tmpVal = 13;
 378              		.loc 1 174 0
 379 0218 4FF00D03 		mov	r3, #13
 380 021c BB61     		str	r3, [r7, #24]
 175:../src/lib/lpc177x_8x/Drivers/source/debug_frmwrk.c **** 
 176:../src/lib/lpc177x_8x/Drivers/source/debug_frmwrk.c ****                     break;
 381              		.loc 1 176 0
 382 021e 0FE0     		b	.L18
 383              	.L25:
 177:../src/lib/lpc177x_8x/Drivers/source/debug_frmwrk.c **** 
 178:../src/lib/lpc177x_8x/Drivers/source/debug_frmwrk.c ****                 case 'e':
 179:../src/lib/lpc177x_8x/Drivers/source/debug_frmwrk.c **** 
 180:../src/lib/lpc177x_8x/Drivers/source/debug_frmwrk.c ****                 case 'E':
 181:../src/lib/lpc177x_8x/Drivers/source/debug_frmwrk.c ****                     tmpVal = 14;
 384              		.loc 1 181 0
 385 0220 4FF00E03 		mov	r3, #14
 386 0224 BB61     		str	r3, [r7, #24]
 182:../src/lib/lpc177x_8x/Drivers/source/debug_frmwrk.c **** 
 183:../src/lib/lpc177x_8x/Drivers/source/debug_frmwrk.c ****                     break;
 387              		.loc 1 183 0
 388 0226 0BE0     		b	.L18
 389              	.L26:
 184:../src/lib/lpc177x_8x/Drivers/source/debug_frmwrk.c **** 
 185:../src/lib/lpc177x_8x/Drivers/source/debug_frmwrk.c ****                 case 'f':
 186:../src/lib/lpc177x_8x/Drivers/source/debug_frmwrk.c **** 
 187:../src/lib/lpc177x_8x/Drivers/source/debug_frmwrk.c ****                 case 'F':
 188:../src/lib/lpc177x_8x/Drivers/source/debug_frmwrk.c ****                     tmpVal = 15;
 390              		.loc 1 188 0
 391 0228 4FF00F03 		mov	r3, #15
 392 022c BB61     		str	r3, [r7, #24]
 189:../src/lib/lpc177x_8x/Drivers/source/debug_frmwrk.c **** 
 190:../src/lib/lpc177x_8x/Drivers/source/debug_frmwrk.c ****                     break;
 393              		.loc 1 190 0
 394 022e 00BF     		nop
 395 0230 06E0     		b	.L18
 396              	.L20:
 191:../src/lib/lpc177x_8x/Drivers/source/debug_frmwrk.c **** 
 192:../src/lib/lpc177x_8x/Drivers/source/debug_frmwrk.c ****                 default:
 193:../src/lib/lpc177x_8x/Drivers/source/debug_frmwrk.c ****                     isValidCh = FALSE;
 397              		.loc 1 193 0
 398 0232 4FF00003 		mov	r3, #0
 399 0236 7B77     		strb	r3, [r7, #29]
 194:../src/lib/lpc177x_8x/Drivers/source/debug_frmwrk.c ****                     break;
 400              		.loc 1 194 0
 401 0238 02E0     		b	.L18
 402              	.L19:
 195:../src/lib/lpc177x_8x/Drivers/source/debug_frmwrk.c ****             }
 196:../src/lib/lpc177x_8x/Drivers/source/debug_frmwrk.c ****         }
 197:../src/lib/lpc177x_8x/Drivers/source/debug_frmwrk.c ****         else
 198:../src/lib/lpc177x_8x/Drivers/source/debug_frmwrk.c ****         {
 199:../src/lib/lpc177x_8x/Drivers/source/debug_frmwrk.c ****             isValidCh = FALSE;
 403              		.loc 1 199 0
 404 023a 4FF00003 		mov	r3, #0
 405 023e 7B77     		strb	r3, [r7, #29]
 406              	.L18:
 200:../src/lib/lpc177x_8x/Drivers/source/debug_frmwrk.c ****         }
 201:../src/lib/lpc177x_8x/Drivers/source/debug_frmwrk.c **** 
 202:../src/lib/lpc177x_8x/Drivers/source/debug_frmwrk.c ****         multiplier = 1;
 407              		.loc 1 202 0
 408 0240 4FF00103 		mov	r3, #1
 409 0244 FB60     		str	r3, [r7, #12]
 203:../src/lib/lpc177x_8x/Drivers/source/debug_frmwrk.c **** 
 204:../src/lib/lpc177x_8x/Drivers/source/debug_frmwrk.c ****         if(isValidCh == FALSE)
 410              		.loc 1 204 0
 411 0246 7B7F     		ldrb	r3, [r7, #29]	@ zero_extendqisi2
 412 0248 002B     		cmp	r3, #0
 413 024a 1FD1     		bne	.L29
 205:../src/lib/lpc177x_8x/Drivers/source/debug_frmwrk.c ****         {
 206:../src/lib/lpc177x_8x/Drivers/source/debug_frmwrk.c ****             if(option == DBG_GETVAL_IN_DEC)
 414              		.loc 1 206 0
 415 024c BB79     		ldrb	r3, [r7, #6]	@ zero_extendqisi2
 416 024e 002B     		cmp	r3, #0
 417 0250 05D1     		bne	.L30
 207:../src/lib/lpc177x_8x/Drivers/source/debug_frmwrk.c ****             {
 208:../src/lib/lpc177x_8x/Drivers/source/debug_frmwrk.c ****                 UARTPuts(UartID, "Please enter a char from '0' to '9'!!!\r\n");
 418              		.loc 1 208 0
 419 0252 FB79     		ldrb	r3, [r7, #7]	@ zero_extendqisi2
 420 0254 1846     		mov	r0, r3
 421 0256 2B49     		ldr	r1, .L38
 422 0258 FFF7FEFF 		bl	UARTPuts
 423 025c 07E0     		b	.L31
 424              	.L30:
 209:../src/lib/lpc177x_8x/Drivers/source/debug_frmwrk.c ****             }
 210:../src/lib/lpc177x_8x/Drivers/source/debug_frmwrk.c ****             else if (option == DBG_GETVAL_IN_HEX)
 425              		.loc 1 210 0
 426 025e BB79     		ldrb	r3, [r7, #6]	@ zero_extendqisi2
 427 0260 012B     		cmp	r3, #1
 428 0262 04D1     		bne	.L31
 211:../src/lib/lpc177x_8x/Drivers/source/debug_frmwrk.c ****             {
 212:../src/lib/lpc177x_8x/Drivers/source/debug_frmwrk.c ****                 UARTPuts(UartID, "Please enter a char from '0' to '9', and 'a/A', 'b/B', c/C', 'd/D
 429              		.loc 1 212 0
 430 0264 FB79     		ldrb	r3, [r7, #7]	@ zero_extendqisi2
 431 0266 1846     		mov	r0, r3
 432 0268 2749     		ldr	r1, .L38+4
 433 026a FFF7FEFF 		bl	UARTPuts
 434              	.L31:
 213:../src/lib/lpc177x_8x/Drivers/source/debug_frmwrk.c ****             }
 214:../src/lib/lpc177x_8x/Drivers/source/debug_frmwrk.c **** 
 215:../src/lib/lpc177x_8x/Drivers/source/debug_frmwrk.c ****             cntFailed ++;
 435              		.loc 1 215 0
 436 026e 3B69     		ldr	r3, [r7, #16]
 437 0270 03F10103 		add	r3, r3, #1
 438 0274 3B61     		str	r3, [r7, #16]
 216:../src/lib/lpc177x_8x/Drivers/source/debug_frmwrk.c **** 
 217:../src/lib/lpc177x_8x/Drivers/source/debug_frmwrk.c ****             if(cntFailed >= NUM_SKIPPED_ALLOWED)
 439              		.loc 1 217 0
 440 0276 3B69     		ldr	r3, [r7, #16]
 441 0278 092B     		cmp	r3, #9
 442 027a 35D9     		bls	.L16
 218:../src/lib/lpc177x_8x/Drivers/source/debug_frmwrk.c ****             {
 219:../src/lib/lpc177x_8x/Drivers/source/debug_frmwrk.c ****                 UARTPuts(UartID, "Reach limitation of re-tries. Return FAILED\r\n");
 443              		.loc 1 219 0
 444 027c FB79     		ldrb	r3, [r7, #7]	@ zero_extendqisi2
 445 027e 1846     		mov	r0, r3
 446 0280 2249     		ldr	r1, .L38+8
 447 0282 FFF7FEFF 		bl	UARTPuts
 220:../src/lib/lpc177x_8x/Drivers/source/debug_frmwrk.c **** 
 221:../src/lib/lpc177x_8x/Drivers/source/debug_frmwrk.c ****                 //it's failed, should return
 222:../src/lib/lpc177x_8x/Drivers/source/debug_frmwrk.c ****                 return 0;
 448              		.loc 1 222 0
 449 0286 4FF00003 		mov	r3, #0
 450 028a 36E0     		b	.L37
 451              	.L29:
 223:../src/lib/lpc177x_8x/Drivers/source/debug_frmwrk.c ****             }
 224:../src/lib/lpc177x_8x/Drivers/source/debug_frmwrk.c ****         }
 225:../src/lib/lpc177x_8x/Drivers/source/debug_frmwrk.c ****         else
 226:../src/lib/lpc177x_8x/Drivers/source/debug_frmwrk.c ****         {
 227:../src/lib/lpc177x_8x/Drivers/source/debug_frmwrk.c ****             //Echo the character to the terminal
 228:../src/lib/lpc177x_8x/Drivers/source/debug_frmwrk.c ****             UARTPutChar(UartID, tmpCh);
 452              		.loc 1 228 0
 453 028c FB7A     		ldrb	r3, [r7, #11]	@ zero_extendqisi2
 454 028e FA79     		ldrb	r2, [r7, #7]	@ zero_extendqisi2
 455 0290 1046     		mov	r0, r2
 456 0292 1946     		mov	r1, r3
 457 0294 FFF7FEFF 		bl	UARTPutChar
 229:../src/lib/lpc177x_8x/Drivers/source/debug_frmwrk.c **** 
 230:../src/lib/lpc177x_8x/Drivers/source/debug_frmwrk.c ****             if(numCh == 1)
 458              		.loc 1 230 0
 459 0298 7B79     		ldrb	r3, [r7, #5]	@ zero_extendqisi2
 460 029a 012B     		cmp	r3, #1
 461 029c 06D1     		bne	.L32
 231:../src/lib/lpc177x_8x/Drivers/source/debug_frmwrk.c ****             {
 232:../src/lib/lpc177x_8x/Drivers/source/debug_frmwrk.c ****                 factor = 1;
 462              		.loc 1 232 0
 463 029e 4FF00103 		mov	r3, #1
 464 02a2 BB77     		strb	r3, [r7, #30]
 233:../src/lib/lpc177x_8x/Drivers/source/debug_frmwrk.c ****                 multiplier = 1;
 465              		.loc 1 233 0
 466 02a4 4FF00103 		mov	r3, #1
 467 02a8 FB60     		str	r3, [r7, #12]
 468 02aa 10E0     		b	.L33
 469              	.L32:
 234:../src/lib/lpc177x_8x/Drivers/source/debug_frmwrk.c ****             }
 235:../src/lib/lpc177x_8x/Drivers/source/debug_frmwrk.c ****             else
 236:../src/lib/lpc177x_8x/Drivers/source/debug_frmwrk.c ****             {
 237:../src/lib/lpc177x_8x/Drivers/source/debug_frmwrk.c ****                 for(cnt = 1; cnt < numCh; cnt++)
 470              		.loc 1 237 0
 471 02ac 4FF00103 		mov	r3, #1
 472 02b0 FB77     		strb	r3, [r7, #31]
 473 02b2 08E0     		b	.L34
 474              	.L35:
 238:../src/lib/lpc177x_8x/Drivers/source/debug_frmwrk.c ****                 {
 239:../src/lib/lpc177x_8x/Drivers/source/debug_frmwrk.c ****                     multiplier *= factor;
 475              		.loc 1 239 0 discriminator 2
 476 02b4 BA7F     		ldrb	r2, [r7, #30]	@ zero_extendqisi2
 477 02b6 FB68     		ldr	r3, [r7, #12]
 478 02b8 02FB03F3 		mul	r3, r2, r3
 479 02bc FB60     		str	r3, [r7, #12]
 237:../src/lib/lpc177x_8x/Drivers/source/debug_frmwrk.c ****                 for(cnt = 1; cnt < numCh; cnt++)
 480              		.loc 1 237 0 discriminator 2
 481 02be FB7F     		ldrb	r3, [r7, #31]
 482 02c0 03F10103 		add	r3, r3, #1
 483 02c4 FB77     		strb	r3, [r7, #31]
 484              	.L34:
 237:../src/lib/lpc177x_8x/Drivers/source/debug_frmwrk.c ****                 for(cnt = 1; cnt < numCh; cnt++)
 485              		.loc 1 237 0 is_stmt 0 discriminator 1
 486 02c6 FA7F     		ldrb	r2, [r7, #31]	@ zero_extendqisi2
 487 02c8 7B79     		ldrb	r3, [r7, #5]	@ zero_extendqisi2
 488 02ca 9A42     		cmp	r2, r3
 489 02cc F2D3     		bcc	.L35
 490              	.L33:
 240:../src/lib/lpc177x_8x/Drivers/source/debug_frmwrk.c ****                 }
 241:../src/lib/lpc177x_8x/Drivers/source/debug_frmwrk.c ****             }
 242:../src/lib/lpc177x_8x/Drivers/source/debug_frmwrk.c **** 
 243:../src/lib/lpc177x_8x/Drivers/source/debug_frmwrk.c ****             tmpVal *= multiplier;
 491              		.loc 1 243 0 is_stmt 1
 492 02ce BB69     		ldr	r3, [r7, #24]
 493 02d0 FA68     		ldr	r2, [r7, #12]
 494 02d2 02FB03F3 		mul	r3, r2, r3
 495 02d6 BB61     		str	r3, [r7, #24]
 244:../src/lib/lpc177x_8x/Drivers/source/debug_frmwrk.c **** 
 245:../src/lib/lpc177x_8x/Drivers/source/debug_frmwrk.c ****             //Update the value return
 246:../src/lib/lpc177x_8x/Drivers/source/debug_frmwrk.c ****             rVal += tmpVal;
 496              		.loc 1 246 0
 497 02d8 7A69     		ldr	r2, [r7, #20]
 498 02da BB69     		ldr	r3, [r7, #24]
 499 02dc D318     		adds	r3, r2, r3
 500 02de 7B61     		str	r3, [r7, #20]
 247:../src/lib/lpc177x_8x/Drivers/source/debug_frmwrk.c **** 
 248:../src/lib/lpc177x_8x/Drivers/source/debug_frmwrk.c ****             numCh --;
 501              		.loc 1 248 0
 502 02e0 7B79     		ldrb	r3, [r7, #5]
 503 02e2 03F1FF33 		add	r3, r3, #-1
 504 02e6 7B71     		strb	r3, [r7, #5]
 505              	.L16:
 134:../src/lib/lpc177x_8x/Drivers/source/debug_frmwrk.c ****     while (numCh > 0)
 506              		.loc 1 134 0 discriminator 1
 507 02e8 7B79     		ldrb	r3, [r7, #5]	@ zero_extendqisi2
 508 02ea 002B     		cmp	r3, #0
 509 02ec 7FF414AF 		bne	.L36
 249:../src/lib/lpc177x_8x/Drivers/source/debug_frmwrk.c ****         }
 250:../src/lib/lpc177x_8x/Drivers/source/debug_frmwrk.c ****     }
 251:../src/lib/lpc177x_8x/Drivers/source/debug_frmwrk.c **** 
 252:../src/lib/lpc177x_8x/Drivers/source/debug_frmwrk.c ****     *val = rVal;
 510              		.loc 1 252 0
 511 02f0 3B68     		ldr	r3, [r7, #0]
 512 02f2 7A69     		ldr	r2, [r7, #20]
 513 02f4 1A60     		str	r2, [r3, #0]
 253:../src/lib/lpc177x_8x/Drivers/source/debug_frmwrk.c **** 
 254:../src/lib/lpc177x_8x/Drivers/source/debug_frmwrk.c ****     return(1);
 514              		.loc 1 254 0
 515 02f6 4FF00103 		mov	r3, #1
 516              	.L37:
 255:../src/lib/lpc177x_8x/Drivers/source/debug_frmwrk.c **** }
 517              		.loc 1 255 0
 518 02fa 1846     		mov	r0, r3
 519 02fc 07F12007 		add	r7, r7, #32
 520 0300 BD46     		mov	sp, r7
 521 0302 80BD     		pop	{r7, pc}
 522              	.L39:
 523              		.align	2
 524              	.L38:
 525 0304 00000000 		.word	.LC0
 526 0308 2C000000 		.word	.LC1
 527 030c 88000000 		.word	.LC2
 528              		.cfi_endproc
 529              	.LFE58:
 531              		.align	2
 532              		.global	UARTPuts
 533              		.thumb
 534              		.thumb_func
 536              	UARTPuts:
 537              	.LFB59:
 256:../src/lib/lpc177x_8x/Drivers/source/debug_frmwrk.c **** 
 257:../src/lib/lpc177x_8x/Drivers/source/debug_frmwrk.c **** 
 258:../src/lib/lpc177x_8x/Drivers/source/debug_frmwrk.c **** 
 259:../src/lib/lpc177x_8x/Drivers/source/debug_frmwrk.c **** /*********************************************************************//**
 260:../src/lib/lpc177x_8x/Drivers/source/debug_frmwrk.c ****  * @brief       Puts a string to UART port
 261:../src/lib/lpc177x_8x/Drivers/source/debug_frmwrk.c ****  * @param[in]   UARTx   Pointer to UART peripheral
 262:../src/lib/lpc177x_8x/Drivers/source/debug_frmwrk.c ****  * @param[in]   str     string to put
 263:../src/lib/lpc177x_8x/Drivers/source/debug_frmwrk.c ****  * @return      None
 264:../src/lib/lpc177x_8x/Drivers/source/debug_frmwrk.c ****  **********************************************************************/
 265:../src/lib/lpc177x_8x/Drivers/source/debug_frmwrk.c **** void UARTPuts(UART_ID_Type UartID, const void *str)
 266:../src/lib/lpc177x_8x/Drivers/source/debug_frmwrk.c **** {
 538              		.loc 1 266 0
 539              		.cfi_startproc
 540              		@ args = 0, pretend = 0, frame = 16
 541              		@ frame_needed = 1, uses_anonymous_args = 0
 542 0310 80B5     		push	{r7, lr}
 543              	.LCFI12:
 544              		.cfi_def_cfa_offset 8
 545              		.cfi_offset 7, -8
 546              		.cfi_offset 14, -4
 547 0312 84B0     		sub	sp, sp, #16
 548              	.LCFI13:
 549              		.cfi_def_cfa_offset 24
 550 0314 00AF     		add	r7, sp, #0
 551              	.LCFI14:
 552              		.cfi_def_cfa_register 7
 553 0316 0346     		mov	r3, r0
 554 0318 3960     		str	r1, [r7, #0]
 555 031a FB71     		strb	r3, [r7, #7]
 267:../src/lib/lpc177x_8x/Drivers/source/debug_frmwrk.c ****     uint8_t *s = (uint8_t *) str;
 556              		.loc 1 267 0
 557 031c 3B68     		ldr	r3, [r7, #0]
 558 031e FB60     		str	r3, [r7, #12]
 268:../src/lib/lpc177x_8x/Drivers/source/debug_frmwrk.c **** 
 269:../src/lib/lpc177x_8x/Drivers/source/debug_frmwrk.c ****     while (*s)
 559              		.loc 1 269 0
 560 0320 0AE0     		b	.L41
 561              	.L42:
 270:../src/lib/lpc177x_8x/Drivers/source/debug_frmwrk.c ****     {
 271:../src/lib/lpc177x_8x/Drivers/source/debug_frmwrk.c ****         UARTPutChar(UartID, *s++);
 562              		.loc 1 271 0
 563 0322 FB68     		ldr	r3, [r7, #12]
 564 0324 1B78     		ldrb	r3, [r3, #0]	@ zero_extendqisi2
 565 0326 FA68     		ldr	r2, [r7, #12]
 566 0328 02F10102 		add	r2, r2, #1
 567 032c FA60     		str	r2, [r7, #12]
 568 032e FA79     		ldrb	r2, [r7, #7]	@ zero_extendqisi2
 569 0330 1046     		mov	r0, r2
 570 0332 1946     		mov	r1, r3
 571 0334 FFF7FEFF 		bl	UARTPutChar
 572              	.L41:
 269:../src/lib/lpc177x_8x/Drivers/source/debug_frmwrk.c ****     while (*s)
 573              		.loc 1 269 0 discriminator 1
 574 0338 FB68     		ldr	r3, [r7, #12]
 575 033a 1B78     		ldrb	r3, [r3, #0]	@ zero_extendqisi2
 576 033c 002B     		cmp	r3, #0
 577 033e F0D1     		bne	.L42
 272:../src/lib/lpc177x_8x/Drivers/source/debug_frmwrk.c ****     }
 273:../src/lib/lpc177x_8x/Drivers/source/debug_frmwrk.c **** }
 578              		.loc 1 273 0
 579 0340 07F11007 		add	r7, r7, #16
 580 0344 BD46     		mov	sp, r7
 581 0346 80BD     		pop	{r7, pc}
 582              		.cfi_endproc
 583              	.LFE59:
 585              		.section	.rodata
 586 00b6 0000     		.align	2
 587              	.LC3:
 588 00b8 0A0D00   		.ascii	"\012\015\000"
 589              		.text
 590              		.align	2
 591              		.global	UARTPuts_
 592              		.thumb
 593              		.thumb_func
 595              	UARTPuts_:
 596              	.LFB60:
 274:../src/lib/lpc177x_8x/Drivers/source/debug_frmwrk.c **** 
 275:../src/lib/lpc177x_8x/Drivers/source/debug_frmwrk.c **** 
 276:../src/lib/lpc177x_8x/Drivers/source/debug_frmwrk.c **** /*********************************************************************//**
 277:../src/lib/lpc177x_8x/Drivers/source/debug_frmwrk.c ****  * @brief       Puts a string to UART port and print new line
 278:../src/lib/lpc177x_8x/Drivers/source/debug_frmwrk.c ****  * @param[in]   UARTx   Pointer to UART peripheral
 279:../src/lib/lpc177x_8x/Drivers/source/debug_frmwrk.c ****  * @param[in]   str     String to put
 280:../src/lib/lpc177x_8x/Drivers/source/debug_frmwrk.c ****  * @return      None
 281:../src/lib/lpc177x_8x/Drivers/source/debug_frmwrk.c ****  **********************************************************************/
 282:../src/lib/lpc177x_8x/Drivers/source/debug_frmwrk.c **** void UARTPuts_(UART_ID_Type UartID, const void *str)
 283:../src/lib/lpc177x_8x/Drivers/source/debug_frmwrk.c **** {
 597              		.loc 1 283 0
 598              		.cfi_startproc
 599              		@ args = 0, pretend = 0, frame = 8
 600              		@ frame_needed = 1, uses_anonymous_args = 0
 601 0348 80B5     		push	{r7, lr}
 602              	.LCFI15:
 603              		.cfi_def_cfa_offset 8
 604              		.cfi_offset 7, -8
 605              		.cfi_offset 14, -4
 606 034a 82B0     		sub	sp, sp, #8
 607              	.LCFI16:
 608              		.cfi_def_cfa_offset 16
 609 034c 00AF     		add	r7, sp, #0
 610              	.LCFI17:
 611              		.cfi_def_cfa_register 7
 612 034e 0346     		mov	r3, r0
 613 0350 3960     		str	r1, [r7, #0]
 614 0352 FB71     		strb	r3, [r7, #7]
 284:../src/lib/lpc177x_8x/Drivers/source/debug_frmwrk.c ****     UARTPuts (UartID, str);
 615              		.loc 1 284 0
 616 0354 FB79     		ldrb	r3, [r7, #7]	@ zero_extendqisi2
 617 0356 1846     		mov	r0, r3
 618 0358 3968     		ldr	r1, [r7, #0]
 619 035a FFF7FEFF 		bl	UARTPuts
 285:../src/lib/lpc177x_8x/Drivers/source/debug_frmwrk.c ****     UARTPuts (UartID, "\n\r");
 620              		.loc 1 285 0
 621 035e FB79     		ldrb	r3, [r7, #7]	@ zero_extendqisi2
 622 0360 1846     		mov	r0, r3
 623 0362 0349     		ldr	r1, .L44
 624 0364 FFF7FEFF 		bl	UARTPuts
 286:../src/lib/lpc177x_8x/Drivers/source/debug_frmwrk.c **** }
 625              		.loc 1 286 0
 626 0368 07F10807 		add	r7, r7, #8
 627 036c BD46     		mov	sp, r7
 628 036e 80BD     		pop	{r7, pc}
 629              	.L45:
 630              		.align	2
 631              	.L44:
 632 0370 B8000000 		.word	.LC3
 633              		.cfi_endproc
 634              	.LFE60:
 636              		.align	2
 637              		.global	UARTPutDec
 638              		.thumb
 639              		.thumb_func
 641              	UARTPutDec:
 642              	.LFB61:
 287:../src/lib/lpc177x_8x/Drivers/source/debug_frmwrk.c **** 
 288:../src/lib/lpc177x_8x/Drivers/source/debug_frmwrk.c **** 
 289:../src/lib/lpc177x_8x/Drivers/source/debug_frmwrk.c **** /*********************************************************************//**
 290:../src/lib/lpc177x_8x/Drivers/source/debug_frmwrk.c ****  * @brief       Puts a decimal number to UART port
 291:../src/lib/lpc177x_8x/Drivers/source/debug_frmwrk.c ****  * @param[in]   UARTx   Pointer to UART peripheral
 292:../src/lib/lpc177x_8x/Drivers/source/debug_frmwrk.c ****  * @param[in]   decnum  Decimal number (8-bit long)
 293:../src/lib/lpc177x_8x/Drivers/source/debug_frmwrk.c ****  * @return      None
 294:../src/lib/lpc177x_8x/Drivers/source/debug_frmwrk.c ****  **********************************************************************/
 295:../src/lib/lpc177x_8x/Drivers/source/debug_frmwrk.c **** void UARTPutDec(UART_ID_Type UartID, uint8_t decnum)
 296:../src/lib/lpc177x_8x/Drivers/source/debug_frmwrk.c **** {
 643              		.loc 1 296 0
 644              		.cfi_startproc
 645              		@ args = 0, pretend = 0, frame = 16
 646              		@ frame_needed = 1, uses_anonymous_args = 0
 647 0374 80B5     		push	{r7, lr}
 648              	.LCFI18:
 649              		.cfi_def_cfa_offset 8
 650              		.cfi_offset 7, -8
 651              		.cfi_offset 14, -4
 652 0376 84B0     		sub	sp, sp, #16
 653              	.LCFI19:
 654              		.cfi_def_cfa_offset 24
 655 0378 00AF     		add	r7, sp, #0
 656              	.LCFI20:
 657              		.cfi_def_cfa_register 7
 658 037a 0246     		mov	r2, r0
 659 037c 0B46     		mov	r3, r1
 660 037e FA71     		strb	r2, [r7, #7]
 661 0380 BB71     		strb	r3, [r7, #6]
 297:../src/lib/lpc177x_8x/Drivers/source/debug_frmwrk.c ****     uint8_t c1=decnum%10;
 662              		.loc 1 297 0
 663 0382 BA79     		ldrb	r2, [r7, #6]	@ zero_extendqisi2
 664 0384 294B     		ldr	r3, .L47
 665 0386 A3FB0213 		umull	r1, r3, r3, r2
 666 038a 4FEAD301 		lsr	r1, r3, #3
 667 038e 0B46     		mov	r3, r1
 668 0390 4FEA8303 		lsl	r3, r3, #2
 669 0394 5B18     		adds	r3, r3, r1
 670 0396 4FEA4303 		lsl	r3, r3, #1
 671 039a D31A     		subs	r3, r2, r3
 672 039c FB73     		strb	r3, [r7, #15]
 298:../src/lib/lpc177x_8x/Drivers/source/debug_frmwrk.c ****     uint8_t c2=(decnum/10)%10;
 673              		.loc 1 298 0
 674 039e BA79     		ldrb	r2, [r7, #6]	@ zero_extendqisi2
 675 03a0 224B     		ldr	r3, .L47
 676 03a2 A3FB0213 		umull	r1, r3, r3, r2
 677 03a6 4FEAD303 		lsr	r3, r3, #3
 678 03aa DAB2     		uxtb	r2, r3
 679 03ac 1F4B     		ldr	r3, .L47
 680 03ae A3FB0213 		umull	r1, r3, r3, r2
 681 03b2 4FEAD301 		lsr	r1, r3, #3
 682 03b6 0B46     		mov	r3, r1
 683 03b8 4FEA8303 		lsl	r3, r3, #2
 684 03bc 5B18     		adds	r3, r3, r1
 685 03be 4FEA4303 		lsl	r3, r3, #1
 686 03c2 D31A     		subs	r3, r2, r3
 687 03c4 BB73     		strb	r3, [r7, #14]
 299:../src/lib/lpc177x_8x/Drivers/source/debug_frmwrk.c ****     uint8_t c3=(decnum/100)%10;
 688              		.loc 1 299 0
 689 03c6 BA79     		ldrb	r2, [r7, #6]	@ zero_extendqisi2
 690 03c8 194B     		ldr	r3, .L47+4
 691 03ca A3FB0213 		umull	r1, r3, r3, r2
 692 03ce 4FEA5313 		lsr	r3, r3, #5
 693 03d2 DAB2     		uxtb	r2, r3
 694 03d4 154B     		ldr	r3, .L47
 695 03d6 A3FB0213 		umull	r1, r3, r3, r2
 696 03da 4FEAD301 		lsr	r1, r3, #3
 697 03de 0B46     		mov	r3, r1
 698 03e0 4FEA8303 		lsl	r3, r3, #2
 699 03e4 5B18     		adds	r3, r3, r1
 700 03e6 4FEA4303 		lsl	r3, r3, #1
 701 03ea D31A     		subs	r3, r2, r3
 702 03ec 7B73     		strb	r3, [r7, #13]
 300:../src/lib/lpc177x_8x/Drivers/source/debug_frmwrk.c ****     UARTPutChar(UartID, '0'+c3);
 703              		.loc 1 300 0
 704 03ee 7B7B     		ldrb	r3, [r7, #13]
 705 03f0 03F13003 		add	r3, r3, #48
 706 03f4 DBB2     		uxtb	r3, r3
 707 03f6 FA79     		ldrb	r2, [r7, #7]	@ zero_extendqisi2
 708 03f8 1046     		mov	r0, r2
 709 03fa 1946     		mov	r1, r3
 710 03fc FFF7FEFF 		bl	UARTPutChar
 301:../src/lib/lpc177x_8x/Drivers/source/debug_frmwrk.c ****     UARTPutChar(UartID, '0'+c2);
 711              		.loc 1 301 0
 712 0400 BB7B     		ldrb	r3, [r7, #14]
 713 0402 03F13003 		add	r3, r3, #48
 714 0406 DBB2     		uxtb	r3, r3
 715 0408 FA79     		ldrb	r2, [r7, #7]	@ zero_extendqisi2
 716 040a 1046     		mov	r0, r2
 717 040c 1946     		mov	r1, r3
 718 040e FFF7FEFF 		bl	UARTPutChar
 302:../src/lib/lpc177x_8x/Drivers/source/debug_frmwrk.c ****     UARTPutChar(UartID, '0'+c1);
 719              		.loc 1 302 0
 720 0412 FB7B     		ldrb	r3, [r7, #15]
 721 0414 03F13003 		add	r3, r3, #48
 722 0418 DBB2     		uxtb	r3, r3
 723 041a FA79     		ldrb	r2, [r7, #7]	@ zero_extendqisi2
 724 041c 1046     		mov	r0, r2
 725 041e 1946     		mov	r1, r3
 726 0420 FFF7FEFF 		bl	UARTPutChar
 303:../src/lib/lpc177x_8x/Drivers/source/debug_frmwrk.c **** }
 727              		.loc 1 303 0
 728 0424 07F11007 		add	r7, r7, #16
 729 0428 BD46     		mov	sp, r7
 730 042a 80BD     		pop	{r7, pc}
 731              	.L48:
 732              		.align	2
 733              	.L47:
 734 042c CDCCCCCC 		.word	-858993459
 735 0430 1F85EB51 		.word	1374389535
 736              		.cfi_endproc
 737              	.LFE61:
 739              		.align	2
 740              		.global	UARTPutDec16
 741              		.thumb
 742              		.thumb_func
 744              	UARTPutDec16:
 745              	.LFB62:
 304:../src/lib/lpc177x_8x/Drivers/source/debug_frmwrk.c **** 
 305:../src/lib/lpc177x_8x/Drivers/source/debug_frmwrk.c **** /*********************************************************************//**
 306:../src/lib/lpc177x_8x/Drivers/source/debug_frmwrk.c ****  * @brief       Puts a decimal number to UART port
 307:../src/lib/lpc177x_8x/Drivers/source/debug_frmwrk.c ****  * @param[in]   UARTx   Pointer to UART peripheral
 308:../src/lib/lpc177x_8x/Drivers/source/debug_frmwrk.c ****  * @param[in]   decnum  Decimal number (8-bit long)
 309:../src/lib/lpc177x_8x/Drivers/source/debug_frmwrk.c ****  * @return      None
 310:../src/lib/lpc177x_8x/Drivers/source/debug_frmwrk.c ****  **********************************************************************/
 311:../src/lib/lpc177x_8x/Drivers/source/debug_frmwrk.c **** void UARTPutDec16(UART_ID_Type UartID, uint16_t decnum)
 312:../src/lib/lpc177x_8x/Drivers/source/debug_frmwrk.c **** {
 746              		.loc 1 312 0
 747              		.cfi_startproc
 748              		@ args = 0, pretend = 0, frame = 16
 749              		@ frame_needed = 1, uses_anonymous_args = 0
 750 0434 80B5     		push	{r7, lr}
 751              	.LCFI21:
 752              		.cfi_def_cfa_offset 8
 753              		.cfi_offset 7, -8
 754              		.cfi_offset 14, -4
 755 0436 84B0     		sub	sp, sp, #16
 756              	.LCFI22:
 757              		.cfi_def_cfa_offset 24
 758 0438 00AF     		add	r7, sp, #0
 759              	.LCFI23:
 760              		.cfi_def_cfa_register 7
 761 043a 0246     		mov	r2, r0
 762 043c 0B46     		mov	r3, r1
 763 043e FA71     		strb	r2, [r7, #7]
 764 0440 BB80     		strh	r3, [r7, #4]	@ movhi
 313:../src/lib/lpc177x_8x/Drivers/source/debug_frmwrk.c ****     uint8_t c1=decnum%10;
 765              		.loc 1 313 0
 766 0442 BA88     		ldrh	r2, [r7, #4]
 767 0444 494B     		ldr	r3, .L50
 768 0446 A3FB0213 		umull	r1, r3, r3, r2
 769 044a 4FEAD301 		lsr	r1, r3, #3
 770 044e 0B46     		mov	r3, r1
 771 0450 4FEA8303 		lsl	r3, r3, #2
 772 0454 5B18     		adds	r3, r3, r1
 773 0456 4FEA4303 		lsl	r3, r3, #1
 774 045a D31A     		subs	r3, r2, r3
 775 045c 9BB2     		uxth	r3, r3
 776 045e FB73     		strb	r3, [r7, #15]
 314:../src/lib/lpc177x_8x/Drivers/source/debug_frmwrk.c ****     uint8_t c2=(decnum/10)%10;
 777              		.loc 1 314 0
 778 0460 BA88     		ldrh	r2, [r7, #4]
 779 0462 424B     		ldr	r3, .L50
 780 0464 A3FB0213 		umull	r1, r3, r3, r2
 781 0468 4FEAD303 		lsr	r3, r3, #3
 782 046c 9AB2     		uxth	r2, r3
 783 046e 3F4B     		ldr	r3, .L50
 784 0470 A3FB0213 		umull	r1, r3, r3, r2
 785 0474 4FEAD301 		lsr	r1, r3, #3
 786 0478 0B46     		mov	r3, r1
 787 047a 4FEA8303 		lsl	r3, r3, #2
 788 047e 5B18     		adds	r3, r3, r1
 789 0480 4FEA4303 		lsl	r3, r3, #1
 790 0484 D31A     		subs	r3, r2, r3
 791 0486 9BB2     		uxth	r3, r3
 792 0488 BB73     		strb	r3, [r7, #14]
 315:../src/lib/lpc177x_8x/Drivers/source/debug_frmwrk.c ****     uint8_t c3=(decnum/100)%10;
 793              		.loc 1 315 0
 794 048a BA88     		ldrh	r2, [r7, #4]
 795 048c 384B     		ldr	r3, .L50+4
 796 048e A3FB0213 		umull	r1, r3, r3, r2
 797 0492 4FEA5313 		lsr	r3, r3, #5
 798 0496 9AB2     		uxth	r2, r3
 799 0498 344B     		ldr	r3, .L50
 800 049a A3FB0213 		umull	r1, r3, r3, r2
 801 049e 4FEAD301 		lsr	r1, r3, #3
 802 04a2 0B46     		mov	r3, r1
 803 04a4 4FEA8303 		lsl	r3, r3, #2
 804 04a8 5B18     		adds	r3, r3, r1
 805 04aa 4FEA4303 		lsl	r3, r3, #1
 806 04ae D31A     		subs	r3, r2, r3
 807 04b0 9BB2     		uxth	r3, r3
 808 04b2 7B73     		strb	r3, [r7, #13]
 316:../src/lib/lpc177x_8x/Drivers/source/debug_frmwrk.c ****     uint8_t c4=(decnum/1000)%10;
 809              		.loc 1 316 0
 810 04b4 BA88     		ldrh	r2, [r7, #4]
 811 04b6 2F4B     		ldr	r3, .L50+8
 812 04b8 A3FB0213 		umull	r1, r3, r3, r2
 813 04bc 4FEA9313 		lsr	r3, r3, #6
 814 04c0 9AB2     		uxth	r2, r3
 815 04c2 2A4B     		ldr	r3, .L50
 816 04c4 A3FB0213 		umull	r1, r3, r3, r2
 817 04c8 4FEAD301 		lsr	r1, r3, #3
 818 04cc 0B46     		mov	r3, r1
 819 04ce 4FEA8303 		lsl	r3, r3, #2
 820 04d2 5B18     		adds	r3, r3, r1
 821 04d4 4FEA4303 		lsl	r3, r3, #1
 822 04d8 D31A     		subs	r3, r2, r3
 823 04da 9BB2     		uxth	r3, r3
 824 04dc 3B73     		strb	r3, [r7, #12]
 317:../src/lib/lpc177x_8x/Drivers/source/debug_frmwrk.c ****     uint8_t c5=(decnum/10000)%10;
 825              		.loc 1 317 0
 826 04de BA88     		ldrh	r2, [r7, #4]
 827 04e0 254B     		ldr	r3, .L50+12
 828 04e2 A3FB0213 		umull	r1, r3, r3, r2
 829 04e6 4FEA5333 		lsr	r3, r3, #13
 830 04ea 9AB2     		uxth	r2, r3
 831 04ec 1F4B     		ldr	r3, .L50
 832 04ee A3FB0213 		umull	r1, r3, r3, r2
 833 04f2 4FEAD301 		lsr	r1, r3, #3
 834 04f6 0B46     		mov	r3, r1
 835 04f8 4FEA8303 		lsl	r3, r3, #2
 836 04fc 5B18     		adds	r3, r3, r1
 837 04fe 4FEA4303 		lsl	r3, r3, #1
 838 0502 D31A     		subs	r3, r2, r3
 839 0504 9BB2     		uxth	r3, r3
 840 0506 FB72     		strb	r3, [r7, #11]
 318:../src/lib/lpc177x_8x/Drivers/source/debug_frmwrk.c ****     UARTPutChar(UartID, '0'+c5);
 841              		.loc 1 318 0
 842 0508 FB7A     		ldrb	r3, [r7, #11]
 843 050a 03F13003 		add	r3, r3, #48
 844 050e DBB2     		uxtb	r3, r3
 845 0510 FA79     		ldrb	r2, [r7, #7]	@ zero_extendqisi2
 846 0512 1046     		mov	r0, r2
 847 0514 1946     		mov	r1, r3
 848 0516 FFF7FEFF 		bl	UARTPutChar
 319:../src/lib/lpc177x_8x/Drivers/source/debug_frmwrk.c ****     UARTPutChar(UartID, '0'+c4);
 849              		.loc 1 319 0
 850 051a 3B7B     		ldrb	r3, [r7, #12]
 851 051c 03F13003 		add	r3, r3, #48
 852 0520 DBB2     		uxtb	r3, r3
 853 0522 FA79     		ldrb	r2, [r7, #7]	@ zero_extendqisi2
 854 0524 1046     		mov	r0, r2
 855 0526 1946     		mov	r1, r3
 856 0528 FFF7FEFF 		bl	UARTPutChar
 320:../src/lib/lpc177x_8x/Drivers/source/debug_frmwrk.c ****     UARTPutChar(UartID, '0'+c3);
 857              		.loc 1 320 0
 858 052c 7B7B     		ldrb	r3, [r7, #13]
 859 052e 03F13003 		add	r3, r3, #48
 860 0532 DBB2     		uxtb	r3, r3
 861 0534 FA79     		ldrb	r2, [r7, #7]	@ zero_extendqisi2
 862 0536 1046     		mov	r0, r2
 863 0538 1946     		mov	r1, r3
 864 053a FFF7FEFF 		bl	UARTPutChar
 321:../src/lib/lpc177x_8x/Drivers/source/debug_frmwrk.c ****     UARTPutChar(UartID, '0'+c2);
 865              		.loc 1 321 0
 866 053e BB7B     		ldrb	r3, [r7, #14]
 867 0540 03F13003 		add	r3, r3, #48
 868 0544 DBB2     		uxtb	r3, r3
 869 0546 FA79     		ldrb	r2, [r7, #7]	@ zero_extendqisi2
 870 0548 1046     		mov	r0, r2
 871 054a 1946     		mov	r1, r3
 872 054c FFF7FEFF 		bl	UARTPutChar
 322:../src/lib/lpc177x_8x/Drivers/source/debug_frmwrk.c ****     UARTPutChar(UartID, '0'+c1);
 873              		.loc 1 322 0
 874 0550 FB7B     		ldrb	r3, [r7, #15]
 875 0552 03F13003 		add	r3, r3, #48
 876 0556 DBB2     		uxtb	r3, r3
 877 0558 FA79     		ldrb	r2, [r7, #7]	@ zero_extendqisi2
 878 055a 1046     		mov	r0, r2
 879 055c 1946     		mov	r1, r3
 880 055e FFF7FEFF 		bl	UARTPutChar
 323:../src/lib/lpc177x_8x/Drivers/source/debug_frmwrk.c **** }
 881              		.loc 1 323 0
 882 0562 07F11007 		add	r7, r7, #16
 883 0566 BD46     		mov	sp, r7
 884 0568 80BD     		pop	{r7, pc}
 885              	.L51:
 886 056a 00BF     		.align	2
 887              	.L50:
 888 056c CDCCCCCC 		.word	-858993459
 889 0570 1F85EB51 		.word	1374389535
 890 0574 D34D6210 		.word	274877907
 891 0578 5917B7D1 		.word	-776530087
 892              		.cfi_endproc
 893              	.LFE62:
 895              		.align	2
 896              		.global	UARTPutDec32
 897              		.thumb
 898              		.thumb_func
 900              	UARTPutDec32:
 901              	.LFB63:
 324:../src/lib/lpc177x_8x/Drivers/source/debug_frmwrk.c **** 
 325:../src/lib/lpc177x_8x/Drivers/source/debug_frmwrk.c **** /*********************************************************************//**
 326:../src/lib/lpc177x_8x/Drivers/source/debug_frmwrk.c ****  * @brief       Puts a decimal number to UART port
 327:../src/lib/lpc177x_8x/Drivers/source/debug_frmwrk.c ****  * @param[in]   UARTx   Pointer to UART peripheral
 328:../src/lib/lpc177x_8x/Drivers/source/debug_frmwrk.c ****  * @param[in]   decnum  Decimal number (8-bit long)
 329:../src/lib/lpc177x_8x/Drivers/source/debug_frmwrk.c ****  * @return      None
 330:../src/lib/lpc177x_8x/Drivers/source/debug_frmwrk.c ****  **********************************************************************/
 331:../src/lib/lpc177x_8x/Drivers/source/debug_frmwrk.c **** void UARTPutDec32(UART_ID_Type UartID, uint32_t decnum)
 332:../src/lib/lpc177x_8x/Drivers/source/debug_frmwrk.c **** {
 902              		.loc 1 332 0
 903              		.cfi_startproc
 904              		@ args = 0, pretend = 0, frame = 24
 905              		@ frame_needed = 1, uses_anonymous_args = 0
 906 057c 80B5     		push	{r7, lr}
 907              	.LCFI24:
 908              		.cfi_def_cfa_offset 8
 909              		.cfi_offset 7, -8
 910              		.cfi_offset 14, -4
 911 057e 86B0     		sub	sp, sp, #24
 912              	.LCFI25:
 913              		.cfi_def_cfa_offset 32
 914 0580 00AF     		add	r7, sp, #0
 915              	.LCFI26:
 916              		.cfi_def_cfa_register 7
 917 0582 0346     		mov	r3, r0
 918 0584 3960     		str	r1, [r7, #0]
 919 0586 FB71     		strb	r3, [r7, #7]
 333:../src/lib/lpc177x_8x/Drivers/source/debug_frmwrk.c ****     uint8_t c1=decnum%10;
 920              		.loc 1 333 0
 921 0588 3968     		ldr	r1, [r7, #0]
 922 058a 924B     		ldr	r3, .L53
 923 058c A3FB0123 		umull	r2, r3, r3, r1
 924 0590 4FEAD302 		lsr	r2, r3, #3
 925 0594 1346     		mov	r3, r2
 926 0596 4FEA8303 		lsl	r3, r3, #2
 927 059a 9B18     		adds	r3, r3, r2
 928 059c 4FEA4303 		lsl	r3, r3, #1
 929 05a0 CA1A     		subs	r2, r1, r3
 930 05a2 1346     		mov	r3, r2
 931 05a4 FB75     		strb	r3, [r7, #23]
 334:../src/lib/lpc177x_8x/Drivers/source/debug_frmwrk.c ****     uint8_t c2=(decnum/10)%10;
 932              		.loc 1 334 0
 933 05a6 3A68     		ldr	r2, [r7, #0]
 934 05a8 8A4B     		ldr	r3, .L53
 935 05aa A3FB0213 		umull	r1, r3, r3, r2
 936 05ae 4FEAD301 		lsr	r1, r3, #3
 937 05b2 884B     		ldr	r3, .L53
 938 05b4 A3FB0123 		umull	r2, r3, r3, r1
 939 05b8 4FEAD302 		lsr	r2, r3, #3
 940 05bc 1346     		mov	r3, r2
 941 05be 4FEA8303 		lsl	r3, r3, #2
 942 05c2 9B18     		adds	r3, r3, r2
 943 05c4 4FEA4303 		lsl	r3, r3, #1
 944 05c8 CA1A     		subs	r2, r1, r3
 945 05ca 1346     		mov	r3, r2
 946 05cc BB75     		strb	r3, [r7, #22]
 335:../src/lib/lpc177x_8x/Drivers/source/debug_frmwrk.c ****     uint8_t c3=(decnum/100)%10;
 947              		.loc 1 335 0
 948 05ce 3A68     		ldr	r2, [r7, #0]
 949 05d0 814B     		ldr	r3, .L53+4
 950 05d2 A3FB0213 		umull	r1, r3, r3, r2
 951 05d6 4FEA5311 		lsr	r1, r3, #5
 952 05da 7E4B     		ldr	r3, .L53
 953 05dc A3FB0123 		umull	r2, r3, r3, r1
 954 05e0 4FEAD302 		lsr	r2, r3, #3
 955 05e4 1346     		mov	r3, r2
 956 05e6 4FEA8303 		lsl	r3, r3, #2
 957 05ea 9B18     		adds	r3, r3, r2
 958 05ec 4FEA4303 		lsl	r3, r3, #1
 959 05f0 CA1A     		subs	r2, r1, r3
 960 05f2 1346     		mov	r3, r2
 961 05f4 7B75     		strb	r3, [r7, #21]
 336:../src/lib/lpc177x_8x/Drivers/source/debug_frmwrk.c ****     uint8_t c4=(decnum/1000)%10;
 962              		.loc 1 336 0
 963 05f6 3A68     		ldr	r2, [r7, #0]
 964 05f8 784B     		ldr	r3, .L53+8
 965 05fa A3FB0213 		umull	r1, r3, r3, r2
 966 05fe 4FEA9311 		lsr	r1, r3, #6
 967 0602 744B     		ldr	r3, .L53
 968 0604 A3FB0123 		umull	r2, r3, r3, r1
 969 0608 4FEAD302 		lsr	r2, r3, #3
 970 060c 1346     		mov	r3, r2
 971 060e 4FEA8303 		lsl	r3, r3, #2
 972 0612 9B18     		adds	r3, r3, r2
 973 0614 4FEA4303 		lsl	r3, r3, #1
 974 0618 CA1A     		subs	r2, r1, r3
 975 061a 1346     		mov	r3, r2
 976 061c 3B75     		strb	r3, [r7, #20]
 337:../src/lib/lpc177x_8x/Drivers/source/debug_frmwrk.c ****     uint8_t c5=(decnum/10000)%10;
 977              		.loc 1 337 0
 978 061e 3A68     		ldr	r2, [r7, #0]
 979 0620 6F4B     		ldr	r3, .L53+12
 980 0622 A3FB0213 		umull	r1, r3, r3, r2
 981 0626 4FEA5331 		lsr	r1, r3, #13
 982 062a 6A4B     		ldr	r3, .L53
 983 062c A3FB0123 		umull	r2, r3, r3, r1
 984 0630 4FEAD302 		lsr	r2, r3, #3
 985 0634 1346     		mov	r3, r2
 986 0636 4FEA8303 		lsl	r3, r3, #2
 987 063a 9B18     		adds	r3, r3, r2
 988 063c 4FEA4303 		lsl	r3, r3, #1
 989 0640 CA1A     		subs	r2, r1, r3
 990 0642 1346     		mov	r3, r2
 991 0644 FB74     		strb	r3, [r7, #19]
 338:../src/lib/lpc177x_8x/Drivers/source/debug_frmwrk.c ****     uint8_t c6=(decnum/100000)%10;
 992              		.loc 1 338 0
 993 0646 3B68     		ldr	r3, [r7, #0]
 994 0648 4FEA5312 		lsr	r2, r3, #5
 995 064c 654B     		ldr	r3, .L53+16
 996 064e A3FB0213 		umull	r1, r3, r3, r2
 997 0652 4FEAD311 		lsr	r1, r3, #7
 998 0656 5F4B     		ldr	r3, .L53
 999 0658 A3FB0123 		umull	r2, r3, r3, r1
 1000 065c 4FEAD302 		lsr	r2, r3, #3
 1001 0660 1346     		mov	r3, r2
 1002 0662 4FEA8303 		lsl	r3, r3, #2
 1003 0666 9B18     		adds	r3, r3, r2
 1004 0668 4FEA4303 		lsl	r3, r3, #1
 1005 066c CA1A     		subs	r2, r1, r3
 1006 066e 1346     		mov	r3, r2
 1007 0670 BB74     		strb	r3, [r7, #18]
 339:../src/lib/lpc177x_8x/Drivers/source/debug_frmwrk.c ****     uint8_t c7=(decnum/1000000)%10;
 1008              		.loc 1 339 0
 1009 0672 3A68     		ldr	r2, [r7, #0]
 1010 0674 5C4B     		ldr	r3, .L53+20
 1011 0676 A3FB0213 		umull	r1, r3, r3, r2
 1012 067a 4FEA9341 		lsr	r1, r3, #18
 1013 067e 554B     		ldr	r3, .L53
 1014 0680 A3FB0123 		umull	r2, r3, r3, r1
 1015 0684 4FEAD302 		lsr	r2, r3, #3
 1016 0688 1346     		mov	r3, r2
 1017 068a 4FEA8303 		lsl	r3, r3, #2
 1018 068e 9B18     		adds	r3, r3, r2
 1019 0690 4FEA4303 		lsl	r3, r3, #1
 1020 0694 CA1A     		subs	r2, r1, r3
 1021 0696 1346     		mov	r3, r2
 1022 0698 7B74     		strb	r3, [r7, #17]
 340:../src/lib/lpc177x_8x/Drivers/source/debug_frmwrk.c ****     uint8_t c8=(decnum/10000000)%10;
 1023              		.loc 1 340 0
 1024 069a 3A68     		ldr	r2, [r7, #0]
 1025 069c 534B     		ldr	r3, .L53+24
 1026 069e A3FB0213 		umull	r1, r3, r3, r2
 1027 06a2 4FEA9351 		lsr	r1, r3, #22
 1028 06a6 4B4B     		ldr	r3, .L53
 1029 06a8 A3FB0123 		umull	r2, r3, r3, r1
 1030 06ac 4FEAD302 		lsr	r2, r3, #3
 1031 06b0 1346     		mov	r3, r2
 1032 06b2 4FEA8303 		lsl	r3, r3, #2
 1033 06b6 9B18     		adds	r3, r3, r2
 1034 06b8 4FEA4303 		lsl	r3, r3, #1
 1035 06bc CA1A     		subs	r2, r1, r3
 1036 06be 1346     		mov	r3, r2
 1037 06c0 3B74     		strb	r3, [r7, #16]
 341:../src/lib/lpc177x_8x/Drivers/source/debug_frmwrk.c ****     uint8_t c9=(decnum/100000000)%10;
 1038              		.loc 1 341 0
 1039 06c2 3A68     		ldr	r2, [r7, #0]
 1040 06c4 4A4B     		ldr	r3, .L53+28
 1041 06c6 A3FB0213 		umull	r1, r3, r3, r2
 1042 06ca 4FEA5361 		lsr	r1, r3, #25
 1043 06ce 414B     		ldr	r3, .L53
 1044 06d0 A3FB0123 		umull	r2, r3, r3, r1
 1045 06d4 4FEAD302 		lsr	r2, r3, #3
 1046 06d8 1346     		mov	r3, r2
 1047 06da 4FEA8303 		lsl	r3, r3, #2
 1048 06de 9B18     		adds	r3, r3, r2
 1049 06e0 4FEA4303 		lsl	r3, r3, #1
 1050 06e4 CA1A     		subs	r2, r1, r3
 1051 06e6 1346     		mov	r3, r2
 1052 06e8 FB73     		strb	r3, [r7, #15]
 342:../src/lib/lpc177x_8x/Drivers/source/debug_frmwrk.c ****     uint8_t c10=(decnum/1000000000)%10;
 1053              		.loc 1 342 0
 1054 06ea 3B68     		ldr	r3, [r7, #0]
 1055 06ec 4FEA5322 		lsr	r2, r3, #9
 1056 06f0 404B     		ldr	r3, .L53+32
 1057 06f2 A3FB0213 		umull	r1, r3, r3, r2
 1058 06f6 4FEAD311 		lsr	r1, r3, #7
 1059 06fa 364B     		ldr	r3, .L53
 1060 06fc A3FB0123 		umull	r2, r3, r3, r1
 1061 0700 4FEAD302 		lsr	r2, r3, #3
 1062 0704 1346     		mov	r3, r2
 1063 0706 4FEA8303 		lsl	r3, r3, #2
 1064 070a 9B18     		adds	r3, r3, r2
 1065 070c 4FEA4303 		lsl	r3, r3, #1
 1066 0710 CA1A     		subs	r2, r1, r3
 1067 0712 1346     		mov	r3, r2
 1068 0714 BB73     		strb	r3, [r7, #14]
 343:../src/lib/lpc177x_8x/Drivers/source/debug_frmwrk.c ****     UARTPutChar(UartID, '0'+c10);
 1069              		.loc 1 343 0
 1070 0716 BB7B     		ldrb	r3, [r7, #14]
 1071 0718 03F13003 		add	r3, r3, #48
 1072 071c DBB2     		uxtb	r3, r3
 1073 071e FA79     		ldrb	r2, [r7, #7]	@ zero_extendqisi2
 1074 0720 1046     		mov	r0, r2
 1075 0722 1946     		mov	r1, r3
 1076 0724 FFF7FEFF 		bl	UARTPutChar
 344:../src/lib/lpc177x_8x/Drivers/source/debug_frmwrk.c ****     UARTPutChar(UartID, '0'+c9);
 1077              		.loc 1 344 0
 1078 0728 FB7B     		ldrb	r3, [r7, #15]
 1079 072a 03F13003 		add	r3, r3, #48
 1080 072e DBB2     		uxtb	r3, r3
 1081 0730 FA79     		ldrb	r2, [r7, #7]	@ zero_extendqisi2
 1082 0732 1046     		mov	r0, r2
 1083 0734 1946     		mov	r1, r3
 1084 0736 FFF7FEFF 		bl	UARTPutChar
 345:../src/lib/lpc177x_8x/Drivers/source/debug_frmwrk.c ****     UARTPutChar(UartID, '0'+c8);
 1085              		.loc 1 345 0
 1086 073a 3B7C     		ldrb	r3, [r7, #16]
 1087 073c 03F13003 		add	r3, r3, #48
 1088 0740 DBB2     		uxtb	r3, r3
 1089 0742 FA79     		ldrb	r2, [r7, #7]	@ zero_extendqisi2
 1090 0744 1046     		mov	r0, r2
 1091 0746 1946     		mov	r1, r3
 1092 0748 FFF7FEFF 		bl	UARTPutChar
 346:../src/lib/lpc177x_8x/Drivers/source/debug_frmwrk.c ****     UARTPutChar(UartID, '0'+c7);
 1093              		.loc 1 346 0
 1094 074c 7B7C     		ldrb	r3, [r7, #17]
 1095 074e 03F13003 		add	r3, r3, #48
 1096 0752 DBB2     		uxtb	r3, r3
 1097 0754 FA79     		ldrb	r2, [r7, #7]	@ zero_extendqisi2
 1098 0756 1046     		mov	r0, r2
 1099 0758 1946     		mov	r1, r3
 1100 075a FFF7FEFF 		bl	UARTPutChar
 347:../src/lib/lpc177x_8x/Drivers/source/debug_frmwrk.c ****     UARTPutChar(UartID, '0'+c6);
 1101              		.loc 1 347 0
 1102 075e BB7C     		ldrb	r3, [r7, #18]
 1103 0760 03F13003 		add	r3, r3, #48
 1104 0764 DBB2     		uxtb	r3, r3
 1105 0766 FA79     		ldrb	r2, [r7, #7]	@ zero_extendqisi2
 1106 0768 1046     		mov	r0, r2
 1107 076a 1946     		mov	r1, r3
 1108 076c FFF7FEFF 		bl	UARTPutChar
 348:../src/lib/lpc177x_8x/Drivers/source/debug_frmwrk.c ****     UARTPutChar(UartID, '0'+c5);
 1109              		.loc 1 348 0
 1110 0770 FB7C     		ldrb	r3, [r7, #19]
 1111 0772 03F13003 		add	r3, r3, #48
 1112 0776 DBB2     		uxtb	r3, r3
 1113 0778 FA79     		ldrb	r2, [r7, #7]	@ zero_extendqisi2
 1114 077a 1046     		mov	r0, r2
 1115 077c 1946     		mov	r1, r3
 1116 077e FFF7FEFF 		bl	UARTPutChar
 349:../src/lib/lpc177x_8x/Drivers/source/debug_frmwrk.c ****     UARTPutChar(UartID, '0'+c4);
 1117              		.loc 1 349 0
 1118 0782 3B7D     		ldrb	r3, [r7, #20]
 1119 0784 03F13003 		add	r3, r3, #48
 1120 0788 DBB2     		uxtb	r3, r3
 1121 078a FA79     		ldrb	r2, [r7, #7]	@ zero_extendqisi2
 1122 078c 1046     		mov	r0, r2
 1123 078e 1946     		mov	r1, r3
 1124 0790 FFF7FEFF 		bl	UARTPutChar
 350:../src/lib/lpc177x_8x/Drivers/source/debug_frmwrk.c ****     UARTPutChar(UartID, '0'+c3);
 1125              		.loc 1 350 0
 1126 0794 7B7D     		ldrb	r3, [r7, #21]
 1127 0796 03F13003 		add	r3, r3, #48
 1128 079a DBB2     		uxtb	r3, r3
 1129 079c FA79     		ldrb	r2, [r7, #7]	@ zero_extendqisi2
 1130 079e 1046     		mov	r0, r2
 1131 07a0 1946     		mov	r1, r3
 1132 07a2 FFF7FEFF 		bl	UARTPutChar
 351:../src/lib/lpc177x_8x/Drivers/source/debug_frmwrk.c ****     UARTPutChar(UartID, '0'+c2);
 1133              		.loc 1 351 0
 1134 07a6 BB7D     		ldrb	r3, [r7, #22]
 1135 07a8 03F13003 		add	r3, r3, #48
 1136 07ac DBB2     		uxtb	r3, r3
 1137 07ae FA79     		ldrb	r2, [r7, #7]	@ zero_extendqisi2
 1138 07b0 1046     		mov	r0, r2
 1139 07b2 1946     		mov	r1, r3
 1140 07b4 FFF7FEFF 		bl	UARTPutChar
 352:../src/lib/lpc177x_8x/Drivers/source/debug_frmwrk.c ****     UARTPutChar(UartID, '0'+c1);
 1141              		.loc 1 352 0
 1142 07b8 FB7D     		ldrb	r3, [r7, #23]
 1143 07ba 03F13003 		add	r3, r3, #48
 1144 07be DBB2     		uxtb	r3, r3
 1145 07c0 FA79     		ldrb	r2, [r7, #7]	@ zero_extendqisi2
 1146 07c2 1046     		mov	r0, r2
 1147 07c4 1946     		mov	r1, r3
 1148 07c6 FFF7FEFF 		bl	UARTPutChar
 353:../src/lib/lpc177x_8x/Drivers/source/debug_frmwrk.c **** }
 1149              		.loc 1 353 0
 1150 07ca 07F11807 		add	r7, r7, #24
 1151 07ce BD46     		mov	sp, r7
 1152 07d0 80BD     		pop	{r7, pc}
 1153              	.L54:
 1154 07d2 00BF     		.align	2
 1155              	.L53:
 1156 07d4 CDCCCCCC 		.word	-858993459
 1157 07d8 1F85EB51 		.word	1374389535
 1158 07dc D34D6210 		.word	274877907
 1159 07e0 5917B7D1 		.word	-776530087
 1160 07e4 C55A7C0A 		.word	175921861
 1161 07e8 83DE1B43 		.word	1125899907
 1162 07ec 6BCA5F6B 		.word	1801439851
 1163 07f0 893BE655 		.word	1441151881
 1164 07f4 834B0400 		.word	281475
 1165              		.cfi_endproc
 1166              	.LFE63:
 1168              		.align	2
 1169              		.global	UARTPutHex_
 1170              		.thumb
 1171              		.thumb_func
 1173              	UARTPutHex_:
 1174              	.LFB64:
 354:../src/lib/lpc177x_8x/Drivers/source/debug_frmwrk.c **** 
 355:../src/lib/lpc177x_8x/Drivers/source/debug_frmwrk.c **** /*********************************************************************//**
 356:../src/lib/lpc177x_8x/Drivers/source/debug_frmwrk.c ****  * @brief       Puts a hex number to UART port
 357:../src/lib/lpc177x_8x/Drivers/source/debug_frmwrk.c ****  * @param[in]   UARTx   Pointer to UART peripheral
 358:../src/lib/lpc177x_8x/Drivers/source/debug_frmwrk.c ****  * @param[in]   hexnum  Hex number (8-bit long)
 359:../src/lib/lpc177x_8x/Drivers/source/debug_frmwrk.c ****  * @return      None
 360:../src/lib/lpc177x_8x/Drivers/source/debug_frmwrk.c ****  **********************************************************************/
 361:../src/lib/lpc177x_8x/Drivers/source/debug_frmwrk.c **** void UARTPutHex_ (UART_ID_Type UartID, uint8_t hexnum)
 362:../src/lib/lpc177x_8x/Drivers/source/debug_frmwrk.c **** {
 1175              		.loc 1 362 0
 1176              		.cfi_startproc
 1177              		@ args = 0, pretend = 0, frame = 16
 1178              		@ frame_needed = 1, uses_anonymous_args = 0
 1179 07f8 80B5     		push	{r7, lr}
 1180              	.LCFI27:
 1181              		.cfi_def_cfa_offset 8
 1182              		.cfi_offset 7, -8
 1183              		.cfi_offset 14, -4
 1184 07fa 84B0     		sub	sp, sp, #16
 1185              	.LCFI28:
 1186              		.cfi_def_cfa_offset 24
 1187 07fc 00AF     		add	r7, sp, #0
 1188              	.LCFI29:
 1189              		.cfi_def_cfa_register 7
 1190 07fe 0246     		mov	r2, r0
 1191 0800 0B46     		mov	r3, r1
 1192 0802 FA71     		strb	r2, [r7, #7]
 1193 0804 BB71     		strb	r3, [r7, #6]
 363:../src/lib/lpc177x_8x/Drivers/source/debug_frmwrk.c ****     uint8_t nibble, i;
 364:../src/lib/lpc177x_8x/Drivers/source/debug_frmwrk.c **** 
 365:../src/lib/lpc177x_8x/Drivers/source/debug_frmwrk.c ****     i = 1;
 1194              		.loc 1 365 0
 1195 0806 4FF00103 		mov	r3, #1
 1196 080a FB73     		strb	r3, [r7, #15]
 1197              	.L58:
 366:../src/lib/lpc177x_8x/Drivers/source/debug_frmwrk.c ****     do
 367:../src/lib/lpc177x_8x/Drivers/source/debug_frmwrk.c ****     {
 368:../src/lib/lpc177x_8x/Drivers/source/debug_frmwrk.c ****         nibble = (hexnum >> (4*i)) & 0x0F;
 1198              		.loc 1 368 0
 1199 080c BA79     		ldrb	r2, [r7, #6]	@ zero_extendqisi2
 1200 080e FB7B     		ldrb	r3, [r7, #15]	@ zero_extendqisi2
 1201 0810 4FEA8303 		lsl	r3, r3, #2
 1202 0814 42FA03F3 		asr	r3, r2, r3
 1203 0818 DBB2     		uxtb	r3, r3
 1204 081a 03F00F03 		and	r3, r3, #15
 1205 081e BB73     		strb	r3, [r7, #14]
 369:../src/lib/lpc177x_8x/Drivers/source/debug_frmwrk.c **** 
 370:../src/lib/lpc177x_8x/Drivers/source/debug_frmwrk.c ****         UARTPutChar(UartID, (nibble > 9) ? ('A' + nibble - 10) : ('0' + nibble));
 1206              		.loc 1 370 0
 1207 0820 BB7B     		ldrb	r3, [r7, #14]	@ zero_extendqisi2
 1208 0822 092B     		cmp	r3, #9
 1209 0824 04D9     		bls	.L56
 1210              		.loc 1 370 0 is_stmt 0 discriminator 1
 1211 0826 BB7B     		ldrb	r3, [r7, #14]
 1212 0828 03F13703 		add	r3, r3, #55
 1213 082c DBB2     		uxtb	r3, r3
 1214 082e 03E0     		b	.L57
 1215              	.L56:
 1216              		.loc 1 370 0 discriminator 2
 1217 0830 BB7B     		ldrb	r3, [r7, #14]
 1218 0832 03F13003 		add	r3, r3, #48
 1219 0836 DBB2     		uxtb	r3, r3
 1220              	.L57:
 1221              		.loc 1 370 0 discriminator 3
 1222 0838 FA79     		ldrb	r2, [r7, #7]	@ zero_extendqisi2
 1223 083a 1046     		mov	r0, r2
 1224 083c 1946     		mov	r1, r3
 1225 083e FFF7FEFF 		bl	UARTPutChar
 371:../src/lib/lpc177x_8x/Drivers/source/debug_frmwrk.c ****     }
 372:../src/lib/lpc177x_8x/Drivers/source/debug_frmwrk.c ****     while (i--);
 1226              		.loc 1 372 0 is_stmt 1 discriminator 3
 1227 0842 FB7B     		ldrb	r3, [r7, #15]	@ zero_extendqisi2
 1228 0844 002B     		cmp	r3, #0
 1229 0846 0CBF     		ite	eq
 1230 0848 0023     		moveq	r3, #0
 1231 084a 0123     		movne	r3, #1
 1232 084c DBB2     		uxtb	r3, r3
 1233 084e FA7B     		ldrb	r2, [r7, #15]
 1234 0850 02F1FF32 		add	r2, r2, #-1
 1235 0854 FA73     		strb	r2, [r7, #15]
 1236 0856 002B     		cmp	r3, #0
 1237 0858 D8D1     		bne	.L58
 373:../src/lib/lpc177x_8x/Drivers/source/debug_frmwrk.c **** }
 1238              		.loc 1 373 0
 1239 085a 07F11007 		add	r7, r7, #16
 1240 085e BD46     		mov	sp, r7
 1241 0860 80BD     		pop	{r7, pc}
 1242              		.cfi_endproc
 1243              	.LFE64:
 1245              		.section	.rodata
 1246 00bb 00       		.align	2
 1247              	.LC4:
 1248 00bc 307800   		.ascii	"0x\000"
 1249 00bf 00       		.text
 1250 0862 00BF     		.align	2
 1251              		.global	UARTPutHex
 1252              		.thumb
 1253              		.thumb_func
 1255              	UARTPutHex:
 1256              	.LFB65:
 374:../src/lib/lpc177x_8x/Drivers/source/debug_frmwrk.c **** 
 375:../src/lib/lpc177x_8x/Drivers/source/debug_frmwrk.c **** 
 376:../src/lib/lpc177x_8x/Drivers/source/debug_frmwrk.c **** /*********************************************************************//**
 377:../src/lib/lpc177x_8x/Drivers/source/debug_frmwrk.c ****  * @brief       Puts a hex number to UART port
 378:../src/lib/lpc177x_8x/Drivers/source/debug_frmwrk.c ****  * @param[in]   UARTx   Pointer to UART peripheral
 379:../src/lib/lpc177x_8x/Drivers/source/debug_frmwrk.c ****  * @param[in]   hexnum  Hex number (8-bit long)
 380:../src/lib/lpc177x_8x/Drivers/source/debug_frmwrk.c ****  * @return      None
 381:../src/lib/lpc177x_8x/Drivers/source/debug_frmwrk.c ****  **********************************************************************/
 382:../src/lib/lpc177x_8x/Drivers/source/debug_frmwrk.c **** void UARTPutHex (UART_ID_Type UartID, uint8_t hexnum)
 383:../src/lib/lpc177x_8x/Drivers/source/debug_frmwrk.c **** {
 1257              		.loc 1 383 0
 1258              		.cfi_startproc
 1259              		@ args = 0, pretend = 0, frame = 16
 1260              		@ frame_needed = 1, uses_anonymous_args = 0
 1261 0864 80B5     		push	{r7, lr}
 1262              	.LCFI30:
 1263              		.cfi_def_cfa_offset 8
 1264              		.cfi_offset 7, -8
 1265              		.cfi_offset 14, -4
 1266 0866 84B0     		sub	sp, sp, #16
 1267              	.LCFI31:
 1268              		.cfi_def_cfa_offset 24
 1269 0868 00AF     		add	r7, sp, #0
 1270              	.LCFI32:
 1271              		.cfi_def_cfa_register 7
 1272 086a 0246     		mov	r2, r0
 1273 086c 0B46     		mov	r3, r1
 1274 086e FA71     		strb	r2, [r7, #7]
 1275 0870 BB71     		strb	r3, [r7, #6]
 384:../src/lib/lpc177x_8x/Drivers/source/debug_frmwrk.c ****     uint8_t nibble, i;
 385:../src/lib/lpc177x_8x/Drivers/source/debug_frmwrk.c **** 
 386:../src/lib/lpc177x_8x/Drivers/source/debug_frmwrk.c ****     UARTPuts(UartID, "0x");
 1276              		.loc 1 386 0
 1277 0872 FB79     		ldrb	r3, [r7, #7]	@ zero_extendqisi2
 1278 0874 1846     		mov	r0, r3
 1279 0876 1849     		ldr	r1, .L63
 1280 0878 FFF7FEFF 		bl	UARTPuts
 387:../src/lib/lpc177x_8x/Drivers/source/debug_frmwrk.c **** 
 388:../src/lib/lpc177x_8x/Drivers/source/debug_frmwrk.c ****     i = 1;
 1281              		.loc 1 388 0
 1282 087c 4FF00103 		mov	r3, #1
 1283 0880 FB73     		strb	r3, [r7, #15]
 1284              	.L62:
 389:../src/lib/lpc177x_8x/Drivers/source/debug_frmwrk.c ****     do {
 390:../src/lib/lpc177x_8x/Drivers/source/debug_frmwrk.c ****         nibble = (hexnum >> (4*i)) & 0x0F;
 1285              		.loc 1 390 0
 1286 0882 BA79     		ldrb	r2, [r7, #6]	@ zero_extendqisi2
 1287 0884 FB7B     		ldrb	r3, [r7, #15]	@ zero_extendqisi2
 1288 0886 4FEA8303 		lsl	r3, r3, #2
 1289 088a 42FA03F3 		asr	r3, r2, r3
 1290 088e DBB2     		uxtb	r3, r3
 1291 0890 03F00F03 		and	r3, r3, #15
 1292 0894 BB73     		strb	r3, [r7, #14]
 391:../src/lib/lpc177x_8x/Drivers/source/debug_frmwrk.c ****         UARTPutChar(UartID, (nibble > 9) ? ('A' + nibble - 10) : ('0' + nibble));
 1293              		.loc 1 391 0
 1294 0896 BB7B     		ldrb	r3, [r7, #14]	@ zero_extendqisi2
 1295 0898 092B     		cmp	r3, #9
 1296 089a 04D9     		bls	.L60
 1297              		.loc 1 391 0 is_stmt 0 discriminator 1
 1298 089c BB7B     		ldrb	r3, [r7, #14]
 1299 089e 03F13703 		add	r3, r3, #55
 1300 08a2 DBB2     		uxtb	r3, r3
 1301 08a4 03E0     		b	.L61
 1302              	.L60:
 1303              		.loc 1 391 0 discriminator 2
 1304 08a6 BB7B     		ldrb	r3, [r7, #14]
 1305 08a8 03F13003 		add	r3, r3, #48
 1306 08ac DBB2     		uxtb	r3, r3
 1307              	.L61:
 1308              		.loc 1 391 0 discriminator 3
 1309 08ae FA79     		ldrb	r2, [r7, #7]	@ zero_extendqisi2
 1310 08b0 1046     		mov	r0, r2
 1311 08b2 1946     		mov	r1, r3
 1312 08b4 FFF7FEFF 		bl	UARTPutChar
 392:../src/lib/lpc177x_8x/Drivers/source/debug_frmwrk.c ****     } while (i--);
 1313              		.loc 1 392 0 is_stmt 1 discriminator 3
 1314 08b8 FB7B     		ldrb	r3, [r7, #15]	@ zero_extendqisi2
 1315 08ba 002B     		cmp	r3, #0
 1316 08bc 0CBF     		ite	eq
 1317 08be 0023     		moveq	r3, #0
 1318 08c0 0123     		movne	r3, #1
 1319 08c2 DBB2     		uxtb	r3, r3
 1320 08c4 FA7B     		ldrb	r2, [r7, #15]
 1321 08c6 02F1FF32 		add	r2, r2, #-1
 1322 08ca FA73     		strb	r2, [r7, #15]
 1323 08cc 002B     		cmp	r3, #0
 1324 08ce D8D1     		bne	.L62
 393:../src/lib/lpc177x_8x/Drivers/source/debug_frmwrk.c **** }
 1325              		.loc 1 393 0
 1326 08d0 07F11007 		add	r7, r7, #16
 1327 08d4 BD46     		mov	sp, r7
 1328 08d6 80BD     		pop	{r7, pc}
 1329              	.L64:
 1330              		.align	2
 1331              	.L63:
 1332 08d8 BC000000 		.word	.LC4
 1333              		.cfi_endproc
 1334              	.LFE65:
 1336              		.align	2
 1337              		.global	UARTPutHex16_
 1338              		.thumb
 1339              		.thumb_func
 1341              	UARTPutHex16_:
 1342              	.LFB66:
 394:../src/lib/lpc177x_8x/Drivers/source/debug_frmwrk.c **** 
 395:../src/lib/lpc177x_8x/Drivers/source/debug_frmwrk.c **** 
 396:../src/lib/lpc177x_8x/Drivers/source/debug_frmwrk.c **** /*********************************************************************//**
 397:../src/lib/lpc177x_8x/Drivers/source/debug_frmwrk.c ****  * @brief       Puts a hex number to UART port
 398:../src/lib/lpc177x_8x/Drivers/source/debug_frmwrk.c ****  * @param[in]   UARTx   Pointer to UART peripheral
 399:../src/lib/lpc177x_8x/Drivers/source/debug_frmwrk.c ****  * @param[in]   hexnum  Hex number (16-bit long)
 400:../src/lib/lpc177x_8x/Drivers/source/debug_frmwrk.c ****  * @return      None
 401:../src/lib/lpc177x_8x/Drivers/source/debug_frmwrk.c ****  **********************************************************************/
 402:../src/lib/lpc177x_8x/Drivers/source/debug_frmwrk.c **** void UARTPutHex16_ (UART_ID_Type UartID, uint16_t hexnum)
 403:../src/lib/lpc177x_8x/Drivers/source/debug_frmwrk.c **** {
 1343              		.loc 1 403 0
 1344              		.cfi_startproc
 1345              		@ args = 0, pretend = 0, frame = 16
 1346              		@ frame_needed = 1, uses_anonymous_args = 0
 1347 08dc 80B5     		push	{r7, lr}
 1348              	.LCFI33:
 1349              		.cfi_def_cfa_offset 8
 1350              		.cfi_offset 7, -8
 1351              		.cfi_offset 14, -4
 1352 08de 84B0     		sub	sp, sp, #16
 1353              	.LCFI34:
 1354              		.cfi_def_cfa_offset 24
 1355 08e0 00AF     		add	r7, sp, #0
 1356              	.LCFI35:
 1357              		.cfi_def_cfa_register 7
 1358 08e2 0246     		mov	r2, r0
 1359 08e4 0B46     		mov	r3, r1
 1360 08e6 FA71     		strb	r2, [r7, #7]
 1361 08e8 BB80     		strh	r3, [r7, #4]	@ movhi
 404:../src/lib/lpc177x_8x/Drivers/source/debug_frmwrk.c ****     uint8_t nibble, i;
 405:../src/lib/lpc177x_8x/Drivers/source/debug_frmwrk.c **** 
 406:../src/lib/lpc177x_8x/Drivers/source/debug_frmwrk.c ****     i = 3;
 1362              		.loc 1 406 0
 1363 08ea 4FF00303 		mov	r3, #3
 1364 08ee FB73     		strb	r3, [r7, #15]
 1365              	.L68:
 407:../src/lib/lpc177x_8x/Drivers/source/debug_frmwrk.c ****     do
 408:../src/lib/lpc177x_8x/Drivers/source/debug_frmwrk.c ****     {
 409:../src/lib/lpc177x_8x/Drivers/source/debug_frmwrk.c ****         nibble = (hexnum >> (4*i)) & 0x0F;
 1366              		.loc 1 409 0
 1367 08f0 BA88     		ldrh	r2, [r7, #4]
 1368 08f2 FB7B     		ldrb	r3, [r7, #15]	@ zero_extendqisi2
 1369 08f4 4FEA8303 		lsl	r3, r3, #2
 1370 08f8 42FA03F3 		asr	r3, r2, r3
 1371 08fc DBB2     		uxtb	r3, r3
 1372 08fe 03F00F03 		and	r3, r3, #15
 1373 0902 BB73     		strb	r3, [r7, #14]
 410:../src/lib/lpc177x_8x/Drivers/source/debug_frmwrk.c **** 
 411:../src/lib/lpc177x_8x/Drivers/source/debug_frmwrk.c ****         UARTPutChar(UartID, (nibble > 9) ? ('A' + nibble - 10) : ('0' + nibble));
 1374              		.loc 1 411 0
 1375 0904 BB7B     		ldrb	r3, [r7, #14]	@ zero_extendqisi2
 1376 0906 092B     		cmp	r3, #9
 1377 0908 04D9     		bls	.L66
 1378              		.loc 1 411 0 is_stmt 0 discriminator 1
 1379 090a BB7B     		ldrb	r3, [r7, #14]
 1380 090c 03F13703 		add	r3, r3, #55
 1381 0910 DBB2     		uxtb	r3, r3
 1382 0912 03E0     		b	.L67
 1383              	.L66:
 1384              		.loc 1 411 0 discriminator 2
 1385 0914 BB7B     		ldrb	r3, [r7, #14]
 1386 0916 03F13003 		add	r3, r3, #48
 1387 091a DBB2     		uxtb	r3, r3
 1388              	.L67:
 1389              		.loc 1 411 0 discriminator 3
 1390 091c FA79     		ldrb	r2, [r7, #7]	@ zero_extendqisi2
 1391 091e 1046     		mov	r0, r2
 1392 0920 1946     		mov	r1, r3
 1393 0922 FFF7FEFF 		bl	UARTPutChar
 412:../src/lib/lpc177x_8x/Drivers/source/debug_frmwrk.c ****     }
 413:../src/lib/lpc177x_8x/Drivers/source/debug_frmwrk.c ****     while (i--);
 1394              		.loc 1 413 0 is_stmt 1 discriminator 3
 1395 0926 FB7B     		ldrb	r3, [r7, #15]	@ zero_extendqisi2
 1396 0928 002B     		cmp	r3, #0
 1397 092a 0CBF     		ite	eq
 1398 092c 0023     		moveq	r3, #0
 1399 092e 0123     		movne	r3, #1
 1400 0930 DBB2     		uxtb	r3, r3
 1401 0932 FA7B     		ldrb	r2, [r7, #15]
 1402 0934 02F1FF32 		add	r2, r2, #-1
 1403 0938 FA73     		strb	r2, [r7, #15]
 1404 093a 002B     		cmp	r3, #0
 1405 093c D8D1     		bne	.L68
 414:../src/lib/lpc177x_8x/Drivers/source/debug_frmwrk.c **** }
 1406              		.loc 1 414 0
 1407 093e 07F11007 		add	r7, r7, #16
 1408 0942 BD46     		mov	sp, r7
 1409 0944 80BD     		pop	{r7, pc}
 1410              		.cfi_endproc
 1411              	.LFE66:
 1413 0946 00BF     		.align	2
 1414              		.global	UARTPutHex16
 1415              		.thumb
 1416              		.thumb_func
 1418              	UARTPutHex16:
 1419              	.LFB67:
 415:../src/lib/lpc177x_8x/Drivers/source/debug_frmwrk.c **** 
 416:../src/lib/lpc177x_8x/Drivers/source/debug_frmwrk.c **** 
 417:../src/lib/lpc177x_8x/Drivers/source/debug_frmwrk.c **** /*********************************************************************//**
 418:../src/lib/lpc177x_8x/Drivers/source/debug_frmwrk.c ****  * @brief       Puts a hex number to UART port
 419:../src/lib/lpc177x_8x/Drivers/source/debug_frmwrk.c ****  * @param[in]   UARTx   Pointer to UART peripheral
 420:../src/lib/lpc177x_8x/Drivers/source/debug_frmwrk.c ****  * @param[in]   hexnum  Hex number (16-bit long)
 421:../src/lib/lpc177x_8x/Drivers/source/debug_frmwrk.c ****  * @return      None
 422:../src/lib/lpc177x_8x/Drivers/source/debug_frmwrk.c ****  **********************************************************************/
 423:../src/lib/lpc177x_8x/Drivers/source/debug_frmwrk.c **** void UARTPutHex16 (UART_ID_Type UartID, uint16_t hexnum)
 424:../src/lib/lpc177x_8x/Drivers/source/debug_frmwrk.c **** {
 1420              		.loc 1 424 0
 1421              		.cfi_startproc
 1422              		@ args = 0, pretend = 0, frame = 16
 1423              		@ frame_needed = 1, uses_anonymous_args = 0
 1424 0948 80B5     		push	{r7, lr}
 1425              	.LCFI36:
 1426              		.cfi_def_cfa_offset 8
 1427              		.cfi_offset 7, -8
 1428              		.cfi_offset 14, -4
 1429 094a 84B0     		sub	sp, sp, #16
 1430              	.LCFI37:
 1431              		.cfi_def_cfa_offset 24
 1432 094c 00AF     		add	r7, sp, #0
 1433              	.LCFI38:
 1434              		.cfi_def_cfa_register 7
 1435 094e 0246     		mov	r2, r0
 1436 0950 0B46     		mov	r3, r1
 1437 0952 FA71     		strb	r2, [r7, #7]
 1438 0954 BB80     		strh	r3, [r7, #4]	@ movhi
 425:../src/lib/lpc177x_8x/Drivers/source/debug_frmwrk.c ****     uint8_t nibble, i;
 426:../src/lib/lpc177x_8x/Drivers/source/debug_frmwrk.c **** 
 427:../src/lib/lpc177x_8x/Drivers/source/debug_frmwrk.c ****     UARTPuts(UartID, "0x");
 1439              		.loc 1 427 0
 1440 0956 FB79     		ldrb	r3, [r7, #7]	@ zero_extendqisi2
 1441 0958 1846     		mov	r0, r3
 1442 095a 1849     		ldr	r1, .L73
 1443 095c FFF7FEFF 		bl	UARTPuts
 428:../src/lib/lpc177x_8x/Drivers/source/debug_frmwrk.c **** 
 429:../src/lib/lpc177x_8x/Drivers/source/debug_frmwrk.c ****     i = 3;
 1444              		.loc 1 429 0
 1445 0960 4FF00303 		mov	r3, #3
 1446 0964 FB73     		strb	r3, [r7, #15]
 1447              	.L72:
 430:../src/lib/lpc177x_8x/Drivers/source/debug_frmwrk.c ****     do
 431:../src/lib/lpc177x_8x/Drivers/source/debug_frmwrk.c ****     {
 432:../src/lib/lpc177x_8x/Drivers/source/debug_frmwrk.c ****         nibble = (hexnum >> (4*i)) & 0x0F;
 1448              		.loc 1 432 0
 1449 0966 BA88     		ldrh	r2, [r7, #4]
 1450 0968 FB7B     		ldrb	r3, [r7, #15]	@ zero_extendqisi2
 1451 096a 4FEA8303 		lsl	r3, r3, #2
 1452 096e 42FA03F3 		asr	r3, r2, r3
 1453 0972 DBB2     		uxtb	r3, r3
 1454 0974 03F00F03 		and	r3, r3, #15
 1455 0978 BB73     		strb	r3, [r7, #14]
 433:../src/lib/lpc177x_8x/Drivers/source/debug_frmwrk.c **** 
 434:../src/lib/lpc177x_8x/Drivers/source/debug_frmwrk.c ****         UARTPutChar(UartID, (nibble > 9) ? ('A' + nibble - 10) : ('0' + nibble));
 1456              		.loc 1 434 0
 1457 097a BB7B     		ldrb	r3, [r7, #14]	@ zero_extendqisi2
 1458 097c 092B     		cmp	r3, #9
 1459 097e 04D9     		bls	.L70
 1460              		.loc 1 434 0 is_stmt 0 discriminator 1
 1461 0980 BB7B     		ldrb	r3, [r7, #14]
 1462 0982 03F13703 		add	r3, r3, #55
 1463 0986 DBB2     		uxtb	r3, r3
 1464 0988 03E0     		b	.L71
 1465              	.L70:
 1466              		.loc 1 434 0 discriminator 2
 1467 098a BB7B     		ldrb	r3, [r7, #14]
 1468 098c 03F13003 		add	r3, r3, #48
 1469 0990 DBB2     		uxtb	r3, r3
 1470              	.L71:
 1471              		.loc 1 434 0 discriminator 3
 1472 0992 FA79     		ldrb	r2, [r7, #7]	@ zero_extendqisi2
 1473 0994 1046     		mov	r0, r2
 1474 0996 1946     		mov	r1, r3
 1475 0998 FFF7FEFF 		bl	UARTPutChar
 435:../src/lib/lpc177x_8x/Drivers/source/debug_frmwrk.c ****     }
 436:../src/lib/lpc177x_8x/Drivers/source/debug_frmwrk.c ****     while (i--);
 1476              		.loc 1 436 0 is_stmt 1 discriminator 3
 1477 099c FB7B     		ldrb	r3, [r7, #15]	@ zero_extendqisi2
 1478 099e 002B     		cmp	r3, #0
 1479 09a0 0CBF     		ite	eq
 1480 09a2 0023     		moveq	r3, #0
 1481 09a4 0123     		movne	r3, #1
 1482 09a6 DBB2     		uxtb	r3, r3
 1483 09a8 FA7B     		ldrb	r2, [r7, #15]
 1484 09aa 02F1FF32 		add	r2, r2, #-1
 1485 09ae FA73     		strb	r2, [r7, #15]
 1486 09b0 002B     		cmp	r3, #0
 1487 09b2 D8D1     		bne	.L72
 437:../src/lib/lpc177x_8x/Drivers/source/debug_frmwrk.c **** }
 1488              		.loc 1 437 0
 1489 09b4 07F11007 		add	r7, r7, #16
 1490 09b8 BD46     		mov	sp, r7
 1491 09ba 80BD     		pop	{r7, pc}
 1492              	.L74:
 1493              		.align	2
 1494              	.L73:
 1495 09bc BC000000 		.word	.LC4
 1496              		.cfi_endproc
 1497              	.LFE67:
 1499              		.align	2
 1500              		.global	UARTPutHex32_
 1501              		.thumb
 1502              		.thumb_func
 1504              	UARTPutHex32_:
 1505              	.LFB68:
 438:../src/lib/lpc177x_8x/Drivers/source/debug_frmwrk.c **** 
 439:../src/lib/lpc177x_8x/Drivers/source/debug_frmwrk.c **** /*********************************************************************//**
 440:../src/lib/lpc177x_8x/Drivers/source/debug_frmwrk.c ****  * @brief       Puts a hex number to UART port
 441:../src/lib/lpc177x_8x/Drivers/source/debug_frmwrk.c ****  * @param[in]   UARTx   Pointer to UART peripheral
 442:../src/lib/lpc177x_8x/Drivers/source/debug_frmwrk.c ****  * @param[in]   hexnum  Hex number (32-bit long)
 443:../src/lib/lpc177x_8x/Drivers/source/debug_frmwrk.c ****  * @return      None
 444:../src/lib/lpc177x_8x/Drivers/source/debug_frmwrk.c ****  **********************************************************************/
 445:../src/lib/lpc177x_8x/Drivers/source/debug_frmwrk.c **** void UARTPutHex32_ (UART_ID_Type UartID, uint32_t hexnum)
 446:../src/lib/lpc177x_8x/Drivers/source/debug_frmwrk.c **** {
 1506              		.loc 1 446 0
 1507              		.cfi_startproc
 1508              		@ args = 0, pretend = 0, frame = 16
 1509              		@ frame_needed = 1, uses_anonymous_args = 0
 1510 09c0 80B5     		push	{r7, lr}
 1511              	.LCFI39:
 1512              		.cfi_def_cfa_offset 8
 1513              		.cfi_offset 7, -8
 1514              		.cfi_offset 14, -4
 1515 09c2 84B0     		sub	sp, sp, #16
 1516              	.LCFI40:
 1517              		.cfi_def_cfa_offset 24
 1518 09c4 00AF     		add	r7, sp, #0
 1519              	.LCFI41:
 1520              		.cfi_def_cfa_register 7
 1521 09c6 0346     		mov	r3, r0
 1522 09c8 3960     		str	r1, [r7, #0]
 1523 09ca FB71     		strb	r3, [r7, #7]
 447:../src/lib/lpc177x_8x/Drivers/source/debug_frmwrk.c ****     uint8_t nibble, i;
 448:../src/lib/lpc177x_8x/Drivers/source/debug_frmwrk.c **** 
 449:../src/lib/lpc177x_8x/Drivers/source/debug_frmwrk.c ****     i = 7;
 1524              		.loc 1 449 0
 1525 09cc 4FF00703 		mov	r3, #7
 1526 09d0 FB73     		strb	r3, [r7, #15]
 1527              	.L78:
 450:../src/lib/lpc177x_8x/Drivers/source/debug_frmwrk.c ****     do
 451:../src/lib/lpc177x_8x/Drivers/source/debug_frmwrk.c ****     {
 452:../src/lib/lpc177x_8x/Drivers/source/debug_frmwrk.c ****         nibble = (hexnum >> (4*i)) & 0x0F;
 1528              		.loc 1 452 0
 1529 09d2 FB7B     		ldrb	r3, [r7, #15]	@ zero_extendqisi2
 1530 09d4 4FEA8303 		lsl	r3, r3, #2
 1531 09d8 3A68     		ldr	r2, [r7, #0]
 1532 09da 22FA03F3 		lsr	r3, r2, r3
 1533 09de DBB2     		uxtb	r3, r3
 1534 09e0 03F00F03 		and	r3, r3, #15
 1535 09e4 BB73     		strb	r3, [r7, #14]
 453:../src/lib/lpc177x_8x/Drivers/source/debug_frmwrk.c **** 
 454:../src/lib/lpc177x_8x/Drivers/source/debug_frmwrk.c ****         UARTPutChar(UartID, (nibble > 9) ? ('A' + nibble - 10) : ('0' + nibble));
 1536              		.loc 1 454 0
 1537 09e6 BB7B     		ldrb	r3, [r7, #14]	@ zero_extendqisi2
 1538 09e8 092B     		cmp	r3, #9
 1539 09ea 04D9     		bls	.L76
 1540              		.loc 1 454 0 is_stmt 0 discriminator 1
 1541 09ec BB7B     		ldrb	r3, [r7, #14]
 1542 09ee 03F13703 		add	r3, r3, #55
 1543 09f2 DBB2     		uxtb	r3, r3
 1544 09f4 03E0     		b	.L77
 1545              	.L76:
 1546              		.loc 1 454 0 discriminator 2
 1547 09f6 BB7B     		ldrb	r3, [r7, #14]
 1548 09f8 03F13003 		add	r3, r3, #48
 1549 09fc DBB2     		uxtb	r3, r3
 1550              	.L77:
 1551              		.loc 1 454 0 discriminator 3
 1552 09fe FA79     		ldrb	r2, [r7, #7]	@ zero_extendqisi2
 1553 0a00 1046     		mov	r0, r2
 1554 0a02 1946     		mov	r1, r3
 1555 0a04 FFF7FEFF 		bl	UARTPutChar
 455:../src/lib/lpc177x_8x/Drivers/source/debug_frmwrk.c ****     }
 456:../src/lib/lpc177x_8x/Drivers/source/debug_frmwrk.c ****     while (i--);
 1556              		.loc 1 456 0 is_stmt 1 discriminator 3
 1557 0a08 FB7B     		ldrb	r3, [r7, #15]	@ zero_extendqisi2
 1558 0a0a 002B     		cmp	r3, #0
 1559 0a0c 0CBF     		ite	eq
 1560 0a0e 0023     		moveq	r3, #0
 1561 0a10 0123     		movne	r3, #1
 1562 0a12 DBB2     		uxtb	r3, r3
 1563 0a14 FA7B     		ldrb	r2, [r7, #15]
 1564 0a16 02F1FF32 		add	r2, r2, #-1
 1565 0a1a FA73     		strb	r2, [r7, #15]
 1566 0a1c 002B     		cmp	r3, #0
 1567 0a1e D8D1     		bne	.L78
 457:../src/lib/lpc177x_8x/Drivers/source/debug_frmwrk.c **** }
 1568              		.loc 1 457 0
 1569 0a20 07F11007 		add	r7, r7, #16
 1570 0a24 BD46     		mov	sp, r7
 1571 0a26 80BD     		pop	{r7, pc}
 1572              		.cfi_endproc
 1573              	.LFE68:
 1575              		.align	2
 1576              		.global	UARTPutHex32
 1577              		.thumb
 1578              		.thumb_func
 1580              	UARTPutHex32:
 1581              	.LFB69:
 458:../src/lib/lpc177x_8x/Drivers/source/debug_frmwrk.c **** 
 459:../src/lib/lpc177x_8x/Drivers/source/debug_frmwrk.c **** 
 460:../src/lib/lpc177x_8x/Drivers/source/debug_frmwrk.c **** /*********************************************************************//**
 461:../src/lib/lpc177x_8x/Drivers/source/debug_frmwrk.c ****  * @brief       Puts a hex number to UART port
 462:../src/lib/lpc177x_8x/Drivers/source/debug_frmwrk.c ****  * @param[in]   UARTx   Pointer to UART peripheral
 463:../src/lib/lpc177x_8x/Drivers/source/debug_frmwrk.c ****  * @param[in]   hexnum  Hex number (32-bit long)
 464:../src/lib/lpc177x_8x/Drivers/source/debug_frmwrk.c ****  * @return      None
 465:../src/lib/lpc177x_8x/Drivers/source/debug_frmwrk.c ****  **********************************************************************/
 466:../src/lib/lpc177x_8x/Drivers/source/debug_frmwrk.c **** void UARTPutHex32 (UART_ID_Type UartID, uint32_t hexnum)
 467:../src/lib/lpc177x_8x/Drivers/source/debug_frmwrk.c **** {
 1582              		.loc 1 467 0
 1583              		.cfi_startproc
 1584              		@ args = 0, pretend = 0, frame = 16
 1585              		@ frame_needed = 1, uses_anonymous_args = 0
 1586 0a28 80B5     		push	{r7, lr}
 1587              	.LCFI42:
 1588              		.cfi_def_cfa_offset 8
 1589              		.cfi_offset 7, -8
 1590              		.cfi_offset 14, -4
 1591 0a2a 84B0     		sub	sp, sp, #16
 1592              	.LCFI43:
 1593              		.cfi_def_cfa_offset 24
 1594 0a2c 00AF     		add	r7, sp, #0
 1595              	.LCFI44:
 1596              		.cfi_def_cfa_register 7
 1597 0a2e 0346     		mov	r3, r0
 1598 0a30 3960     		str	r1, [r7, #0]
 1599 0a32 FB71     		strb	r3, [r7, #7]
 468:../src/lib/lpc177x_8x/Drivers/source/debug_frmwrk.c ****     uint8_t nibble, i;
 469:../src/lib/lpc177x_8x/Drivers/source/debug_frmwrk.c **** 
 470:../src/lib/lpc177x_8x/Drivers/source/debug_frmwrk.c ****     UARTPuts(UartID, "0x");
 1600              		.loc 1 470 0
 1601 0a34 FB79     		ldrb	r3, [r7, #7]	@ zero_extendqisi2
 1602 0a36 1846     		mov	r0, r3
 1603 0a38 1849     		ldr	r1, .L83
 1604 0a3a FFF7FEFF 		bl	UARTPuts
 471:../src/lib/lpc177x_8x/Drivers/source/debug_frmwrk.c **** 
 472:../src/lib/lpc177x_8x/Drivers/source/debug_frmwrk.c ****     i = 7;
 1605              		.loc 1 472 0
 1606 0a3e 4FF00703 		mov	r3, #7
 1607 0a42 FB73     		strb	r3, [r7, #15]
 1608              	.L82:
 473:../src/lib/lpc177x_8x/Drivers/source/debug_frmwrk.c ****     do
 474:../src/lib/lpc177x_8x/Drivers/source/debug_frmwrk.c ****     {
 475:../src/lib/lpc177x_8x/Drivers/source/debug_frmwrk.c ****         nibble = (hexnum >> (4*i)) & 0x0F;
 1609              		.loc 1 475 0
 1610 0a44 FB7B     		ldrb	r3, [r7, #15]	@ zero_extendqisi2
 1611 0a46 4FEA8303 		lsl	r3, r3, #2
 1612 0a4a 3A68     		ldr	r2, [r7, #0]
 1613 0a4c 22FA03F3 		lsr	r3, r2, r3
 1614 0a50 DBB2     		uxtb	r3, r3
 1615 0a52 03F00F03 		and	r3, r3, #15
 1616 0a56 BB73     		strb	r3, [r7, #14]
 476:../src/lib/lpc177x_8x/Drivers/source/debug_frmwrk.c **** 
 477:../src/lib/lpc177x_8x/Drivers/source/debug_frmwrk.c ****         UARTPutChar(UartID, (nibble > 9) ? ('A' + nibble - 10) : ('0' + nibble));
 1617              		.loc 1 477 0
 1618 0a58 BB7B     		ldrb	r3, [r7, #14]	@ zero_extendqisi2
 1619 0a5a 092B     		cmp	r3, #9
 1620 0a5c 04D9     		bls	.L80
 1621              		.loc 1 477 0 is_stmt 0 discriminator 1
 1622 0a5e BB7B     		ldrb	r3, [r7, #14]
 1623 0a60 03F13703 		add	r3, r3, #55
 1624 0a64 DBB2     		uxtb	r3, r3
 1625 0a66 03E0     		b	.L81
 1626              	.L80:
 1627              		.loc 1 477 0 discriminator 2
 1628 0a68 BB7B     		ldrb	r3, [r7, #14]
 1629 0a6a 03F13003 		add	r3, r3, #48
 1630 0a6e DBB2     		uxtb	r3, r3
 1631              	.L81:
 1632              		.loc 1 477 0 discriminator 3
 1633 0a70 FA79     		ldrb	r2, [r7, #7]	@ zero_extendqisi2
 1634 0a72 1046     		mov	r0, r2
 1635 0a74 1946     		mov	r1, r3
 1636 0a76 FFF7FEFF 		bl	UARTPutChar
 478:../src/lib/lpc177x_8x/Drivers/source/debug_frmwrk.c ****     }
 479:../src/lib/lpc177x_8x/Drivers/source/debug_frmwrk.c ****     while (i--);
 1637              		.loc 1 479 0 is_stmt 1 discriminator 3
 1638 0a7a FB7B     		ldrb	r3, [r7, #15]	@ zero_extendqisi2
 1639 0a7c 002B     		cmp	r3, #0
 1640 0a7e 0CBF     		ite	eq
 1641 0a80 0023     		moveq	r3, #0
 1642 0a82 0123     		movne	r3, #1
 1643 0a84 DBB2     		uxtb	r3, r3
 1644 0a86 FA7B     		ldrb	r2, [r7, #15]
 1645 0a88 02F1FF32 		add	r2, r2, #-1
 1646 0a8c FA73     		strb	r2, [r7, #15]
 1647 0a8e 002B     		cmp	r3, #0
 1648 0a90 D8D1     		bne	.L82
 480:../src/lib/lpc177x_8x/Drivers/source/debug_frmwrk.c **** }
 1649              		.loc 1 480 0
 1650 0a92 07F11007 		add	r7, r7, #16
 1651 0a96 BD46     		mov	sp, r7
 1652 0a98 80BD     		pop	{r7, pc}
 1653              	.L84:
 1654 0a9a 00BF     		.align	2
 1655              	.L83:
 1656 0a9c BC000000 		.word	.LC4
 1657              		.cfi_endproc
 1658              	.LFE69:
 1660              		.align	2
 1661              		.global	debug_frmwrk_init
 1662              		.thumb
 1663              		.thumb_func
 1665              	debug_frmwrk_init:
 1666              	.LFB70:
 481:../src/lib/lpc177x_8x/Drivers/source/debug_frmwrk.c **** 
 482:../src/lib/lpc177x_8x/Drivers/source/debug_frmwrk.c **** ///*********************************************************************//**
 483:../src/lib/lpc177x_8x/Drivers/source/debug_frmwrk.c **** // * @brief     print function that supports format as same as printf()
 484:../src/lib/lpc177x_8x/Drivers/source/debug_frmwrk.c **** // *                function of <stdio.h> library
 485:../src/lib/lpc177x_8x/Drivers/source/debug_frmwrk.c **** // * @param[in] None
 486:../src/lib/lpc177x_8x/Drivers/source/debug_frmwrk.c **** // * @return        None
 487:../src/lib/lpc177x_8x/Drivers/source/debug_frmwrk.c **** // **********************************************************************/
 488:../src/lib/lpc177x_8x/Drivers/source/debug_frmwrk.c **** //void  _printf (const  char *format, ...)
 489:../src/lib/lpc177x_8x/Drivers/source/debug_frmwrk.c **** //{
 490:../src/lib/lpc177x_8x/Drivers/source/debug_frmwrk.c **** //    static  char  buffer[512 + 1];
 491:../src/lib/lpc177x_8x/Drivers/source/debug_frmwrk.c **** //            va_list     vArgs;
 492:../src/lib/lpc177x_8x/Drivers/source/debug_frmwrk.c **** //            char  *tmp;
 493:../src/lib/lpc177x_8x/Drivers/source/debug_frmwrk.c **** //    va_start(vArgs, format);
 494:../src/lib/lpc177x_8x/Drivers/source/debug_frmwrk.c **** //    vsprintf((char *)buffer, (char const *)format, vArgs);
 495:../src/lib/lpc177x_8x/Drivers/source/debug_frmwrk.c **** //    va_end(vArgs);
 496:../src/lib/lpc177x_8x/Drivers/source/debug_frmwrk.c **** //
 497:../src/lib/lpc177x_8x/Drivers/source/debug_frmwrk.c **** //    _DBG(buffer);
 498:../src/lib/lpc177x_8x/Drivers/source/debug_frmwrk.c **** //}
 499:../src/lib/lpc177x_8x/Drivers/source/debug_frmwrk.c **** 
 500:../src/lib/lpc177x_8x/Drivers/source/debug_frmwrk.c **** /*********************************************************************//**
 501:../src/lib/lpc177x_8x/Drivers/source/debug_frmwrk.c ****  * @brief       Initialize Debug frame work through initializing UART port
 502:../src/lib/lpc177x_8x/Drivers/source/debug_frmwrk.c ****  * @param[in]   None
 503:../src/lib/lpc177x_8x/Drivers/source/debug_frmwrk.c ****  * @return      None
 504:../src/lib/lpc177x_8x/Drivers/source/debug_frmwrk.c ****  **********************************************************************/
 505:../src/lib/lpc177x_8x/Drivers/source/debug_frmwrk.c **** void debug_frmwrk_init(void)
 506:../src/lib/lpc177x_8x/Drivers/source/debug_frmwrk.c **** {
 1667              		.loc 1 506 0
 1668              		.cfi_startproc
 1669              		@ args = 0, pretend = 0, frame = 8
 1670              		@ frame_needed = 1, uses_anonymous_args = 0
 1671 0aa0 80B5     		push	{r7, lr}
 1672              	.LCFI45:
 1673              		.cfi_def_cfa_offset 8
 1674              		.cfi_offset 7, -8
 1675              		.cfi_offset 14, -4
 1676 0aa2 82B0     		sub	sp, sp, #8
 1677              	.LCFI46:
 1678              		.cfi_def_cfa_offset 16
 1679 0aa4 00AF     		add	r7, sp, #0
 1680              	.LCFI47:
 1681              		.cfi_def_cfa_register 7
 507:../src/lib/lpc177x_8x/Drivers/source/debug_frmwrk.c ****     UART_CFG_Type UARTConfigStruct;
 508:../src/lib/lpc177x_8x/Drivers/source/debug_frmwrk.c **** 
 509:../src/lib/lpc177x_8x/Drivers/source/debug_frmwrk.c **** #if (USED_UART_DEBUG_PORT == 0)
 510:../src/lib/lpc177x_8x/Drivers/source/debug_frmwrk.c ****     /*
 511:../src/lib/lpc177x_8x/Drivers/source/debug_frmwrk.c ****      * Initialize UART0 pin connect
 512:../src/lib/lpc177x_8x/Drivers/source/debug_frmwrk.c ****      * P0.2: TXD
 513:../src/lib/lpc177x_8x/Drivers/source/debug_frmwrk.c ****      * P0.3: RXD
 514:../src/lib/lpc177x_8x/Drivers/source/debug_frmwrk.c ****      */
 515:../src/lib/lpc177x_8x/Drivers/source/debug_frmwrk.c ****     PINSEL_ConfigPin (0, 2, 1);
 1682              		.loc 1 515 0
 1683 0aa6 4FF00000 		mov	r0, #0
 1684 0aaa 4FF00201 		mov	r1, #2
 1685 0aae 4FF00102 		mov	r2, #1
 1686 0ab2 FFF7FEFF 		bl	PINSEL_ConfigPin
 516:../src/lib/lpc177x_8x/Drivers/source/debug_frmwrk.c ****     PINSEL_ConfigPin (0, 3, 1);
 1687              		.loc 1 516 0
 1688 0ab6 4FF00000 		mov	r0, #0
 1689 0aba 4FF00301 		mov	r1, #3
 1690 0abe 4FF00102 		mov	r2, #1
 1691 0ac2 FFF7FEFF 		bl	PINSEL_ConfigPin
 517:../src/lib/lpc177x_8x/Drivers/source/debug_frmwrk.c **** #elif (USED_UART_DEBUG_PORT == 1)
 518:../src/lib/lpc177x_8x/Drivers/source/debug_frmwrk.c ****     /*
 519:../src/lib/lpc177x_8x/Drivers/source/debug_frmwrk.c ****      * Initialize UART1 pin connect
 520:../src/lib/lpc177x_8x/Drivers/source/debug_frmwrk.c ****      * P0.15: TXD
 521:../src/lib/lpc177x_8x/Drivers/source/debug_frmwrk.c ****      * P0.16: RXD
 522:../src/lib/lpc177x_8x/Drivers/source/debug_frmwrk.c ****      */
 523:../src/lib/lpc177x_8x/Drivers/source/debug_frmwrk.c ****     PINSEL_ConfigPin(0, 15, 1);
 524:../src/lib/lpc177x_8x/Drivers/source/debug_frmwrk.c ****     PINSEL_ConfigPin(0, 16, 1);
 525:../src/lib/lpc177x_8x/Drivers/source/debug_frmwrk.c **** #elif (USED_UART_DEBUG_PORT == 2)
 526:../src/lib/lpc177x_8x/Drivers/source/debug_frmwrk.c ****     /*
 527:../src/lib/lpc177x_8x/Drivers/source/debug_frmwrk.c ****      * Initialize UART2 pin connect
 528:../src/lib/lpc177x_8x/Drivers/source/debug_frmwrk.c ****      * P0.10: TXD
 529:../src/lib/lpc177x_8x/Drivers/source/debug_frmwrk.c ****      * P0.11: RXD
 530:../src/lib/lpc177x_8x/Drivers/source/debug_frmwrk.c ****      */
 531:../src/lib/lpc177x_8x/Drivers/source/debug_frmwrk.c ****     PINSEL_ConfigPin(0, 10, 1);
 532:../src/lib/lpc177x_8x/Drivers/source/debug_frmwrk.c ****     PINSEL_ConfigPin(0, 11, 1);
 533:../src/lib/lpc177x_8x/Drivers/source/debug_frmwrk.c **** #elif (USED_UART_DEBUG_PORT == 3)
 534:../src/lib/lpc177x_8x/Drivers/source/debug_frmwrk.c ****     /*
 535:../src/lib/lpc177x_8x/Drivers/source/debug_frmwrk.c ****      * Initialize UART3 pin connect
 536:../src/lib/lpc177x_8x/Drivers/source/debug_frmwrk.c ****      * P0.2: TXD
 537:../src/lib/lpc177x_8x/Drivers/source/debug_frmwrk.c ****      * P0.3: RXD
 538:../src/lib/lpc177x_8x/Drivers/source/debug_frmwrk.c ****      */
 539:../src/lib/lpc177x_8x/Drivers/source/debug_frmwrk.c ****     PINSEL_ConfigPin(0, 2, 2);
 540:../src/lib/lpc177x_8x/Drivers/source/debug_frmwrk.c ****     PINSEL_ConfigPin(0, 3, 2);
 541:../src/lib/lpc177x_8x/Drivers/source/debug_frmwrk.c **** #elif (USED_UART_DEBUG_PORT == 4)
 542:../src/lib/lpc177x_8x/Drivers/source/debug_frmwrk.c ****     /*
 543:../src/lib/lpc177x_8x/Drivers/source/debug_frmwrk.c ****      * Initialize UART4 pin connect
 544:../src/lib/lpc177x_8x/Drivers/source/debug_frmwrk.c ****      * P0.22: TXD
 545:../src/lib/lpc177x_8x/Drivers/source/debug_frmwrk.c ****      * P2.9: RXD
 546:../src/lib/lpc177x_8x/Drivers/source/debug_frmwrk.c ****      */
 547:../src/lib/lpc177x_8x/Drivers/source/debug_frmwrk.c ****     PINSEL_ConfigPin(0, 22, 3);
 548:../src/lib/lpc177x_8x/Drivers/source/debug_frmwrk.c ****     PINSEL_ConfigPin(2, 9, 3);
 549:../src/lib/lpc177x_8x/Drivers/source/debug_frmwrk.c **** 
 550:../src/lib/lpc177x_8x/Drivers/source/debug_frmwrk.c **** #endif
 551:../src/lib/lpc177x_8x/Drivers/source/debug_frmwrk.c **** 
 552:../src/lib/lpc177x_8x/Drivers/source/debug_frmwrk.c ****     /* Initialize UART Configuration parameter structure to default state:
 553:../src/lib/lpc177x_8x/Drivers/source/debug_frmwrk.c ****      * Baudrate =115200 bps 
 554:../src/lib/lpc177x_8x/Drivers/source/debug_frmwrk.c ****      * 8 data bit
 555:../src/lib/lpc177x_8x/Drivers/source/debug_frmwrk.c ****      * 1 Stop bit
 556:../src/lib/lpc177x_8x/Drivers/source/debug_frmwrk.c ****      * None parity
 557:../src/lib/lpc177x_8x/Drivers/source/debug_frmwrk.c ****      */
 558:../src/lib/lpc177x_8x/Drivers/source/debug_frmwrk.c ****     UART_ConfigStructInit(&UARTConfigStruct);
 1692              		.loc 1 558 0
 1693 0ac6 3B46     		mov	r3, r7
 1694 0ac8 1846     		mov	r0, r3
 1695 0aca FFF7FEFF 		bl	UART_ConfigStructInit
 559:../src/lib/lpc177x_8x/Drivers/source/debug_frmwrk.c **** 
 560:../src/lib/lpc177x_8x/Drivers/source/debug_frmwrk.c ****     // Initialize DEBUG_UART_PORT peripheral with given to corresponding parameter
 561:../src/lib/lpc177x_8x/Drivers/source/debug_frmwrk.c ****     UART_Init(DEBUG_UART_PORT, &UARTConfigStruct);
 1696              		.loc 1 561 0
 1697 0ace 3B46     		mov	r3, r7
 1698 0ad0 4FF00000 		mov	r0, #0
 1699 0ad4 1946     		mov	r1, r3
 1700 0ad6 FFF7FEFF 		bl	UART_Init
 562:../src/lib/lpc177x_8x/Drivers/source/debug_frmwrk.c **** 
 563:../src/lib/lpc177x_8x/Drivers/source/debug_frmwrk.c ****     // Enable UART Transmit
 564:../src/lib/lpc177x_8x/Drivers/source/debug_frmwrk.c ****     UART_TxCmd(DEBUG_UART_PORT, ENABLE);
 1701              		.loc 1 564 0
 1702 0ada 4FF00000 		mov	r0, #0
 1703 0ade 4FF00101 		mov	r1, #1
 1704 0ae2 FFF7FEFF 		bl	UART_TxCmd
 565:../src/lib/lpc177x_8x/Drivers/source/debug_frmwrk.c **** 
 566:../src/lib/lpc177x_8x/Drivers/source/debug_frmwrk.c ****     _db_msg = UARTPuts;
 1705              		.loc 1 566 0
 1706 0ae6 184B     		ldr	r3, .L86
 1707 0ae8 184A     		ldr	r2, .L86+4
 1708 0aea 1A60     		str	r2, [r3, #0]
 567:../src/lib/lpc177x_8x/Drivers/source/debug_frmwrk.c ****     _db_msg_ = UARTPuts_;
 1709              		.loc 1 567 0
 1710 0aec 184B     		ldr	r3, .L86+8
 1711 0aee 194A     		ldr	r2, .L86+12
 1712 0af0 1A60     		str	r2, [r3, #0]
 568:../src/lib/lpc177x_8x/Drivers/source/debug_frmwrk.c ****     _db_char = UARTPutChar;
 1713              		.loc 1 568 0
 1714 0af2 194B     		ldr	r3, .L86+16
 1715 0af4 194A     		ldr	r2, .L86+20
 1716 0af6 1A60     		str	r2, [r3, #0]
 569:../src/lib/lpc177x_8x/Drivers/source/debug_frmwrk.c ****     _db_hex = UARTPutHex;
 1717              		.loc 1 569 0
 1718 0af8 194B     		ldr	r3, .L86+24
 1719 0afa 1A4A     		ldr	r2, .L86+28
 1720 0afc 1A60     		str	r2, [r3, #0]
 570:../src/lib/lpc177x_8x/Drivers/source/debug_frmwrk.c ****     _db_hex_16 = UARTPutHex16;
 1721              		.loc 1 570 0
 1722 0afe 1A4B     		ldr	r3, .L86+32
 1723 0b00 1A4A     		ldr	r2, .L86+36
 1724 0b02 1A60     		str	r2, [r3, #0]
 571:../src/lib/lpc177x_8x/Drivers/source/debug_frmwrk.c ****     _db_hex_32 = UARTPutHex32;
 1725              		.loc 1 571 0
 1726 0b04 1A4B     		ldr	r3, .L86+40
 1727 0b06 1B4A     		ldr	r2, .L86+44
 1728 0b08 1A60     		str	r2, [r3, #0]
 572:../src/lib/lpc177x_8x/Drivers/source/debug_frmwrk.c ****     _db_hex_ = UARTPutHex_;
 1729              		.loc 1 572 0
 1730 0b0a 1B4B     		ldr	r3, .L86+48
 1731 0b0c 1B4A     		ldr	r2, .L86+52
 1732 0b0e 1A60     		str	r2, [r3, #0]
 573:../src/lib/lpc177x_8x/Drivers/source/debug_frmwrk.c ****     _db_hex_16_ = UARTPutHex16_;
 1733              		.loc 1 573 0
 1734 0b10 1B4B     		ldr	r3, .L86+56
 1735 0b12 1C4A     		ldr	r2, .L86+60
 1736 0b14 1A60     		str	r2, [r3, #0]
 574:../src/lib/lpc177x_8x/Drivers/source/debug_frmwrk.c ****     _db_hex_32_ = UARTPutHex32_;
 1737              		.loc 1 574 0
 1738 0b16 1C4B     		ldr	r3, .L86+64
 1739 0b18 1C4A     		ldr	r2, .L86+68
 1740 0b1a 1A60     		str	r2, [r3, #0]
 575:../src/lib/lpc177x_8x/Drivers/source/debug_frmwrk.c ****     _db_dec = UARTPutDec;
 1741              		.loc 1 575 0
 1742 0b1c 1C4B     		ldr	r3, .L86+72
 1743 0b1e 1D4A     		ldr	r2, .L86+76
 1744 0b20 1A60     		str	r2, [r3, #0]
 576:../src/lib/lpc177x_8x/Drivers/source/debug_frmwrk.c ****     _db_dec_16 = UARTPutDec16;
 1745              		.loc 1 576 0
 1746 0b22 1D4B     		ldr	r3, .L86+80
 1747 0b24 1D4A     		ldr	r2, .L86+84
 1748 0b26 1A60     		str	r2, [r3, #0]
 577:../src/lib/lpc177x_8x/Drivers/source/debug_frmwrk.c ****     _db_dec_32 = UARTPutDec32;
 1749              		.loc 1 577 0
 1750 0b28 1D4B     		ldr	r3, .L86+88
 1751 0b2a 1E4A     		ldr	r2, .L86+92
 1752 0b2c 1A60     		str	r2, [r3, #0]
 578:../src/lib/lpc177x_8x/Drivers/source/debug_frmwrk.c ****     _db_get_char = UARTGetChar;
 1753              		.loc 1 578 0
 1754 0b2e 1E4B     		ldr	r3, .L86+96
 1755 0b30 1E4A     		ldr	r2, .L86+100
 1756 0b32 1A60     		str	r2, [r3, #0]
 579:../src/lib/lpc177x_8x/Drivers/source/debug_frmwrk.c ****     _db_get_val = UARTGetValue;
 1757              		.loc 1 579 0
 1758 0b34 1E4B     		ldr	r3, .L86+104
 1759 0b36 1F4A     		ldr	r2, .L86+108
 1760 0b38 1A60     		str	r2, [r3, #0]
 580:../src/lib/lpc177x_8x/Drivers/source/debug_frmwrk.c ****     _db_get_char_nonblocking = UARTGetCharInNonBlock;
 1761              		.loc 1 580 0
 1762 0b3a 1F4B     		ldr	r3, .L86+112
 1763 0b3c 1F4A     		ldr	r2, .L86+116
 1764 0b3e 1A60     		str	r2, [r3, #0]
 581:../src/lib/lpc177x_8x/Drivers/source/debug_frmwrk.c **** }
 1765              		.loc 1 581 0
 1766 0b40 07F10807 		add	r7, r7, #8
 1767 0b44 BD46     		mov	sp, r7
 1768 0b46 80BD     		pop	{r7, pc}
 1769              	.L87:
 1770              		.align	2
 1771              	.L86:
 1772 0b48 00000000 		.word	_db_msg
 1773 0b4c 00000000 		.word	UARTPuts
 1774 0b50 00000000 		.word	_db_msg_
 1775 0b54 00000000 		.word	UARTPuts_
 1776 0b58 00000000 		.word	_db_char
 1777 0b5c 00000000 		.word	UARTPutChar
 1778 0b60 00000000 		.word	_db_hex
 1779 0b64 00000000 		.word	UARTPutHex
 1780 0b68 00000000 		.word	_db_hex_16
 1781 0b6c 00000000 		.word	UARTPutHex16
 1782 0b70 00000000 		.word	_db_hex_32
 1783 0b74 00000000 		.word	UARTPutHex32
 1784 0b78 00000000 		.word	_db_hex_
 1785 0b7c 00000000 		.word	UARTPutHex_
 1786 0b80 00000000 		.word	_db_hex_16_
 1787 0b84 00000000 		.word	UARTPutHex16_
 1788 0b88 00000000 		.word	_db_hex_32_
 1789 0b8c 00000000 		.word	UARTPutHex32_
 1790 0b90 00000000 		.word	_db_dec
 1791 0b94 00000000 		.word	UARTPutDec
 1792 0b98 00000000 		.word	_db_dec_16
 1793 0b9c 00000000 		.word	UARTPutDec16
 1794 0ba0 00000000 		.word	_db_dec_32
 1795 0ba4 00000000 		.word	UARTPutDec32
 1796 0ba8 00000000 		.word	_db_get_char
 1797 0bac 00000000 		.word	UARTGetChar
 1798 0bb0 00000000 		.word	_db_get_val
 1799 0bb4 00000000 		.word	UARTGetValue
 1800 0bb8 00000000 		.word	_db_get_char_nonblocking
 1801 0bbc 00000000 		.word	UARTGetCharInNonBlock
 1802              		.cfi_endproc
 1803              	.LFE70:
 1805              	.Letext0:
 1806              		.file 2 "g:\\program files\\codesourcery\\sourcery_codebench_lite_for_arm_eabi\\bin\\../lib/gcc/ar
 1807              		.file 3 "D:\\workspace_gnu\\RTT_Demo0\\src\\lib\\lpc177x_8x\\Drivers\\include/lpc_types.h"
 1808              		.file 4 "D:\\workspace_gnu\\RTT_Demo0\\src\\lib\\lpc177x_8x\\Drivers\\include/lpc177x_8x_uart.h"
 1809              		.file 5 "D:\\workspace_gnu\\RTT_Demo0\\src\\lib\\lpc177x_8x\\Core\\CMSIS\\Include/core_cm3.h"