   1              		.syntax unified
   2              		.cpu cortex-m4
   3              		.fpu softvfp
   4              		.eabi_attribute 20, 1
   5              		.eabi_attribute 21, 1
   6              		.eabi_attribute 23, 3
   7              		.eabi_attribute 24, 1
   8              		.eabi_attribute 25, 1
   9              		.eabi_attribute 26, 1
  10              		.eabi_attribute 30, 6
  11              		.eabi_attribute 34, 1
  12              		.eabi_attribute 18, 4
  13              		.thumb
  14              		.file	"lpc177x_8x_can.c"
  15              		.text
  16              	.Ltext0:
  17              		.cfi_sections	.debug_frame
  18              		.comm	FULLCAN_ENABLE,1,1
  19              		.global	CANAF_FullCAN_cnt
  20              		.bss
  21              		.align	1
  24              	CANAF_FullCAN_cnt:
  25 0000 0000     		.space	2
  26              		.global	CANAF_std_cnt
  27              		.align	1
  30              	CANAF_std_cnt:
  31 0002 0000     		.space	2
  32              		.global	CANAF_gstd_cnt
  33              		.align	1
  36              	CANAF_gstd_cnt:
  37 0004 0000     		.space	2
  38              		.global	CANAF_ext_cnt
  39              		.align	1
  42              	CANAF_ext_cnt:
  43 0006 0000     		.space	2
  44              		.global	CANAF_gext_cnt
  45              		.align	1
  48              	CANAF_gext_cnt:
  49 0008 0000     		.space	2
  50              		.text
  51              		.align	2
  52              		.thumb
  53              		.thumb_func
  55              	CAN_GetPointer:
  56              	.LFB55:
  57              		.file 1 "../src/lib/lpc177x_8x/Drivers/source/lpc177x_8x_can.c"
   1:../src/lib/lpc177x_8x/Drivers/source/lpc177x_8x_can.c **** /**********************************************************************
   2:../src/lib/lpc177x_8x/Drivers/source/lpc177x_8x_can.c **** * $Id$      lpc177x_8x_can.c            2011-06-02
   3:../src/lib/lpc177x_8x/Drivers/source/lpc177x_8x_can.c **** *//**
   4:../src/lib/lpc177x_8x/Drivers/source/lpc177x_8x_can.c **** * @file     lpc177x_8x_can.c
   5:../src/lib/lpc177x_8x/Drivers/source/lpc177x_8x_can.c **** * @brief    Contains all functions support for CAN firmware library on
   6:../src/lib/lpc177x_8x/Drivers/source/lpc177x_8x_can.c **** *           LPC177x_8x
   7:../src/lib/lpc177x_8x/Drivers/source/lpc177x_8x_can.c **** * @version  1.0
   8:../src/lib/lpc177x_8x/Drivers/source/lpc177x_8x_can.c **** * @date     02. June. 2011
   9:../src/lib/lpc177x_8x/Drivers/source/lpc177x_8x_can.c **** * @author   NXP MCU SW Application Team
  10:../src/lib/lpc177x_8x/Drivers/source/lpc177x_8x_can.c **** * 
  11:../src/lib/lpc177x_8x/Drivers/source/lpc177x_8x_can.c **** * Copyright(C) 2011, NXP Semiconductor
  12:../src/lib/lpc177x_8x/Drivers/source/lpc177x_8x_can.c **** * All rights reserved.
  13:../src/lib/lpc177x_8x/Drivers/source/lpc177x_8x_can.c **** *
  14:../src/lib/lpc177x_8x/Drivers/source/lpc177x_8x_can.c **** ***********************************************************************
  15:../src/lib/lpc177x_8x/Drivers/source/lpc177x_8x_can.c **** * Software that is described herein is for illustrative purposes only
  16:../src/lib/lpc177x_8x/Drivers/source/lpc177x_8x_can.c **** * which provides customers with programming information regarding the
  17:../src/lib/lpc177x_8x/Drivers/source/lpc177x_8x_can.c **** * products. This software is supplied "AS IS" without any warranties.
  18:../src/lib/lpc177x_8x/Drivers/source/lpc177x_8x_can.c **** * NXP Semiconductors assumes no responsibility or liability for the
  19:../src/lib/lpc177x_8x/Drivers/source/lpc177x_8x_can.c **** * use of the software, conveys no license or title under any patent,
  20:../src/lib/lpc177x_8x/Drivers/source/lpc177x_8x_can.c **** * copyright, or mask work right to the product. NXP Semiconductors
  21:../src/lib/lpc177x_8x/Drivers/source/lpc177x_8x_can.c **** * reserves the right to make changes in the software without
  22:../src/lib/lpc177x_8x/Drivers/source/lpc177x_8x_can.c **** * notification. NXP Semiconductors also make no representation or
  23:../src/lib/lpc177x_8x/Drivers/source/lpc177x_8x_can.c **** * warranty that such application will be suitable for the specified
  24:../src/lib/lpc177x_8x/Drivers/source/lpc177x_8x_can.c **** * use without further testing or modification.
  25:../src/lib/lpc177x_8x/Drivers/source/lpc177x_8x_can.c **** * Permission to use, copy, modify, and distribute this software and its
  26:../src/lib/lpc177x_8x/Drivers/source/lpc177x_8x_can.c **** * documentation is hereby granted, under NXP Semiconductors'
  27:../src/lib/lpc177x_8x/Drivers/source/lpc177x_8x_can.c **** * relevant copyright in the software, without fee, provided that it
  28:../src/lib/lpc177x_8x/Drivers/source/lpc177x_8x_can.c **** * is used in conjunction with NXP Semiconductors microcontrollers.  This
  29:../src/lib/lpc177x_8x/Drivers/source/lpc177x_8x_can.c **** * copyright, permission, and disclaimer notice must appear in all copies of
  30:../src/lib/lpc177x_8x/Drivers/source/lpc177x_8x_can.c **** * this code.
  31:../src/lib/lpc177x_8x/Drivers/source/lpc177x_8x_can.c **** **********************************************************************/
  32:../src/lib/lpc177x_8x/Drivers/source/lpc177x_8x_can.c **** 
  33:../src/lib/lpc177x_8x/Drivers/source/lpc177x_8x_can.c **** /* Peripheral group ----------------------------------------------------------- */
  34:../src/lib/lpc177x_8x/Drivers/source/lpc177x_8x_can.c **** /** @addtogroup CAN
  35:../src/lib/lpc177x_8x/Drivers/source/lpc177x_8x_can.c ****  * @{
  36:../src/lib/lpc177x_8x/Drivers/source/lpc177x_8x_can.c ****  */
  37:../src/lib/lpc177x_8x/Drivers/source/lpc177x_8x_can.c **** #ifdef __BUILD_WITH_EXAMPLE__
  38:../src/lib/lpc177x_8x/Drivers/source/lpc177x_8x_can.c **** #include "lpc177x_8x_libcfg.h"
  39:../src/lib/lpc177x_8x/Drivers/source/lpc177x_8x_can.c **** #else
  40:../src/lib/lpc177x_8x/Drivers/source/lpc177x_8x_can.c **** #include "lpc177x_8x_libcfg_default.h"
  41:../src/lib/lpc177x_8x/Drivers/source/lpc177x_8x_can.c **** #endif /* __BUILD_WITH_EXAMPLE__ */
  42:../src/lib/lpc177x_8x/Drivers/source/lpc177x_8x_can.c **** #ifdef _CAN
  43:../src/lib/lpc177x_8x/Drivers/source/lpc177x_8x_can.c ****  
  44:../src/lib/lpc177x_8x/Drivers/source/lpc177x_8x_can.c **** /* Includes ------------------------------------------------------------------- */
  45:../src/lib/lpc177x_8x/Drivers/source/lpc177x_8x_can.c **** #include "lpc177x_8x_can.h"
  46:../src/lib/lpc177x_8x/Drivers/source/lpc177x_8x_can.c **** #include "lpc177x_8x_clkpwr.h"
  47:../src/lib/lpc177x_8x/Drivers/source/lpc177x_8x_can.c **** 
  48:../src/lib/lpc177x_8x/Drivers/source/lpc177x_8x_can.c **** /* Private Variables ---------------------------------------------------------- */
  49:../src/lib/lpc177x_8x/Drivers/source/lpc177x_8x_can.c **** /** @defgroup CAN_Private_Variables CAN Private Variables
  50:../src/lib/lpc177x_8x/Drivers/source/lpc177x_8x_can.c ****  * @{
  51:../src/lib/lpc177x_8x/Drivers/source/lpc177x_8x_can.c ****  */
  52:../src/lib/lpc177x_8x/Drivers/source/lpc177x_8x_can.c **** 
  53:../src/lib/lpc177x_8x/Drivers/source/lpc177x_8x_can.c **** FunctionalState FULLCAN_ENABLE;
  54:../src/lib/lpc177x_8x/Drivers/source/lpc177x_8x_can.c **** 
  55:../src/lib/lpc177x_8x/Drivers/source/lpc177x_8x_can.c **** 
  56:../src/lib/lpc177x_8x/Drivers/source/lpc177x_8x_can.c **** /* Counts number of filters (CAN message objects) used */
  57:../src/lib/lpc177x_8x/Drivers/source/lpc177x_8x_can.c **** uint16_t CANAF_FullCAN_cnt = 0;
  58:../src/lib/lpc177x_8x/Drivers/source/lpc177x_8x_can.c **** uint16_t CANAF_std_cnt = 0;
  59:../src/lib/lpc177x_8x/Drivers/source/lpc177x_8x_can.c **** uint16_t CANAF_gstd_cnt = 0;
  60:../src/lib/lpc177x_8x/Drivers/source/lpc177x_8x_can.c **** uint16_t CANAF_ext_cnt = 0;
  61:../src/lib/lpc177x_8x/Drivers/source/lpc177x_8x_can.c **** uint16_t CANAF_gext_cnt = 0;
  62:../src/lib/lpc177x_8x/Drivers/source/lpc177x_8x_can.c **** 
  63:../src/lib/lpc177x_8x/Drivers/source/lpc177x_8x_can.c **** /* End of Private Variables ----------------------------------------------------*/
  64:../src/lib/lpc177x_8x/Drivers/source/lpc177x_8x_can.c **** /**
  65:../src/lib/lpc177x_8x/Drivers/source/lpc177x_8x_can.c ****  * @}
  66:../src/lib/lpc177x_8x/Drivers/source/lpc177x_8x_can.c ****  */
  67:../src/lib/lpc177x_8x/Drivers/source/lpc177x_8x_can.c **** 
  68:../src/lib/lpc177x_8x/Drivers/source/lpc177x_8x_can.c **** /* Private Variables ---------------------------------------------------------- */
  69:../src/lib/lpc177x_8x/Drivers/source/lpc177x_8x_can.c **** static LPC_CAN_TypeDef* CAN_GetPointer (uint8_t canId);
  70:../src/lib/lpc177x_8x/Drivers/source/lpc177x_8x_can.c **** 
  71:../src/lib/lpc177x_8x/Drivers/source/lpc177x_8x_can.c **** 
  72:../src/lib/lpc177x_8x/Drivers/source/lpc177x_8x_can.c **** static void can_SetBaudrate (LPC_CAN_TypeDef *CANx, uint32_t baudrate);
  73:../src/lib/lpc177x_8x/Drivers/source/lpc177x_8x_can.c **** 
  74:../src/lib/lpc177x_8x/Drivers/source/lpc177x_8x_can.c **** /*********************************************************************//**
  75:../src/lib/lpc177x_8x/Drivers/source/lpc177x_8x_can.c ****  * @brief       Setting CAN baud rate (bps)
  76:../src/lib/lpc177x_8x/Drivers/source/lpc177x_8x_can.c ****  * @param[in]   canId point to LPC_CAN_TypeDef object, should be:
  77:../src/lib/lpc177x_8x/Drivers/source/lpc177x_8x_can.c ****  *              - LPC_CAN1: CAN1 peripheral
  78:../src/lib/lpc177x_8x/Drivers/source/lpc177x_8x_can.c ****  *              - LPC_CAN2: CAN2 peripheral
  79:../src/lib/lpc177x_8x/Drivers/source/lpc177x_8x_can.c ****  * @return      The pointer to CAN peripheral that's expected to use
  80:../src/lib/lpc177x_8x/Drivers/source/lpc177x_8x_can.c ****  ***********************************************************************/
  81:../src/lib/lpc177x_8x/Drivers/source/lpc177x_8x_can.c **** static LPC_CAN_TypeDef* CAN_GetPointer (uint8_t canId)
  82:../src/lib/lpc177x_8x/Drivers/source/lpc177x_8x_can.c **** {
  58              		.loc 1 82 0
  59              		.cfi_startproc
  60              		@ args = 0, pretend = 0, frame = 16
  61              		@ frame_needed = 1, uses_anonymous_args = 0
  62              		@ link register save eliminated.
  63 0000 80B4     		push	{r7}
  64              	.LCFI0:
  65              		.cfi_def_cfa_offset 4
  66              		.cfi_offset 7, -4
  67 0002 85B0     		sub	sp, sp, #20
  68              	.LCFI1:
  69              		.cfi_def_cfa_offset 24
  70 0004 00AF     		add	r7, sp, #0
  71              	.LCFI2:
  72              		.cfi_def_cfa_register 7
  73 0006 0346     		mov	r3, r0
  74 0008 FB71     		strb	r3, [r7, #7]
  83:../src/lib/lpc177x_8x/Drivers/source/lpc177x_8x_can.c ****     LPC_CAN_TypeDef* pCan;
  84:../src/lib/lpc177x_8x/Drivers/source/lpc177x_8x_can.c **** 
  85:../src/lib/lpc177x_8x/Drivers/source/lpc177x_8x_can.c ****     switch (canId)
  75              		.loc 1 85 0
  76 000a FB79     		ldrb	r3, [r7, #7]	@ zero_extendqisi2
  77 000c 002B     		cmp	r3, #0
  78 000e 02D0     		beq	.L3
  79 0010 012B     		cmp	r3, #1
  80 0012 03D0     		beq	.L4
  81 0014 05E0     		b	.L7
  82              	.L3:
  86:../src/lib/lpc177x_8x/Drivers/source/lpc177x_8x_can.c ****     {
  87:../src/lib/lpc177x_8x/Drivers/source/lpc177x_8x_can.c ****         case CAN_ID_1:
  88:../src/lib/lpc177x_8x/Drivers/source/lpc177x_8x_can.c ****             pCan = LPC_CAN1;
  83              		.loc 1 88 0
  84 0016 084B     		ldr	r3, .L8
  85 0018 FB60     		str	r3, [r7, #12]
  89:../src/lib/lpc177x_8x/Drivers/source/lpc177x_8x_can.c ****             break;
  86              		.loc 1 89 0
  87 001a 06E0     		b	.L5
  88              	.L4:
  90:../src/lib/lpc177x_8x/Drivers/source/lpc177x_8x_can.c **** 
  91:../src/lib/lpc177x_8x/Drivers/source/lpc177x_8x_can.c ****         case CAN_ID_2:
  92:../src/lib/lpc177x_8x/Drivers/source/lpc177x_8x_can.c ****             pCan = LPC_CAN2;
  89              		.loc 1 92 0
  90 001c 074B     		ldr	r3, .L8+4
  91 001e FB60     		str	r3, [r7, #12]
  93:../src/lib/lpc177x_8x/Drivers/source/lpc177x_8x_can.c ****             break;
  92              		.loc 1 93 0
  93 0020 03E0     		b	.L5
  94              	.L7:
  94:../src/lib/lpc177x_8x/Drivers/source/lpc177x_8x_can.c **** 
  95:../src/lib/lpc177x_8x/Drivers/source/lpc177x_8x_can.c ****         default:
  96:../src/lib/lpc177x_8x/Drivers/source/lpc177x_8x_can.c ****             pCan = NULL;
  95              		.loc 1 96 0
  96 0022 4FF00003 		mov	r3, #0
  97 0026 FB60     		str	r3, [r7, #12]
  97:../src/lib/lpc177x_8x/Drivers/source/lpc177x_8x_can.c ****             break;
  98              		.loc 1 97 0
  99 0028 00BF     		nop
 100              	.L5:
  98:../src/lib/lpc177x_8x/Drivers/source/lpc177x_8x_can.c ****     }
  99:../src/lib/lpc177x_8x/Drivers/source/lpc177x_8x_can.c **** 
 100:../src/lib/lpc177x_8x/Drivers/source/lpc177x_8x_can.c ****     return pCan;
 101              		.loc 1 100 0
 102 002a FB68     		ldr	r3, [r7, #12]
 101:../src/lib/lpc177x_8x/Drivers/source/lpc177x_8x_can.c **** }
 103              		.loc 1 101 0
 104 002c 1846     		mov	r0, r3
 105 002e 07F11407 		add	r7, r7, #20
 106 0032 BD46     		mov	sp, r7
 107 0034 80BC     		pop	{r7}
 108 0036 7047     		bx	lr
 109              	.L9:
 110              		.align	2
 111              	.L8:
 112 0038 00400440 		.word	1074020352
 113 003c 00800440 		.word	1074036736
 114              		.cfi_endproc
 115              	.LFE55:
 117              		.align	2
 118              		.thumb
 119              		.thumb_func
 121              	can_SetBaudrate:
 122              	.LFB56:
 102:../src/lib/lpc177x_8x/Drivers/source/lpc177x_8x_can.c **** 
 103:../src/lib/lpc177x_8x/Drivers/source/lpc177x_8x_can.c **** 
 104:../src/lib/lpc177x_8x/Drivers/source/lpc177x_8x_can.c **** /*********************************************************************//**
 105:../src/lib/lpc177x_8x/Drivers/source/lpc177x_8x_can.c ****  * @brief       Setting CAN baud rate (bps)
 106:../src/lib/lpc177x_8x/Drivers/source/lpc177x_8x_can.c ****  * @param[in]   CANx point to LPC_CAN_TypeDef object, should be:
 107:../src/lib/lpc177x_8x/Drivers/source/lpc177x_8x_can.c ****  *              - LPC_CAN1: CAN1 peripheral
 108:../src/lib/lpc177x_8x/Drivers/source/lpc177x_8x_can.c ****  *              - LPC_CAN2: CAN2 peripheral
 109:../src/lib/lpc177x_8x/Drivers/source/lpc177x_8x_can.c ****  * @param[in]   baudrate: is the baud rate value will be set
 110:../src/lib/lpc177x_8x/Drivers/source/lpc177x_8x_can.c ****  * @return      None
 111:../src/lib/lpc177x_8x/Drivers/source/lpc177x_8x_can.c ****  ***********************************************************************/
 112:../src/lib/lpc177x_8x/Drivers/source/lpc177x_8x_can.c **** static void can_SetBaudrate (LPC_CAN_TypeDef *CANx, uint32_t baudrate)
 113:../src/lib/lpc177x_8x/Drivers/source/lpc177x_8x_can.c **** {
 123              		.loc 1 113 0
 124              		.cfi_startproc
 125              		@ args = 0, pretend = 0, frame = 24
 126              		@ frame_needed = 1, uses_anonymous_args = 0
 127 0040 80B5     		push	{r7, lr}
 128              	.LCFI3:
 129              		.cfi_def_cfa_offset 8
 130              		.cfi_offset 7, -8
 131              		.cfi_offset 14, -4
 132 0042 86B0     		sub	sp, sp, #24
 133              	.LCFI4:
 134              		.cfi_def_cfa_offset 32
 135 0044 00AF     		add	r7, sp, #0
 136              	.LCFI5:
 137              		.cfi_def_cfa_register 7
 138 0046 7860     		str	r0, [r7, #4]
 139 0048 3960     		str	r1, [r7, #0]
 114:../src/lib/lpc177x_8x/Drivers/source/lpc177x_8x_can.c ****     uint32_t result = 0;
 140              		.loc 1 114 0
 141 004a 4FF00003 		mov	r3, #0
 142 004e FB60     		str	r3, [r7, #12]
 115:../src/lib/lpc177x_8x/Drivers/source/lpc177x_8x_can.c ****     uint8_t NT, TSEG1, TSEG2;
 116:../src/lib/lpc177x_8x/Drivers/source/lpc177x_8x_can.c ****     uint32_t CANPclk = 0;
 143              		.loc 1 116 0
 144 0050 4FF00003 		mov	r3, #0
 145 0054 BB60     		str	r3, [r7, #8]
 117:../src/lib/lpc177x_8x/Drivers/source/lpc177x_8x_can.c ****     uint32_t BRP;
 118:../src/lib/lpc177x_8x/Drivers/source/lpc177x_8x_can.c **** 
 119:../src/lib/lpc177x_8x/Drivers/source/lpc177x_8x_can.c ****     CANPclk = CLKPWR_GetCLK(CLKPWR_CLKTYPE_PER);
 146              		.loc 1 119 0
 147 0056 4FF00100 		mov	r0, #1
 148 005a FFF7FEFF 		bl	CLKPWR_GetCLK
 149 005e B860     		str	r0, [r7, #8]
 120:../src/lib/lpc177x_8x/Drivers/source/lpc177x_8x_can.c **** 
 121:../src/lib/lpc177x_8x/Drivers/source/lpc177x_8x_can.c ****     result = CANPclk / baudrate;
 150              		.loc 1 121 0
 151 0060 BA68     		ldr	r2, [r7, #8]
 152 0062 3B68     		ldr	r3, [r7, #0]
 153 0064 B2FBF3F3 		udiv	r3, r2, r3
 154 0068 FB60     		str	r3, [r7, #12]
 122:../src/lib/lpc177x_8x/Drivers/source/lpc177x_8x_can.c **** 
 123:../src/lib/lpc177x_8x/Drivers/source/lpc177x_8x_can.c ****     /* Calculate suitable nominal time value
 124:../src/lib/lpc177x_8x/Drivers/source/lpc177x_8x_can.c ****      * NT (nominal time) = (TSEG1 + TSEG2 + 3)
 125:../src/lib/lpc177x_8x/Drivers/source/lpc177x_8x_can.c ****      * NT <= 24
 126:../src/lib/lpc177x_8x/Drivers/source/lpc177x_8x_can.c ****      * TSEG1 >= 2*TSEG2
 127:../src/lib/lpc177x_8x/Drivers/source/lpc177x_8x_can.c ****      */
 128:../src/lib/lpc177x_8x/Drivers/source/lpc177x_8x_can.c ****     for(NT = 24; NT > 0; NT = NT-2)
 155              		.loc 1 128 0
 156 006a 4FF01803 		mov	r3, #24
 157 006e FB75     		strb	r3, [r7, #23]
 158 0070 2FE0     		b	.L11
 159              	.L14:
 129:../src/lib/lpc177x_8x/Drivers/source/lpc177x_8x_can.c ****     {
 130:../src/lib/lpc177x_8x/Drivers/source/lpc177x_8x_can.c ****         if ((result%NT) == 0)
 160              		.loc 1 130 0
 161 0072 FA7D     		ldrb	r2, [r7, #23]	@ zero_extendqisi2
 162 0074 FB68     		ldr	r3, [r7, #12]
 163 0076 B3FBF2F1 		udiv	r1, r3, r2
 164 007a 02FB01F2 		mul	r2, r2, r1
 165 007e 9B1A     		subs	r3, r3, r2
 166 0080 002B     		cmp	r3, #0
 167 0082 22D1     		bne	.L12
 131:../src/lib/lpc177x_8x/Drivers/source/lpc177x_8x_can.c ****         {
 132:../src/lib/lpc177x_8x/Drivers/source/lpc177x_8x_can.c ****             BRP = result / NT - 1;
 168              		.loc 1 132 0
 169 0084 FB7D     		ldrb	r3, [r7, #23]	@ zero_extendqisi2
 170 0086 FA68     		ldr	r2, [r7, #12]
 171 0088 B2FBF3F3 		udiv	r3, r2, r3
 172 008c 03F1FF33 		add	r3, r3, #-1
 173 0090 3B61     		str	r3, [r7, #16]
 133:../src/lib/lpc177x_8x/Drivers/source/lpc177x_8x_can.c **** 
 134:../src/lib/lpc177x_8x/Drivers/source/lpc177x_8x_can.c ****             NT--;
 174              		.loc 1 134 0
 175 0092 FB7D     		ldrb	r3, [r7, #23]
 176 0094 03F1FF33 		add	r3, r3, #-1
 177 0098 FB75     		strb	r3, [r7, #23]
 135:../src/lib/lpc177x_8x/Drivers/source/lpc177x_8x_can.c **** 
 136:../src/lib/lpc177x_8x/Drivers/source/lpc177x_8x_can.c ****             TSEG2 = (NT/3) - 1;
 178              		.loc 1 136 0
 179 009a FA7D     		ldrb	r2, [r7, #23]	@ zero_extendqisi2
 180 009c 1B4B     		ldr	r3, .L15
 181 009e A3FB0213 		umull	r1, r3, r3, r2
 182 00a2 4FEA5303 		lsr	r3, r3, #1
 183 00a6 DBB2     		uxtb	r3, r3
 184 00a8 03F1FF33 		add	r3, r3, #-1
 185 00ac 7B75     		strb	r3, [r7, #21]
 137:../src/lib/lpc177x_8x/Drivers/source/lpc177x_8x_can.c **** 
 138:../src/lib/lpc177x_8x/Drivers/source/lpc177x_8x_can.c ****             TSEG1 = NT -(NT/3) - 1;
 186              		.loc 1 138 0
 187 00ae FA7D     		ldrb	r2, [r7, #23]	@ zero_extendqisi2
 188 00b0 164B     		ldr	r3, .L15
 189 00b2 A3FB0213 		umull	r1, r3, r3, r2
 190 00b6 4FEA5303 		lsr	r3, r3, #1
 191 00ba DBB2     		uxtb	r3, r3
 192 00bc FA7D     		ldrb	r2, [r7, #23]
 193 00be D31A     		subs	r3, r2, r3
 194 00c0 DBB2     		uxtb	r3, r3
 195 00c2 03F1FF33 		add	r3, r3, #-1
 196 00c6 BB75     		strb	r3, [r7, #22]
 139:../src/lib/lpc177x_8x/Drivers/source/lpc177x_8x_can.c **** 
 140:../src/lib/lpc177x_8x/Drivers/source/lpc177x_8x_can.c ****             break;
 197              		.loc 1 140 0
 198 00c8 06E0     		b	.L13
 199              	.L12:
 128:../src/lib/lpc177x_8x/Drivers/source/lpc177x_8x_can.c ****     for(NT = 24; NT > 0; NT = NT-2)
 200              		.loc 1 128 0
 201 00ca FB7D     		ldrb	r3, [r7, #23]
 202 00cc A3F10203 		sub	r3, r3, #2
 203 00d0 FB75     		strb	r3, [r7, #23]
 204              	.L11:
 128:../src/lib/lpc177x_8x/Drivers/source/lpc177x_8x_can.c ****     for(NT = 24; NT > 0; NT = NT-2)
 205              		.loc 1 128 0 is_stmt 0 discriminator 1
 206 00d2 FB7D     		ldrb	r3, [r7, #23]	@ zero_extendqisi2
 207 00d4 002B     		cmp	r3, #0
 208 00d6 CCD1     		bne	.L14
 209              	.L13:
 141:../src/lib/lpc177x_8x/Drivers/source/lpc177x_8x_can.c ****         }
 142:../src/lib/lpc177x_8x/Drivers/source/lpc177x_8x_can.c ****     }
 143:../src/lib/lpc177x_8x/Drivers/source/lpc177x_8x_can.c **** 
 144:../src/lib/lpc177x_8x/Drivers/source/lpc177x_8x_can.c ****     /* Enter reset mode */
 145:../src/lib/lpc177x_8x/Drivers/source/lpc177x_8x_can.c ****     CANx->MOD = 0x01;
 210              		.loc 1 145 0 is_stmt 1
 211 00d8 7B68     		ldr	r3, [r7, #4]
 212 00da 4FF00102 		mov	r2, #1
 213 00de 1A60     		str	r2, [r3, #0]
 146:../src/lib/lpc177x_8x/Drivers/source/lpc177x_8x_can.c **** 
 147:../src/lib/lpc177x_8x/Drivers/source/lpc177x_8x_can.c ****     /* Set bit timing
 148:../src/lib/lpc177x_8x/Drivers/source/lpc177x_8x_can.c ****      * Default: SAM = 0x00;
 149:../src/lib/lpc177x_8x/Drivers/source/lpc177x_8x_can.c ****      *          SJW = 0x03;
 150:../src/lib/lpc177x_8x/Drivers/source/lpc177x_8x_can.c ****      */
 151:../src/lib/lpc177x_8x/Drivers/source/lpc177x_8x_can.c ****     CANx->BTR = (TSEG2 << 20) | (TSEG1 << 16) | (3 << 14) | BRP;
 214              		.loc 1 151 0
 215 00e0 7B7D     		ldrb	r3, [r7, #21]	@ zero_extendqisi2
 216 00e2 4FEA0352 		lsl	r2, r3, #20
 217 00e6 BB7D     		ldrb	r3, [r7, #22]	@ zero_extendqisi2
 218 00e8 4FEA0343 		lsl	r3, r3, #16
 219 00ec 1343     		orrs	r3, r3, r2
 220 00ee 1A46     		mov	r2, r3
 221 00f0 3B69     		ldr	r3, [r7, #16]
 222 00f2 1343     		orrs	r3, r3, r2
 223 00f4 43F44042 		orr	r2, r3, #49152
 224 00f8 7B68     		ldr	r3, [r7, #4]
 225 00fa 5A61     		str	r2, [r3, #20]
 152:../src/lib/lpc177x_8x/Drivers/source/lpc177x_8x_can.c **** 
 153:../src/lib/lpc177x_8x/Drivers/source/lpc177x_8x_can.c ****     /* Return to normal operating */
 154:../src/lib/lpc177x_8x/Drivers/source/lpc177x_8x_can.c ****     CANx->MOD = 0;
 226              		.loc 1 154 0
 227 00fc 7B68     		ldr	r3, [r7, #4]
 228 00fe 4FF00002 		mov	r2, #0
 229 0102 1A60     		str	r2, [r3, #0]
 155:../src/lib/lpc177x_8x/Drivers/source/lpc177x_8x_can.c **** }
 230              		.loc 1 155 0
 231 0104 07F11807 		add	r7, r7, #24
 232 0108 BD46     		mov	sp, r7
 233 010a 80BD     		pop	{r7, pc}
 234              	.L16:
 235              		.align	2
 236              	.L15:
 237 010c ABAAAAAA 		.word	-1431655765
 238              		.cfi_endproc
 239              	.LFE56:
 241              		.align	2
 242              		.global	CAN_Init
 243              		.thumb
 244              		.thumb_func
 246              	CAN_Init:
 247              	.LFB57:
 156:../src/lib/lpc177x_8x/Drivers/source/lpc177x_8x_can.c **** /* End of Private Functions ----------------------------------------------------*/
 157:../src/lib/lpc177x_8x/Drivers/source/lpc177x_8x_can.c **** 
 158:../src/lib/lpc177x_8x/Drivers/source/lpc177x_8x_can.c **** 
 159:../src/lib/lpc177x_8x/Drivers/source/lpc177x_8x_can.c **** /* Public Functions ----------------------------------------------------------- */
 160:../src/lib/lpc177x_8x/Drivers/source/lpc177x_8x_can.c **** /** @addtogroup CAN_Public_Functions
 161:../src/lib/lpc177x_8x/Drivers/source/lpc177x_8x_can.c ****  * @{
 162:../src/lib/lpc177x_8x/Drivers/source/lpc177x_8x_can.c ****  */
 163:../src/lib/lpc177x_8x/Drivers/source/lpc177x_8x_can.c **** 
 164:../src/lib/lpc177x_8x/Drivers/source/lpc177x_8x_can.c **** /********************************************************************//**
 165:../src/lib/lpc177x_8x/Drivers/source/lpc177x_8x_can.c ****  * @brief       Initialize CAN peripheral with given baudrate
 166:../src/lib/lpc177x_8x/Drivers/source/lpc177x_8x_can.c ****  * @param[in]    canId           The Id of the expected CAN component
 167:../src/lib/lpc177x_8x/Drivers/source/lpc177x_8x_can.c ****  *
 168:../src/lib/lpc177x_8x/Drivers/source/lpc177x_8x_can.c ****  * @param[in]   baudrate: the value of CAN baudrate will be set (bps)
 169:../src/lib/lpc177x_8x/Drivers/source/lpc177x_8x_can.c ****  * @return      None
 170:../src/lib/lpc177x_8x/Drivers/source/lpc177x_8x_can.c ****  *********************************************************************/
 171:../src/lib/lpc177x_8x/Drivers/source/lpc177x_8x_can.c **** void CAN_Init(uint8_t canId, uint32_t baudrate)
 172:../src/lib/lpc177x_8x/Drivers/source/lpc177x_8x_can.c **** {
 248              		.loc 1 172 0
 249              		.cfi_startproc
 250              		@ args = 0, pretend = 0, frame = 16
 251              		@ frame_needed = 1, uses_anonymous_args = 0
 252 0110 80B5     		push	{r7, lr}
 253              	.LCFI6:
 254              		.cfi_def_cfa_offset 8
 255              		.cfi_offset 7, -8
 256              		.cfi_offset 14, -4
 257 0112 84B0     		sub	sp, sp, #16
 258              	.LCFI7:
 259              		.cfi_def_cfa_offset 24
 260 0114 00AF     		add	r7, sp, #0
 261              	.LCFI8:
 262              		.cfi_def_cfa_register 7
 263 0116 0346     		mov	r3, r0
 264 0118 3960     		str	r1, [r7, #0]
 265 011a FB71     		strb	r3, [r7, #7]
 173:../src/lib/lpc177x_8x/Drivers/source/lpc177x_8x_can.c ****     LPC_CAN_TypeDef* pCan = CAN_GetPointer(canId);
 266              		.loc 1 173 0
 267 011c FB79     		ldrb	r3, [r7, #7]	@ zero_extendqisi2
 268 011e 1846     		mov	r0, r3
 269 0120 FFF76EFF 		bl	CAN_GetPointer
 270 0124 B860     		str	r0, [r7, #8]
 174:../src/lib/lpc177x_8x/Drivers/source/lpc177x_8x_can.c **** 
 175:../src/lib/lpc177x_8x/Drivers/source/lpc177x_8x_can.c ****     uint16_t i;
 176:../src/lib/lpc177x_8x/Drivers/source/lpc177x_8x_can.c **** 
 177:../src/lib/lpc177x_8x/Drivers/source/lpc177x_8x_can.c ****     if(canId == CAN_ID_1)
 271              		.loc 1 177 0
 272 0126 FB79     		ldrb	r3, [r7, #7]	@ zero_extendqisi2
 273 0128 002B     		cmp	r3, #0
 274 012a 06D1     		bne	.L18
 178:../src/lib/lpc177x_8x/Drivers/source/lpc177x_8x_can.c ****     {
 179:../src/lib/lpc177x_8x/Drivers/source/lpc177x_8x_can.c ****         /* Turn on power and clock for CAN1 */
 180:../src/lib/lpc177x_8x/Drivers/source/lpc177x_8x_can.c ****         CLKPWR_ConfigPPWR(CLKPWR_PCONP_PCAN1, ENABLE);
 275              		.loc 1 180 0
 276 012c 4FF40050 		mov	r0, #8192
 277 0130 4FF00101 		mov	r1, #1
 278 0134 FFF7FEFF 		bl	CLKPWR_ConfigPPWR
 279 0138 08E0     		b	.L19
 280              	.L18:
 181:../src/lib/lpc177x_8x/Drivers/source/lpc177x_8x_can.c ****     }
 182:../src/lib/lpc177x_8x/Drivers/source/lpc177x_8x_can.c ****     else if(canId == CAN_ID_2)
 281              		.loc 1 182 0
 282 013a FB79     		ldrb	r3, [r7, #7]	@ zero_extendqisi2
 283 013c 012B     		cmp	r3, #1
 284 013e 50D1     		bne	.L24
 183:../src/lib/lpc177x_8x/Drivers/source/lpc177x_8x_can.c ****     {
 184:../src/lib/lpc177x_8x/Drivers/source/lpc177x_8x_can.c ****         /* Turn on power and clock for CAN2 */
 185:../src/lib/lpc177x_8x/Drivers/source/lpc177x_8x_can.c ****         CLKPWR_ConfigPPWR(CLKPWR_PCONP_PCAN2, ENABLE);
 285              		.loc 1 185 0
 286 0140 4FF48040 		mov	r0, #16384
 287 0144 4FF00101 		mov	r1, #1
 288 0148 FFF7FEFF 		bl	CLKPWR_ConfigPPWR
 289              	.L19:
 186:../src/lib/lpc177x_8x/Drivers/source/lpc177x_8x_can.c ****     }
 187:../src/lib/lpc177x_8x/Drivers/source/lpc177x_8x_can.c ****     else
 188:../src/lib/lpc177x_8x/Drivers/source/lpc177x_8x_can.c ****     {
 189:../src/lib/lpc177x_8x/Drivers/source/lpc177x_8x_can.c ****         return;
 190:../src/lib/lpc177x_8x/Drivers/source/lpc177x_8x_can.c ****     }
 191:../src/lib/lpc177x_8x/Drivers/source/lpc177x_8x_can.c **** 
 192:../src/lib/lpc177x_8x/Drivers/source/lpc177x_8x_can.c ****     pCan->MOD = 1; // Enter Reset Mode
 290              		.loc 1 192 0
 291 014c BB68     		ldr	r3, [r7, #8]
 292 014e 4FF00102 		mov	r2, #1
 293 0152 1A60     		str	r2, [r3, #0]
 193:../src/lib/lpc177x_8x/Drivers/source/lpc177x_8x_can.c ****     pCan->IER = 0; // Disable All CAN Interrupts
 294              		.loc 1 193 0
 295 0154 BB68     		ldr	r3, [r7, #8]
 296 0156 4FF00002 		mov	r2, #0
 297 015a 1A61     		str	r2, [r3, #16]
 194:../src/lib/lpc177x_8x/Drivers/source/lpc177x_8x_can.c ****     pCan->GSR = 0;
 298              		.loc 1 194 0
 299 015c BB68     		ldr	r3, [r7, #8]
 300 015e 4FF00002 		mov	r2, #0
 301 0162 9A60     		str	r2, [r3, #8]
 195:../src/lib/lpc177x_8x/Drivers/source/lpc177x_8x_can.c **** 
 196:../src/lib/lpc177x_8x/Drivers/source/lpc177x_8x_can.c ****     /* Request command to release Rx, Tx buffer and clear data overrun */
 197:../src/lib/lpc177x_8x/Drivers/source/lpc177x_8x_can.c ****     //pCan->CMR = CAN_CMR_AT | CAN_CMR_RRB | CAN_CMR_CDO;
 198:../src/lib/lpc177x_8x/Drivers/source/lpc177x_8x_can.c ****     pCan->CMR = (1 << 1) | (1 << 2) | (1 << 3);
 302              		.loc 1 198 0
 303 0164 BB68     		ldr	r3, [r7, #8]
 304 0166 4FF00E02 		mov	r2, #14
 305 016a 5A60     		str	r2, [r3, #4]
 199:../src/lib/lpc177x_8x/Drivers/source/lpc177x_8x_can.c **** 
 200:../src/lib/lpc177x_8x/Drivers/source/lpc177x_8x_can.c ****     /* Read to clear interrupt pending in interrupt capture register */
 201:../src/lib/lpc177x_8x/Drivers/source/lpc177x_8x_can.c ****     i = pCan->ICR;
 306              		.loc 1 201 0
 307 016c BB68     		ldr	r3, [r7, #8]
 308 016e DB68     		ldr	r3, [r3, #12]
 309 0170 FB81     		strh	r3, [r7, #14]	@ movhi
 202:../src/lib/lpc177x_8x/Drivers/source/lpc177x_8x_can.c ****     pCan->MOD = 0;// Return Normal operating
 310              		.loc 1 202 0
 311 0172 BB68     		ldr	r3, [r7, #8]
 312 0174 4FF00002 		mov	r2, #0
 313 0178 1A60     		str	r2, [r3, #0]
 203:../src/lib/lpc177x_8x/Drivers/source/lpc177x_8x_can.c **** 
 204:../src/lib/lpc177x_8x/Drivers/source/lpc177x_8x_can.c ****     //Reset CANAF value
 205:../src/lib/lpc177x_8x/Drivers/source/lpc177x_8x_can.c ****     LPC_CANAF->AFMR = 0x01;
 314              		.loc 1 205 0
 315 017a 1C4B     		ldr	r3, .L25
 316 017c 4FF00102 		mov	r2, #1
 317 0180 1A60     		str	r2, [r3, #0]
 206:../src/lib/lpc177x_8x/Drivers/source/lpc177x_8x_can.c **** 
 207:../src/lib/lpc177x_8x/Drivers/source/lpc177x_8x_can.c ****     //clear ALUT RAM
 208:../src/lib/lpc177x_8x/Drivers/source/lpc177x_8x_can.c ****     for (i = 0; i < 512; i++)
 318              		.loc 1 208 0
 319 0182 4FF00003 		mov	r3, #0
 320 0186 FB81     		strh	r3, [r7, #14]	@ movhi
 321 0188 09E0     		b	.L22
 322              	.L23:
 209:../src/lib/lpc177x_8x/Drivers/source/lpc177x_8x_can.c ****     {
 210:../src/lib/lpc177x_8x/Drivers/source/lpc177x_8x_can.c ****         LPC_CANAF_RAM->mask[i] = 0x00;
 323              		.loc 1 210 0 discriminator 2
 324 018a 194B     		ldr	r3, .L25+4
 325 018c FA89     		ldrh	r2, [r7, #14]
 326 018e 4FF00001 		mov	r1, #0
 327 0192 43F82210 		str	r1, [r3, r2, lsl #2]
 208:../src/lib/lpc177x_8x/Drivers/source/lpc177x_8x_can.c ****     for (i = 0; i < 512; i++)
 328              		.loc 1 208 0 discriminator 2
 329 0196 FB89     		ldrh	r3, [r7, #14]	@ movhi
 330 0198 03F10103 		add	r3, r3, #1
 331 019c FB81     		strh	r3, [r7, #14]	@ movhi
 332              	.L22:
 208:../src/lib/lpc177x_8x/Drivers/source/lpc177x_8x_can.c ****     for (i = 0; i < 512; i++)
 333              		.loc 1 208 0 is_stmt 0 discriminator 1
 334 019e FA89     		ldrh	r2, [r7, #14]
 335 01a0 40F2FF13 		movw	r3, #511
 336 01a4 9A42     		cmp	r2, r3
 337 01a6 F0D9     		bls	.L23
 211:../src/lib/lpc177x_8x/Drivers/source/lpc177x_8x_can.c ****     }
 212:../src/lib/lpc177x_8x/Drivers/source/lpc177x_8x_can.c **** 
 213:../src/lib/lpc177x_8x/Drivers/source/lpc177x_8x_can.c ****     LPC_CANAF->SFF_sa = 0x00;
 338              		.loc 1 213 0 is_stmt 1
 339 01a8 104B     		ldr	r3, .L25
 340 01aa 4FF00002 		mov	r2, #0
 341 01ae 5A60     		str	r2, [r3, #4]
 214:../src/lib/lpc177x_8x/Drivers/source/lpc177x_8x_can.c ****     LPC_CANAF->SFF_GRP_sa = 0x00;
 342              		.loc 1 214 0
 343 01b0 0E4B     		ldr	r3, .L25
 344 01b2 4FF00002 		mov	r2, #0
 345 01b6 9A60     		str	r2, [r3, #8]
 215:../src/lib/lpc177x_8x/Drivers/source/lpc177x_8x_can.c ****     LPC_CANAF->EFF_sa = 0x00;
 346              		.loc 1 215 0
 347 01b8 0C4B     		ldr	r3, .L25
 348 01ba 4FF00002 		mov	r2, #0
 349 01be DA60     		str	r2, [r3, #12]
 216:../src/lib/lpc177x_8x/Drivers/source/lpc177x_8x_can.c ****     LPC_CANAF->EFF_GRP_sa = 0x00;
 350              		.loc 1 216 0
 351 01c0 0A4B     		ldr	r3, .L25
 352 01c2 4FF00002 		mov	r2, #0
 353 01c6 1A61     		str	r2, [r3, #16]
 217:../src/lib/lpc177x_8x/Drivers/source/lpc177x_8x_can.c ****     LPC_CANAF->ENDofTable = 0x00;
 354              		.loc 1 217 0
 355 01c8 084B     		ldr	r3, .L25
 356 01ca 4FF00002 		mov	r2, #0
 357 01ce 5A61     		str	r2, [r3, #20]
 218:../src/lib/lpc177x_8x/Drivers/source/lpc177x_8x_can.c **** 
 219:../src/lib/lpc177x_8x/Drivers/source/lpc177x_8x_can.c ****     LPC_CANAF->AFMR = 0x00;
 358              		.loc 1 219 0
 359 01d0 064B     		ldr	r3, .L25
 360 01d2 4FF00002 		mov	r2, #0
 361 01d6 1A60     		str	r2, [r3, #0]
 220:../src/lib/lpc177x_8x/Drivers/source/lpc177x_8x_can.c **** 
 221:../src/lib/lpc177x_8x/Drivers/source/lpc177x_8x_can.c ****     /* Set baudrate */
 222:../src/lib/lpc177x_8x/Drivers/source/lpc177x_8x_can.c ****     can_SetBaudrate (pCan, baudrate);
 362              		.loc 1 222 0
 363 01d8 B868     		ldr	r0, [r7, #8]
 364 01da 3968     		ldr	r1, [r7, #0]
 365 01dc FFF730FF 		bl	can_SetBaudrate
 366 01e0 00E0     		b	.L17
 367              	.L24:
 189:../src/lib/lpc177x_8x/Drivers/source/lpc177x_8x_can.c ****         return;
 368              		.loc 1 189 0
 369 01e2 00BF     		nop
 370              	.L17:
 223:../src/lib/lpc177x_8x/Drivers/source/lpc177x_8x_can.c **** }
 371              		.loc 1 223 0
 372 01e4 07F11007 		add	r7, r7, #16
 373 01e8 BD46     		mov	sp, r7
 374 01ea 80BD     		pop	{r7, pc}
 375              	.L26:
 376              		.align	2
 377              	.L25:
 378 01ec 00C00340 		.word	1073987584
 379 01f0 00800340 		.word	1073971200
 380              		.cfi_endproc
 381              	.LFE57:
 383              		.align	2
 384              		.global	CAN_DeInit
 385              		.thumb
 386              		.thumb_func
 388              	CAN_DeInit:
 389              	.LFB58:
 224:../src/lib/lpc177x_8x/Drivers/source/lpc177x_8x_can.c **** 
 225:../src/lib/lpc177x_8x/Drivers/source/lpc177x_8x_can.c **** /********************************************************************//**
 226:../src/lib/lpc177x_8x/Drivers/source/lpc177x_8x_can.c ****  * @brief       CAN deInit
 227:../src/lib/lpc177x_8x/Drivers/source/lpc177x_8x_can.c ****  * @param[in]    canId           The Id of the expected CAN component
 228:../src/lib/lpc177x_8x/Drivers/source/lpc177x_8x_can.c ****  *
 229:../src/lib/lpc177x_8x/Drivers/source/lpc177x_8x_can.c ****  * @return      None
 230:../src/lib/lpc177x_8x/Drivers/source/lpc177x_8x_can.c ****  *********************************************************************/
 231:../src/lib/lpc177x_8x/Drivers/source/lpc177x_8x_can.c **** void CAN_DeInit(uint8_t canId)
 232:../src/lib/lpc177x_8x/Drivers/source/lpc177x_8x_can.c **** {
 390              		.loc 1 232 0
 391              		.cfi_startproc
 392              		@ args = 0, pretend = 0, frame = 8
 393              		@ frame_needed = 1, uses_anonymous_args = 0
 394 01f4 80B5     		push	{r7, lr}
 395              	.LCFI9:
 396              		.cfi_def_cfa_offset 8
 397              		.cfi_offset 7, -8
 398              		.cfi_offset 14, -4
 399 01f6 82B0     		sub	sp, sp, #8
 400              	.LCFI10:
 401              		.cfi_def_cfa_offset 16
 402 01f8 00AF     		add	r7, sp, #0
 403              	.LCFI11:
 404              		.cfi_def_cfa_register 7
 405 01fa 0346     		mov	r3, r0
 406 01fc FB71     		strb	r3, [r7, #7]
 233:../src/lib/lpc177x_8x/Drivers/source/lpc177x_8x_can.c ****     if(canId == CAN_ID_1)
 407              		.loc 1 233 0
 408 01fe FB79     		ldrb	r3, [r7, #7]	@ zero_extendqisi2
 409 0200 002B     		cmp	r3, #0
 410 0202 06D1     		bne	.L28
 234:../src/lib/lpc177x_8x/Drivers/source/lpc177x_8x_can.c ****     {
 235:../src/lib/lpc177x_8x/Drivers/source/lpc177x_8x_can.c ****         /* Turn on power and clock for CAN1 */
 236:../src/lib/lpc177x_8x/Drivers/source/lpc177x_8x_can.c ****         CLKPWR_ConfigPPWR(CLKPWR_PCONP_PCAN1, DISABLE);
 411              		.loc 1 236 0
 412 0204 4FF40050 		mov	r0, #8192
 413 0208 4FF00001 		mov	r1, #0
 414 020c FFF7FEFF 		bl	CLKPWR_ConfigPPWR
 237:../src/lib/lpc177x_8x/Drivers/source/lpc177x_8x_can.c ****     }
 238:../src/lib/lpc177x_8x/Drivers/source/lpc177x_8x_can.c ****     else if(canId == CAN_ID_2)
 239:../src/lib/lpc177x_8x/Drivers/source/lpc177x_8x_can.c ****     {
 240:../src/lib/lpc177x_8x/Drivers/source/lpc177x_8x_can.c ****         /* Turn on power and clock for CAN1 */
 241:../src/lib/lpc177x_8x/Drivers/source/lpc177x_8x_can.c ****         CLKPWR_ConfigPPWR(CLKPWR_PCONP_PCAN2, DISABLE);
 242:../src/lib/lpc177x_8x/Drivers/source/lpc177x_8x_can.c ****     }
 243:../src/lib/lpc177x_8x/Drivers/source/lpc177x_8x_can.c **** 
 244:../src/lib/lpc177x_8x/Drivers/source/lpc177x_8x_can.c ****     return;
 415              		.loc 1 244 0
 416 0210 08E0     		b	.L31
 417              	.L28:
 238:../src/lib/lpc177x_8x/Drivers/source/lpc177x_8x_can.c ****     else if(canId == CAN_ID_2)
 418              		.loc 1 238 0
 419 0212 FB79     		ldrb	r3, [r7, #7]	@ zero_extendqisi2
 420 0214 012B     		cmp	r3, #1
 421 0216 05D1     		bne	.L31
 241:../src/lib/lpc177x_8x/Drivers/source/lpc177x_8x_can.c ****         CLKPWR_ConfigPPWR(CLKPWR_PCONP_PCAN2, DISABLE);
 422              		.loc 1 241 0
 423 0218 4FF48040 		mov	r0, #16384
 424 021c 4FF00001 		mov	r1, #0
 425 0220 FFF7FEFF 		bl	CLKPWR_ConfigPPWR
 426              	.L31:
 427              		.loc 1 244 0
 428 0224 00BF     		nop
 429              	.L27:
 245:../src/lib/lpc177x_8x/Drivers/source/lpc177x_8x_can.c **** }
 430              		.loc 1 245 0
 431 0226 07F10807 		add	r7, r7, #8
 432 022a BD46     		mov	sp, r7
 433 022c 80BD     		pop	{r7, pc}
 434              		.cfi_endproc
 435              	.LFE58:
 437 022e 00BF     		.align	2
 438              		.global	CAN_SetupAFLUT
 439              		.thumb
 440              		.thumb_func
 442              	CAN_SetupAFLUT:
 443              	.LFB59:
 246:../src/lib/lpc177x_8x/Drivers/source/lpc177x_8x_can.c **** 
 247:../src/lib/lpc177x_8x/Drivers/source/lpc177x_8x_can.c **** /********************************************************************//**
 248:../src/lib/lpc177x_8x/Drivers/source/lpc177x_8x_can.c ****  * @brief       Setup Acceptance Filter Look-Up Table
 249:../src/lib/lpc177x_8x/Drivers/source/lpc177x_8x_can.c ****  * @param[in]   CANAFx  pointer to LPC_CANAF_TypeDef
 250:../src/lib/lpc177x_8x/Drivers/source/lpc177x_8x_can.c ****  *              Should be: LPC_CANAF
 251:../src/lib/lpc177x_8x/Drivers/source/lpc177x_8x_can.c ****  * @param[in]   AFSection   the pointer to AF_SectionDef structure
 252:../src/lib/lpc177x_8x/Drivers/source/lpc177x_8x_can.c ****  *              It contain information about 5 sections will be install in AFLUT
 253:../src/lib/lpc177x_8x/Drivers/source/lpc177x_8x_can.c ****  * @return      CAN Error   could be:
 254:../src/lib/lpc177x_8x/Drivers/source/lpc177x_8x_can.c ****  *              - CAN_OBJECTS_FULL_ERROR: No more rx or tx objects available
 255:../src/lib/lpc177x_8x/Drivers/source/lpc177x_8x_can.c ****  *              - CAN_AF_ENTRY_ERROR: table error-violation of ascending numerical order
 256:../src/lib/lpc177x_8x/Drivers/source/lpc177x_8x_can.c ****  *              - CAN_OK: ID is added into table successfully
 257:../src/lib/lpc177x_8x/Drivers/source/lpc177x_8x_can.c ****  *********************************************************************/
 258:../src/lib/lpc177x_8x/Drivers/source/lpc177x_8x_can.c **** CAN_ERROR CAN_SetupAFLUT(AF_SectionDef* AFSection)
 259:../src/lib/lpc177x_8x/Drivers/source/lpc177x_8x_can.c **** {
 444              		.loc 1 259 0
 445              		.cfi_startproc
 446              		@ args = 0, pretend = 0, frame = 88
 447              		@ frame_needed = 1, uses_anonymous_args = 0
 448              		@ link register save eliminated.
 449 0230 B0B4     		push	{r4, r5, r7}
 450              	.LCFI12:
 451              		.cfi_def_cfa_offset 12
 452              		.cfi_offset 4, -12
 453              		.cfi_offset 5, -8
 454              		.cfi_offset 7, -4
 455 0232 97B0     		sub	sp, sp, #92
 456              	.LCFI13:
 457              		.cfi_def_cfa_offset 104
 458 0234 00AF     		add	r7, sp, #0
 459              	.LCFI14:
 460              		.cfi_def_cfa_register 7
 461 0236 7860     		str	r0, [r7, #4]
 260:../src/lib/lpc177x_8x/Drivers/source/lpc177x_8x_can.c ****     uint8_t ctrl1,ctrl2;
 261:../src/lib/lpc177x_8x/Drivers/source/lpc177x_8x_can.c ****     uint8_t dis1, dis2;
 262:../src/lib/lpc177x_8x/Drivers/source/lpc177x_8x_can.c ****     uint16_t SID, ID_temp,i, count = 0;
 462              		.loc 1 262 0
 463 0238 4FF00003 		mov	r3, #0
 464 023c A7F85430 		strh	r3, [r7, #84]	@ movhi
 263:../src/lib/lpc177x_8x/Drivers/source/lpc177x_8x_can.c ****     uint32_t EID, entry, buf;
 264:../src/lib/lpc177x_8x/Drivers/source/lpc177x_8x_can.c ****     uint16_t lowerSID, upperSID;
 265:../src/lib/lpc177x_8x/Drivers/source/lpc177x_8x_can.c ****     uint32_t lowerEID, upperEID;
 266:../src/lib/lpc177x_8x/Drivers/source/lpc177x_8x_can.c ****     AF_SectionDef afSecDef;
 267:../src/lib/lpc177x_8x/Drivers/source/lpc177x_8x_can.c **** 
 268:../src/lib/lpc177x_8x/Drivers/source/lpc177x_8x_can.c **** 
 269:../src/lib/lpc177x_8x/Drivers/source/lpc177x_8x_can.c ****     afSecDef = *AFSection;
 465              		.loc 1 269 0
 466 0240 7B68     		ldr	r3, [r7, #4]
 467 0242 07F10804 		add	r4, r7, #8
 468 0246 1D46     		mov	r5, r3
 469 0248 0FCD     		ldmia	r5!, {r0, r1, r2, r3}
 470 024a 0FC4     		stmia	r4!, {r0, r1, r2, r3}
 471 024c 0FCD     		ldmia	r5!, {r0, r1, r2, r3}
 472 024e 0FC4     		stmia	r4!, {r0, r1, r2, r3}
 473 0250 95E80300 		ldmia	r5, {r0, r1}
 474 0254 84E80300 		stmia	r4, {r0, r1}
 270:../src/lib/lpc177x_8x/Drivers/source/lpc177x_8x_can.c ****     LPC_CANAF->AFMR = 0x01;
 475              		.loc 1 270 0
 476 0258 BC4B     		ldr	r3, .L71
 477 025a 4FF00102 		mov	r2, #1
 478 025e 1A60     		str	r2, [r3, #0]
 271:../src/lib/lpc177x_8x/Drivers/source/lpc177x_8x_can.c **** 
 272:../src/lib/lpc177x_8x/Drivers/source/lpc177x_8x_can.c ****     /***** setup FullCAN Table *****/
 273:../src/lib/lpc177x_8x/Drivers/source/lpc177x_8x_can.c ****     if(afSecDef.FullCAN_Sec == NULL)
 479              		.loc 1 273 0
 480 0260 BB68     		ldr	r3, [r7, #8]
 481 0262 002B     		cmp	r3, #0
 482 0264 04D1     		bne	.L33
 274:../src/lib/lpc177x_8x/Drivers/source/lpc177x_8x_can.c ****     {
 275:../src/lib/lpc177x_8x/Drivers/source/lpc177x_8x_can.c ****         FULLCAN_ENABLE = DISABLE;
 483              		.loc 1 275 0
 484 0266 BA4B     		ldr	r3, .L71+4
 485 0268 4FF00002 		mov	r2, #0
 486 026c 1A70     		strb	r2, [r3, #0]
 487 026e E7E0     		b	.L34
 488              	.L33:
 276:../src/lib/lpc177x_8x/Drivers/source/lpc177x_8x_can.c ****     }
 277:../src/lib/lpc177x_8x/Drivers/source/lpc177x_8x_can.c ****     else
 278:../src/lib/lpc177x_8x/Drivers/source/lpc177x_8x_can.c ****     {
 279:../src/lib/lpc177x_8x/Drivers/source/lpc177x_8x_can.c ****         FULLCAN_ENABLE = ENABLE;
 489              		.loc 1 279 0
 490 0270 B74B     		ldr	r3, .L71+4
 491 0272 4FF00102 		mov	r2, #1
 492 0276 1A70     		strb	r2, [r3, #0]
 280:../src/lib/lpc177x_8x/Drivers/source/lpc177x_8x_can.c **** 
 281:../src/lib/lpc177x_8x/Drivers/source/lpc177x_8x_can.c ****         for(i = 0; i < (afSecDef.FC_NumEntry); i++)
 493              		.loc 1 281 0
 494 0278 4FF00003 		mov	r3, #0
 495 027c A7F85630 		strh	r3, [r7, #86]	@ movhi
 496 0280 D8E0     		b	.L35
 497              	.L42:
 282:../src/lib/lpc177x_8x/Drivers/source/lpc177x_8x_can.c ****         {
 283:../src/lib/lpc177x_8x/Drivers/source/lpc177x_8x_can.c ****             if(count + 1 > 64)
 498              		.loc 1 283 0
 499 0282 B7F85430 		ldrh	r3, [r7, #84]
 500 0286 03F10103 		add	r3, r3, #1
 501 028a 402B     		cmp	r3, #64
 502 028c 02DD     		ble	.L36
 284:../src/lib/lpc177x_8x/Drivers/source/lpc177x_8x_can.c ****             {
 285:../src/lib/lpc177x_8x/Drivers/source/lpc177x_8x_can.c ****                 return CAN_OBJECTS_FULL_ERROR;
 503              		.loc 1 285 0
 504 028e 4FF00203 		mov	r3, #2
 505 0292 82E3     		b	.L70
 506              	.L36:
 286:../src/lib/lpc177x_8x/Drivers/source/lpc177x_8x_can.c ****             }
 287:../src/lib/lpc177x_8x/Drivers/source/lpc177x_8x_can.c **** 
 288:../src/lib/lpc177x_8x/Drivers/source/lpc177x_8x_can.c ****             ctrl1 = afSecDef.FullCAN_Sec->controller;
 507              		.loc 1 288 0
 508 0294 BB68     		ldr	r3, [r7, #8]
 509 0296 1B78     		ldrb	r3, [r3, #0]
 510 0298 87F85330 		strb	r3, [r7, #83]
 289:../src/lib/lpc177x_8x/Drivers/source/lpc177x_8x_can.c **** 
 290:../src/lib/lpc177x_8x/Drivers/source/lpc177x_8x_can.c ****             SID = afSecDef.FullCAN_Sec->id_11;
 511              		.loc 1 290 0
 512 029c BB68     		ldr	r3, [r7, #8]
 513 029e 5B88     		ldrh	r3, [r3, #2]	@ movhi
 514 02a0 A7F85030 		strh	r3, [r7, #80]	@ movhi
 291:../src/lib/lpc177x_8x/Drivers/source/lpc177x_8x_can.c **** 
 292:../src/lib/lpc177x_8x/Drivers/source/lpc177x_8x_can.c ****             dis1 = afSecDef.FullCAN_Sec->disable;
 515              		.loc 1 292 0
 516 02a4 BB68     		ldr	r3, [r7, #8]
 517 02a6 5B78     		ldrb	r3, [r3, #1]
 518 02a8 87F84F30 		strb	r3, [r7, #79]
 293:../src/lib/lpc177x_8x/Drivers/source/lpc177x_8x_can.c **** 
 294:../src/lib/lpc177x_8x/Drivers/source/lpc177x_8x_can.c ****             entry = 0x00; //reset entry value
 519              		.loc 1 294 0
 520 02ac 4FF00003 		mov	r3, #0
 521 02b0 BB64     		str	r3, [r7, #72]
 295:../src/lib/lpc177x_8x/Drivers/source/lpc177x_8x_can.c **** 
 296:../src/lib/lpc177x_8x/Drivers/source/lpc177x_8x_can.c ****             if((CANAF_FullCAN_cnt & 0x00000001)==0)
 522              		.loc 1 296 0
 523 02b2 A84B     		ldr	r3, .L71+8
 524 02b4 1B88     		ldrh	r3, [r3, #0]
 525 02b6 03F00103 		and	r3, r3, #1
 526 02ba 002B     		cmp	r3, #0
 527 02bc 5ED1     		bne	.L38
 297:../src/lib/lpc177x_8x/Drivers/source/lpc177x_8x_can.c ****             {
 298:../src/lib/lpc177x_8x/Drivers/source/lpc177x_8x_can.c ****                 if(count != 0x00)
 528              		.loc 1 298 0
 529 02be B7F85430 		ldrh	r3, [r7, #84]
 530 02c2 002B     		cmp	r3, #0
 531 02c4 1BD0     		beq	.L39
 299:../src/lib/lpc177x_8x/Drivers/source/lpc177x_8x_can.c ****                 {
 300:../src/lib/lpc177x_8x/Drivers/source/lpc177x_8x_can.c ****                     buf = LPC_CANAF_RAM->mask[count-1];
 532              		.loc 1 300 0
 533 02c6 A44B     		ldr	r3, .L71+12
 534 02c8 B7F85420 		ldrh	r2, [r7, #84]
 535 02cc 02F1FF32 		add	r2, r2, #-1
 536 02d0 53F82230 		ldr	r3, [r3, r2, lsl #2]
 537 02d4 7B64     		str	r3, [r7, #68]
 301:../src/lib/lpc177x_8x/Drivers/source/lpc177x_8x_can.c ****                     ID_temp = (buf & 0xE7FF); //mask controller & identifier bits
 538              		.loc 1 301 0
 539 02d6 7B6C     		ldr	r3, [r7, #68]
 540 02d8 9BB2     		uxth	r3, r3
 541 02da 23F4C053 		bic	r3, r3, #6144
 542 02de A7F84230 		strh	r3, [r7, #66]	@ movhi
 302:../src/lib/lpc177x_8x/Drivers/source/lpc177x_8x_can.c ****                     if(ID_temp > ((ctrl1<<13)|SID))
 543              		.loc 1 302 0
 544 02e2 B7F84220 		ldrh	r2, [r7, #66]
 545 02e6 97F85330 		ldrb	r3, [r7, #83]	@ zero_extendqisi2
 546 02ea 4FEA4331 		lsl	r1, r3, #13
 547 02ee B7F85030 		ldrh	r3, [r7, #80]
 548 02f2 0B43     		orrs	r3, r3, r1
 549 02f4 9A42     		cmp	r2, r3
 550 02f6 02DD     		ble	.L39
 303:../src/lib/lpc177x_8x/Drivers/source/lpc177x_8x_can.c ****                     {
 304:../src/lib/lpc177x_8x/Drivers/source/lpc177x_8x_can.c ****                         return CAN_AF_ENTRY_ERROR;
 551              		.loc 1 304 0
 552 02f8 4FF00503 		mov	r3, #5
 553 02fc 4DE3     		b	.L70
 554              	.L39:
 305:../src/lib/lpc177x_8x/Drivers/source/lpc177x_8x_can.c ****                     }
 306:../src/lib/lpc177x_8x/Drivers/source/lpc177x_8x_can.c ****                 }
 307:../src/lib/lpc177x_8x/Drivers/source/lpc177x_8x_can.c **** 
 308:../src/lib/lpc177x_8x/Drivers/source/lpc177x_8x_can.c ****                 entry = (ctrl1<<29)|(dis1<<28)|(SID<<16)|(1<<27);
 555              		.loc 1 308 0
 556 02fe 97F85330 		ldrb	r3, [r7, #83]	@ zero_extendqisi2
 557 0302 4FEA4372 		lsl	r2, r3, #29
 558 0306 97F84F30 		ldrb	r3, [r7, #79]	@ zero_extendqisi2
 559 030a 4FEA0373 		lsl	r3, r3, #28
 560 030e 1A43     		orrs	r2, r2, r3
 561 0310 B7F85030 		ldrh	r3, [r7, #80]
 562 0314 4FEA0343 		lsl	r3, r3, #16
 563 0318 1343     		orrs	r3, r3, r2
 564 031a 43F00063 		orr	r3, r3, #134217728
 565 031e BB64     		str	r3, [r7, #72]
 309:../src/lib/lpc177x_8x/Drivers/source/lpc177x_8x_can.c **** 
 310:../src/lib/lpc177x_8x/Drivers/source/lpc177x_8x_can.c ****                 LPC_CANAF_RAM->mask[count] &= 0x0000FFFF;
 566              		.loc 1 310 0
 567 0320 8D4A     		ldr	r2, .L71+12
 568 0322 B7F85410 		ldrh	r1, [r7, #84]
 569 0326 8C4B     		ldr	r3, .L71+12
 570 0328 B7F85400 		ldrh	r0, [r7, #84]
 571 032c 53F82030 		ldr	r3, [r3, r0, lsl #2]
 572 0330 4FEA0343 		lsl	r3, r3, #16
 573 0334 4FEA1343 		lsr	r3, r3, #16
 574 0338 42F82130 		str	r3, [r2, r1, lsl #2]
 311:../src/lib/lpc177x_8x/Drivers/source/lpc177x_8x_can.c **** 
 312:../src/lib/lpc177x_8x/Drivers/source/lpc177x_8x_can.c ****                 LPC_CANAF_RAM->mask[count] |= entry;
 575              		.loc 1 312 0
 576 033c 864B     		ldr	r3, .L71+12
 577 033e B7F85420 		ldrh	r2, [r7, #84]
 578 0342 8549     		ldr	r1, .L71+12
 579 0344 B7F85400 		ldrh	r0, [r7, #84]
 580 0348 51F82000 		ldr	r0, [r1, r0, lsl #2]
 581 034c B96C     		ldr	r1, [r7, #72]
 582 034e 0143     		orrs	r1, r1, r0
 583 0350 43F82210 		str	r1, [r3, r2, lsl #2]
 313:../src/lib/lpc177x_8x/Drivers/source/lpc177x_8x_can.c **** 
 314:../src/lib/lpc177x_8x/Drivers/source/lpc177x_8x_can.c ****                 CANAF_FullCAN_cnt++;
 584              		.loc 1 314 0
 585 0354 7F4B     		ldr	r3, .L71+8
 586 0356 1B88     		ldrh	r3, [r3, #0]
 587 0358 03F10103 		add	r3, r3, #1
 588 035c 9AB2     		uxth	r2, r3
 589 035e 7D4B     		ldr	r3, .L71+8
 590 0360 1A80     		strh	r2, [r3, #0]	@ movhi
 315:../src/lib/lpc177x_8x/Drivers/source/lpc177x_8x_can.c ****                 if(CANAF_FullCAN_cnt == afSecDef.FC_NumEntry) //this is the lastest FullCAN entry
 591              		.loc 1 315 0
 592 0362 3B7B     		ldrb	r3, [r7, #12]	@ zero_extendqisi2
 593 0364 1A46     		mov	r2, r3
 594 0366 7B4B     		ldr	r3, .L71+8
 595 0368 1B88     		ldrh	r3, [r3, #0]
 596 036a 9A42     		cmp	r2, r3
 597 036c 58D1     		bne	.L40
 316:../src/lib/lpc177x_8x/Drivers/source/lpc177x_8x_can.c ****                     count++;
 598              		.loc 1 316 0
 599 036e B7F85430 		ldrh	r3, [r7, #84]	@ movhi
 600 0372 03F10103 		add	r3, r3, #1
 601 0376 A7F85430 		strh	r3, [r7, #84]	@ movhi
 602 037a 51E0     		b	.L40
 603              	.L38:
 317:../src/lib/lpc177x_8x/Drivers/source/lpc177x_8x_can.c ****             }
 318:../src/lib/lpc177x_8x/Drivers/source/lpc177x_8x_can.c ****             else
 319:../src/lib/lpc177x_8x/Drivers/source/lpc177x_8x_can.c ****             {
 320:../src/lib/lpc177x_8x/Drivers/source/lpc177x_8x_can.c ****                 buf = LPC_CANAF_RAM->mask[count];
 604              		.loc 1 320 0
 605 037c 764B     		ldr	r3, .L71+12
 606 037e B7F85420 		ldrh	r2, [r7, #84]
 607 0382 53F82230 		ldr	r3, [r3, r2, lsl #2]
 608 0386 7B64     		str	r3, [r7, #68]
 321:../src/lib/lpc177x_8x/Drivers/source/lpc177x_8x_can.c ****                 ID_temp = (buf >>16) & 0xE7FF;
 609              		.loc 1 321 0
 610 0388 7B6C     		ldr	r3, [r7, #68]
 611 038a 4FEA1343 		lsr	r3, r3, #16
 612 038e 9BB2     		uxth	r3, r3
 613 0390 23F4C053 		bic	r3, r3, #6144
 614 0394 A7F84230 		strh	r3, [r7, #66]	@ movhi
 322:../src/lib/lpc177x_8x/Drivers/source/lpc177x_8x_can.c ****                 if(ID_temp > ((ctrl1<<13)|SID))
 615              		.loc 1 322 0
 616 0398 B7F84220 		ldrh	r2, [r7, #66]
 617 039c 97F85330 		ldrb	r3, [r7, #83]	@ zero_extendqisi2
 618 03a0 4FEA4331 		lsl	r1, r3, #13
 619 03a4 B7F85030 		ldrh	r3, [r7, #80]
 620 03a8 0B43     		orrs	r3, r3, r1
 621 03aa 9A42     		cmp	r2, r3
 622 03ac 02DD     		ble	.L41
 323:../src/lib/lpc177x_8x/Drivers/source/lpc177x_8x_can.c ****                 {
 324:../src/lib/lpc177x_8x/Drivers/source/lpc177x_8x_can.c ****                     return CAN_AF_ENTRY_ERROR;
 623              		.loc 1 324 0
 624 03ae 4FF00503 		mov	r3, #5
 625 03b2 F2E2     		b	.L70
 626              	.L41:
 325:../src/lib/lpc177x_8x/Drivers/source/lpc177x_8x_can.c ****                 }
 326:../src/lib/lpc177x_8x/Drivers/source/lpc177x_8x_can.c **** 
 327:../src/lib/lpc177x_8x/Drivers/source/lpc177x_8x_can.c ****                 entry = (ctrl1 << 13) | (dis1 << 12) | (SID << 0) | (1 << 11);
 627              		.loc 1 327 0
 628 03b4 97F85330 		ldrb	r3, [r7, #83]	@ zero_extendqisi2
 629 03b8 4FEA4332 		lsl	r2, r3, #13
 630 03bc 97F84F30 		ldrb	r3, [r7, #79]	@ zero_extendqisi2
 631 03c0 4FEA0333 		lsl	r3, r3, #12
 632 03c4 1A43     		orrs	r2, r2, r3
 633 03c6 B7F85030 		ldrh	r3, [r7, #80]
 634 03ca 1343     		orrs	r3, r3, r2
 635 03cc 43F40063 		orr	r3, r3, #2048
 636 03d0 BB64     		str	r3, [r7, #72]
 328:../src/lib/lpc177x_8x/Drivers/source/lpc177x_8x_can.c **** 
 329:../src/lib/lpc177x_8x/Drivers/source/lpc177x_8x_can.c ****                 LPC_CANAF_RAM->mask[count] &= 0xFFFF0000;
 637              		.loc 1 329 0
 638 03d2 614A     		ldr	r2, .L71+12
 639 03d4 B7F85410 		ldrh	r1, [r7, #84]
 640 03d8 5F4B     		ldr	r3, .L71+12
 641 03da B7F85400 		ldrh	r0, [r7, #84]
 642 03de 53F82030 		ldr	r3, [r3, r0, lsl #2]
 643 03e2 4FEA1343 		lsr	r3, r3, #16
 644 03e6 4FEA0343 		lsl	r3, r3, #16
 645 03ea 42F82130 		str	r3, [r2, r1, lsl #2]
 330:../src/lib/lpc177x_8x/Drivers/source/lpc177x_8x_can.c **** 
 331:../src/lib/lpc177x_8x/Drivers/source/lpc177x_8x_can.c ****                 LPC_CANAF_RAM->mask[count]|= entry;
 646              		.loc 1 331 0
 647 03ee 5A4B     		ldr	r3, .L71+12
 648 03f0 B7F85420 		ldrh	r2, [r7, #84]
 649 03f4 5849     		ldr	r1, .L71+12
 650 03f6 B7F85400 		ldrh	r0, [r7, #84]
 651 03fa 51F82000 		ldr	r0, [r1, r0, lsl #2]
 652 03fe B96C     		ldr	r1, [r7, #72]
 653 0400 0143     		orrs	r1, r1, r0
 654 0402 43F82210 		str	r1, [r3, r2, lsl #2]
 332:../src/lib/lpc177x_8x/Drivers/source/lpc177x_8x_can.c **** 
 333:../src/lib/lpc177x_8x/Drivers/source/lpc177x_8x_can.c ****                 count++;
 655              		.loc 1 333 0
 656 0406 B7F85430 		ldrh	r3, [r7, #84]	@ movhi
 657 040a 03F10103 		add	r3, r3, #1
 658 040e A7F85430 		strh	r3, [r7, #84]	@ movhi
 334:../src/lib/lpc177x_8x/Drivers/source/lpc177x_8x_can.c **** 
 335:../src/lib/lpc177x_8x/Drivers/source/lpc177x_8x_can.c ****                 CANAF_FullCAN_cnt++;
 659              		.loc 1 335 0
 660 0412 504B     		ldr	r3, .L71+8
 661 0414 1B88     		ldrh	r3, [r3, #0]
 662 0416 03F10103 		add	r3, r3, #1
 663 041a 9AB2     		uxth	r2, r3
 664 041c 4D4B     		ldr	r3, .L71+8
 665 041e 1A80     		strh	r2, [r3, #0]	@ movhi
 666              	.L40:
 336:../src/lib/lpc177x_8x/Drivers/source/lpc177x_8x_can.c ****             }
 337:../src/lib/lpc177x_8x/Drivers/source/lpc177x_8x_can.c **** 
 338:../src/lib/lpc177x_8x/Drivers/source/lpc177x_8x_can.c ****             afSecDef.FullCAN_Sec = (FullCAN_Entry *)((uint32_t)(afSecDef.FullCAN_Sec)+ sizeof(FullC
 667              		.loc 1 338 0
 668 0420 BB68     		ldr	r3, [r7, #8]
 669 0422 03F10403 		add	r3, r3, #4
 670 0426 BB60     		str	r3, [r7, #8]
 281:../src/lib/lpc177x_8x/Drivers/source/lpc177x_8x_can.c ****         for(i = 0; i < (afSecDef.FC_NumEntry); i++)
 671              		.loc 1 281 0
 672 0428 B7F85630 		ldrh	r3, [r7, #86]	@ movhi
 673 042c 03F10103 		add	r3, r3, #1
 674 0430 A7F85630 		strh	r3, [r7, #86]	@ movhi
 675              	.L35:
 281:../src/lib/lpc177x_8x/Drivers/source/lpc177x_8x_can.c ****         for(i = 0; i < (afSecDef.FC_NumEntry); i++)
 676              		.loc 1 281 0 is_stmt 0 discriminator 1
 677 0434 3B7B     		ldrb	r3, [r7, #12]	@ zero_extendqisi2
 678 0436 B7F85620 		ldrh	r2, [r7, #86]
 679 043a 9A42     		cmp	r2, r3
 680 043c FFF421AF 		bcc	.L42
 681              	.L34:
 339:../src/lib/lpc177x_8x/Drivers/source/lpc177x_8x_can.c ****         }
 340:../src/lib/lpc177x_8x/Drivers/source/lpc177x_8x_can.c ****     }
 341:../src/lib/lpc177x_8x/Drivers/source/lpc177x_8x_can.c **** 
 342:../src/lib/lpc177x_8x/Drivers/source/lpc177x_8x_can.c ****     /***** Setup Explicit Standard Frame Format Section *****/
 343:../src/lib/lpc177x_8x/Drivers/source/lpc177x_8x_can.c ****     if(afSecDef.SFF_Sec != NULL)
 682              		.loc 1 343 0 is_stmt 1
 683 0440 3B69     		ldr	r3, [r7, #16]
 684 0442 002B     		cmp	r3, #0
 685 0444 00F0EC80 		beq	.L43
 344:../src/lib/lpc177x_8x/Drivers/source/lpc177x_8x_can.c ****     {
 345:../src/lib/lpc177x_8x/Drivers/source/lpc177x_8x_can.c ****         for(i=0;i<(afSecDef.SFF_NumEntry);i++)
 686              		.loc 1 345 0
 687 0448 4FF00003 		mov	r3, #0
 688 044c A7F85630 		strh	r3, [r7, #86]	@ movhi
 689 0450 E0E0     		b	.L44
 690              	.L50:
 346:../src/lib/lpc177x_8x/Drivers/source/lpc177x_8x_can.c ****         {
 347:../src/lib/lpc177x_8x/Drivers/source/lpc177x_8x_can.c ****             if(count + 1 > 512)
 691              		.loc 1 347 0
 692 0452 B7F85430 		ldrh	r3, [r7, #84]
 693 0456 03F10103 		add	r3, r3, #1
 694 045a B3F5007F 		cmp	r3, #512
 695 045e 02DD     		ble	.L45
 348:../src/lib/lpc177x_8x/Drivers/source/lpc177x_8x_can.c ****             {
 349:../src/lib/lpc177x_8x/Drivers/source/lpc177x_8x_can.c ****                 return CAN_OBJECTS_FULL_ERROR;
 696              		.loc 1 349 0
 697 0460 4FF00203 		mov	r3, #2
 698 0464 99E2     		b	.L70
 699              	.L45:
 350:../src/lib/lpc177x_8x/Drivers/source/lpc177x_8x_can.c ****             }
 351:../src/lib/lpc177x_8x/Drivers/source/lpc177x_8x_can.c **** 
 352:../src/lib/lpc177x_8x/Drivers/source/lpc177x_8x_can.c ****             ctrl1 = afSecDef.SFF_Sec->controller;
 700              		.loc 1 352 0
 701 0466 3B69     		ldr	r3, [r7, #16]
 702 0468 1B78     		ldrb	r3, [r3, #0]
 703 046a 87F85330 		strb	r3, [r7, #83]
 353:../src/lib/lpc177x_8x/Drivers/source/lpc177x_8x_can.c **** 
 354:../src/lib/lpc177x_8x/Drivers/source/lpc177x_8x_can.c ****             SID = afSecDef.SFF_Sec->id_11;
 704              		.loc 1 354 0
 705 046e 3B69     		ldr	r3, [r7, #16]
 706 0470 5B88     		ldrh	r3, [r3, #2]	@ movhi
 707 0472 A7F85030 		strh	r3, [r7, #80]	@ movhi
 355:../src/lib/lpc177x_8x/Drivers/source/lpc177x_8x_can.c **** 
 356:../src/lib/lpc177x_8x/Drivers/source/lpc177x_8x_can.c ****             dis1 = afSecDef.SFF_Sec->disable;
 708              		.loc 1 356 0
 709 0476 3B69     		ldr	r3, [r7, #16]
 710 0478 5B78     		ldrb	r3, [r3, #1]
 711 047a 87F84F30 		strb	r3, [r7, #79]
 357:../src/lib/lpc177x_8x/Drivers/source/lpc177x_8x_can.c **** 
 358:../src/lib/lpc177x_8x/Drivers/source/lpc177x_8x_can.c ****             entry = 0x00; //reset entry value
 712              		.loc 1 358 0
 713 047e 4FF00003 		mov	r3, #0
 714 0482 BB64     		str	r3, [r7, #72]
 359:../src/lib/lpc177x_8x/Drivers/source/lpc177x_8x_can.c **** 
 360:../src/lib/lpc177x_8x/Drivers/source/lpc177x_8x_can.c ****             if((CANAF_std_cnt & 0x00000001)==0)
 715              		.loc 1 360 0
 716 0484 354B     		ldr	r3, .L71+16
 717 0486 1B88     		ldrh	r3, [r3, #0]
 718 0488 03F00103 		and	r3, r3, #1
 719 048c 002B     		cmp	r3, #0
 720 048e 67D1     		bne	.L46
 361:../src/lib/lpc177x_8x/Drivers/source/lpc177x_8x_can.c ****             {
 362:../src/lib/lpc177x_8x/Drivers/source/lpc177x_8x_can.c ****                 if(CANAF_std_cnt !=0 )
 721              		.loc 1 362 0
 722 0490 324B     		ldr	r3, .L71+16
 723 0492 1B88     		ldrh	r3, [r3, #0]
 724 0494 002B     		cmp	r3, #0
 725 0496 1BD0     		beq	.L47
 363:../src/lib/lpc177x_8x/Drivers/source/lpc177x_8x_can.c ****                 {
 364:../src/lib/lpc177x_8x/Drivers/source/lpc177x_8x_can.c ****                     buf = LPC_CANAF_RAM->mask[count-1];
 726              		.loc 1 364 0
 727 0498 2F4B     		ldr	r3, .L71+12
 728 049a B7F85420 		ldrh	r2, [r7, #84]
 729 049e 02F1FF32 		add	r2, r2, #-1
 730 04a2 53F82230 		ldr	r3, [r3, r2, lsl #2]
 731 04a6 7B64     		str	r3, [r7, #68]
 365:../src/lib/lpc177x_8x/Drivers/source/lpc177x_8x_can.c ****                     ID_temp = (buf & 0xE7FF); //mask controller & identifier bits
 732              		.loc 1 365 0
 733 04a8 7B6C     		ldr	r3, [r7, #68]
 734 04aa 9BB2     		uxth	r3, r3
 735 04ac 23F4C053 		bic	r3, r3, #6144
 736 04b0 A7F84230 		strh	r3, [r7, #66]	@ movhi
 366:../src/lib/lpc177x_8x/Drivers/source/lpc177x_8x_can.c ****                     if(ID_temp > ((ctrl1<<13)|SID))
 737              		.loc 1 366 0
 738 04b4 B7F84220 		ldrh	r2, [r7, #66]
 739 04b8 97F85330 		ldrb	r3, [r7, #83]	@ zero_extendqisi2
 740 04bc 4FEA4331 		lsl	r1, r3, #13
 741 04c0 B7F85030 		ldrh	r3, [r7, #80]
 742 04c4 0B43     		orrs	r3, r3, r1
 743 04c6 9A42     		cmp	r2, r3
 744 04c8 02DD     		ble	.L47
 367:../src/lib/lpc177x_8x/Drivers/source/lpc177x_8x_can.c ****                     {
 368:../src/lib/lpc177x_8x/Drivers/source/lpc177x_8x_can.c ****                         return CAN_AF_ENTRY_ERROR;
 745              		.loc 1 368 0
 746 04ca 4FF00503 		mov	r3, #5
 747 04ce 64E2     		b	.L70
 748              	.L47:
 369:../src/lib/lpc177x_8x/Drivers/source/lpc177x_8x_can.c ****                     }
 370:../src/lib/lpc177x_8x/Drivers/source/lpc177x_8x_can.c ****                 }
 371:../src/lib/lpc177x_8x/Drivers/source/lpc177x_8x_can.c **** 
 372:../src/lib/lpc177x_8x/Drivers/source/lpc177x_8x_can.c ****                 entry = (ctrl1<<29)|(dis1<<28)|(SID<<16);
 749              		.loc 1 372 0
 750 04d0 97F85330 		ldrb	r3, [r7, #83]	@ zero_extendqisi2
 751 04d4 4FEA4372 		lsl	r2, r3, #29
 752 04d8 97F84F30 		ldrb	r3, [r7, #79]	@ zero_extendqisi2
 753 04dc 4FEA0373 		lsl	r3, r3, #28
 754 04e0 1A43     		orrs	r2, r2, r3
 755 04e2 B7F85030 		ldrh	r3, [r7, #80]
 756 04e6 4FEA0343 		lsl	r3, r3, #16
 757 04ea 1343     		orrs	r3, r3, r2
 758 04ec BB64     		str	r3, [r7, #72]
 373:../src/lib/lpc177x_8x/Drivers/source/lpc177x_8x_can.c **** 
 374:../src/lib/lpc177x_8x/Drivers/source/lpc177x_8x_can.c ****                 LPC_CANAF_RAM->mask[count] &= 0x0000FFFF;
 759              		.loc 1 374 0
 760 04ee 1A4A     		ldr	r2, .L71+12
 761 04f0 B7F85410 		ldrh	r1, [r7, #84]
 762 04f4 184B     		ldr	r3, .L71+12
 763 04f6 B7F85400 		ldrh	r0, [r7, #84]
 764 04fa 53F82030 		ldr	r3, [r3, r0, lsl #2]
 765 04fe 4FEA0343 		lsl	r3, r3, #16
 766 0502 4FEA1343 		lsr	r3, r3, #16
 767 0506 42F82130 		str	r3, [r2, r1, lsl #2]
 375:../src/lib/lpc177x_8x/Drivers/source/lpc177x_8x_can.c **** 
 376:../src/lib/lpc177x_8x/Drivers/source/lpc177x_8x_can.c ****                 LPC_CANAF_RAM->mask[count] |= entry;
 768              		.loc 1 376 0
 769 050a 134B     		ldr	r3, .L71+12
 770 050c B7F85420 		ldrh	r2, [r7, #84]
 771 0510 1149     		ldr	r1, .L71+12
 772 0512 B7F85400 		ldrh	r0, [r7, #84]
 773 0516 51F82000 		ldr	r0, [r1, r0, lsl #2]
 774 051a B96C     		ldr	r1, [r7, #72]
 775 051c 0143     		orrs	r1, r1, r0
 776 051e 43F82210 		str	r1, [r3, r2, lsl #2]
 377:../src/lib/lpc177x_8x/Drivers/source/lpc177x_8x_can.c **** 
 378:../src/lib/lpc177x_8x/Drivers/source/lpc177x_8x_can.c ****                 CANAF_std_cnt++;
 777              		.loc 1 378 0
 778 0522 0E4B     		ldr	r3, .L71+16
 779 0524 1B88     		ldrh	r3, [r3, #0]
 780 0526 03F10103 		add	r3, r3, #1
 781 052a 9AB2     		uxth	r2, r3
 782 052c 0B4B     		ldr	r3, .L71+16
 783 052e 1A80     		strh	r2, [r3, #0]	@ movhi
 379:../src/lib/lpc177x_8x/Drivers/source/lpc177x_8x_can.c ****                 if(CANAF_std_cnt == afSecDef.SFF_NumEntry)//if this is the last SFF entry
 784              		.loc 1 379 0
 785 0530 3B7D     		ldrb	r3, [r7, #20]	@ zero_extendqisi2
 786 0532 1A46     		mov	r2, r3
 787 0534 094B     		ldr	r3, .L71+16
 788 0536 1B88     		ldrh	r3, [r3, #0]
 789 0538 9A42     		cmp	r2, r3
 790 053a 61D1     		bne	.L48
 380:../src/lib/lpc177x_8x/Drivers/source/lpc177x_8x_can.c ****                     count++;
 791              		.loc 1 380 0
 792 053c B7F85430 		ldrh	r3, [r7, #84]	@ movhi
 793 0540 03F10103 		add	r3, r3, #1
 794 0544 A7F85430 		strh	r3, [r7, #84]	@ movhi
 795 0548 5AE0     		b	.L48
 796              	.L72:
 797 054a 00BF     		.align	2
 798              	.L71:
 799 054c 00C00340 		.word	1073987584
 800 0550 00000000 		.word	FULLCAN_ENABLE
 801 0554 00000000 		.word	CANAF_FullCAN_cnt
 802 0558 00800340 		.word	1073971200
 803 055c 00000000 		.word	CANAF_std_cnt
 804              	.L46:
 381:../src/lib/lpc177x_8x/Drivers/source/lpc177x_8x_can.c ****             }
 382:../src/lib/lpc177x_8x/Drivers/source/lpc177x_8x_can.c ****             else
 383:../src/lib/lpc177x_8x/Drivers/source/lpc177x_8x_can.c ****             {
 384:../src/lib/lpc177x_8x/Drivers/source/lpc177x_8x_can.c ****                 buf = LPC_CANAF_RAM->mask[count];
 805              		.loc 1 384 0
 806 0560 AF4B     		ldr	r3, .L73
 807 0562 B7F85420 		ldrh	r2, [r7, #84]
 808 0566 53F82230 		ldr	r3, [r3, r2, lsl #2]
 809 056a 7B64     		str	r3, [r7, #68]
 385:../src/lib/lpc177x_8x/Drivers/source/lpc177x_8x_can.c ****                 ID_temp = (buf >>16) & 0xE7FF;
 810              		.loc 1 385 0
 811 056c 7B6C     		ldr	r3, [r7, #68]
 812 056e 4FEA1343 		lsr	r3, r3, #16
 813 0572 9BB2     		uxth	r3, r3
 814 0574 23F4C053 		bic	r3, r3, #6144
 815 0578 A7F84230 		strh	r3, [r7, #66]	@ movhi
 386:../src/lib/lpc177x_8x/Drivers/source/lpc177x_8x_can.c ****                 if(ID_temp > ((ctrl1<<13)|SID))
 816              		.loc 1 386 0
 817 057c B7F84220 		ldrh	r2, [r7, #66]
 818 0580 97F85330 		ldrb	r3, [r7, #83]	@ zero_extendqisi2
 819 0584 4FEA4331 		lsl	r1, r3, #13
 820 0588 B7F85030 		ldrh	r3, [r7, #80]
 821 058c 0B43     		orrs	r3, r3, r1
 822 058e 9A42     		cmp	r2, r3
 823 0590 02DD     		ble	.L49
 387:../src/lib/lpc177x_8x/Drivers/source/lpc177x_8x_can.c ****                 {
 388:../src/lib/lpc177x_8x/Drivers/source/lpc177x_8x_can.c ****                     return CAN_AF_ENTRY_ERROR;
 824              		.loc 1 388 0
 825 0592 4FF00503 		mov	r3, #5
 826 0596 00E2     		b	.L70
 827              	.L49:
 389:../src/lib/lpc177x_8x/Drivers/source/lpc177x_8x_can.c ****                 }
 390:../src/lib/lpc177x_8x/Drivers/source/lpc177x_8x_can.c **** 
 391:../src/lib/lpc177x_8x/Drivers/source/lpc177x_8x_can.c ****                 entry = (ctrl1 << 13) | (dis1 << 12) | (SID << 0);
 828              		.loc 1 391 0
 829 0598 97F85330 		ldrb	r3, [r7, #83]	@ zero_extendqisi2
 830 059c 4FEA4332 		lsl	r2, r3, #13
 831 05a0 97F84F30 		ldrb	r3, [r7, #79]	@ zero_extendqisi2
 832 05a4 4FEA0333 		lsl	r3, r3, #12
 833 05a8 1A43     		orrs	r2, r2, r3
 834 05aa B7F85030 		ldrh	r3, [r7, #80]
 835 05ae 1343     		orrs	r3, r3, r2
 836 05b0 BB64     		str	r3, [r7, #72]
 392:../src/lib/lpc177x_8x/Drivers/source/lpc177x_8x_can.c **** 
 393:../src/lib/lpc177x_8x/Drivers/source/lpc177x_8x_can.c ****                 LPC_CANAF_RAM->mask[count] &= 0xFFFF0000;
 837              		.loc 1 393 0
 838 05b2 9B4A     		ldr	r2, .L73
 839 05b4 B7F85410 		ldrh	r1, [r7, #84]
 840 05b8 994B     		ldr	r3, .L73
 841 05ba B7F85400 		ldrh	r0, [r7, #84]
 842 05be 53F82030 		ldr	r3, [r3, r0, lsl #2]
 843 05c2 4FEA1343 		lsr	r3, r3, #16
 844 05c6 4FEA0343 		lsl	r3, r3, #16
 845 05ca 42F82130 		str	r3, [r2, r1, lsl #2]
 394:../src/lib/lpc177x_8x/Drivers/source/lpc177x_8x_can.c **** 
 395:../src/lib/lpc177x_8x/Drivers/source/lpc177x_8x_can.c ****                 LPC_CANAF_RAM->mask[count] |= entry;
 846              		.loc 1 395 0
 847 05ce 944B     		ldr	r3, .L73
 848 05d0 B7F85420 		ldrh	r2, [r7, #84]
 849 05d4 9249     		ldr	r1, .L73
 850 05d6 B7F85400 		ldrh	r0, [r7, #84]
 851 05da 51F82000 		ldr	r0, [r1, r0, lsl #2]
 852 05de B96C     		ldr	r1, [r7, #72]
 853 05e0 0143     		orrs	r1, r1, r0
 854 05e2 43F82210 		str	r1, [r3, r2, lsl #2]
 396:../src/lib/lpc177x_8x/Drivers/source/lpc177x_8x_can.c **** 
 397:../src/lib/lpc177x_8x/Drivers/source/lpc177x_8x_can.c ****                 count++;
 855              		.loc 1 397 0
 856 05e6 B7F85430 		ldrh	r3, [r7, #84]	@ movhi
 857 05ea 03F10103 		add	r3, r3, #1
 858 05ee A7F85430 		strh	r3, [r7, #84]	@ movhi
 398:../src/lib/lpc177x_8x/Drivers/source/lpc177x_8x_can.c **** 
 399:../src/lib/lpc177x_8x/Drivers/source/lpc177x_8x_can.c ****                 CANAF_std_cnt++;
 859              		.loc 1 399 0
 860 05f2 8C4B     		ldr	r3, .L73+4
 861 05f4 1B88     		ldrh	r3, [r3, #0]
 862 05f6 03F10103 		add	r3, r3, #1
 863 05fa 9AB2     		uxth	r2, r3
 864 05fc 894B     		ldr	r3, .L73+4
 865 05fe 1A80     		strh	r2, [r3, #0]	@ movhi
 866              	.L48:
 400:../src/lib/lpc177x_8x/Drivers/source/lpc177x_8x_can.c ****             }
 401:../src/lib/lpc177x_8x/Drivers/source/lpc177x_8x_can.c **** 
 402:../src/lib/lpc177x_8x/Drivers/source/lpc177x_8x_can.c ****             afSecDef.SFF_Sec = (SFF_Entry *)((uint32_t)(afSecDef.SFF_Sec)+ sizeof(SFF_Entry));
 867              		.loc 1 402 0
 868 0600 3B69     		ldr	r3, [r7, #16]
 869 0602 03F10403 		add	r3, r3, #4
 870 0606 3B61     		str	r3, [r7, #16]
 345:../src/lib/lpc177x_8x/Drivers/source/lpc177x_8x_can.c ****         for(i=0;i<(afSecDef.SFF_NumEntry);i++)
 871              		.loc 1 345 0
 872 0608 B7F85630 		ldrh	r3, [r7, #86]	@ movhi
 873 060c 03F10103 		add	r3, r3, #1
 874 0610 A7F85630 		strh	r3, [r7, #86]	@ movhi
 875              	.L44:
 345:../src/lib/lpc177x_8x/Drivers/source/lpc177x_8x_can.c ****         for(i=0;i<(afSecDef.SFF_NumEntry);i++)
 876              		.loc 1 345 0 is_stmt 0 discriminator 1
 877 0614 3B7D     		ldrb	r3, [r7, #20]	@ zero_extendqisi2
 878 0616 B7F85620 		ldrh	r2, [r7, #86]
 879 061a 9A42     		cmp	r2, r3
 880 061c FFF419AF 		bcc	.L50
 881              	.L43:
 403:../src/lib/lpc177x_8x/Drivers/source/lpc177x_8x_can.c ****         }
 404:../src/lib/lpc177x_8x/Drivers/source/lpc177x_8x_can.c ****     }
 405:../src/lib/lpc177x_8x/Drivers/source/lpc177x_8x_can.c **** 
 406:../src/lib/lpc177x_8x/Drivers/source/lpc177x_8x_can.c ****     /***** Setup Group of Standard Frame Format Identifier Section *****/
 407:../src/lib/lpc177x_8x/Drivers/source/lpc177x_8x_can.c ****     if(afSecDef.SFF_GPR_Sec != NULL)
 882              		.loc 1 407 0 is_stmt 1
 883 0620 BB69     		ldr	r3, [r7, #24]
 884 0622 002B     		cmp	r3, #0
 885 0624 00F08E80 		beq	.L51
 408:../src/lib/lpc177x_8x/Drivers/source/lpc177x_8x_can.c ****     {
 409:../src/lib/lpc177x_8x/Drivers/source/lpc177x_8x_can.c ****         for(i=0;i<(afSecDef.SFF_GPR_NumEntry);i++)
 886              		.loc 1 409 0
 887 0628 4FF00003 		mov	r3, #0
 888 062c A7F85630 		strh	r3, [r7, #86]	@ movhi
 889 0630 82E0     		b	.L52
 890              	.L56:
 410:../src/lib/lpc177x_8x/Drivers/source/lpc177x_8x_can.c ****         {
 411:../src/lib/lpc177x_8x/Drivers/source/lpc177x_8x_can.c ****             if(count + 1 > 512)
 891              		.loc 1 411 0
 892 0632 B7F85430 		ldrh	r3, [r7, #84]
 893 0636 03F10103 		add	r3, r3, #1
 894 063a B3F5007F 		cmp	r3, #512
 895 063e 02DD     		ble	.L53
 412:../src/lib/lpc177x_8x/Drivers/source/lpc177x_8x_can.c ****             {
 413:../src/lib/lpc177x_8x/Drivers/source/lpc177x_8x_can.c ****                 return CAN_OBJECTS_FULL_ERROR;
 896              		.loc 1 413 0
 897 0640 4FF00203 		mov	r3, #2
 898 0644 A9E1     		b	.L70
 899              	.L53:
 414:../src/lib/lpc177x_8x/Drivers/source/lpc177x_8x_can.c ****             }
 415:../src/lib/lpc177x_8x/Drivers/source/lpc177x_8x_can.c **** 
 416:../src/lib/lpc177x_8x/Drivers/source/lpc177x_8x_can.c ****             ctrl1 = afSecDef.SFF_GPR_Sec->controller1;
 900              		.loc 1 416 0
 901 0646 BB69     		ldr	r3, [r7, #24]
 902 0648 1B78     		ldrb	r3, [r3, #0]
 903 064a 87F85330 		strb	r3, [r7, #83]
 417:../src/lib/lpc177x_8x/Drivers/source/lpc177x_8x_can.c **** 
 418:../src/lib/lpc177x_8x/Drivers/source/lpc177x_8x_can.c ****             ctrl2 = afSecDef.SFF_GPR_Sec->controller2;
 904              		.loc 1 418 0
 905 064e BB69     		ldr	r3, [r7, #24]
 906 0650 1B79     		ldrb	r3, [r3, #4]
 907 0652 87F84130 		strb	r3, [r7, #65]
 419:../src/lib/lpc177x_8x/Drivers/source/lpc177x_8x_can.c **** 
 420:../src/lib/lpc177x_8x/Drivers/source/lpc177x_8x_can.c ****             dis1 = afSecDef.SFF_GPR_Sec->disable1;
 908              		.loc 1 420 0
 909 0656 BB69     		ldr	r3, [r7, #24]
 910 0658 5B78     		ldrb	r3, [r3, #1]
 911 065a 87F84F30 		strb	r3, [r7, #79]
 421:../src/lib/lpc177x_8x/Drivers/source/lpc177x_8x_can.c **** 
 422:../src/lib/lpc177x_8x/Drivers/source/lpc177x_8x_can.c ****             dis2 = afSecDef.SFF_GPR_Sec->disable2;
 912              		.loc 1 422 0
 913 065e BB69     		ldr	r3, [r7, #24]
 914 0660 5B79     		ldrb	r3, [r3, #5]
 915 0662 87F84030 		strb	r3, [r7, #64]
 423:../src/lib/lpc177x_8x/Drivers/source/lpc177x_8x_can.c **** 
 424:../src/lib/lpc177x_8x/Drivers/source/lpc177x_8x_can.c ****             lowerSID = afSecDef.SFF_GPR_Sec->lowerID;
 916              		.loc 1 424 0
 917 0666 BB69     		ldr	r3, [r7, #24]
 918 0668 5B88     		ldrh	r3, [r3, #2]	@ movhi
 919 066a FB87     		strh	r3, [r7, #62]	@ movhi
 425:../src/lib/lpc177x_8x/Drivers/source/lpc177x_8x_can.c **** 
 426:../src/lib/lpc177x_8x/Drivers/source/lpc177x_8x_can.c ****             upperSID = afSecDef.SFF_GPR_Sec->upperID;
 920              		.loc 1 426 0
 921 066c BB69     		ldr	r3, [r7, #24]
 922 066e DB88     		ldrh	r3, [r3, #6]	@ movhi
 923 0670 BB87     		strh	r3, [r7, #60]	@ movhi
 427:../src/lib/lpc177x_8x/Drivers/source/lpc177x_8x_can.c **** 
 428:../src/lib/lpc177x_8x/Drivers/source/lpc177x_8x_can.c ****             entry = 0x00;
 924              		.loc 1 428 0
 925 0672 4FF00003 		mov	r3, #0
 926 0676 BB64     		str	r3, [r7, #72]
 429:../src/lib/lpc177x_8x/Drivers/source/lpc177x_8x_can.c **** 
 430:../src/lib/lpc177x_8x/Drivers/source/lpc177x_8x_can.c ****             if(CANAF_gstd_cnt!=0)
 927              		.loc 1 430 0
 928 0678 6B4B     		ldr	r3, .L73+8
 929 067a 1B88     		ldrh	r3, [r3, #0]
 930 067c 002B     		cmp	r3, #0
 931 067e 24D0     		beq	.L54
 431:../src/lib/lpc177x_8x/Drivers/source/lpc177x_8x_can.c ****             {
 432:../src/lib/lpc177x_8x/Drivers/source/lpc177x_8x_can.c ****                 buf = LPC_CANAF_RAM->mask[count-1];
 932              		.loc 1 432 0
 933 0680 674B     		ldr	r3, .L73
 934 0682 B7F85420 		ldrh	r2, [r7, #84]
 935 0686 02F1FF32 		add	r2, r2, #-1
 936 068a 53F82230 		ldr	r3, [r3, r2, lsl #2]
 937 068e 7B64     		str	r3, [r7, #68]
 433:../src/lib/lpc177x_8x/Drivers/source/lpc177x_8x_can.c ****                 ID_temp = buf & 0xE7FF;
 938              		.loc 1 433 0
 939 0690 7B6C     		ldr	r3, [r7, #68]
 940 0692 9BB2     		uxth	r3, r3
 941 0694 23F4C053 		bic	r3, r3, #6144
 942 0698 A7F84230 		strh	r3, [r7, #66]	@ movhi
 434:../src/lib/lpc177x_8x/Drivers/source/lpc177x_8x_can.c ****                 if((ctrl1 != ctrl2)||(lowerSID > upperSID)||(ID_temp > ((ctrl1<<13)|lowerSID)))
 943              		.loc 1 434 0
 944 069c 97F85320 		ldrb	r2, [r7, #83]	@ zero_extendqisi2
 945 06a0 97F84130 		ldrb	r3, [r7, #65]	@ zero_extendqisi2
 946 06a4 9A42     		cmp	r2, r3
 947 06a6 0DD1     		bne	.L55
 948              		.loc 1 434 0 is_stmt 0 discriminator 1
 949 06a8 FA8F     		ldrh	r2, [r7, #62]
 950 06aa BB8F     		ldrh	r3, [r7, #60]
 951 06ac 9A42     		cmp	r2, r3
 952 06ae 09D8     		bhi	.L55
 953 06b0 B7F84220 		ldrh	r2, [r7, #66]
 954 06b4 97F85330 		ldrb	r3, [r7, #83]	@ zero_extendqisi2
 955 06b8 4FEA4331 		lsl	r1, r3, #13
 956 06bc FB8F     		ldrh	r3, [r7, #62]
 957 06be 0B43     		orrs	r3, r3, r1
 958 06c0 9A42     		cmp	r2, r3
 959 06c2 02DD     		ble	.L54
 960              	.L55:
 435:../src/lib/lpc177x_8x/Drivers/source/lpc177x_8x_can.c ****                 {
 436:../src/lib/lpc177x_8x/Drivers/source/lpc177x_8x_can.c ****                     return CAN_AF_ENTRY_ERROR;
 961              		.loc 1 436 0 is_stmt 1
 962 06c4 4FF00503 		mov	r3, #5
 963 06c8 67E1     		b	.L70
 964              	.L54:
 437:../src/lib/lpc177x_8x/Drivers/source/lpc177x_8x_can.c ****                 }
 438:../src/lib/lpc177x_8x/Drivers/source/lpc177x_8x_can.c ****             }
 439:../src/lib/lpc177x_8x/Drivers/source/lpc177x_8x_can.c ****             entry = (ctrl1 << 29)|(dis1 << 28)|(lowerSID << 16)|  \
 965              		.loc 1 439 0
 966 06ca 97F85330 		ldrb	r3, [r7, #83]	@ zero_extendqisi2
 967 06ce 4FEA4372 		lsl	r2, r3, #29
 968 06d2 97F84F30 		ldrb	r3, [r7, #79]	@ zero_extendqisi2
 969 06d6 4FEA0373 		lsl	r3, r3, #28
 970 06da 1A43     		orrs	r2, r2, r3
 971 06dc FB8F     		ldrh	r3, [r7, #62]
 972 06de 4FEA0343 		lsl	r3, r3, #16
 973 06e2 1A43     		orrs	r2, r2, r3
 440:../src/lib/lpc177x_8x/Drivers/source/lpc177x_8x_can.c ****                     (ctrl2 << 13)|(dis2 << 12)|(upperSID << 0);
 974              		.loc 1 440 0
 975 06e4 97F84130 		ldrb	r3, [r7, #65]	@ zero_extendqisi2
 976 06e8 4FEA4333 		lsl	r3, r3, #13
 439:../src/lib/lpc177x_8x/Drivers/source/lpc177x_8x_can.c ****             entry = (ctrl1 << 29)|(dis1 << 28)|(lowerSID << 16)|  \
 977              		.loc 1 439 0
 978 06ec 1A43     		orrs	r2, r2, r3
 979              		.loc 1 440 0
 980 06ee 97F84030 		ldrb	r3, [r7, #64]	@ zero_extendqisi2
 981 06f2 4FEA0333 		lsl	r3, r3, #12
 982 06f6 1A43     		orrs	r2, r2, r3
 983 06f8 BB8F     		ldrh	r3, [r7, #60]
 984 06fa 1343     		orrs	r3, r3, r2
 439:../src/lib/lpc177x_8x/Drivers/source/lpc177x_8x_can.c ****             entry = (ctrl1 << 29)|(dis1 << 28)|(lowerSID << 16)|  \
 985              		.loc 1 439 0
 986 06fc BB64     		str	r3, [r7, #72]
 441:../src/lib/lpc177x_8x/Drivers/source/lpc177x_8x_can.c ****             LPC_CANAF_RAM->mask[count] = entry;
 987              		.loc 1 441 0
 988 06fe 484B     		ldr	r3, .L73
 989 0700 B7F85420 		ldrh	r2, [r7, #84]
 990 0704 B96C     		ldr	r1, [r7, #72]
 991 0706 43F82210 		str	r1, [r3, r2, lsl #2]
 442:../src/lib/lpc177x_8x/Drivers/source/lpc177x_8x_can.c **** 
 443:../src/lib/lpc177x_8x/Drivers/source/lpc177x_8x_can.c ****             CANAF_gstd_cnt++;
 992              		.loc 1 443 0
 993 070a 474B     		ldr	r3, .L73+8
 994 070c 1B88     		ldrh	r3, [r3, #0]
 995 070e 03F10103 		add	r3, r3, #1
 996 0712 9AB2     		uxth	r2, r3
 997 0714 444B     		ldr	r3, .L73+8
 998 0716 1A80     		strh	r2, [r3, #0]	@ movhi
 444:../src/lib/lpc177x_8x/Drivers/source/lpc177x_8x_can.c **** 
 445:../src/lib/lpc177x_8x/Drivers/source/lpc177x_8x_can.c ****             count++;
 999              		.loc 1 445 0
 1000 0718 B7F85430 		ldrh	r3, [r7, #84]	@ movhi
 1001 071c 03F10103 		add	r3, r3, #1
 1002 0720 A7F85430 		strh	r3, [r7, #84]	@ movhi
 446:../src/lib/lpc177x_8x/Drivers/source/lpc177x_8x_can.c **** 
 447:../src/lib/lpc177x_8x/Drivers/source/lpc177x_8x_can.c ****             afSecDef.SFF_GPR_Sec = (SFF_GPR_Entry *)((uint32_t)(afSecDef.SFF_GPR_Sec)+ sizeof(SFF_G
 1003              		.loc 1 447 0
 1004 0724 BB69     		ldr	r3, [r7, #24]
 1005 0726 03F10803 		add	r3, r3, #8
 1006 072a BB61     		str	r3, [r7, #24]
 409:../src/lib/lpc177x_8x/Drivers/source/lpc177x_8x_can.c ****         for(i=0;i<(afSecDef.SFF_GPR_NumEntry);i++)
 1007              		.loc 1 409 0
 1008 072c B7F85630 		ldrh	r3, [r7, #86]	@ movhi
 1009 0730 03F10103 		add	r3, r3, #1
 1010 0734 A7F85630 		strh	r3, [r7, #86]	@ movhi
 1011              	.L52:
 409:../src/lib/lpc177x_8x/Drivers/source/lpc177x_8x_can.c ****         for(i=0;i<(afSecDef.SFF_GPR_NumEntry);i++)
 1012              		.loc 1 409 0 is_stmt 0 discriminator 1
 1013 0738 3B7F     		ldrb	r3, [r7, #28]	@ zero_extendqisi2
 1014 073a B7F85620 		ldrh	r2, [r7, #86]
 1015 073e 9A42     		cmp	r2, r3
 1016 0740 FFF477AF 		bcc	.L56
 1017              	.L51:
 448:../src/lib/lpc177x_8x/Drivers/source/lpc177x_8x_can.c ****         }
 449:../src/lib/lpc177x_8x/Drivers/source/lpc177x_8x_can.c ****     }
 450:../src/lib/lpc177x_8x/Drivers/source/lpc177x_8x_can.c **** 
 451:../src/lib/lpc177x_8x/Drivers/source/lpc177x_8x_can.c ****     /***** Setup Explicit Extend Frame Format Identifier Section *****/
 452:../src/lib/lpc177x_8x/Drivers/source/lpc177x_8x_can.c ****     if(afSecDef.EFF_Sec != NULL)
 1018              		.loc 1 452 0 is_stmt 1
 1019 0744 3B6A     		ldr	r3, [r7, #32]
 1020 0746 002B     		cmp	r3, #0
 1021 0748 56D0     		beq	.L57
 453:../src/lib/lpc177x_8x/Drivers/source/lpc177x_8x_can.c ****     {
 454:../src/lib/lpc177x_8x/Drivers/source/lpc177x_8x_can.c ****         for(i=0;i<(afSecDef.EFF_NumEntry);i++)
 1022              		.loc 1 454 0
 1023 074a 4FF00003 		mov	r3, #0
 1024 074e A7F85630 		strh	r3, [r7, #86]	@ movhi
 1025 0752 4BE0     		b	.L58
 1026              	.L61:
 455:../src/lib/lpc177x_8x/Drivers/source/lpc177x_8x_can.c ****         {
 456:../src/lib/lpc177x_8x/Drivers/source/lpc177x_8x_can.c ****             if(count + 1 > 512)
 1027              		.loc 1 456 0
 1028 0754 B7F85430 		ldrh	r3, [r7, #84]
 1029 0758 03F10103 		add	r3, r3, #1
 1030 075c B3F5007F 		cmp	r3, #512
 1031 0760 02DD     		ble	.L59
 457:../src/lib/lpc177x_8x/Drivers/source/lpc177x_8x_can.c ****             {
 458:../src/lib/lpc177x_8x/Drivers/source/lpc177x_8x_can.c ****                 return CAN_OBJECTS_FULL_ERROR;
 1032              		.loc 1 458 0
 1033 0762 4FF00203 		mov	r3, #2
 1034 0766 18E1     		b	.L70
 1035              	.L59:
 459:../src/lib/lpc177x_8x/Drivers/source/lpc177x_8x_can.c ****             }
 460:../src/lib/lpc177x_8x/Drivers/source/lpc177x_8x_can.c **** 
 461:../src/lib/lpc177x_8x/Drivers/source/lpc177x_8x_can.c ****             EID = afSecDef.EFF_Sec->ID_29;
 1036              		.loc 1 461 0
 1037 0768 3B6A     		ldr	r3, [r7, #32]
 1038 076a 5B68     		ldr	r3, [r3, #4]
 1039 076c BB63     		str	r3, [r7, #56]
 462:../src/lib/lpc177x_8x/Drivers/source/lpc177x_8x_can.c **** 
 463:../src/lib/lpc177x_8x/Drivers/source/lpc177x_8x_can.c ****             ctrl1 = afSecDef.EFF_Sec->controller;
 1040              		.loc 1 463 0
 1041 076e 3B6A     		ldr	r3, [r7, #32]
 1042 0770 1B78     		ldrb	r3, [r3, #0]
 1043 0772 87F85330 		strb	r3, [r7, #83]
 464:../src/lib/lpc177x_8x/Drivers/source/lpc177x_8x_can.c **** 
 465:../src/lib/lpc177x_8x/Drivers/source/lpc177x_8x_can.c ****             entry = 0x00; //reset entry value
 1044              		.loc 1 465 0
 1045 0776 4FF00003 		mov	r3, #0
 1046 077a BB64     		str	r3, [r7, #72]
 466:../src/lib/lpc177x_8x/Drivers/source/lpc177x_8x_can.c **** 
 467:../src/lib/lpc177x_8x/Drivers/source/lpc177x_8x_can.c ****             entry = (ctrl1 << 29)|(EID << 0);
 1047              		.loc 1 467 0
 1048 077c 97F85330 		ldrb	r3, [r7, #83]	@ zero_extendqisi2
 1049 0780 4FEA4373 		lsl	r3, r3, #29
 1050 0784 1A46     		mov	r2, r3
 1051 0786 BB6B     		ldr	r3, [r7, #56]
 1052 0788 1343     		orrs	r3, r3, r2
 1053 078a BB64     		str	r3, [r7, #72]
 468:../src/lib/lpc177x_8x/Drivers/source/lpc177x_8x_can.c ****             if(CANAF_ext_cnt != 0)
 1054              		.loc 1 468 0
 1055 078c 274B     		ldr	r3, .L73+12
 1056 078e 1B88     		ldrh	r3, [r3, #0]
 1057 0790 002B     		cmp	r3, #0
 1058 0792 0ED0     		beq	.L60
 469:../src/lib/lpc177x_8x/Drivers/source/lpc177x_8x_can.c ****             {
 470:../src/lib/lpc177x_8x/Drivers/source/lpc177x_8x_can.c ****                 buf = LPC_CANAF_RAM->mask[count-1];
 1059              		.loc 1 470 0
 1060 0794 224B     		ldr	r3, .L73
 1061 0796 B7F85420 		ldrh	r2, [r7, #84]
 1062 079a 02F1FF32 		add	r2, r2, #-1
 1063 079e 53F82230 		ldr	r3, [r3, r2, lsl #2]
 1064 07a2 7B64     		str	r3, [r7, #68]
 471:../src/lib/lpc177x_8x/Drivers/source/lpc177x_8x_can.c **** //              EID_temp = buf & 0x0FFFFFFF;
 472:../src/lib/lpc177x_8x/Drivers/source/lpc177x_8x_can.c ****                 if(buf > entry)
 1065              		.loc 1 472 0
 1066 07a4 7A6C     		ldr	r2, [r7, #68]
 1067 07a6 BB6C     		ldr	r3, [r7, #72]
 1068 07a8 9A42     		cmp	r2, r3
 1069 07aa 02D9     		bls	.L60
 473:../src/lib/lpc177x_8x/Drivers/source/lpc177x_8x_can.c ****                 {
 474:../src/lib/lpc177x_8x/Drivers/source/lpc177x_8x_can.c ****                     return CAN_AF_ENTRY_ERROR;
 1070              		.loc 1 474 0
 1071 07ac 4FF00503 		mov	r3, #5
 1072 07b0 F3E0     		b	.L70
 1073              	.L60:
 475:../src/lib/lpc177x_8x/Drivers/source/lpc177x_8x_can.c ****                 }
 476:../src/lib/lpc177x_8x/Drivers/source/lpc177x_8x_can.c ****             }
 477:../src/lib/lpc177x_8x/Drivers/source/lpc177x_8x_can.c ****             LPC_CANAF_RAM->mask[count] = entry;
 1074              		.loc 1 477 0
 1075 07b2 1B4B     		ldr	r3, .L73
 1076 07b4 B7F85420 		ldrh	r2, [r7, #84]
 1077 07b8 B96C     		ldr	r1, [r7, #72]
 1078 07ba 43F82210 		str	r1, [r3, r2, lsl #2]
 478:../src/lib/lpc177x_8x/Drivers/source/lpc177x_8x_can.c **** 
 479:../src/lib/lpc177x_8x/Drivers/source/lpc177x_8x_can.c ****             CANAF_ext_cnt ++;
 1079              		.loc 1 479 0
 1080 07be 1B4B     		ldr	r3, .L73+12
 1081 07c0 1B88     		ldrh	r3, [r3, #0]
 1082 07c2 03F10103 		add	r3, r3, #1
 1083 07c6 9AB2     		uxth	r2, r3
 1084 07c8 184B     		ldr	r3, .L73+12
 1085 07ca 1A80     		strh	r2, [r3, #0]	@ movhi
 480:../src/lib/lpc177x_8x/Drivers/source/lpc177x_8x_can.c **** 
 481:../src/lib/lpc177x_8x/Drivers/source/lpc177x_8x_can.c ****             count++;
 1086              		.loc 1 481 0
 1087 07cc B7F85430 		ldrh	r3, [r7, #84]	@ movhi
 1088 07d0 03F10103 		add	r3, r3, #1
 1089 07d4 A7F85430 		strh	r3, [r7, #84]	@ movhi
 482:../src/lib/lpc177x_8x/Drivers/source/lpc177x_8x_can.c **** 
 483:../src/lib/lpc177x_8x/Drivers/source/lpc177x_8x_can.c ****             afSecDef.EFF_Sec = (EFF_Entry *)((uint32_t)(afSecDef.EFF_Sec)+ sizeof(EFF_Entry));
 1090              		.loc 1 483 0
 1091 07d8 3B6A     		ldr	r3, [r7, #32]
 1092 07da 03F10803 		add	r3, r3, #8
 1093 07de 3B62     		str	r3, [r7, #32]
 454:../src/lib/lpc177x_8x/Drivers/source/lpc177x_8x_can.c ****         for(i=0;i<(afSecDef.EFF_NumEntry);i++)
 1094              		.loc 1 454 0
 1095 07e0 B7F85630 		ldrh	r3, [r7, #86]	@ movhi
 1096 07e4 03F10103 		add	r3, r3, #1
 1097 07e8 A7F85630 		strh	r3, [r7, #86]	@ movhi
 1098              	.L58:
 454:../src/lib/lpc177x_8x/Drivers/source/lpc177x_8x_can.c ****         for(i=0;i<(afSecDef.EFF_NumEntry);i++)
 1099              		.loc 1 454 0 is_stmt 0 discriminator 1
 1100 07ec 97F82430 		ldrb	r3, [r7, #36]	@ zero_extendqisi2
 1101 07f0 B7F85620 		ldrh	r2, [r7, #86]
 1102 07f4 9A42     		cmp	r2, r3
 1103 07f6 ADD3     		bcc	.L61
 1104              	.L57:
 484:../src/lib/lpc177x_8x/Drivers/source/lpc177x_8x_can.c ****         }
 485:../src/lib/lpc177x_8x/Drivers/source/lpc177x_8x_can.c ****     }
 486:../src/lib/lpc177x_8x/Drivers/source/lpc177x_8x_can.c **** 
 487:../src/lib/lpc177x_8x/Drivers/source/lpc177x_8x_can.c ****     /***** Setup Group of Extended Frame Format Identifier Section *****/
 488:../src/lib/lpc177x_8x/Drivers/source/lpc177x_8x_can.c ****     if(afSecDef.EFF_GPR_Sec != NULL)
 1105              		.loc 1 488 0 is_stmt 1
 1106 07f8 BB6A     		ldr	r3, [r7, #40]
 1107 07fa 002B     		cmp	r3, #0
 1108 07fc 00F08C80 		beq	.L62
 489:../src/lib/lpc177x_8x/Drivers/source/lpc177x_8x_can.c ****     {
 490:../src/lib/lpc177x_8x/Drivers/source/lpc177x_8x_can.c ****         for(i=0;i<(afSecDef.EFF_GPR_NumEntry);i++)
 1109              		.loc 1 490 0
 1110 0800 4FF00003 		mov	r3, #0
 1111 0804 A7F85630 		strh	r3, [r7, #86]	@ movhi
 1112 0808 7FE0     		b	.L63
 1113              	.L67:
 491:../src/lib/lpc177x_8x/Drivers/source/lpc177x_8x_can.c ****         {
 492:../src/lib/lpc177x_8x/Drivers/source/lpc177x_8x_can.c ****             if(count + 2 > 512)
 1114              		.loc 1 492 0
 1115 080a B7F85430 		ldrh	r3, [r7, #84]
 1116 080e 03F10203 		add	r3, r3, #2
 1117 0812 B3F5007F 		cmp	r3, #512
 1118 0816 0BDD     		ble	.L64
 493:../src/lib/lpc177x_8x/Drivers/source/lpc177x_8x_can.c ****             {
 494:../src/lib/lpc177x_8x/Drivers/source/lpc177x_8x_can.c ****                 return CAN_OBJECTS_FULL_ERROR;
 1119              		.loc 1 494 0
 1120 0818 4FF00203 		mov	r3, #2
 1121 081c BDE0     		b	.L70
 1122              	.L74:
 1123 081e 00BF     		.align	2
 1124              	.L73:
 1125 0820 00800340 		.word	1073971200
 1126 0824 00000000 		.word	CANAF_std_cnt
 1127 0828 00000000 		.word	CANAF_gstd_cnt
 1128 082c 00000000 		.word	CANAF_ext_cnt
 1129              	.L64:
 495:../src/lib/lpc177x_8x/Drivers/source/lpc177x_8x_can.c ****             }
 496:../src/lib/lpc177x_8x/Drivers/source/lpc177x_8x_can.c **** 
 497:../src/lib/lpc177x_8x/Drivers/source/lpc177x_8x_can.c ****             ctrl1 = afSecDef.EFF_GPR_Sec->controller1;
 1130              		.loc 1 497 0
 1131 0830 BB6A     		ldr	r3, [r7, #40]
 1132 0832 1B78     		ldrb	r3, [r3, #0]
 1133 0834 87F85330 		strb	r3, [r7, #83]
 498:../src/lib/lpc177x_8x/Drivers/source/lpc177x_8x_can.c **** 
 499:../src/lib/lpc177x_8x/Drivers/source/lpc177x_8x_can.c ****             ctrl2 = afSecDef.EFF_GPR_Sec->controller2;
 1134              		.loc 1 499 0
 1135 0838 BB6A     		ldr	r3, [r7, #40]
 1136 083a 5B78     		ldrb	r3, [r3, #1]
 1137 083c 87F84130 		strb	r3, [r7, #65]
 500:../src/lib/lpc177x_8x/Drivers/source/lpc177x_8x_can.c **** 
 501:../src/lib/lpc177x_8x/Drivers/source/lpc177x_8x_can.c ****             lowerEID = afSecDef.EFF_GPR_Sec->lowerEID;
 1138              		.loc 1 501 0
 1139 0840 BB6A     		ldr	r3, [r7, #40]
 1140 0842 5B68     		ldr	r3, [r3, #4]
 1141 0844 7B63     		str	r3, [r7, #52]
 502:../src/lib/lpc177x_8x/Drivers/source/lpc177x_8x_can.c **** 
 503:../src/lib/lpc177x_8x/Drivers/source/lpc177x_8x_can.c ****             upperEID = afSecDef.EFF_GPR_Sec->upperEID;
 1142              		.loc 1 503 0
 1143 0846 BB6A     		ldr	r3, [r7, #40]
 1144 0848 9B68     		ldr	r3, [r3, #8]
 1145 084a 3B63     		str	r3, [r7, #48]
 504:../src/lib/lpc177x_8x/Drivers/source/lpc177x_8x_can.c **** 
 505:../src/lib/lpc177x_8x/Drivers/source/lpc177x_8x_can.c ****             entry = 0x00;
 1146              		.loc 1 505 0
 1147 084c 4FF00003 		mov	r3, #0
 1148 0850 BB64     		str	r3, [r7, #72]
 506:../src/lib/lpc177x_8x/Drivers/source/lpc177x_8x_can.c **** 
 507:../src/lib/lpc177x_8x/Drivers/source/lpc177x_8x_can.c ****             if(CANAF_gext_cnt != 0)
 1149              		.loc 1 507 0
 1150 0852 554B     		ldr	r3, .L75
 1151 0854 1B88     		ldrh	r3, [r3, #0]
 1152 0856 002B     		cmp	r3, #0
 1153 0858 1ED0     		beq	.L65
 508:../src/lib/lpc177x_8x/Drivers/source/lpc177x_8x_can.c ****             {
 509:../src/lib/lpc177x_8x/Drivers/source/lpc177x_8x_can.c ****                 buf = LPC_CANAF_RAM->mask[count-1];
 1154              		.loc 1 509 0
 1155 085a 544B     		ldr	r3, .L75+4
 1156 085c B7F85420 		ldrh	r2, [r7, #84]
 1157 0860 02F1FF32 		add	r2, r2, #-1
 1158 0864 53F82230 		ldr	r3, [r3, r2, lsl #2]
 1159 0868 7B64     		str	r3, [r7, #68]
 510:../src/lib/lpc177x_8x/Drivers/source/lpc177x_8x_can.c **** //              EID_temp = buf & 0x0FFFFFFF;
 511:../src/lib/lpc177x_8x/Drivers/source/lpc177x_8x_can.c ****                 if((ctrl1 != ctrl2) || (lowerEID > upperEID) || (buf > ((ctrl1 << 29)|(lowerEID << 
 1160              		.loc 1 511 0
 1161 086a 97F85320 		ldrb	r2, [r7, #83]	@ zero_extendqisi2
 1162 086e 97F84130 		ldrb	r3, [r7, #65]	@ zero_extendqisi2
 1163 0872 9A42     		cmp	r2, r3
 1164 0874 0DD1     		bne	.L66
 1165              		.loc 1 511 0 is_stmt 0 discriminator 1
 1166 0876 7A6B     		ldr	r2, [r7, #52]
 1167 0878 3B6B     		ldr	r3, [r7, #48]
 1168 087a 9A42     		cmp	r2, r3
 1169 087c 09D8     		bhi	.L66
 1170 087e 97F85330 		ldrb	r3, [r7, #83]	@ zero_extendqisi2
 1171 0882 4FEA4373 		lsl	r3, r3, #29
 1172 0886 1A46     		mov	r2, r3
 1173 0888 7B6B     		ldr	r3, [r7, #52]
 1174 088a 1A43     		orrs	r2, r2, r3
 1175 088c 7B6C     		ldr	r3, [r7, #68]
 1176 088e 9A42     		cmp	r2, r3
 1177 0890 02D2     		bcs	.L65
 1178              	.L66:
 512:../src/lib/lpc177x_8x/Drivers/source/lpc177x_8x_can.c ****                 {
 513:../src/lib/lpc177x_8x/Drivers/source/lpc177x_8x_can.c ****                     return CAN_AF_ENTRY_ERROR;
 1179              		.loc 1 513 0 is_stmt 1
 1180 0892 4FF00503 		mov	r3, #5
 1181 0896 80E0     		b	.L70
 1182              	.L65:
 514:../src/lib/lpc177x_8x/Drivers/source/lpc177x_8x_can.c ****                 }
 515:../src/lib/lpc177x_8x/Drivers/source/lpc177x_8x_can.c ****             }
 516:../src/lib/lpc177x_8x/Drivers/source/lpc177x_8x_can.c **** 
 517:../src/lib/lpc177x_8x/Drivers/source/lpc177x_8x_can.c ****             entry = (ctrl1 << 29)|(lowerEID << 0);
 1183              		.loc 1 517 0
 1184 0898 97F85330 		ldrb	r3, [r7, #83]	@ zero_extendqisi2
 1185 089c 4FEA4373 		lsl	r3, r3, #29
 1186 08a0 1A46     		mov	r2, r3
 1187 08a2 7B6B     		ldr	r3, [r7, #52]
 1188 08a4 1343     		orrs	r3, r3, r2
 1189 08a6 BB64     		str	r3, [r7, #72]
 518:../src/lib/lpc177x_8x/Drivers/source/lpc177x_8x_can.c **** 
 519:../src/lib/lpc177x_8x/Drivers/source/lpc177x_8x_can.c ****             LPC_CANAF_RAM->mask[count++] = entry;
 1190              		.loc 1 519 0
 1191 08a8 404B     		ldr	r3, .L75+4
 1192 08aa B7F85420 		ldrh	r2, [r7, #84]
 1193 08ae B96C     		ldr	r1, [r7, #72]
 1194 08b0 43F82210 		str	r1, [r3, r2, lsl #2]
 1195 08b4 B7F85430 		ldrh	r3, [r7, #84]	@ movhi
 1196 08b8 03F10103 		add	r3, r3, #1
 1197 08bc A7F85430 		strh	r3, [r7, #84]	@ movhi
 520:../src/lib/lpc177x_8x/Drivers/source/lpc177x_8x_can.c **** 
 521:../src/lib/lpc177x_8x/Drivers/source/lpc177x_8x_can.c ****             entry = (ctrl2 << 29)|(upperEID << 0);
 1198              		.loc 1 521 0
 1199 08c0 97F84130 		ldrb	r3, [r7, #65]	@ zero_extendqisi2
 1200 08c4 4FEA4373 		lsl	r3, r3, #29
 1201 08c8 1A46     		mov	r2, r3
 1202 08ca 3B6B     		ldr	r3, [r7, #48]
 1203 08cc 1343     		orrs	r3, r3, r2
 1204 08ce BB64     		str	r3, [r7, #72]
 522:../src/lib/lpc177x_8x/Drivers/source/lpc177x_8x_can.c **** 
 523:../src/lib/lpc177x_8x/Drivers/source/lpc177x_8x_can.c ****             LPC_CANAF_RAM->mask[count++] = entry;
 1205              		.loc 1 523 0
 1206 08d0 364B     		ldr	r3, .L75+4
 1207 08d2 B7F85420 		ldrh	r2, [r7, #84]
 1208 08d6 B96C     		ldr	r1, [r7, #72]
 1209 08d8 43F82210 		str	r1, [r3, r2, lsl #2]
 1210 08dc B7F85430 		ldrh	r3, [r7, #84]	@ movhi
 1211 08e0 03F10103 		add	r3, r3, #1
 1212 08e4 A7F85430 		strh	r3, [r7, #84]	@ movhi
 524:../src/lib/lpc177x_8x/Drivers/source/lpc177x_8x_can.c **** 
 525:../src/lib/lpc177x_8x/Drivers/source/lpc177x_8x_can.c ****             CANAF_gext_cnt++;
 1213              		.loc 1 525 0
 1214 08e8 2F4B     		ldr	r3, .L75
 1215 08ea 1B88     		ldrh	r3, [r3, #0]
 1216 08ec 03F10103 		add	r3, r3, #1
 1217 08f0 9AB2     		uxth	r2, r3
 1218 08f2 2D4B     		ldr	r3, .L75
 1219 08f4 1A80     		strh	r2, [r3, #0]	@ movhi
 526:../src/lib/lpc177x_8x/Drivers/source/lpc177x_8x_can.c **** 
 527:../src/lib/lpc177x_8x/Drivers/source/lpc177x_8x_can.c ****             afSecDef.EFF_GPR_Sec = (EFF_GPR_Entry *)((uint32_t)(afSecDef.EFF_GPR_Sec)+ sizeof(EFF_G
 1220              		.loc 1 527 0
 1221 08f6 BB6A     		ldr	r3, [r7, #40]
 1222 08f8 03F10C03 		add	r3, r3, #12
 1223 08fc BB62     		str	r3, [r7, #40]
 490:../src/lib/lpc177x_8x/Drivers/source/lpc177x_8x_can.c ****         for(i=0;i<(afSecDef.EFF_GPR_NumEntry);i++)
 1224              		.loc 1 490 0
 1225 08fe B7F85630 		ldrh	r3, [r7, #86]	@ movhi
 1226 0902 03F10103 		add	r3, r3, #1
 1227 0906 A7F85630 		strh	r3, [r7, #86]	@ movhi
 1228              	.L63:
 490:../src/lib/lpc177x_8x/Drivers/source/lpc177x_8x_can.c ****         for(i=0;i<(afSecDef.EFF_GPR_NumEntry);i++)
 1229              		.loc 1 490 0 is_stmt 0 discriminator 1
 1230 090a 97F82C30 		ldrb	r3, [r7, #44]	@ zero_extendqisi2
 1231 090e B7F85620 		ldrh	r2, [r7, #86]
 1232 0912 9A42     		cmp	r2, r3
 1233 0914 FFF479AF 		bcc	.L67
 1234              	.L62:
 528:../src/lib/lpc177x_8x/Drivers/source/lpc177x_8x_can.c ****         }
 529:../src/lib/lpc177x_8x/Drivers/source/lpc177x_8x_can.c ****     }
 530:../src/lib/lpc177x_8x/Drivers/source/lpc177x_8x_can.c **** 
 531:../src/lib/lpc177x_8x/Drivers/source/lpc177x_8x_can.c ****     //update address values
 532:../src/lib/lpc177x_8x/Drivers/source/lpc177x_8x_can.c ****     LPC_CANAF->SFF_sa = ((CANAF_FullCAN_cnt + 1)>>1)<<2;
 1235              		.loc 1 532 0 is_stmt 1
 1236 0918 254B     		ldr	r3, .L75+8
 1237 091a 264A     		ldr	r2, .L75+12
 1238 091c 1288     		ldrh	r2, [r2, #0]
 1239 091e 02F10102 		add	r2, r2, #1
 1240 0922 4FEA6202 		asr	r2, r2, #1
 1241 0926 4FEA8202 		lsl	r2, r2, #2
 1242 092a 5A60     		str	r2, [r3, #4]
 533:../src/lib/lpc177x_8x/Drivers/source/lpc177x_8x_can.c **** 
 534:../src/lib/lpc177x_8x/Drivers/source/lpc177x_8x_can.c ****     LPC_CANAF->SFF_GRP_sa = LPC_CANAF->SFF_sa + (((CANAF_std_cnt+1)>>1)<< 2);
 1243              		.loc 1 534 0
 1244 092c 204B     		ldr	r3, .L75+8
 1245 092e 204A     		ldr	r2, .L75+8
 1246 0930 5168     		ldr	r1, [r2, #4]
 1247 0932 214A     		ldr	r2, .L75+16
 1248 0934 1288     		ldrh	r2, [r2, #0]
 1249 0936 02F10102 		add	r2, r2, #1
 1250 093a 4FEA6202 		asr	r2, r2, #1
 1251 093e 4FEA8202 		lsl	r2, r2, #2
 1252 0942 8A18     		adds	r2, r1, r2
 1253 0944 9A60     		str	r2, [r3, #8]
 535:../src/lib/lpc177x_8x/Drivers/source/lpc177x_8x_can.c **** 
 536:../src/lib/lpc177x_8x/Drivers/source/lpc177x_8x_can.c ****     LPC_CANAF->EFF_sa = LPC_CANAF->SFF_GRP_sa + (CANAF_gstd_cnt << 2);
 1254              		.loc 1 536 0
 1255 0946 1A4B     		ldr	r3, .L75+8
 1256 0948 194A     		ldr	r2, .L75+8
 1257 094a 9168     		ldr	r1, [r2, #8]
 1258 094c 1B4A     		ldr	r2, .L75+20
 1259 094e 1288     		ldrh	r2, [r2, #0]
 1260 0950 4FEA8202 		lsl	r2, r2, #2
 1261 0954 8A18     		adds	r2, r1, r2
 1262 0956 DA60     		str	r2, [r3, #12]
 537:../src/lib/lpc177x_8x/Drivers/source/lpc177x_8x_can.c **** 
 538:../src/lib/lpc177x_8x/Drivers/source/lpc177x_8x_can.c ****     LPC_CANAF->EFF_GRP_sa = LPC_CANAF->EFF_sa + (CANAF_ext_cnt << 2);
 1263              		.loc 1 538 0
 1264 0958 154B     		ldr	r3, .L75+8
 1265 095a 154A     		ldr	r2, .L75+8
 1266 095c D168     		ldr	r1, [r2, #12]
 1267 095e 184A     		ldr	r2, .L75+24
 1268 0960 1288     		ldrh	r2, [r2, #0]
 1269 0962 4FEA8202 		lsl	r2, r2, #2
 1270 0966 8A18     		adds	r2, r1, r2
 1271 0968 1A61     		str	r2, [r3, #16]
 539:../src/lib/lpc177x_8x/Drivers/source/lpc177x_8x_can.c **** 
 540:../src/lib/lpc177x_8x/Drivers/source/lpc177x_8x_can.c ****     LPC_CANAF->ENDofTable = LPC_CANAF->EFF_GRP_sa + (CANAF_gext_cnt << 3);
 1272              		.loc 1 540 0
 1273 096a 114B     		ldr	r3, .L75+8
 1274 096c 104A     		ldr	r2, .L75+8
 1275 096e 1169     		ldr	r1, [r2, #16]
 1276 0970 0D4A     		ldr	r2, .L75
 1277 0972 1288     		ldrh	r2, [r2, #0]
 1278 0974 4FEAC202 		lsl	r2, r2, #3
 1279 0978 8A18     		adds	r2, r1, r2
 1280 097a 5A61     		str	r2, [r3, #20]
 541:../src/lib/lpc177x_8x/Drivers/source/lpc177x_8x_can.c **** 
 542:../src/lib/lpc177x_8x/Drivers/source/lpc177x_8x_can.c ****     if(FULLCAN_ENABLE == DISABLE)
 1281              		.loc 1 542 0
 1282 097c 114B     		ldr	r3, .L75+28
 1283 097e 1B78     		ldrb	r3, [r3, #0]	@ zero_extendqisi2
 1284 0980 002B     		cmp	r3, #0
 1285 0982 04D1     		bne	.L68
 543:../src/lib/lpc177x_8x/Drivers/source/lpc177x_8x_can.c ****     {
 544:../src/lib/lpc177x_8x/Drivers/source/lpc177x_8x_can.c ****         LPC_CANAF->AFMR = 0x00; // Normal mode
 1286              		.loc 1 544 0
 1287 0984 0A4B     		ldr	r3, .L75+8
 1288 0986 4FF00002 		mov	r2, #0
 1289 098a 1A60     		str	r2, [r3, #0]
 1290 098c 03E0     		b	.L69
 1291              	.L68:
 545:../src/lib/lpc177x_8x/Drivers/source/lpc177x_8x_can.c ****     }
 546:../src/lib/lpc177x_8x/Drivers/source/lpc177x_8x_can.c ****     else
 547:../src/lib/lpc177x_8x/Drivers/source/lpc177x_8x_can.c ****     {
 548:../src/lib/lpc177x_8x/Drivers/source/lpc177x_8x_can.c ****         LPC_CANAF->AFMR = 0x04;
 1292              		.loc 1 548 0
 1293 098e 084B     		ldr	r3, .L75+8
 1294 0990 4FF00402 		mov	r2, #4
 1295 0994 1A60     		str	r2, [r3, #0]
 1296              	.L69:
 549:../src/lib/lpc177x_8x/Drivers/source/lpc177x_8x_can.c ****     }
 550:../src/lib/lpc177x_8x/Drivers/source/lpc177x_8x_can.c **** 
 551:../src/lib/lpc177x_8x/Drivers/source/lpc177x_8x_can.c ****     return CAN_OK;
 1297              		.loc 1 551 0
 1298 0996 4FF00103 		mov	r3, #1
 1299              	.L70:
 552:../src/lib/lpc177x_8x/Drivers/source/lpc177x_8x_can.c **** }
 1300              		.loc 1 552 0
 1301 099a 1846     		mov	r0, r3
 1302 099c 07F15C07 		add	r7, r7, #92
 1303 09a0 BD46     		mov	sp, r7
 1304 09a2 B0BC     		pop	{r4, r5, r7}
 1305 09a4 7047     		bx	lr
 1306              	.L76:
 1307 09a6 00BF     		.align	2
 1308              	.L75:
 1309 09a8 00000000 		.word	CANAF_gext_cnt
 1310 09ac 00800340 		.word	1073971200
 1311 09b0 00C00340 		.word	1073987584
 1312 09b4 00000000 		.word	CANAF_FullCAN_cnt
 1313 09b8 00000000 		.word	CANAF_std_cnt
 1314 09bc 00000000 		.word	CANAF_gstd_cnt
 1315 09c0 00000000 		.word	CANAF_ext_cnt
 1316 09c4 00000000 		.word	FULLCAN_ENABLE
 1317              		.cfi_endproc
 1318              	.LFE59:
 1320              		.align	2
 1321              		.global	CAN_LoadExplicitEntry
 1322              		.thumb
 1323              		.thumb_func
 1325              	CAN_LoadExplicitEntry:
 1326              	.LFB60:
 553:../src/lib/lpc177x_8x/Drivers/source/lpc177x_8x_can.c **** /********************************************************************//**
 554:../src/lib/lpc177x_8x/Drivers/source/lpc177x_8x_can.c ****  * @brief       Add Explicit ID into AF Look-Up Table dynamically.
 555:../src/lib/lpc177x_8x/Drivers/source/lpc177x_8x_can.c ****  * @param[in]    canId           The Id of the expected CAN component
 556:../src/lib/lpc177x_8x/Drivers/source/lpc177x_8x_can.c ****  *
 557:../src/lib/lpc177x_8x/Drivers/source/lpc177x_8x_can.c ****  * @param[in]   id: The ID of entry will be added
 558:../src/lib/lpc177x_8x/Drivers/source/lpc177x_8x_can.c ****  * @param[in]   format: is the type of ID Frame Format, should be:
 559:../src/lib/lpc177x_8x/Drivers/source/lpc177x_8x_can.c ****  *              - STD_ID_FORMAT: 11-bit ID value
 560:../src/lib/lpc177x_8x/Drivers/source/lpc177x_8x_can.c ****  *              - EXT_ID_FORMAT: 29-bit ID value
 561:../src/lib/lpc177x_8x/Drivers/source/lpc177x_8x_can.c ****  * @return      CAN Error, could be:
 562:../src/lib/lpc177x_8x/Drivers/source/lpc177x_8x_can.c ****  *              - CAN_OBJECTS_FULL_ERROR: No more rx or tx objects available
 563:../src/lib/lpc177x_8x/Drivers/source/lpc177x_8x_can.c ****  *              - CAN_ID_EXIT_ERROR: ID exited in table
 564:../src/lib/lpc177x_8x/Drivers/source/lpc177x_8x_can.c ****  *              - CAN_OK: ID is added into table successfully
 565:../src/lib/lpc177x_8x/Drivers/source/lpc177x_8x_can.c ****  *********************************************************************/
 566:../src/lib/lpc177x_8x/Drivers/source/lpc177x_8x_can.c **** CAN_ERROR CAN_LoadExplicitEntry(uint8_t canId, uint32_t id, CAN_ID_FORMAT_Type format)
 567:../src/lib/lpc177x_8x/Drivers/source/lpc177x_8x_can.c **** {
 1327              		.loc 1 567 0
 1328              		.cfi_startproc
 1329              		@ args = 0, pretend = 0, frame = 24
 1330              		@ frame_needed = 1, uses_anonymous_args = 0
 1331              		@ link register save eliminated.
 1332 09c8 80B4     		push	{r7}
 1333              	.LCFI15:
 1334              		.cfi_def_cfa_offset 4
 1335              		.cfi_offset 7, -4
 1336 09ca 87B0     		sub	sp, sp, #28
 1337              	.LCFI16:
 1338              		.cfi_def_cfa_offset 32
 1339 09cc 00AF     		add	r7, sp, #0
 1340              	.LCFI17:
 1341              		.cfi_def_cfa_register 7
 1342 09ce 3960     		str	r1, [r7, #0]
 1343 09d0 1346     		mov	r3, r2
 1344 09d2 0246     		mov	r2, r0
 1345 09d4 FA71     		strb	r2, [r7, #7]
 1346 09d6 BB71     		strb	r3, [r7, #6]
 568:../src/lib/lpc177x_8x/Drivers/source/lpc177x_8x_can.c ****     uint32_t buf0 = 0, buf1 = 0;
 1347              		.loc 1 568 0
 1348 09d8 4FF00003 		mov	r3, #0
 1349 09dc 7B61     		str	r3, [r7, #20]
 1350 09de 4FF00003 		mov	r3, #0
 1351 09e2 3B61     		str	r3, [r7, #16]
 569:../src/lib/lpc177x_8x/Drivers/source/lpc177x_8x_can.c ****     int16_t cnt1 = 0, cnt2 = 0, bound1 = 0, total = 0;
 1352              		.loc 1 569 0
 1353 09e4 4FF00003 		mov	r3, #0
 1354 09e8 FB81     		strh	r3, [r7, #14]	@ movhi
 1355 09ea 4FF00003 		mov	r3, #0
 1356 09ee BB81     		strh	r3, [r7, #12]	@ movhi
 1357 09f0 4FF00003 		mov	r3, #0
 1358 09f4 7B81     		strh	r3, [r7, #10]	@ movhi
 1359 09f6 4FF00003 		mov	r3, #0
 1360 09fa 3B81     		strh	r3, [r7, #8]	@ movhi
 570:../src/lib/lpc177x_8x/Drivers/source/lpc177x_8x_can.c **** 
 571:../src/lib/lpc177x_8x/Drivers/source/lpc177x_8x_can.c ****     /* Acceptance Filter Memory full - return */
 572:../src/lib/lpc177x_8x/Drivers/source/lpc177x_8x_can.c ****     total =((CANAF_FullCAN_cnt + 1) >> 1) + CANAF_FullCAN_cnt * 3 + ((CANAF_std_cnt + 1) >> 1)  \
 1361              		.loc 1 572 0
 1362 09fc A84B     		ldr	r3, .L109
 1363 09fe 1B88     		ldrh	r3, [r3, #0]
 1364 0a00 03F10103 		add	r3, r3, #1
 1365 0a04 4FEA6303 		asr	r3, r3, #1
 1366 0a08 9AB2     		uxth	r2, r3
 1367 0a0a A54B     		ldr	r3, .L109
 1368 0a0c 1B88     		ldrh	r3, [r3, #0]
 1369 0a0e 1946     		mov	r1, r3	@ movhi
 1370 0a10 4FEA4101 		lsl	r1, r1, #1
 1371 0a14 CB18     		adds	r3, r1, r3
 1372 0a16 9BB2     		uxth	r3, r3
 1373 0a18 D318     		adds	r3, r2, r3
 1374 0a1a 9AB2     		uxth	r2, r3
 1375 0a1c A14B     		ldr	r3, .L109+4
 1376 0a1e 1B88     		ldrh	r3, [r3, #0]
 1377 0a20 03F10103 		add	r3, r3, #1
 1378 0a24 4FEA6303 		asr	r3, r3, #1
 1379 0a28 9BB2     		uxth	r3, r3
 1380 0a2a D318     		adds	r3, r2, r3
 1381 0a2c 9AB2     		uxth	r2, r3
 1382 0a2e 9E4B     		ldr	r3, .L109+8
 1383 0a30 1B88     		ldrh	r3, [r3, #0]
 1384 0a32 D318     		adds	r3, r2, r3
 1385 0a34 9AB2     		uxth	r2, r3
 1386 0a36 9D4B     		ldr	r3, .L109+12
 1387 0a38 1B88     		ldrh	r3, [r3, #0]
 1388 0a3a D318     		adds	r3, r2, r3
 1389 0a3c 9AB2     		uxth	r2, r3
 1390 0a3e 9C4B     		ldr	r3, .L109+16
 1391 0a40 1B88     		ldrh	r3, [r3, #0]
 1392 0a42 4FEA4303 		lsl	r3, r3, #1
 1393 0a46 9BB2     		uxth	r3, r3
 1394 0a48 D318     		adds	r3, r2, r3
 1395 0a4a 9BB2     		uxth	r3, r3
 1396 0a4c 3B81     		strh	r3, [r7, #8]	@ movhi
 573:../src/lib/lpc177x_8x/Drivers/source/lpc177x_8x_can.c ****                 + CANAF_gstd_cnt + CANAF_ext_cnt + (CANAF_gext_cnt << 1);
 574:../src/lib/lpc177x_8x/Drivers/source/lpc177x_8x_can.c **** 
 575:../src/lib/lpc177x_8x/Drivers/source/lpc177x_8x_can.c ****     if (total >= 512)
 1397              		.loc 1 575 0
 1398 0a4e B7F90820 		ldrsh	r2, [r7, #8]
 1399 0a52 40F2FF13 		movw	r3, #511
 1400 0a56 9A42     		cmp	r2, r3
 1401 0a58 02DD     		ble	.L78
 576:../src/lib/lpc177x_8x/Drivers/source/lpc177x_8x_can.c ****     {
 577:../src/lib/lpc177x_8x/Drivers/source/lpc177x_8x_can.c ****         //don't have enough space
 578:../src/lib/lpc177x_8x/Drivers/source/lpc177x_8x_can.c ****         return CAN_OBJECTS_FULL_ERROR;
 1402              		.loc 1 578 0
 1403 0a5a 4FF00203 		mov	r3, #2
 1404 0a5e 3AE2     		b	.L79
 1405              	.L78:
 579:../src/lib/lpc177x_8x/Drivers/source/lpc177x_8x_can.c ****     }
 580:../src/lib/lpc177x_8x/Drivers/source/lpc177x_8x_can.c **** 
 581:../src/lib/lpc177x_8x/Drivers/source/lpc177x_8x_can.c ****     /* Setup Acceptance Filter Configuration
 582:../src/lib/lpc177x_8x/Drivers/source/lpc177x_8x_can.c ****     Acceptance Filter Mode Register = Off */
 583:../src/lib/lpc177x_8x/Drivers/source/lpc177x_8x_can.c ****     LPC_CANAF->AFMR = 0x00000001;
 1406              		.loc 1 583 0
 1407 0a60 944B     		ldr	r3, .L109+20
 1408 0a62 4FF00102 		mov	r2, #1
 1409 0a66 1A60     		str	r2, [r3, #0]
 584:../src/lib/lpc177x_8x/Drivers/source/lpc177x_8x_can.c **** 
 585:../src/lib/lpc177x_8x/Drivers/source/lpc177x_8x_can.c ****     /*********** Add Explicit Standard Identifier Frame Format entry *********/
 586:../src/lib/lpc177x_8x/Drivers/source/lpc177x_8x_can.c ****     if(format == STD_ID_FORMAT)
 1410              		.loc 1 586 0
 1411 0a68 BB79     		ldrb	r3, [r7, #6]	@ zero_extendqisi2
 1412 0a6a 002B     		cmp	r3, #0
 1413 0a6c 40F0AF81 		bne	.L80
 587:../src/lib/lpc177x_8x/Drivers/source/lpc177x_8x_can.c ****     {
 588:../src/lib/lpc177x_8x/Drivers/source/lpc177x_8x_can.c ****         id &= 0x07FF;
 1414              		.loc 1 588 0
 1415 0a70 3B68     		ldr	r3, [r7, #0]
 1416 0a72 4FEA4353 		lsl	r3, r3, #21
 1417 0a76 4FEA5353 		lsr	r3, r3, #21
 1418 0a7a 3B60     		str	r3, [r7, #0]
 589:../src/lib/lpc177x_8x/Drivers/source/lpc177x_8x_can.c **** 
 590:../src/lib/lpc177x_8x/Drivers/source/lpc177x_8x_can.c ****         id |= canId << 13;/* Add controller number */
 1419              		.loc 1 590 0
 1420 0a7c FB79     		ldrb	r3, [r7, #7]	@ zero_extendqisi2
 1421 0a7e 4FEA4333 		lsl	r3, r3, #13
 1422 0a82 3A68     		ldr	r2, [r7, #0]
 1423 0a84 1343     		orrs	r3, r3, r2
 1424 0a86 3B60     		str	r3, [r7, #0]
 591:../src/lib/lpc177x_8x/Drivers/source/lpc177x_8x_can.c **** 
 592:../src/lib/lpc177x_8x/Drivers/source/lpc177x_8x_can.c ****         /* Move all remaining sections one place up
 593:../src/lib/lpc177x_8x/Drivers/source/lpc177x_8x_can.c ****         if new entry will increase FullCAN list */
 594:../src/lib/lpc177x_8x/Drivers/source/lpc177x_8x_can.c ****         if ((CANAF_std_cnt & 0x0001) == 0)
 1425              		.loc 1 594 0
 1426 0a88 864B     		ldr	r3, .L109+4
 1427 0a8a 1B88     		ldrh	r3, [r3, #0]
 1428 0a8c 03F00103 		and	r3, r3, #1
 1429 0a90 002B     		cmp	r3, #0
 1430 0a92 3BD1     		bne	.L81
 595:../src/lib/lpc177x_8x/Drivers/source/lpc177x_8x_can.c ****         {
 596:../src/lib/lpc177x_8x/Drivers/source/lpc177x_8x_can.c ****             cnt1   = ((CANAF_FullCAN_cnt+1)>>1)+((CANAF_std_cnt+1)>>1);
 1431              		.loc 1 596 0
 1432 0a94 824B     		ldr	r3, .L109
 1433 0a96 1B88     		ldrh	r3, [r3, #0]
 1434 0a98 03F10103 		add	r3, r3, #1
 1435 0a9c 4FEA6303 		asr	r3, r3, #1
 1436 0aa0 9AB2     		uxth	r2, r3
 1437 0aa2 804B     		ldr	r3, .L109+4
 1438 0aa4 1B88     		ldrh	r3, [r3, #0]
 1439 0aa6 03F10103 		add	r3, r3, #1
 1440 0aaa 4FEA6303 		asr	r3, r3, #1
 1441 0aae 9BB2     		uxth	r3, r3
 1442 0ab0 D318     		adds	r3, r2, r3
 1443 0ab2 9BB2     		uxth	r3, r3
 1444 0ab4 FB81     		strh	r3, [r7, #14]	@ movhi
 597:../src/lib/lpc177x_8x/Drivers/source/lpc177x_8x_can.c **** 
 598:../src/lib/lpc177x_8x/Drivers/source/lpc177x_8x_can.c ****             bound1 = total - cnt1;
 1445              		.loc 1 598 0
 1446 0ab6 3A89     		ldrh	r2, [r7, #8]
 1447 0ab8 FB89     		ldrh	r3, [r7, #14]
 1448 0aba D31A     		subs	r3, r2, r3
 1449 0abc 9BB2     		uxth	r3, r3
 1450 0abe 7B81     		strh	r3, [r7, #10]	@ movhi
 599:../src/lib/lpc177x_8x/Drivers/source/lpc177x_8x_can.c **** 
 600:../src/lib/lpc177x_8x/Drivers/source/lpc177x_8x_can.c ****             buf0   = LPC_CANAF_RAM->mask[cnt1];
 1451              		.loc 1 600 0
 1452 0ac0 7D4B     		ldr	r3, .L109+24
 1453 0ac2 B7F90E20 		ldrsh	r2, [r7, #14]
 1454 0ac6 53F82230 		ldr	r3, [r3, r2, lsl #2]
 1455 0aca 7B61     		str	r3, [r7, #20]
 601:../src/lib/lpc177x_8x/Drivers/source/lpc177x_8x_can.c **** 
 602:../src/lib/lpc177x_8x/Drivers/source/lpc177x_8x_can.c ****             while(bound1--)
 1456              		.loc 1 602 0
 1457 0acc 11E0     		b	.L82
 1458              	.L83:
 603:../src/lib/lpc177x_8x/Drivers/source/lpc177x_8x_can.c ****             {
 604:../src/lib/lpc177x_8x/Drivers/source/lpc177x_8x_can.c ****                 cnt1++;
 1459              		.loc 1 604 0
 1460 0ace FB89     		ldrh	r3, [r7, #14]	@ movhi
 1461 0ad0 03F10103 		add	r3, r3, #1
 1462 0ad4 FB81     		strh	r3, [r7, #14]	@ movhi
 605:../src/lib/lpc177x_8x/Drivers/source/lpc177x_8x_can.c **** 
 606:../src/lib/lpc177x_8x/Drivers/source/lpc177x_8x_can.c ****                 buf1 = LPC_CANAF_RAM->mask[cnt1];
 1463              		.loc 1 606 0
 1464 0ad6 784B     		ldr	r3, .L109+24
 1465 0ad8 B7F90E20 		ldrsh	r2, [r7, #14]
 1466 0adc 53F82230 		ldr	r3, [r3, r2, lsl #2]
 1467 0ae0 3B61     		str	r3, [r7, #16]
 607:../src/lib/lpc177x_8x/Drivers/source/lpc177x_8x_can.c **** 
 608:../src/lib/lpc177x_8x/Drivers/source/lpc177x_8x_can.c ****                 LPC_CANAF_RAM->mask[cnt1] = buf0;
 1468              		.loc 1 608 0
 1469 0ae2 754B     		ldr	r3, .L109+24
 1470 0ae4 B7F90E20 		ldrsh	r2, [r7, #14]
 1471 0ae8 7969     		ldr	r1, [r7, #20]
 1472 0aea 43F82210 		str	r1, [r3, r2, lsl #2]
 609:../src/lib/lpc177x_8x/Drivers/source/lpc177x_8x_can.c **** 
 610:../src/lib/lpc177x_8x/Drivers/source/lpc177x_8x_can.c ****                 buf0 = buf1;
 1473              		.loc 1 610 0
 1474 0aee 3B69     		ldr	r3, [r7, #16]
 1475 0af0 7B61     		str	r3, [r7, #20]
 1476              	.L82:
 602:../src/lib/lpc177x_8x/Drivers/source/lpc177x_8x_can.c ****             while(bound1--)
 1477              		.loc 1 602 0 discriminator 1
 1478 0af2 B7F90A30 		ldrsh	r3, [r7, #10]
 1479 0af6 002B     		cmp	r3, #0
 1480 0af8 0CBF     		ite	eq
 1481 0afa 0023     		moveq	r3, #0
 1482 0afc 0123     		movne	r3, #1
 1483 0afe DBB2     		uxtb	r3, r3
 1484 0b00 7A89     		ldrh	r2, [r7, #10]	@ movhi
 1485 0b02 02F1FF32 		add	r2, r2, #-1
 1486 0b06 7A81     		strh	r2, [r7, #10]	@ movhi
 1487 0b08 002B     		cmp	r3, #0
 1488 0b0a E0D1     		bne	.L83
 1489              	.L81:
 611:../src/lib/lpc177x_8x/Drivers/source/lpc177x_8x_can.c ****             }
 612:../src/lib/lpc177x_8x/Drivers/source/lpc177x_8x_can.c ****         }
 613:../src/lib/lpc177x_8x/Drivers/source/lpc177x_8x_can.c **** 
 614:../src/lib/lpc177x_8x/Drivers/source/lpc177x_8x_can.c ****         if (CANAF_std_cnt == 0)
 1490              		.loc 1 614 0
 1491 0b0c 654B     		ldr	r3, .L109+4
 1492 0b0e 1B88     		ldrh	r3, [r3, #0]
 1493 0b10 002B     		cmp	r3, #0
 1494 0b12 13D1     		bne	.L84
 615:../src/lib/lpc177x_8x/Drivers/source/lpc177x_8x_can.c ****         {
 616:../src/lib/lpc177x_8x/Drivers/source/lpc177x_8x_can.c ****             cnt2 = (CANAF_FullCAN_cnt + 1)>>1;
 1495              		.loc 1 616 0
 1496 0b14 624B     		ldr	r3, .L109
 1497 0b16 1B88     		ldrh	r3, [r3, #0]
 1498 0b18 03F10103 		add	r3, r3, #1
 1499 0b1c 4FEA6303 		asr	r3, r3, #1
 1500 0b20 BB81     		strh	r3, [r7, #12]	@ movhi
 617:../src/lib/lpc177x_8x/Drivers/source/lpc177x_8x_can.c **** 
 618:../src/lib/lpc177x_8x/Drivers/source/lpc177x_8x_can.c ****             /* For entering first ID */
 619:../src/lib/lpc177x_8x/Drivers/source/lpc177x_8x_can.c ****             LPC_CANAF_RAM->mask[cnt2] = 0x0000FFFF | (id << 16);
 1501              		.loc 1 619 0
 1502 0b22 654A     		ldr	r2, .L109+24
 1503 0b24 B7F90C10 		ldrsh	r1, [r7, #12]
 1504 0b28 3B68     		ldr	r3, [r7, #0]
 1505 0b2a 4FEA0343 		lsl	r3, r3, #16
 1506 0b2e 6FEA1343 		mvn	r3, r3, lsr #16
 1507 0b32 6FEA0343 		mvn	r3, r3, lsl #16
 1508 0b36 42F82130 		str	r3, [r2, r1, lsl #2]
 1509 0b3a 28E1     		b	.L85
 1510              	.L84:
 620:../src/lib/lpc177x_8x/Drivers/source/lpc177x_8x_can.c ****         }
 621:../src/lib/lpc177x_8x/Drivers/source/lpc177x_8x_can.c ****         else if (CANAF_std_cnt == 1)
 1511              		.loc 1 621 0
 1512 0b3c 594B     		ldr	r3, .L109+4
 1513 0b3e 1B88     		ldrh	r3, [r3, #0]
 1514 0b40 012B     		cmp	r3, #1
 1515 0b42 35D1     		bne	.L86
 622:../src/lib/lpc177x_8x/Drivers/source/lpc177x_8x_can.c ****         {
 623:../src/lib/lpc177x_8x/Drivers/source/lpc177x_8x_can.c ****             cnt2 = (CANAF_FullCAN_cnt + 1) >> 1;
 1516              		.loc 1 623 0
 1517 0b44 564B     		ldr	r3, .L109
 1518 0b46 1B88     		ldrh	r3, [r3, #0]
 1519 0b48 03F10103 		add	r3, r3, #1
 1520 0b4c 4FEA6303 		asr	r3, r3, #1
 1521 0b50 BB81     		strh	r3, [r7, #12]	@ movhi
 624:../src/lib/lpc177x_8x/Drivers/source/lpc177x_8x_can.c **** 
 625:../src/lib/lpc177x_8x/Drivers/source/lpc177x_8x_can.c ****             /* For entering second ID */
 626:../src/lib/lpc177x_8x/Drivers/source/lpc177x_8x_can.c ****             if (((LPC_CANAF_RAM->mask[cnt2] >> 16)& 0xE7FF) > id)
 1522              		.loc 1 626 0
 1523 0b52 594B     		ldr	r3, .L109+24
 1524 0b54 B7F90C20 		ldrsh	r2, [r7, #12]
 1525 0b58 53F82230 		ldr	r3, [r3, r2, lsl #2]
 1526 0b5c 4FEA1342 		lsr	r2, r3, #16
 1527 0b60 4EF2FF73 		movw	r3, #59391
 1528 0b64 1340     		ands	r3, r3, r2
 1529 0b66 3A68     		ldr	r2, [r7, #0]
 1530 0b68 9342     		cmp	r3, r2
 1531 0b6a 10D9     		bls	.L87
 627:../src/lib/lpc177x_8x/Drivers/source/lpc177x_8x_can.c ****             {
 628:../src/lib/lpc177x_8x/Drivers/source/lpc177x_8x_can.c ****                 LPC_CANAF_RAM->mask[cnt2] = (LPC_CANAF_RAM->mask[cnt2] >> 16) | (id << 16);
 1532              		.loc 1 628 0
 1533 0b6c 524B     		ldr	r3, .L109+24
 1534 0b6e B7F90C20 		ldrsh	r2, [r7, #12]
 1535 0b72 5149     		ldr	r1, .L109+24
 1536 0b74 B7F90C00 		ldrsh	r0, [r7, #12]
 1537 0b78 51F82010 		ldr	r1, [r1, r0, lsl #2]
 1538 0b7c 4FEA1140 		lsr	r0, r1, #16
 1539 0b80 3968     		ldr	r1, [r7, #0]
 1540 0b82 4FEA0141 		lsl	r1, r1, #16
 1541 0b86 0143     		orrs	r1, r1, r0
 1542 0b88 43F82210 		str	r1, [r3, r2, lsl #2]
 1543 0b8c FFE0     		b	.L85
 1544              	.L87:
 629:../src/lib/lpc177x_8x/Drivers/source/lpc177x_8x_can.c ****             }
 630:../src/lib/lpc177x_8x/Drivers/source/lpc177x_8x_can.c ****             else
 631:../src/lib/lpc177x_8x/Drivers/source/lpc177x_8x_can.c ****             {
 632:../src/lib/lpc177x_8x/Drivers/source/lpc177x_8x_can.c ****                 LPC_CANAF_RAM->mask[cnt2] = (LPC_CANAF_RAM->mask[cnt2] & 0xFFFF0000) | id;
 1545              		.loc 1 632 0
 1546 0b8e 4A4A     		ldr	r2, .L109+24
 1547 0b90 B7F90C10 		ldrsh	r1, [r7, #12]
 1548 0b94 484B     		ldr	r3, .L109+24
 1549 0b96 B7F90C00 		ldrsh	r0, [r7, #12]
 1550 0b9a 53F82030 		ldr	r3, [r3, r0, lsl #2]
 1551 0b9e 4FEA1343 		lsr	r3, r3, #16
 1552 0ba2 4FEA0343 		lsl	r3, r3, #16
 1553 0ba6 3868     		ldr	r0, [r7, #0]
 1554 0ba8 0343     		orrs	r3, r3, r0
 1555 0baa 42F82130 		str	r3, [r2, r1, lsl #2]
 1556 0bae EEE0     		b	.L85
 1557              	.L86:
 633:../src/lib/lpc177x_8x/Drivers/source/lpc177x_8x_can.c ****             }
 634:../src/lib/lpc177x_8x/Drivers/source/lpc177x_8x_can.c ****         }
 635:../src/lib/lpc177x_8x/Drivers/source/lpc177x_8x_can.c ****         else
 636:../src/lib/lpc177x_8x/Drivers/source/lpc177x_8x_can.c ****         {
 637:../src/lib/lpc177x_8x/Drivers/source/lpc177x_8x_can.c ****             /* Find where to insert new ID */
 638:../src/lib/lpc177x_8x/Drivers/source/lpc177x_8x_can.c ****             cnt1 = (CANAF_FullCAN_cnt+1)>>1;
 1558              		.loc 1 638 0
 1559 0bb0 3B4B     		ldr	r3, .L109
 1560 0bb2 1B88     		ldrh	r3, [r3, #0]
 1561 0bb4 03F10103 		add	r3, r3, #1
 1562 0bb8 4FEA6303 		asr	r3, r3, #1
 1563 0bbc FB81     		strh	r3, [r7, #14]	@ movhi
 639:../src/lib/lpc177x_8x/Drivers/source/lpc177x_8x_can.c **** 
 640:../src/lib/lpc177x_8x/Drivers/source/lpc177x_8x_can.c ****             cnt2 = CANAF_std_cnt;
 1564              		.loc 1 640 0
 1565 0bbe 394B     		ldr	r3, .L109+4
 1566 0bc0 1B88     		ldrh	r3, [r3, #0]
 1567 0bc2 BB81     		strh	r3, [r7, #12]	@ movhi
 641:../src/lib/lpc177x_8x/Drivers/source/lpc177x_8x_can.c **** 
 642:../src/lib/lpc177x_8x/Drivers/source/lpc177x_8x_can.c ****             bound1 = ((CANAF_FullCAN_cnt+1)>>1)+((CANAF_std_cnt+1)>>1);
 1568              		.loc 1 642 0
 1569 0bc4 364B     		ldr	r3, .L109
 1570 0bc6 1B88     		ldrh	r3, [r3, #0]
 1571 0bc8 03F10103 		add	r3, r3, #1
 1572 0bcc 4FEA6303 		asr	r3, r3, #1
 1573 0bd0 9AB2     		uxth	r2, r3
 1574 0bd2 344B     		ldr	r3, .L109+4
 1575 0bd4 1B88     		ldrh	r3, [r3, #0]
 1576 0bd6 03F10103 		add	r3, r3, #1
 1577 0bda 4FEA6303 		asr	r3, r3, #1
 1578 0bde 9BB2     		uxth	r3, r3
 1579 0be0 D318     		adds	r3, r2, r3
 1580 0be2 9BB2     		uxth	r3, r3
 1581 0be4 7B81     		strh	r3, [r7, #10]	@ movhi
 643:../src/lib/lpc177x_8x/Drivers/source/lpc177x_8x_can.c **** 
 644:../src/lib/lpc177x_8x/Drivers/source/lpc177x_8x_can.c ****             while (cnt1 < bound1)
 1582              		.loc 1 644 0
 1583 0be6 2AE0     		b	.L88
 1584              	.L92:
 645:../src/lib/lpc177x_8x/Drivers/source/lpc177x_8x_can.c ****             {
 646:../src/lib/lpc177x_8x/Drivers/source/lpc177x_8x_can.c ****                 /* Loop through standard existing IDs */
 647:../src/lib/lpc177x_8x/Drivers/source/lpc177x_8x_can.c ****                 if (((LPC_CANAF_RAM->mask[cnt1] >> 16) & 0xE7FF) > id)
 1585              		.loc 1 647 0
 1586 0be8 334B     		ldr	r3, .L109+24
 1587 0bea B7F90E20 		ldrsh	r2, [r7, #14]
 1588 0bee 53F82230 		ldr	r3, [r3, r2, lsl #2]
 1589 0bf2 4FEA1342 		lsr	r2, r3, #16
 1590 0bf6 4EF2FF73 		movw	r3, #59391
 1591 0bfa 1340     		ands	r3, r3, r2
 1592 0bfc 3A68     		ldr	r2, [r7, #0]
 1593 0bfe 9342     		cmp	r3, r2
 1594 0c00 05D9     		bls	.L89
 648:../src/lib/lpc177x_8x/Drivers/source/lpc177x_8x_can.c ****                 {
 649:../src/lib/lpc177x_8x/Drivers/source/lpc177x_8x_can.c ****                     cnt2 = cnt1 * 2;
 1595              		.loc 1 649 0
 1596 0c02 FB89     		ldrh	r3, [r7, #14]
 1597 0c04 4FEA4303 		lsl	r3, r3, #1
 1598 0c08 9BB2     		uxth	r3, r3
 1599 0c0a BB81     		strh	r3, [r7, #12]	@ movhi
 650:../src/lib/lpc177x_8x/Drivers/source/lpc177x_8x_can.c ****                     break;
 1600              		.loc 1 650 0
 1601 0c0c 1DE0     		b	.L90
 1602              	.L89:
 651:../src/lib/lpc177x_8x/Drivers/source/lpc177x_8x_can.c ****                 }
 652:../src/lib/lpc177x_8x/Drivers/source/lpc177x_8x_can.c **** 
 653:../src/lib/lpc177x_8x/Drivers/source/lpc177x_8x_can.c ****                 if ((LPC_CANAF_RAM->mask[cnt1] & 0x0000E7FF) > id)
 1603              		.loc 1 653 0
 1604 0c0e 2A4B     		ldr	r3, .L109+24
 1605 0c10 B7F90E20 		ldrsh	r2, [r7, #14]
 1606 0c14 53F82220 		ldr	r2, [r3, r2, lsl #2]
 1607 0c18 4EF2FF73 		movw	r3, #59391
 1608 0c1c 1340     		ands	r3, r3, r2
 1609 0c1e 3A68     		ldr	r2, [r7, #0]
 1610 0c20 9342     		cmp	r3, r2
 1611 0c22 08D9     		bls	.L91
 654:../src/lib/lpc177x_8x/Drivers/source/lpc177x_8x_can.c ****                 {
 655:../src/lib/lpc177x_8x/Drivers/source/lpc177x_8x_can.c ****                     cnt2 = cnt1 * 2 + 1;
 1612              		.loc 1 655 0
 1613 0c24 FB89     		ldrh	r3, [r7, #14]
 1614 0c26 4FEA4303 		lsl	r3, r3, #1
 1615 0c2a 9BB2     		uxth	r3, r3
 1616 0c2c 03F10103 		add	r3, r3, #1
 1617 0c30 9BB2     		uxth	r3, r3
 1618 0c32 BB81     		strh	r3, [r7, #12]	@ movhi
 656:../src/lib/lpc177x_8x/Drivers/source/lpc177x_8x_can.c ****                     break;
 1619              		.loc 1 656 0
 1620 0c34 09E0     		b	.L90
 1621              	.L91:
 657:../src/lib/lpc177x_8x/Drivers/source/lpc177x_8x_can.c ****                 }
 658:../src/lib/lpc177x_8x/Drivers/source/lpc177x_8x_can.c **** 
 659:../src/lib/lpc177x_8x/Drivers/source/lpc177x_8x_can.c ****                 cnt1++;
 1622              		.loc 1 659 0
 1623 0c36 FB89     		ldrh	r3, [r7, #14]	@ movhi
 1624 0c38 03F10103 		add	r3, r3, #1
 1625 0c3c FB81     		strh	r3, [r7, #14]	@ movhi
 1626              	.L88:
 644:../src/lib/lpc177x_8x/Drivers/source/lpc177x_8x_can.c ****             while (cnt1 < bound1)
 1627              		.loc 1 644 0 discriminator 1
 1628 0c3e B7F90E20 		ldrsh	r2, [r7, #14]
 1629 0c42 B7F90A30 		ldrsh	r3, [r7, #10]
 1630 0c46 9A42     		cmp	r2, r3
 1631 0c48 CEDB     		blt	.L92
 1632              	.L90:
 660:../src/lib/lpc177x_8x/Drivers/source/lpc177x_8x_can.c ****             }
 661:../src/lib/lpc177x_8x/Drivers/source/lpc177x_8x_can.c **** 
 662:../src/lib/lpc177x_8x/Drivers/source/lpc177x_8x_can.c ****             /* cnt1 = U32 where to insert new ID */
 663:../src/lib/lpc177x_8x/Drivers/source/lpc177x_8x_can.c ****             /* cnt2 = U16 where to insert new ID */
 664:../src/lib/lpc177x_8x/Drivers/source/lpc177x_8x_can.c **** 
 665:../src/lib/lpc177x_8x/Drivers/source/lpc177x_8x_can.c ****             if (cnt1 == bound1)
 1633              		.loc 1 665 0
 1634 0c4a B7F90E20 		ldrsh	r2, [r7, #14]
 1635 0c4e B7F90A30 		ldrsh	r3, [r7, #10]
 1636 0c52 9A42     		cmp	r2, r3
 1637 0c54 32D1     		bne	.L93
 666:../src/lib/lpc177x_8x/Drivers/source/lpc177x_8x_can.c ****             {
 667:../src/lib/lpc177x_8x/Drivers/source/lpc177x_8x_can.c ****                 /* Adding ID as last entry */
 668:../src/lib/lpc177x_8x/Drivers/source/lpc177x_8x_can.c ****                 /* Even number of IDs exists */
 669:../src/lib/lpc177x_8x/Drivers/source/lpc177x_8x_can.c ****                 if ((CANAF_std_cnt & 0x0001) == 0)
 1638              		.loc 1 669 0
 1639 0c56 134B     		ldr	r3, .L109+4
 1640 0c58 1B88     		ldrh	r3, [r3, #0]
 1641 0c5a 03F00103 		and	r3, r3, #1
 1642 0c5e 002B     		cmp	r3, #0
 1643 0c60 0CD1     		bne	.L94
 670:../src/lib/lpc177x_8x/Drivers/source/lpc177x_8x_can.c ****                 {
 671:../src/lib/lpc177x_8x/Drivers/source/lpc177x_8x_can.c ****                     LPC_CANAF_RAM->mask[cnt1]  = 0x0000FFFF | (id << 16);
 1644              		.loc 1 671 0
 1645 0c62 154A     		ldr	r2, .L109+24
 1646 0c64 B7F90E10 		ldrsh	r1, [r7, #14]
 1647 0c68 3B68     		ldr	r3, [r7, #0]
 1648 0c6a 4FEA0343 		lsl	r3, r3, #16
 1649 0c6e 6FEA1343 		mvn	r3, r3, lsr #16
 1650 0c72 6FEA0343 		mvn	r3, r3, lsl #16
 1651 0c76 42F82130 		str	r3, [r2, r1, lsl #2]
 1652 0c7a 88E0     		b	.L85
 1653              	.L94:
 672:../src/lib/lpc177x_8x/Drivers/source/lpc177x_8x_can.c ****                 }
 673:../src/lib/lpc177x_8x/Drivers/source/lpc177x_8x_can.c ****                 /* Odd  number of IDs exists */
 674:../src/lib/lpc177x_8x/Drivers/source/lpc177x_8x_can.c ****                 else
 675:../src/lib/lpc177x_8x/Drivers/source/lpc177x_8x_can.c ****                 {
 676:../src/lib/lpc177x_8x/Drivers/source/lpc177x_8x_can.c ****                     LPC_CANAF_RAM->mask[cnt1]  = (LPC_CANAF_RAM->mask[cnt1] & 0xFFFF0000) | id;
 1654              		.loc 1 676 0
 1655 0c7c 0E4A     		ldr	r2, .L109+24
 1656 0c7e B7F90E10 		ldrsh	r1, [r7, #14]
 1657 0c82 0D4B     		ldr	r3, .L109+24
 1658 0c84 B7F90E00 		ldrsh	r0, [r7, #14]
 1659 0c88 53F82030 		ldr	r3, [r3, r0, lsl #2]
 1660 0c8c 4FEA1343 		lsr	r3, r3, #16
 1661 0c90 4FEA0343 		lsl	r3, r3, #16
 1662 0c94 3868     		ldr	r0, [r7, #0]
 1663 0c96 0343     		orrs	r3, r3, r0
 1664 0c98 42F82130 		str	r3, [r2, r1, lsl #2]
 1665 0c9c 77E0     		b	.L85
 1666              	.L110:
 1667 0c9e 00BF     		.align	2
 1668              	.L109:
 1669 0ca0 00000000 		.word	CANAF_FullCAN_cnt
 1670 0ca4 00000000 		.word	CANAF_std_cnt
 1671 0ca8 00000000 		.word	CANAF_gstd_cnt
 1672 0cac 00000000 		.word	CANAF_ext_cnt
 1673 0cb0 00000000 		.word	CANAF_gext_cnt
 1674 0cb4 00C00340 		.word	1073987584
 1675 0cb8 00800340 		.word	1073971200
 1676              	.L93:
 677:../src/lib/lpc177x_8x/Drivers/source/lpc177x_8x_can.c ****                 }
 678:../src/lib/lpc177x_8x/Drivers/source/lpc177x_8x_can.c ****             }
 679:../src/lib/lpc177x_8x/Drivers/source/lpc177x_8x_can.c ****             else
 680:../src/lib/lpc177x_8x/Drivers/source/lpc177x_8x_can.c ****             {
 681:../src/lib/lpc177x_8x/Drivers/source/lpc177x_8x_can.c ****                 buf0 = LPC_CANAF_RAM->mask[cnt1]; /* Remember current entry */
 1677              		.loc 1 681 0
 1678 0cbc 894B     		ldr	r3, .L111
 1679 0cbe B7F90E20 		ldrsh	r2, [r7, #14]
 1680 0cc2 53F82230 		ldr	r3, [r3, r2, lsl #2]
 1681 0cc6 7B61     		str	r3, [r7, #20]
 682:../src/lib/lpc177x_8x/Drivers/source/lpc177x_8x_can.c **** 
 683:../src/lib/lpc177x_8x/Drivers/source/lpc177x_8x_can.c ****                 if ((cnt2 & 0x0001) == 0)
 1682              		.loc 1 683 0
 1683 0cc8 BB89     		ldrh	r3, [r7, #12]
 1684 0cca 03F00103 		and	r3, r3, #1
 1685 0cce 002B     		cmp	r3, #0
 1686 0cd0 08D1     		bne	.L95
 684:../src/lib/lpc177x_8x/Drivers/source/lpc177x_8x_can.c ****                 {
 685:../src/lib/lpc177x_8x/Drivers/source/lpc177x_8x_can.c ****                     /* Insert new mask to even address*/
 686:../src/lib/lpc177x_8x/Drivers/source/lpc177x_8x_can.c ****                     buf1 = (id << 16) | (buf0 >> 16);
 1687              		.loc 1 686 0
 1688 0cd2 3B68     		ldr	r3, [r7, #0]
 1689 0cd4 4FEA0342 		lsl	r2, r3, #16
 1690 0cd8 7B69     		ldr	r3, [r7, #20]
 1691 0cda 4FEA1343 		lsr	r3, r3, #16
 1692 0cde 1343     		orrs	r3, r3, r2
 1693 0ce0 3B61     		str	r3, [r7, #16]
 1694 0ce2 07E0     		b	.L96
 1695              	.L95:
 687:../src/lib/lpc177x_8x/Drivers/source/lpc177x_8x_can.c ****                 }
 688:../src/lib/lpc177x_8x/Drivers/source/lpc177x_8x_can.c ****                 else
 689:../src/lib/lpc177x_8x/Drivers/source/lpc177x_8x_can.c ****                 {
 690:../src/lib/lpc177x_8x/Drivers/source/lpc177x_8x_can.c ****                     /* Insert new mask to odd  address */
 691:../src/lib/lpc177x_8x/Drivers/source/lpc177x_8x_can.c ****                     buf1 = (buf0 & 0xFFFF0000) | id;
 1696              		.loc 1 691 0
 1697 0ce4 7B69     		ldr	r3, [r7, #20]
 1698 0ce6 4FEA1343 		lsr	r3, r3, #16
 1699 0cea 4FEA0343 		lsl	r3, r3, #16
 1700 0cee 3A68     		ldr	r2, [r7, #0]
 1701 0cf0 1343     		orrs	r3, r3, r2
 1702 0cf2 3B61     		str	r3, [r7, #16]
 1703              	.L96:
 692:../src/lib/lpc177x_8x/Drivers/source/lpc177x_8x_can.c ****                 }
 693:../src/lib/lpc177x_8x/Drivers/source/lpc177x_8x_can.c **** 
 694:../src/lib/lpc177x_8x/Drivers/source/lpc177x_8x_can.c ****                 LPC_CANAF_RAM->mask[cnt1] = buf1;/* Insert mask */
 1704              		.loc 1 694 0
 1705 0cf4 7B4B     		ldr	r3, .L111
 1706 0cf6 B7F90E20 		ldrsh	r2, [r7, #14]
 1707 0cfa 3969     		ldr	r1, [r7, #16]
 1708 0cfc 43F82210 		str	r1, [r3, r2, lsl #2]
 695:../src/lib/lpc177x_8x/Drivers/source/lpc177x_8x_can.c **** 
 696:../src/lib/lpc177x_8x/Drivers/source/lpc177x_8x_can.c ****                 bound1 = ((CANAF_FullCAN_cnt + 1) >> 1) + ((CANAF_std_cnt+1) >> 1) - 1;
 1709              		.loc 1 696 0
 1710 0d00 794B     		ldr	r3, .L111+4
 1711 0d02 1B88     		ldrh	r3, [r3, #0]
 1712 0d04 03F10103 		add	r3, r3, #1
 1713 0d08 4FEA6303 		asr	r3, r3, #1
 1714 0d0c 9AB2     		uxth	r2, r3
 1715 0d0e 774B     		ldr	r3, .L111+8
 1716 0d10 1B88     		ldrh	r3, [r3, #0]
 1717 0d12 03F10103 		add	r3, r3, #1
 1718 0d16 4FEA6303 		asr	r3, r3, #1
 1719 0d1a 9BB2     		uxth	r3, r3
 1720 0d1c D318     		adds	r3, r2, r3
 1721 0d1e 9BB2     		uxth	r3, r3
 1722 0d20 03F1FF33 		add	r3, r3, #-1
 1723 0d24 9BB2     		uxth	r3, r3
 1724 0d26 7B81     		strh	r3, [r7, #10]	@ movhi
 697:../src/lib/lpc177x_8x/Drivers/source/lpc177x_8x_can.c **** 
 698:../src/lib/lpc177x_8x/Drivers/source/lpc177x_8x_can.c ****                 /* Move all remaining standard mask entries one place up */
 699:../src/lib/lpc177x_8x/Drivers/source/lpc177x_8x_can.c ****                 while (cnt1 < bound1)
 1725              		.loc 1 699 0
 1726 0d28 17E0     		b	.L97
 1727              	.L98:
 700:../src/lib/lpc177x_8x/Drivers/source/lpc177x_8x_can.c ****                 {
 701:../src/lib/lpc177x_8x/Drivers/source/lpc177x_8x_can.c ****                     cnt1++;
 1728              		.loc 1 701 0
 1729 0d2a FB89     		ldrh	r3, [r7, #14]	@ movhi
 1730 0d2c 03F10103 		add	r3, r3, #1
 1731 0d30 FB81     		strh	r3, [r7, #14]	@ movhi
 702:../src/lib/lpc177x_8x/Drivers/source/lpc177x_8x_can.c **** 
 703:../src/lib/lpc177x_8x/Drivers/source/lpc177x_8x_can.c ****                     buf1  = LPC_CANAF_RAM->mask[cnt1];
 1732              		.loc 1 703 0
 1733 0d32 6C4B     		ldr	r3, .L111
 1734 0d34 B7F90E20 		ldrsh	r2, [r7, #14]
 1735 0d38 53F82230 		ldr	r3, [r3, r2, lsl #2]
 1736 0d3c 3B61     		str	r3, [r7, #16]
 704:../src/lib/lpc177x_8x/Drivers/source/lpc177x_8x_can.c **** 
 705:../src/lib/lpc177x_8x/Drivers/source/lpc177x_8x_can.c ****                     LPC_CANAF_RAM->mask[cnt1] = (buf1 >> 16) | (buf0 << 16);
 1737              		.loc 1 705 0
 1738 0d3e 694B     		ldr	r3, .L111
 1739 0d40 B7F90E20 		ldrsh	r2, [r7, #14]
 1740 0d44 3969     		ldr	r1, [r7, #16]
 1741 0d46 4FEA1140 		lsr	r0, r1, #16
 1742 0d4a 7969     		ldr	r1, [r7, #20]
 1743 0d4c 4FEA0141 		lsl	r1, r1, #16
 1744 0d50 0143     		orrs	r1, r1, r0
 1745 0d52 43F82210 		str	r1, [r3, r2, lsl #2]
 706:../src/lib/lpc177x_8x/Drivers/source/lpc177x_8x_can.c **** 
 707:../src/lib/lpc177x_8x/Drivers/source/lpc177x_8x_can.c ****                     buf0  = buf1;
 1746              		.loc 1 707 0
 1747 0d56 3B69     		ldr	r3, [r7, #16]
 1748 0d58 7B61     		str	r3, [r7, #20]
 1749              	.L97:
 699:../src/lib/lpc177x_8x/Drivers/source/lpc177x_8x_can.c ****                 while (cnt1 < bound1)
 1750              		.loc 1 699 0 discriminator 1
 1751 0d5a B7F90E20 		ldrsh	r2, [r7, #14]
 1752 0d5e B7F90A30 		ldrsh	r3, [r7, #10]
 1753 0d62 9A42     		cmp	r2, r3
 1754 0d64 E1DB     		blt	.L98
 708:../src/lib/lpc177x_8x/Drivers/source/lpc177x_8x_can.c ****                 }
 709:../src/lib/lpc177x_8x/Drivers/source/lpc177x_8x_can.c **** 
 710:../src/lib/lpc177x_8x/Drivers/source/lpc177x_8x_can.c ****                 if ((CANAF_std_cnt & 0x0001) == 0)
 1755              		.loc 1 710 0
 1756 0d66 614B     		ldr	r3, .L111+8
 1757 0d68 1B88     		ldrh	r3, [r3, #0]
 1758 0d6a 03F00103 		and	r3, r3, #1
 1759 0d6e 002B     		cmp	r3, #0
 1760 0d70 0DD1     		bne	.L85
 711:../src/lib/lpc177x_8x/Drivers/source/lpc177x_8x_can.c ****                 {
 712:../src/lib/lpc177x_8x/Drivers/source/lpc177x_8x_can.c ****                     /* Even number of IDs exists */
 713:../src/lib/lpc177x_8x/Drivers/source/lpc177x_8x_can.c ****                     LPC_CANAF_RAM->mask[cnt1+1] = (buf0 <<16) |(0x0000FFFF);
 1761              		.loc 1 713 0
 1762 0d72 5C4A     		ldr	r2, .L111
 1763 0d74 B7F90E30 		ldrsh	r3, [r7, #14]
 1764 0d78 03F10101 		add	r1, r3, #1
 1765 0d7c 7B69     		ldr	r3, [r7, #20]
 1766 0d7e 4FEA0343 		lsl	r3, r3, #16
 1767 0d82 6FEA1343 		mvn	r3, r3, lsr #16
 1768 0d86 6FEA0343 		mvn	r3, r3, lsl #16
 1769 0d8a 42F82130 		str	r3, [r2, r1, lsl #2]
 1770              	.L85:
 714:../src/lib/lpc177x_8x/Drivers/source/lpc177x_8x_can.c ****                 }
 715:../src/lib/lpc177x_8x/Drivers/source/lpc177x_8x_can.c ****             }
 716:../src/lib/lpc177x_8x/Drivers/source/lpc177x_8x_can.c ****         }
 717:../src/lib/lpc177x_8x/Drivers/source/lpc177x_8x_can.c **** 
 718:../src/lib/lpc177x_8x/Drivers/source/lpc177x_8x_can.c ****         CANAF_std_cnt++;
 1771              		.loc 1 718 0
 1772 0d8e 574B     		ldr	r3, .L111+8
 1773 0d90 1B88     		ldrh	r3, [r3, #0]
 1774 0d92 03F10103 		add	r3, r3, #1
 1775 0d96 9AB2     		uxth	r2, r3
 1776 0d98 544B     		ldr	r3, .L111+8
 1777 0d9a 1A80     		strh	r2, [r3, #0]	@ movhi
 719:../src/lib/lpc177x_8x/Drivers/source/lpc177x_8x_can.c **** 
 720:../src/lib/lpc177x_8x/Drivers/source/lpc177x_8x_can.c ****         //update address values
 721:../src/lib/lpc177x_8x/Drivers/source/lpc177x_8x_can.c ****         LPC_CANAF->SFF_GRP_sa += 0x04 ;
 1778              		.loc 1 721 0
 1779 0d9c 544B     		ldr	r3, .L111+12
 1780 0d9e 544A     		ldr	r2, .L111+12
 1781 0da0 9268     		ldr	r2, [r2, #8]
 1782 0da2 02F10402 		add	r2, r2, #4
 1783 0da6 9A60     		str	r2, [r3, #8]
 722:../src/lib/lpc177x_8x/Drivers/source/lpc177x_8x_can.c **** 
 723:../src/lib/lpc177x_8x/Drivers/source/lpc177x_8x_can.c ****         LPC_CANAF->EFF_sa     += 0x04 ;
 1784              		.loc 1 723 0
 1785 0da8 514B     		ldr	r3, .L111+12
 1786 0daa 514A     		ldr	r2, .L111+12
 1787 0dac D268     		ldr	r2, [r2, #12]
 1788 0dae 02F10402 		add	r2, r2, #4
 1789 0db2 DA60     		str	r2, [r3, #12]
 724:../src/lib/lpc177x_8x/Drivers/source/lpc177x_8x_can.c **** 
 725:../src/lib/lpc177x_8x/Drivers/source/lpc177x_8x_can.c ****         LPC_CANAF->EFF_GRP_sa += 0x04;
 1790              		.loc 1 725 0
 1791 0db4 4E4B     		ldr	r3, .L111+12
 1792 0db6 4E4A     		ldr	r2, .L111+12
 1793 0db8 1269     		ldr	r2, [r2, #16]
 1794 0dba 02F10402 		add	r2, r2, #4
 1795 0dbe 1A61     		str	r2, [r3, #16]
 726:../src/lib/lpc177x_8x/Drivers/source/lpc177x_8x_can.c **** 
 727:../src/lib/lpc177x_8x/Drivers/source/lpc177x_8x_can.c ****         LPC_CANAF->ENDofTable += 0x04;
 1796              		.loc 1 727 0
 1797 0dc0 4B4B     		ldr	r3, .L111+12
 1798 0dc2 4B4A     		ldr	r2, .L111+12
 1799 0dc4 5269     		ldr	r2, [r2, #20]
 1800 0dc6 02F10402 		add	r2, r2, #4
 1801 0dca 5A61     		str	r2, [r3, #20]
 1802 0dcc 74E0     		b	.L99
 1803              	.L80:
 728:../src/lib/lpc177x_8x/Drivers/source/lpc177x_8x_can.c ****     }
 729:../src/lib/lpc177x_8x/Drivers/source/lpc177x_8x_can.c **** 
 730:../src/lib/lpc177x_8x/Drivers/source/lpc177x_8x_can.c ****     /*********** Add Explicit Extended Identifier Frame Format entry *********/
 731:../src/lib/lpc177x_8x/Drivers/source/lpc177x_8x_can.c ****     else
 732:../src/lib/lpc177x_8x/Drivers/source/lpc177x_8x_can.c ****     {
 733:../src/lib/lpc177x_8x/Drivers/source/lpc177x_8x_can.c ****         /* Add controller number */
 734:../src/lib/lpc177x_8x/Drivers/source/lpc177x_8x_can.c ****         id |= canId << 29;
 1804              		.loc 1 734 0
 1805 0dce FB79     		ldrb	r3, [r7, #7]	@ zero_extendqisi2
 1806 0dd0 4FEA4373 		lsl	r3, r3, #29
 1807 0dd4 3A68     		ldr	r2, [r7, #0]
 1808 0dd6 1343     		orrs	r3, r3, r2
 1809 0dd8 3B60     		str	r3, [r7, #0]
 735:../src/lib/lpc177x_8x/Drivers/source/lpc177x_8x_can.c **** 
 736:../src/lib/lpc177x_8x/Drivers/source/lpc177x_8x_can.c ****         cnt1 = ((CANAF_FullCAN_cnt+1) >> 1) + (((CANAF_std_cnt + 1) >> 1) + CANAF_gstd_cnt);
 1810              		.loc 1 736 0
 1811 0dda 434B     		ldr	r3, .L111+4
 1812 0ddc 1B88     		ldrh	r3, [r3, #0]
 1813 0dde 03F10103 		add	r3, r3, #1
 1814 0de2 4FEA6303 		asr	r3, r3, #1
 1815 0de6 9AB2     		uxth	r2, r3
 1816 0de8 404B     		ldr	r3, .L111+8
 1817 0dea 1B88     		ldrh	r3, [r3, #0]
 1818 0dec 03F10103 		add	r3, r3, #1
 1819 0df0 4FEA6303 		asr	r3, r3, #1
 1820 0df4 99B2     		uxth	r1, r3
 1821 0df6 3F4B     		ldr	r3, .L111+16
 1822 0df8 1B88     		ldrh	r3, [r3, #0]
 1823 0dfa CB18     		adds	r3, r1, r3
 1824 0dfc 9BB2     		uxth	r3, r3
 1825 0dfe D318     		adds	r3, r2, r3
 1826 0e00 9BB2     		uxth	r3, r3
 1827 0e02 FB81     		strh	r3, [r7, #14]	@ movhi
 737:../src/lib/lpc177x_8x/Drivers/source/lpc177x_8x_can.c **** 
 738:../src/lib/lpc177x_8x/Drivers/source/lpc177x_8x_can.c ****         cnt2 = 0;
 1828              		.loc 1 738 0
 1829 0e04 4FF00003 		mov	r3, #0
 1830 0e08 BB81     		strh	r3, [r7, #12]	@ movhi
 739:../src/lib/lpc177x_8x/Drivers/source/lpc177x_8x_can.c **** 
 740:../src/lib/lpc177x_8x/Drivers/source/lpc177x_8x_can.c ****         while (cnt2 < CANAF_ext_cnt)
 1831              		.loc 1 740 0
 1832 0e0a 0FE0     		b	.L100
 1833              	.L103:
 741:../src/lib/lpc177x_8x/Drivers/source/lpc177x_8x_can.c ****         {
 742:../src/lib/lpc177x_8x/Drivers/source/lpc177x_8x_can.c ****             /* Loop through extended existing masks*/
 743:../src/lib/lpc177x_8x/Drivers/source/lpc177x_8x_can.c ****             if (LPC_CANAF_RAM->mask[cnt1] > id)
 1834              		.loc 1 743 0
 1835 0e0c 354B     		ldr	r3, .L111
 1836 0e0e B7F90E20 		ldrsh	r2, [r7, #14]
 1837 0e12 53F82220 		ldr	r2, [r3, r2, lsl #2]
 1838 0e16 3B68     		ldr	r3, [r7, #0]
 1839 0e18 9A42     		cmp	r2, r3
 1840 0e1a 0ED8     		bhi	.L108
 1841              	.L101:
 744:../src/lib/lpc177x_8x/Drivers/source/lpc177x_8x_can.c ****             {
 745:../src/lib/lpc177x_8x/Drivers/source/lpc177x_8x_can.c ****                 break;
 746:../src/lib/lpc177x_8x/Drivers/source/lpc177x_8x_can.c ****             }
 747:../src/lib/lpc177x_8x/Drivers/source/lpc177x_8x_can.c **** 
 748:../src/lib/lpc177x_8x/Drivers/source/lpc177x_8x_can.c ****             cnt1++;/* cnt1 = U32 where to insert new mask */
 1842              		.loc 1 748 0
 1843 0e1c FB89     		ldrh	r3, [r7, #14]	@ movhi
 1844 0e1e 03F10103 		add	r3, r3, #1
 1845 0e22 FB81     		strh	r3, [r7, #14]	@ movhi
 749:../src/lib/lpc177x_8x/Drivers/source/lpc177x_8x_can.c **** 
 750:../src/lib/lpc177x_8x/Drivers/source/lpc177x_8x_can.c ****             cnt2++;
 1846              		.loc 1 750 0
 1847 0e24 BB89     		ldrh	r3, [r7, #12]	@ movhi
 1848 0e26 03F10103 		add	r3, r3, #1
 1849 0e2a BB81     		strh	r3, [r7, #12]	@ movhi
 1850              	.L100:
 740:../src/lib/lpc177x_8x/Drivers/source/lpc177x_8x_can.c ****         while (cnt2 < CANAF_ext_cnt)
 1851              		.loc 1 740 0 discriminator 1
 1852 0e2c B7F90C20 		ldrsh	r2, [r7, #12]
 1853 0e30 314B     		ldr	r3, .L111+20
 1854 0e32 1B88     		ldrh	r3, [r3, #0]
 1855 0e34 9A42     		cmp	r2, r3
 1856 0e36 E9DB     		blt	.L103
 1857 0e38 00E0     		b	.L102
 1858              	.L108:
 745:../src/lib/lpc177x_8x/Drivers/source/lpc177x_8x_can.c ****                 break;
 1859              		.loc 1 745 0
 1860 0e3a 00BF     		nop
 1861              	.L102:
 751:../src/lib/lpc177x_8x/Drivers/source/lpc177x_8x_can.c ****         }
 752:../src/lib/lpc177x_8x/Drivers/source/lpc177x_8x_can.c **** 
 753:../src/lib/lpc177x_8x/Drivers/source/lpc177x_8x_can.c ****         buf0 = LPC_CANAF_RAM->mask[cnt1];  /* Remember current entry */
 1862              		.loc 1 753 0
 1863 0e3c 294B     		ldr	r3, .L111
 1864 0e3e B7F90E20 		ldrsh	r2, [r7, #14]
 1865 0e42 53F82230 		ldr	r3, [r3, r2, lsl #2]
 1866 0e46 7B61     		str	r3, [r7, #20]
 754:../src/lib/lpc177x_8x/Drivers/source/lpc177x_8x_can.c **** 
 755:../src/lib/lpc177x_8x/Drivers/source/lpc177x_8x_can.c ****         LPC_CANAF_RAM->mask[cnt1] = id;    /* Insert mask */
 1867              		.loc 1 755 0
 1868 0e48 264B     		ldr	r3, .L111
 1869 0e4a B7F90E20 		ldrsh	r2, [r7, #14]
 1870 0e4e 3968     		ldr	r1, [r7, #0]
 1871 0e50 43F82210 		str	r1, [r3, r2, lsl #2]
 756:../src/lib/lpc177x_8x/Drivers/source/lpc177x_8x_can.c **** 
 757:../src/lib/lpc177x_8x/Drivers/source/lpc177x_8x_can.c ****         CANAF_ext_cnt++;
 1872              		.loc 1 757 0
 1873 0e54 284B     		ldr	r3, .L111+20
 1874 0e56 1B88     		ldrh	r3, [r3, #0]
 1875 0e58 03F10103 		add	r3, r3, #1
 1876 0e5c 9AB2     		uxth	r2, r3
 1877 0e5e 264B     		ldr	r3, .L111+20
 1878 0e60 1A80     		strh	r2, [r3, #0]	@ movhi
 758:../src/lib/lpc177x_8x/Drivers/source/lpc177x_8x_can.c **** 
 759:../src/lib/lpc177x_8x/Drivers/source/lpc177x_8x_can.c ****         bound1 = total;
 1879              		.loc 1 759 0
 1880 0e62 3B89     		ldrh	r3, [r7, #8]	@ movhi
 1881 0e64 7B81     		strh	r3, [r7, #10]	@ movhi
 760:../src/lib/lpc177x_8x/Drivers/source/lpc177x_8x_can.c **** 
 761:../src/lib/lpc177x_8x/Drivers/source/lpc177x_8x_can.c ****         /* Move all remaining extended mask entries one place up*/
 762:../src/lib/lpc177x_8x/Drivers/source/lpc177x_8x_can.c ****         while (cnt2 < bound1)
 1882              		.loc 1 762 0
 1883 0e66 15E0     		b	.L104
 1884              	.L105:
 763:../src/lib/lpc177x_8x/Drivers/source/lpc177x_8x_can.c ****         {
 764:../src/lib/lpc177x_8x/Drivers/source/lpc177x_8x_can.c ****             cnt1++;
 1885              		.loc 1 764 0
 1886 0e68 FB89     		ldrh	r3, [r7, #14]	@ movhi
 1887 0e6a 03F10103 		add	r3, r3, #1
 1888 0e6e FB81     		strh	r3, [r7, #14]	@ movhi
 765:../src/lib/lpc177x_8x/Drivers/source/lpc177x_8x_can.c **** 
 766:../src/lib/lpc177x_8x/Drivers/source/lpc177x_8x_can.c ****             cnt2++;
 1889              		.loc 1 766 0
 1890 0e70 BB89     		ldrh	r3, [r7, #12]	@ movhi
 1891 0e72 03F10103 		add	r3, r3, #1
 1892 0e76 BB81     		strh	r3, [r7, #12]	@ movhi
 767:../src/lib/lpc177x_8x/Drivers/source/lpc177x_8x_can.c **** 
 768:../src/lib/lpc177x_8x/Drivers/source/lpc177x_8x_can.c ****             buf1 = LPC_CANAF_RAM->mask[cnt1];
 1893              		.loc 1 768 0
 1894 0e78 1A4B     		ldr	r3, .L111
 1895 0e7a B7F90E20 		ldrsh	r2, [r7, #14]
 1896 0e7e 53F82230 		ldr	r3, [r3, r2, lsl #2]
 1897 0e82 3B61     		str	r3, [r7, #16]
 769:../src/lib/lpc177x_8x/Drivers/source/lpc177x_8x_can.c **** 
 770:../src/lib/lpc177x_8x/Drivers/source/lpc177x_8x_can.c ****             LPC_CANAF_RAM->mask[cnt1] = buf0;
 1898              		.loc 1 770 0
 1899 0e84 174B     		ldr	r3, .L111
 1900 0e86 B7F90E20 		ldrsh	r2, [r7, #14]
 1901 0e8a 7969     		ldr	r1, [r7, #20]
 1902 0e8c 43F82210 		str	r1, [r3, r2, lsl #2]
 771:../src/lib/lpc177x_8x/Drivers/source/lpc177x_8x_can.c **** 
 772:../src/lib/lpc177x_8x/Drivers/source/lpc177x_8x_can.c ****             buf0 = buf1;
 1903              		.loc 1 772 0
 1904 0e90 3B69     		ldr	r3, [r7, #16]
 1905 0e92 7B61     		str	r3, [r7, #20]
 1906              	.L104:
 762:../src/lib/lpc177x_8x/Drivers/source/lpc177x_8x_can.c ****         while (cnt2 < bound1)
 1907              		.loc 1 762 0 discriminator 1
 1908 0e94 B7F90C20 		ldrsh	r2, [r7, #12]
 1909 0e98 B7F90A30 		ldrsh	r3, [r7, #10]
 1910 0e9c 9A42     		cmp	r2, r3
 1911 0e9e E3DB     		blt	.L105
 773:../src/lib/lpc177x_8x/Drivers/source/lpc177x_8x_can.c ****         }
 774:../src/lib/lpc177x_8x/Drivers/source/lpc177x_8x_can.c **** 
 775:../src/lib/lpc177x_8x/Drivers/source/lpc177x_8x_can.c ****         /* update address values */
 776:../src/lib/lpc177x_8x/Drivers/source/lpc177x_8x_can.c ****         LPC_CANAF->EFF_GRP_sa += 4;
 1912              		.loc 1 776 0
 1913 0ea0 134B     		ldr	r3, .L111+12
 1914 0ea2 134A     		ldr	r2, .L111+12
 1915 0ea4 1269     		ldr	r2, [r2, #16]
 1916 0ea6 02F10402 		add	r2, r2, #4
 1917 0eaa 1A61     		str	r2, [r3, #16]
 777:../src/lib/lpc177x_8x/Drivers/source/lpc177x_8x_can.c **** 
 778:../src/lib/lpc177x_8x/Drivers/source/lpc177x_8x_can.c ****         LPC_CANAF->ENDofTable += 4;
 1918              		.loc 1 778 0
 1919 0eac 104B     		ldr	r3, .L111+12
 1920 0eae 104A     		ldr	r2, .L111+12
 1921 0eb0 5269     		ldr	r2, [r2, #20]
 1922 0eb2 02F10402 		add	r2, r2, #4
 1923 0eb6 5A61     		str	r2, [r3, #20]
 1924              	.L99:
 779:../src/lib/lpc177x_8x/Drivers/source/lpc177x_8x_can.c ****     }
 780:../src/lib/lpc177x_8x/Drivers/source/lpc177x_8x_can.c **** 
 781:../src/lib/lpc177x_8x/Drivers/source/lpc177x_8x_can.c ****     if(CANAF_FullCAN_cnt == 0) //not use FullCAN mode
 1925              		.loc 1 781 0
 1926 0eb8 0B4B     		ldr	r3, .L111+4
 1927 0eba 1B88     		ldrh	r3, [r3, #0]
 1928 0ebc 002B     		cmp	r3, #0
 1929 0ebe 04D1     		bne	.L106
 782:../src/lib/lpc177x_8x/Drivers/source/lpc177x_8x_can.c ****     {
 783:../src/lib/lpc177x_8x/Drivers/source/lpc177x_8x_can.c ****         LPC_CANAF->AFMR = 0x00;//not use FullCAN mode
 1930              		.loc 1 783 0
 1931 0ec0 0B4B     		ldr	r3, .L111+12
 1932 0ec2 4FF00002 		mov	r2, #0
 1933 0ec6 1A60     		str	r2, [r3, #0]
 1934 0ec8 03E0     		b	.L107
 1935              	.L106:
 784:../src/lib/lpc177x_8x/Drivers/source/lpc177x_8x_can.c ****     }
 785:../src/lib/lpc177x_8x/Drivers/source/lpc177x_8x_can.c ****     else
 786:../src/lib/lpc177x_8x/Drivers/source/lpc177x_8x_can.c ****     {
 787:../src/lib/lpc177x_8x/Drivers/source/lpc177x_8x_can.c ****         LPC_CANAF->AFMR = 0x04;
 1936              		.loc 1 787 0
 1937 0eca 094B     		ldr	r3, .L111+12
 1938 0ecc 4FF00402 		mov	r2, #4
 1939 0ed0 1A60     		str	r2, [r3, #0]
 1940              	.L107:
 788:../src/lib/lpc177x_8x/Drivers/source/lpc177x_8x_can.c ****     }
 789:../src/lib/lpc177x_8x/Drivers/source/lpc177x_8x_can.c **** 
 790:../src/lib/lpc177x_8x/Drivers/source/lpc177x_8x_can.c ****     return CAN_OK;
 1941              		.loc 1 790 0
 1942 0ed2 4FF00103 		mov	r3, #1
 1943              	.L79:
 791:../src/lib/lpc177x_8x/Drivers/source/lpc177x_8x_can.c **** }
 1944              		.loc 1 791 0
 1945 0ed6 1846     		mov	r0, r3
 1946 0ed8 07F11C07 		add	r7, r7, #28
 1947 0edc BD46     		mov	sp, r7
 1948 0ede 80BC     		pop	{r7}
 1949 0ee0 7047     		bx	lr
 1950              	.L112:
 1951 0ee2 00BF     		.align	2
 1952              	.L111:
 1953 0ee4 00800340 		.word	1073971200
 1954 0ee8 00000000 		.word	CANAF_FullCAN_cnt
 1955 0eec 00000000 		.word	CANAF_std_cnt
 1956 0ef0 00C00340 		.word	1073987584
 1957 0ef4 00000000 		.word	CANAF_gstd_cnt
 1958 0ef8 00000000 		.word	CANAF_ext_cnt
 1959              		.cfi_endproc
 1960              	.LFE60:
 1962              		.align	2
 1963              		.global	CAN_LoadFullCANEntry
 1964              		.thumb
 1965              		.thumb_func
 1967              	CAN_LoadFullCANEntry:
 1968              	.LFB61:
 792:../src/lib/lpc177x_8x/Drivers/source/lpc177x_8x_can.c **** 
 793:../src/lib/lpc177x_8x/Drivers/source/lpc177x_8x_can.c **** /********************************************************************//**
 794:../src/lib/lpc177x_8x/Drivers/source/lpc177x_8x_can.c ****  * @brief       Load FullCAN entry into AFLUT
 795:../src/lib/lpc177x_8x/Drivers/source/lpc177x_8x_can.c ****  * @param[in]    canId           The Id of the expected CAN component
 796:../src/lib/lpc177x_8x/Drivers/source/lpc177x_8x_can.c ****  *
 797:../src/lib/lpc177x_8x/Drivers/source/lpc177x_8x_can.c ****  * @param[in]   id: identifier of entry that will be added
 798:../src/lib/lpc177x_8x/Drivers/source/lpc177x_8x_can.c ****  * @return      CAN_ERROR, could be:
 799:../src/lib/lpc177x_8x/Drivers/source/lpc177x_8x_can.c ****  *              - CAN_OK: loading is successful
 800:../src/lib/lpc177x_8x/Drivers/source/lpc177x_8x_can.c ****  *              - CAN_ID_EXIT_ERROR: ID exited in FullCAN Section
 801:../src/lib/lpc177x_8x/Drivers/source/lpc177x_8x_can.c ****  *              - CAN_OBJECTS_FULL_ERROR: no more space available
 802:../src/lib/lpc177x_8x/Drivers/source/lpc177x_8x_can.c ****  *********************************************************************/
 803:../src/lib/lpc177x_8x/Drivers/source/lpc177x_8x_can.c **** CAN_ERROR CAN_LoadFullCANEntry (uint8_t canId, uint16_t id)
 804:../src/lib/lpc177x_8x/Drivers/source/lpc177x_8x_can.c **** {
 1969              		.loc 1 804 0
 1970              		.cfi_startproc
 1971              		@ args = 0, pretend = 0, frame = 48
 1972              		@ frame_needed = 1, uses_anonymous_args = 0
 1973              		@ link register save eliminated.
 1974 0efc F0B4     		push	{r4, r5, r6, r7}
 1975              	.LCFI18:
 1976              		.cfi_def_cfa_offset 16
 1977              		.cfi_offset 4, -16
 1978              		.cfi_offset 5, -12
 1979              		.cfi_offset 6, -8
 1980              		.cfi_offset 7, -4
 1981 0efe 8CB0     		sub	sp, sp, #48
 1982              	.LCFI19:
 1983              		.cfi_def_cfa_offset 64
 1984 0f00 00AF     		add	r7, sp, #0
 1985              	.LCFI20:
 1986              		.cfi_def_cfa_register 7
 1987 0f02 0246     		mov	r2, r0
 1988 0f04 0B46     		mov	r3, r1
 1989 0f06 FA71     		strb	r2, [r7, #7]
 1990 0f08 BB80     		strh	r3, [r7, #4]	@ movhi
 805:../src/lib/lpc177x_8x/Drivers/source/lpc177x_8x_can.c ****     uint32_t buf0 = 0, buf1 = 0, buf2 = 0;
 1991              		.loc 1 805 0
 1992 0f0a 4FF00003 		mov	r3, #0
 1993 0f0e FB62     		str	r3, [r7, #44]
 1994 0f10 4FF00003 		mov	r3, #0
 1995 0f14 BB62     		str	r3, [r7, #40]
 1996 0f16 4FF00003 		mov	r3, #0
 1997 0f1a 7B62     		str	r3, [r7, #36]
 806:../src/lib/lpc177x_8x/Drivers/source/lpc177x_8x_can.c ****     uint32_t tmp0 = 0, tmp1 = 0, tmp2 = 0;
 1998              		.loc 1 806 0
 1999 0f1c 4FF00003 		mov	r3, #0
 2000 0f20 BB61     		str	r3, [r7, #24]
 2001 0f22 4FF00003 		mov	r3, #0
 2002 0f26 7B61     		str	r3, [r7, #20]
 2003 0f28 4FF00003 		mov	r3, #0
 2004 0f2c 3B61     		str	r3, [r7, #16]
 807:../src/lib/lpc177x_8x/Drivers/source/lpc177x_8x_can.c ****     int16_t cnt1 = 0, cnt2 = 0, bound1 = 0, total = 0;
 2005              		.loc 1 807 0
 2006 0f2e 4FF00003 		mov	r3, #0
 2007 0f32 7B84     		strh	r3, [r7, #34]	@ movhi
 2008 0f34 4FF00003 		mov	r3, #0
 2009 0f38 3B84     		strh	r3, [r7, #32]	@ movhi
 2010 0f3a 4FF00003 		mov	r3, #0
 2011 0f3e FB83     		strh	r3, [r7, #30]	@ movhi
 2012 0f40 4FF00003 		mov	r3, #0
 2013 0f44 FB81     		strh	r3, [r7, #14]	@ movhi
 808:../src/lib/lpc177x_8x/Drivers/source/lpc177x_8x_can.c **** 
 809:../src/lib/lpc177x_8x/Drivers/source/lpc177x_8x_can.c ****     /* Acceptance Filter Memory full - return */
 810:../src/lib/lpc177x_8x/Drivers/source/lpc177x_8x_can.c ****     total =((CANAF_FullCAN_cnt + 1) >> 1) + CANAF_FullCAN_cnt*3 + ((CANAF_std_cnt + 1) >> 1)  \
 2014              		.loc 1 810 0
 2015 0f46 9C4B     		ldr	r3, .L137
 2016 0f48 1B88     		ldrh	r3, [r3, #0]
 2017 0f4a 03F10103 		add	r3, r3, #1
 2018 0f4e 4FEA6303 		asr	r3, r3, #1
 2019 0f52 9AB2     		uxth	r2, r3
 2020 0f54 984B     		ldr	r3, .L137
 2021 0f56 1B88     		ldrh	r3, [r3, #0]
 2022 0f58 1946     		mov	r1, r3	@ movhi
 2023 0f5a 4FEA4101 		lsl	r1, r1, #1
 2024 0f5e CB18     		adds	r3, r1, r3
 2025 0f60 9BB2     		uxth	r3, r3
 2026 0f62 D318     		adds	r3, r2, r3
 2027 0f64 9AB2     		uxth	r2, r3
 2028 0f66 954B     		ldr	r3, .L137+4
 2029 0f68 1B88     		ldrh	r3, [r3, #0]
 2030 0f6a 03F10103 		add	r3, r3, #1
 2031 0f6e 4FEA6303 		asr	r3, r3, #1
 2032 0f72 9BB2     		uxth	r3, r3
 2033 0f74 D318     		adds	r3, r2, r3
 2034 0f76 9AB2     		uxth	r2, r3
 2035 0f78 914B     		ldr	r3, .L137+8
 2036 0f7a 1B88     		ldrh	r3, [r3, #0]
 2037 0f7c D318     		adds	r3, r2, r3
 2038 0f7e 9AB2     		uxth	r2, r3
 2039 0f80 904B     		ldr	r3, .L137+12
 2040 0f82 1B88     		ldrh	r3, [r3, #0]
 2041 0f84 D318     		adds	r3, r2, r3
 2042 0f86 9AB2     		uxth	r2, r3
 2043 0f88 8F4B     		ldr	r3, .L137+16
 2044 0f8a 1B88     		ldrh	r3, [r3, #0]
 2045 0f8c 4FEA4303 		lsl	r3, r3, #1
 2046 0f90 9BB2     		uxth	r3, r3
 2047 0f92 D318     		adds	r3, r2, r3
 2048 0f94 9BB2     		uxth	r3, r3
 2049 0f96 FB81     		strh	r3, [r7, #14]	@ movhi
 811:../src/lib/lpc177x_8x/Drivers/source/lpc177x_8x_can.c ****                 + CANAF_gstd_cnt + CANAF_ext_cnt + (CANAF_gext_cnt << 1);
 812:../src/lib/lpc177x_8x/Drivers/source/lpc177x_8x_can.c **** 
 813:../src/lib/lpc177x_8x/Drivers/source/lpc177x_8x_can.c ****     //don't have enough space for this fullCAN Entry and its Object(3*32 bytes)
 814:../src/lib/lpc177x_8x/Drivers/source/lpc177x_8x_can.c ****     if ((total >= 508) || (CANAF_FullCAN_cnt >= 64))
 2050              		.loc 1 814 0
 2051 0f98 B7F90E20 		ldrsh	r2, [r7, #14]
 2052 0f9c 40F2FB13 		movw	r3, #507
 2053 0fa0 9A42     		cmp	r2, r3
 2054 0fa2 03DC     		bgt	.L114
 2055              		.loc 1 814 0 is_stmt 0 discriminator 1
 2056 0fa4 844B     		ldr	r3, .L137
 2057 0fa6 1B88     		ldrh	r3, [r3, #0]
 2058 0fa8 3F2B     		cmp	r3, #63
 2059 0faa 02D9     		bls	.L115
 2060              	.L114:
 815:../src/lib/lpc177x_8x/Drivers/source/lpc177x_8x_can.c ****     {
 816:../src/lib/lpc177x_8x/Drivers/source/lpc177x_8x_can.c ****         return CAN_OBJECTS_FULL_ERROR;
 2061              		.loc 1 816 0 is_stmt 1
 2062 0fac 4FF00203 		mov	r3, #2
 2063 0fb0 13E2     		b	.L116
 2064              	.L115:
 817:../src/lib/lpc177x_8x/Drivers/source/lpc177x_8x_can.c ****     }
 818:../src/lib/lpc177x_8x/Drivers/source/lpc177x_8x_can.c **** 
 819:../src/lib/lpc177x_8x/Drivers/source/lpc177x_8x_can.c ****     /* Setup Acceptance Filter Configuration
 820:../src/lib/lpc177x_8x/Drivers/source/lpc177x_8x_can.c ****     Acceptance Filter Mode Register = Off */
 821:../src/lib/lpc177x_8x/Drivers/source/lpc177x_8x_can.c ****     LPC_CANAF->AFMR = 0x00000001;
 2065              		.loc 1 821 0
 2066 0fb2 864B     		ldr	r3, .L137+20
 2067 0fb4 4FF00102 		mov	r2, #1
 2068 0fb8 1A60     		str	r2, [r3, #0]
 822:../src/lib/lpc177x_8x/Drivers/source/lpc177x_8x_can.c **** 
 823:../src/lib/lpc177x_8x/Drivers/source/lpc177x_8x_can.c ****     /* Add mask for standard identifiers   */
 824:../src/lib/lpc177x_8x/Drivers/source/lpc177x_8x_can.c ****     id &= 0x07FF;
 2069              		.loc 1 824 0
 2070 0fba BB88     		ldrh	r3, [r7, #4]	@ movhi
 2071 0fbc 4FEA4353 		lsl	r3, r3, #21
 2072 0fc0 4FEA5353 		lsr	r3, r3, #21
 2073 0fc4 BB80     		strh	r3, [r7, #4]	@ movhi
 825:../src/lib/lpc177x_8x/Drivers/source/lpc177x_8x_can.c **** 
 826:../src/lib/lpc177x_8x/Drivers/source/lpc177x_8x_can.c ****     id |= (canId << 13) | (1 << 11);
 2074              		.loc 1 826 0
 2075 0fc6 FB79     		ldrb	r3, [r7, #7]	@ zero_extendqisi2
 2076 0fc8 4FEA4333 		lsl	r3, r3, #13
 2077 0fcc 9BB2     		uxth	r3, r3
 2078 0fce 43F40063 		orr	r3, r3, #2048
 2079 0fd2 9AB2     		uxth	r2, r3
 2080 0fd4 BB88     		ldrh	r3, [r7, #4]
 2081 0fd6 1343     		orrs	r3, r3, r2
 2082 0fd8 9BB2     		uxth	r3, r3
 2083 0fda BB80     		strh	r3, [r7, #4]	@ movhi
 827:../src/lib/lpc177x_8x/Drivers/source/lpc177x_8x_can.c **** 
 828:../src/lib/lpc177x_8x/Drivers/source/lpc177x_8x_can.c ****     /* Move all remaining sections one place up
 829:../src/lib/lpc177x_8x/Drivers/source/lpc177x_8x_can.c ****     if new entry will increase FullCAN list */
 830:../src/lib/lpc177x_8x/Drivers/source/lpc177x_8x_can.c ****     if (((CANAF_FullCAN_cnt & 0x0001) == 0)&&(total!=0))
 2084              		.loc 1 830 0
 2085 0fdc 764B     		ldr	r3, .L137
 2086 0fde 1B88     		ldrh	r3, [r3, #0]
 2087 0fe0 03F00103 		and	r3, r3, #1
 2088 0fe4 002B     		cmp	r3, #0
 2089 0fe6 31D1     		bne	.L117
 2090              		.loc 1 830 0 is_stmt 0 discriminator 1
 2091 0fe8 B7F90E30 		ldrsh	r3, [r7, #14]
 2092 0fec 002B     		cmp	r3, #0
 2093 0fee 2DD0     		beq	.L117
 831:../src/lib/lpc177x_8x/Drivers/source/lpc177x_8x_can.c ****     {
 832:../src/lib/lpc177x_8x/Drivers/source/lpc177x_8x_can.c ****         //then remove remaining section
 833:../src/lib/lpc177x_8x/Drivers/source/lpc177x_8x_can.c ****         cnt1   = (CANAF_FullCAN_cnt >> 1);
 2094              		.loc 1 833 0 is_stmt 1
 2095 0ff0 714B     		ldr	r3, .L137
 2096 0ff2 1B88     		ldrh	r3, [r3, #0]
 2097 0ff4 4FEA5303 		lsr	r3, r3, #1
 2098 0ff8 9BB2     		uxth	r3, r3
 2099 0ffa 7B84     		strh	r3, [r7, #34]	@ movhi
 834:../src/lib/lpc177x_8x/Drivers/source/lpc177x_8x_can.c **** 
 835:../src/lib/lpc177x_8x/Drivers/source/lpc177x_8x_can.c ****         bound1 = total;
 2100              		.loc 1 835 0
 2101 0ffc FB89     		ldrh	r3, [r7, #14]	@ movhi
 2102 0ffe FB83     		strh	r3, [r7, #30]	@ movhi
 836:../src/lib/lpc177x_8x/Drivers/source/lpc177x_8x_can.c **** 
 837:../src/lib/lpc177x_8x/Drivers/source/lpc177x_8x_can.c ****         buf0   = LPC_CANAF_RAM->mask[cnt1];
 2103              		.loc 1 837 0
 2104 1000 734B     		ldr	r3, .L137+24
 2105 1002 B7F92220 		ldrsh	r2, [r7, #34]
 2106 1006 53F82230 		ldr	r3, [r3, r2, lsl #2]
 2107 100a FB62     		str	r3, [r7, #44]
 838:../src/lib/lpc177x_8x/Drivers/source/lpc177x_8x_can.c **** 
 839:../src/lib/lpc177x_8x/Drivers/source/lpc177x_8x_can.c ****         while (bound1--)
 2108              		.loc 1 839 0
 2109 100c 11E0     		b	.L118
 2110              	.L119:
 840:../src/lib/lpc177x_8x/Drivers/source/lpc177x_8x_can.c ****         {
 841:../src/lib/lpc177x_8x/Drivers/source/lpc177x_8x_can.c ****             cnt1++;
 2111              		.loc 1 841 0
 2112 100e 7B8C     		ldrh	r3, [r7, #34]	@ movhi
 2113 1010 03F10103 		add	r3, r3, #1
 2114 1014 7B84     		strh	r3, [r7, #34]	@ movhi
 842:../src/lib/lpc177x_8x/Drivers/source/lpc177x_8x_can.c **** 
 843:../src/lib/lpc177x_8x/Drivers/source/lpc177x_8x_can.c ****             buf1 = LPC_CANAF_RAM->mask[cnt1];
 2115              		.loc 1 843 0
 2116 1016 6E4B     		ldr	r3, .L137+24
 2117 1018 B7F92220 		ldrsh	r2, [r7, #34]
 2118 101c 53F82230 		ldr	r3, [r3, r2, lsl #2]
 2119 1020 BB62     		str	r3, [r7, #40]
 844:../src/lib/lpc177x_8x/Drivers/source/lpc177x_8x_can.c **** 
 845:../src/lib/lpc177x_8x/Drivers/source/lpc177x_8x_can.c ****             LPC_CANAF_RAM->mask[cnt1] = buf0;
 2120              		.loc 1 845 0
 2121 1022 6B4B     		ldr	r3, .L137+24
 2122 1024 B7F92220 		ldrsh	r2, [r7, #34]
 2123 1028 F96A     		ldr	r1, [r7, #44]
 2124 102a 43F82210 		str	r1, [r3, r2, lsl #2]
 846:../src/lib/lpc177x_8x/Drivers/source/lpc177x_8x_can.c **** 
 847:../src/lib/lpc177x_8x/Drivers/source/lpc177x_8x_can.c ****             buf0 = buf1;
 2125              		.loc 1 847 0
 2126 102e BB6A     		ldr	r3, [r7, #40]
 2127 1030 FB62     		str	r3, [r7, #44]
 2128              	.L118:
 839:../src/lib/lpc177x_8x/Drivers/source/lpc177x_8x_can.c ****         while (bound1--)
 2129              		.loc 1 839 0 discriminator 1
 2130 1032 B7F91E30 		ldrsh	r3, [r7, #30]
 2131 1036 002B     		cmp	r3, #0
 2132 1038 0CBF     		ite	eq
 2133 103a 0023     		moveq	r3, #0
 2134 103c 0123     		movne	r3, #1
 2135 103e DBB2     		uxtb	r3, r3
 2136 1040 FA8B     		ldrh	r2, [r7, #30]	@ movhi
 2137 1042 02F1FF32 		add	r2, r2, #-1
 2138 1046 FA83     		strh	r2, [r7, #30]	@ movhi
 2139 1048 002B     		cmp	r3, #0
 2140 104a E0D1     		bne	.L119
 2141              	.L117:
 848:../src/lib/lpc177x_8x/Drivers/source/lpc177x_8x_can.c ****         }
 849:../src/lib/lpc177x_8x/Drivers/source/lpc177x_8x_can.c ****     }
 850:../src/lib/lpc177x_8x/Drivers/source/lpc177x_8x_can.c ****     if (CANAF_FullCAN_cnt == 0)
 2142              		.loc 1 850 0
 2143 104c 5A4B     		ldr	r3, .L137
 2144 104e 1B88     		ldrh	r3, [r3, #0]
 2145 1050 002B     		cmp	r3, #0
 2146 1052 09D1     		bne	.L120
 851:../src/lib/lpc177x_8x/Drivers/source/lpc177x_8x_can.c ****     {
 852:../src/lib/lpc177x_8x/Drivers/source/lpc177x_8x_can.c ****         /* For entering first ID */
 853:../src/lib/lpc177x_8x/Drivers/source/lpc177x_8x_can.c ****         LPC_CANAF_RAM->mask[0] = 0x0000FFFF | (id << 16);
 2147              		.loc 1 853 0
 2148 1054 5E4A     		ldr	r2, .L137+24
 2149 1056 BB88     		ldrh	r3, [r7, #4]
 2150 1058 4FEA0343 		lsl	r3, r3, #16
 2151 105c 6FEA1343 		mvn	r3, r3, lsr #16
 2152 1060 6FEA0343 		mvn	r3, r3, lsl #16
 2153 1064 1360     		str	r3, [r2, #0]
 2154 1066 FCE0     		b	.L121
 2155              	.L120:
 854:../src/lib/lpc177x_8x/Drivers/source/lpc177x_8x_can.c ****     }
 855:../src/lib/lpc177x_8x/Drivers/source/lpc177x_8x_can.c ****     else if (CANAF_FullCAN_cnt == 1)
 2156              		.loc 1 855 0
 2157 1068 534B     		ldr	r3, .L137
 2158 106a 1B88     		ldrh	r3, [r3, #0]
 2159 106c 012B     		cmp	r3, #1
 2160 106e 1FD1     		bne	.L122
 856:../src/lib/lpc177x_8x/Drivers/source/lpc177x_8x_can.c ****     {
 857:../src/lib/lpc177x_8x/Drivers/source/lpc177x_8x_can.c ****         /* For entering second ID */
 858:../src/lib/lpc177x_8x/Drivers/source/lpc177x_8x_can.c ****         if (((LPC_CANAF_RAM->mask[0] >> 16)& 0xE7FF) > id)
 2161              		.loc 1 858 0
 2162 1070 574B     		ldr	r3, .L137+24
 2163 1072 1B68     		ldr	r3, [r3, #0]
 2164 1074 4FEA1342 		lsr	r2, r3, #16
 2165 1078 4EF2FF73 		movw	r3, #59391
 2166 107c 1340     		ands	r3, r3, r2
 2167 107e BA88     		ldrh	r2, [r7, #4]
 2168 1080 9342     		cmp	r3, r2
 2169 1082 0AD9     		bls	.L123
 859:../src/lib/lpc177x_8x/Drivers/source/lpc177x_8x_can.c ****         {
 860:../src/lib/lpc177x_8x/Drivers/source/lpc177x_8x_can.c ****             LPC_CANAF_RAM->mask[0] = (LPC_CANAF_RAM->mask[0] >> 16) | (id << 16);
 2170              		.loc 1 860 0
 2171 1084 524B     		ldr	r3, .L137+24
 2172 1086 524A     		ldr	r2, .L137+24
 2173 1088 1268     		ldr	r2, [r2, #0]
 2174 108a 4FEA1241 		lsr	r1, r2, #16
 2175 108e BA88     		ldrh	r2, [r7, #4]
 2176 1090 4FEA0242 		lsl	r2, r2, #16
 2177 1094 0A43     		orrs	r2, r2, r1
 2178 1096 1A60     		str	r2, [r3, #0]
 2179 1098 E3E0     		b	.L121
 2180              	.L123:
 861:../src/lib/lpc177x_8x/Drivers/source/lpc177x_8x_can.c ****         }
 862:../src/lib/lpc177x_8x/Drivers/source/lpc177x_8x_can.c ****         else
 863:../src/lib/lpc177x_8x/Drivers/source/lpc177x_8x_can.c ****         {
 864:../src/lib/lpc177x_8x/Drivers/source/lpc177x_8x_can.c ****             LPC_CANAF_RAM->mask[0] = (LPC_CANAF_RAM->mask[0] & 0xFFFF0000) | id;
 2181              		.loc 1 864 0
 2182 109a 4D4A     		ldr	r2, .L137+24
 2183 109c 4C4B     		ldr	r3, .L137+24
 2184 109e 1B68     		ldr	r3, [r3, #0]
 2185 10a0 4FEA1343 		lsr	r3, r3, #16
 2186 10a4 4FEA0343 		lsl	r3, r3, #16
 2187 10a8 B988     		ldrh	r1, [r7, #4]
 2188 10aa 0B43     		orrs	r3, r3, r1
 2189 10ac 1360     		str	r3, [r2, #0]
 2190 10ae D8E0     		b	.L121
 2191              	.L122:
 865:../src/lib/lpc177x_8x/Drivers/source/lpc177x_8x_can.c ****         }
 866:../src/lib/lpc177x_8x/Drivers/source/lpc177x_8x_can.c ****     }
 867:../src/lib/lpc177x_8x/Drivers/source/lpc177x_8x_can.c ****     else
 868:../src/lib/lpc177x_8x/Drivers/source/lpc177x_8x_can.c ****     {
 869:../src/lib/lpc177x_8x/Drivers/source/lpc177x_8x_can.c ****         /* Find where to insert new ID */
 870:../src/lib/lpc177x_8x/Drivers/source/lpc177x_8x_can.c ****         cnt1 = 0;
 2192              		.loc 1 870 0
 2193 10b0 4FF00003 		mov	r3, #0
 2194 10b4 7B84     		strh	r3, [r7, #34]	@ movhi
 871:../src/lib/lpc177x_8x/Drivers/source/lpc177x_8x_can.c **** 
 872:../src/lib/lpc177x_8x/Drivers/source/lpc177x_8x_can.c ****         cnt2 = CANAF_FullCAN_cnt;
 2195              		.loc 1 872 0
 2196 10b6 404B     		ldr	r3, .L137
 2197 10b8 1B88     		ldrh	r3, [r3, #0]
 2198 10ba 3B84     		strh	r3, [r7, #32]	@ movhi
 873:../src/lib/lpc177x_8x/Drivers/source/lpc177x_8x_can.c **** 
 874:../src/lib/lpc177x_8x/Drivers/source/lpc177x_8x_can.c ****         bound1 = (CANAF_FullCAN_cnt - 1) >> 1;
 2199              		.loc 1 874 0
 2200 10bc 3E4B     		ldr	r3, .L137
 2201 10be 1B88     		ldrh	r3, [r3, #0]
 2202 10c0 03F1FF33 		add	r3, r3, #-1
 2203 10c4 4FEA6303 		asr	r3, r3, #1
 2204 10c8 FB83     		strh	r3, [r7, #30]	@ movhi
 875:../src/lib/lpc177x_8x/Drivers/source/lpc177x_8x_can.c **** 
 876:../src/lib/lpc177x_8x/Drivers/source/lpc177x_8x_can.c ****         while (cnt1 <= bound1)
 2205              		.loc 1 876 0
 2206 10ca 30E0     		b	.L124
 2207              	.L128:
 877:../src/lib/lpc177x_8x/Drivers/source/lpc177x_8x_can.c ****         {
 878:../src/lib/lpc177x_8x/Drivers/source/lpc177x_8x_can.c ****             /* Loop through standard existing IDs */
 879:../src/lib/lpc177x_8x/Drivers/source/lpc177x_8x_can.c ****             if (((LPC_CANAF_RAM->mask[cnt1] >> 16) & 0xE7FF) > (id & 0xE7FF))
 2208              		.loc 1 879 0
 2209 10cc 404B     		ldr	r3, .L137+24
 2210 10ce B7F92220 		ldrsh	r2, [r7, #34]
 2211 10d2 53F82230 		ldr	r3, [r3, r2, lsl #2]
 2212 10d6 4FEA1343 		lsr	r3, r3, #16
 2213 10da 4EF2FF72 		movw	r2, #59391
 2214 10de 1A40     		ands	r2, r2, r3
 2215 10e0 B988     		ldrh	r1, [r7, #4]
 2216 10e2 4EF2FF73 		movw	r3, #59391
 2217 10e6 0B40     		ands	r3, r3, r1
 2218 10e8 9A42     		cmp	r2, r3
 2219 10ea 05D9     		bls	.L125
 880:../src/lib/lpc177x_8x/Drivers/source/lpc177x_8x_can.c ****             {
 881:../src/lib/lpc177x_8x/Drivers/source/lpc177x_8x_can.c ****                 cnt2 = cnt1 * 2;
 2220              		.loc 1 881 0
 2221 10ec 7B8C     		ldrh	r3, [r7, #34]
 2222 10ee 4FEA4303 		lsl	r3, r3, #1
 2223 10f2 9BB2     		uxth	r3, r3
 2224 10f4 3B84     		strh	r3, [r7, #32]	@ movhi
 882:../src/lib/lpc177x_8x/Drivers/source/lpc177x_8x_can.c ****                 break;
 2225              		.loc 1 882 0
 2226 10f6 20E0     		b	.L126
 2227              	.L125:
 883:../src/lib/lpc177x_8x/Drivers/source/lpc177x_8x_can.c ****             }
 884:../src/lib/lpc177x_8x/Drivers/source/lpc177x_8x_can.c **** 
 885:../src/lib/lpc177x_8x/Drivers/source/lpc177x_8x_can.c **** 
 886:../src/lib/lpc177x_8x/Drivers/source/lpc177x_8x_can.c ****             if ((LPC_CANAF_RAM->mask[cnt1] & 0x0000E7FF) > (id & 0xE7FF))
 2228              		.loc 1 886 0
 2229 10f8 354B     		ldr	r3, .L137+24
 2230 10fa B7F92220 		ldrsh	r2, [r7, #34]
 2231 10fe 53F82230 		ldr	r3, [r3, r2, lsl #2]
 2232 1102 4EF2FF72 		movw	r2, #59391
 2233 1106 1A40     		ands	r2, r2, r3
 2234 1108 B988     		ldrh	r1, [r7, #4]
 2235 110a 4EF2FF73 		movw	r3, #59391
 2236 110e 0B40     		ands	r3, r3, r1
 2237 1110 9A42     		cmp	r2, r3
 2238 1112 08D9     		bls	.L127
 887:../src/lib/lpc177x_8x/Drivers/source/lpc177x_8x_can.c ****             {
 888:../src/lib/lpc177x_8x/Drivers/source/lpc177x_8x_can.c ****                 cnt2 = cnt1 * 2 + 1;
 2239              		.loc 1 888 0
 2240 1114 7B8C     		ldrh	r3, [r7, #34]
 2241 1116 4FEA4303 		lsl	r3, r3, #1
 2242 111a 9BB2     		uxth	r3, r3
 2243 111c 03F10103 		add	r3, r3, #1
 2244 1120 9BB2     		uxth	r3, r3
 2245 1122 3B84     		strh	r3, [r7, #32]	@ movhi
 889:../src/lib/lpc177x_8x/Drivers/source/lpc177x_8x_can.c ****                 break;
 2246              		.loc 1 889 0
 2247 1124 09E0     		b	.L126
 2248              	.L127:
 890:../src/lib/lpc177x_8x/Drivers/source/lpc177x_8x_can.c ****             }
 891:../src/lib/lpc177x_8x/Drivers/source/lpc177x_8x_can.c **** 
 892:../src/lib/lpc177x_8x/Drivers/source/lpc177x_8x_can.c ****             cnt1++;
 2249              		.loc 1 892 0
 2250 1126 7B8C     		ldrh	r3, [r7, #34]	@ movhi
 2251 1128 03F10103 		add	r3, r3, #1
 2252 112c 7B84     		strh	r3, [r7, #34]	@ movhi
 2253              	.L124:
 876:../src/lib/lpc177x_8x/Drivers/source/lpc177x_8x_can.c ****         while (cnt1 <= bound1)
 2254              		.loc 1 876 0 discriminator 1
 2255 112e B7F92220 		ldrsh	r2, [r7, #34]
 2256 1132 B7F91E30 		ldrsh	r3, [r7, #30]
 2257 1136 9A42     		cmp	r2, r3
 2258 1138 C8DD     		ble	.L128
 2259              	.L126:
 893:../src/lib/lpc177x_8x/Drivers/source/lpc177x_8x_can.c ****         }
 894:../src/lib/lpc177x_8x/Drivers/source/lpc177x_8x_can.c ****         /* cnt1 = U32 where to insert new ID */
 895:../src/lib/lpc177x_8x/Drivers/source/lpc177x_8x_can.c ****         /* cnt2 = U16 where to insert new ID */
 896:../src/lib/lpc177x_8x/Drivers/source/lpc177x_8x_can.c **** 
 897:../src/lib/lpc177x_8x/Drivers/source/lpc177x_8x_can.c ****         if (cnt1 > bound1)
 2260              		.loc 1 897 0
 2261 113a B7F92220 		ldrsh	r2, [r7, #34]
 2262 113e B7F91E30 		ldrsh	r3, [r7, #30]
 2263 1142 9A42     		cmp	r2, r3
 2264 1144 23DD     		ble	.L129
 898:../src/lib/lpc177x_8x/Drivers/source/lpc177x_8x_can.c ****         {
 899:../src/lib/lpc177x_8x/Drivers/source/lpc177x_8x_can.c ****             /* Adding ID as last entry */
 900:../src/lib/lpc177x_8x/Drivers/source/lpc177x_8x_can.c ****             /* Even number of IDs exists */
 901:../src/lib/lpc177x_8x/Drivers/source/lpc177x_8x_can.c ****             if ((CANAF_FullCAN_cnt & 0x0001) == 0)
 2265              		.loc 1 901 0
 2266 1146 1C4B     		ldr	r3, .L137
 2267 1148 1B88     		ldrh	r3, [r3, #0]
 2268 114a 03F00103 		and	r3, r3, #1
 2269 114e 002B     		cmp	r3, #0
 2270 1150 0CD1     		bne	.L130
 902:../src/lib/lpc177x_8x/Drivers/source/lpc177x_8x_can.c ****             {
 903:../src/lib/lpc177x_8x/Drivers/source/lpc177x_8x_can.c ****                 LPC_CANAF_RAM->mask[cnt1]  = 0x0000FFFF | (id << 16);
 2271              		.loc 1 903 0
 2272 1152 1F4A     		ldr	r2, .L137+24
 2273 1154 B7F92210 		ldrsh	r1, [r7, #34]
 2274 1158 BB88     		ldrh	r3, [r7, #4]
 2275 115a 4FEA0343 		lsl	r3, r3, #16
 2276 115e 6FEA1343 		mvn	r3, r3, lsr #16
 2277 1162 6FEA0343 		mvn	r3, r3, lsl #16
 2278 1166 42F82130 		str	r3, [r2, r1, lsl #2]
 2279 116a 7AE0     		b	.L121
 2280              	.L130:
 904:../src/lib/lpc177x_8x/Drivers/source/lpc177x_8x_can.c ****             }
 905:../src/lib/lpc177x_8x/Drivers/source/lpc177x_8x_can.c ****             /* Odd  number of IDs exists */
 906:../src/lib/lpc177x_8x/Drivers/source/lpc177x_8x_can.c ****             else
 907:../src/lib/lpc177x_8x/Drivers/source/lpc177x_8x_can.c ****             {
 908:../src/lib/lpc177x_8x/Drivers/source/lpc177x_8x_can.c ****                 LPC_CANAF_RAM->mask[cnt1]  = (LPC_CANAF_RAM->mask[cnt1] & 0xFFFF0000) | id;
 2281              		.loc 1 908 0
 2282 116c 184A     		ldr	r2, .L137+24
 2283 116e B7F92210 		ldrsh	r1, [r7, #34]
 2284 1172 174B     		ldr	r3, .L137+24
 2285 1174 B7F92200 		ldrsh	r0, [r7, #34]
 2286 1178 53F82030 		ldr	r3, [r3, r0, lsl #2]
 2287 117c 4FEA1343 		lsr	r3, r3, #16
 2288 1180 4FEA0343 		lsl	r3, r3, #16
 2289 1184 B888     		ldrh	r0, [r7, #4]
 2290 1186 0343     		orrs	r3, r3, r0
 2291 1188 42F82130 		str	r3, [r2, r1, lsl #2]
 2292 118c 69E0     		b	.L121
 2293              	.L129:
 909:../src/lib/lpc177x_8x/Drivers/source/lpc177x_8x_can.c ****             }
 910:../src/lib/lpc177x_8x/Drivers/source/lpc177x_8x_can.c ****         }
 911:../src/lib/lpc177x_8x/Drivers/source/lpc177x_8x_can.c ****         else
 912:../src/lib/lpc177x_8x/Drivers/source/lpc177x_8x_can.c ****         {
 913:../src/lib/lpc177x_8x/Drivers/source/lpc177x_8x_can.c ****             buf0 = LPC_CANAF_RAM->mask[cnt1]; /* Remember current entry */
 2294              		.loc 1 913 0
 2295 118e 104B     		ldr	r3, .L137+24
 2296 1190 B7F92220 		ldrsh	r2, [r7, #34]
 2297 1194 53F82230 		ldr	r3, [r3, r2, lsl #2]
 2298 1198 FB62     		str	r3, [r7, #44]
 914:../src/lib/lpc177x_8x/Drivers/source/lpc177x_8x_can.c **** 
 915:../src/lib/lpc177x_8x/Drivers/source/lpc177x_8x_can.c ****             if ((cnt2 & 0x0001) == 0)
 2299              		.loc 1 915 0
 2300 119a 3B8C     		ldrh	r3, [r7, #32]
 2301 119c 03F00103 		and	r3, r3, #1
 2302 11a0 002B     		cmp	r3, #0
 2303 11a2 17D1     		bne	.L131
 916:../src/lib/lpc177x_8x/Drivers/source/lpc177x_8x_can.c ****             {
 917:../src/lib/lpc177x_8x/Drivers/source/lpc177x_8x_can.c ****                 /* Insert new mask to even address*/
 918:../src/lib/lpc177x_8x/Drivers/source/lpc177x_8x_can.c ****                 buf1 = (id << 16) | (buf0 >> 16);
 2304              		.loc 1 918 0
 2305 11a4 BB88     		ldrh	r3, [r7, #4]
 2306 11a6 4FEA0343 		lsl	r3, r3, #16
 2307 11aa 1A46     		mov	r2, r3
 2308 11ac FB6A     		ldr	r3, [r7, #44]
 2309 11ae 4FEA1343 		lsr	r3, r3, #16
 2310 11b2 1343     		orrs	r3, r3, r2
 2311 11b4 BB62     		str	r3, [r7, #40]
 2312 11b6 15E0     		b	.L132
 2313              	.L138:
 2314              		.align	2
 2315              	.L137:
 2316 11b8 00000000 		.word	CANAF_FullCAN_cnt
 2317 11bc 00000000 		.word	CANAF_std_cnt
 2318 11c0 00000000 		.word	CANAF_gstd_cnt
 2319 11c4 00000000 		.word	CANAF_ext_cnt
 2320 11c8 00000000 		.word	CANAF_gext_cnt
 2321 11cc 00C00340 		.word	1073987584
 2322 11d0 00800340 		.word	1073971200
 2323              	.L131:
 919:../src/lib/lpc177x_8x/Drivers/source/lpc177x_8x_can.c ****             }
 920:../src/lib/lpc177x_8x/Drivers/source/lpc177x_8x_can.c ****             else
 921:../src/lib/lpc177x_8x/Drivers/source/lpc177x_8x_can.c ****             {
 922:../src/lib/lpc177x_8x/Drivers/source/lpc177x_8x_can.c ****                 /* Insert new mask to odd  address */
 923:../src/lib/lpc177x_8x/Drivers/source/lpc177x_8x_can.c ****                 buf1 = (buf0 & 0xFFFF0000) | id;
 2324              		.loc 1 923 0
 2325 11d4 FB6A     		ldr	r3, [r7, #44]
 2326 11d6 4FEA1343 		lsr	r3, r3, #16
 2327 11da 4FEA0343 		lsl	r3, r3, #16
 2328 11de BA88     		ldrh	r2, [r7, #4]
 2329 11e0 1343     		orrs	r3, r3, r2
 2330 11e2 BB62     		str	r3, [r7, #40]
 2331              	.L132:
 924:../src/lib/lpc177x_8x/Drivers/source/lpc177x_8x_can.c ****             }
 925:../src/lib/lpc177x_8x/Drivers/source/lpc177x_8x_can.c **** 
 926:../src/lib/lpc177x_8x/Drivers/source/lpc177x_8x_can.c ****             LPC_CANAF_RAM->mask[cnt1] = buf1;/* Insert mask */
 2332              		.loc 1 926 0
 2333 11e4 804B     		ldr	r3, .L139
 2334 11e6 B7F92220 		ldrsh	r2, [r7, #34]
 2335 11ea B96A     		ldr	r1, [r7, #40]
 2336 11ec 43F82210 		str	r1, [r3, r2, lsl #2]
 927:../src/lib/lpc177x_8x/Drivers/source/lpc177x_8x_can.c **** 
 928:../src/lib/lpc177x_8x/Drivers/source/lpc177x_8x_can.c ****             bound1 = CANAF_FullCAN_cnt >> 1;
 2337              		.loc 1 928 0
 2338 11f0 7E4B     		ldr	r3, .L139+4
 2339 11f2 1B88     		ldrh	r3, [r3, #0]
 2340 11f4 4FEA5303 		lsr	r3, r3, #1
 2341 11f8 9BB2     		uxth	r3, r3
 2342 11fa FB83     		strh	r3, [r7, #30]	@ movhi
 929:../src/lib/lpc177x_8x/Drivers/source/lpc177x_8x_can.c **** 
 930:../src/lib/lpc177x_8x/Drivers/source/lpc177x_8x_can.c ****             /* Move all remaining standard mask entries one place up */
 931:../src/lib/lpc177x_8x/Drivers/source/lpc177x_8x_can.c ****             while (cnt1 < bound1)
 2343              		.loc 1 931 0
 2344 11fc 17E0     		b	.L133
 2345              	.L134:
 932:../src/lib/lpc177x_8x/Drivers/source/lpc177x_8x_can.c ****             {
 933:../src/lib/lpc177x_8x/Drivers/source/lpc177x_8x_can.c ****                 cnt1++;
 2346              		.loc 1 933 0
 2347 11fe 7B8C     		ldrh	r3, [r7, #34]	@ movhi
 2348 1200 03F10103 		add	r3, r3, #1
 2349 1204 7B84     		strh	r3, [r7, #34]	@ movhi
 934:../src/lib/lpc177x_8x/Drivers/source/lpc177x_8x_can.c **** 
 935:../src/lib/lpc177x_8x/Drivers/source/lpc177x_8x_can.c ****                 buf1  = LPC_CANAF_RAM->mask[cnt1];
 2350              		.loc 1 935 0
 2351 1206 784B     		ldr	r3, .L139
 2352 1208 B7F92220 		ldrsh	r2, [r7, #34]
 2353 120c 53F82230 		ldr	r3, [r3, r2, lsl #2]
 2354 1210 BB62     		str	r3, [r7, #40]
 936:../src/lib/lpc177x_8x/Drivers/source/lpc177x_8x_can.c **** 
 937:../src/lib/lpc177x_8x/Drivers/source/lpc177x_8x_can.c ****                 LPC_CANAF_RAM->mask[cnt1] = (buf1 >> 16) | (buf0 << 16);
 2355              		.loc 1 937 0
 2356 1212 754B     		ldr	r3, .L139
 2357 1214 B7F92220 		ldrsh	r2, [r7, #34]
 2358 1218 B96A     		ldr	r1, [r7, #40]
 2359 121a 4FEA1140 		lsr	r0, r1, #16
 2360 121e F96A     		ldr	r1, [r7, #44]
 2361 1220 4FEA0141 		lsl	r1, r1, #16
 2362 1224 0143     		orrs	r1, r1, r0
 2363 1226 43F82210 		str	r1, [r3, r2, lsl #2]
 938:../src/lib/lpc177x_8x/Drivers/source/lpc177x_8x_can.c **** 
 939:../src/lib/lpc177x_8x/Drivers/source/lpc177x_8x_can.c ****                 buf0  = buf1;
 2364              		.loc 1 939 0
 2365 122a BB6A     		ldr	r3, [r7, #40]
 2366 122c FB62     		str	r3, [r7, #44]
 2367              	.L133:
 931:../src/lib/lpc177x_8x/Drivers/source/lpc177x_8x_can.c ****             while (cnt1 < bound1)
 2368              		.loc 1 931 0 discriminator 1
 2369 122e B7F92220 		ldrsh	r2, [r7, #34]
 2370 1232 B7F91E30 		ldrsh	r3, [r7, #30]
 2371 1236 9A42     		cmp	r2, r3
 2372 1238 E1DB     		blt	.L134
 940:../src/lib/lpc177x_8x/Drivers/source/lpc177x_8x_can.c ****             }
 941:../src/lib/lpc177x_8x/Drivers/source/lpc177x_8x_can.c **** 
 942:../src/lib/lpc177x_8x/Drivers/source/lpc177x_8x_can.c ****             if ((CANAF_FullCAN_cnt & 0x0001) == 0)
 2373              		.loc 1 942 0
 2374 123a 6C4B     		ldr	r3, .L139+4
 2375 123c 1B88     		ldrh	r3, [r3, #0]
 2376 123e 03F00103 		and	r3, r3, #1
 2377 1242 002B     		cmp	r3, #0
 2378 1244 0DD1     		bne	.L121
 943:../src/lib/lpc177x_8x/Drivers/source/lpc177x_8x_can.c ****             {
 944:../src/lib/lpc177x_8x/Drivers/source/lpc177x_8x_can.c ****                 /* Even number of IDs exists */
 945:../src/lib/lpc177x_8x/Drivers/source/lpc177x_8x_can.c ****                 LPC_CANAF_RAM->mask[cnt1] = (LPC_CANAF_RAM->mask[cnt1] & 0xFFFF0000)
 2379              		.loc 1 945 0
 2380 1246 684A     		ldr	r2, .L139
 2381 1248 B7F92210 		ldrsh	r1, [r7, #34]
 2382 124c 664B     		ldr	r3, .L139
 2383 124e B7F92200 		ldrsh	r0, [r7, #34]
 2384 1252 53F82030 		ldr	r3, [r3, r0, lsl #2]
 946:../src/lib/lpc177x_8x/Drivers/source/lpc177x_8x_can.c ****                                             | (0x0000FFFF);
 2385              		.loc 1 946 0
 2386 1256 6FEA1343 		mvn	r3, r3, lsr #16
 2387 125a 6FEA0343 		mvn	r3, r3, lsl #16
 945:../src/lib/lpc177x_8x/Drivers/source/lpc177x_8x_can.c ****                 LPC_CANAF_RAM->mask[cnt1] = (LPC_CANAF_RAM->mask[cnt1] & 0xFFFF0000)
 2388              		.loc 1 945 0
 2389 125e 42F82130 		str	r3, [r2, r1, lsl #2]
 2390              	.L121:
 947:../src/lib/lpc177x_8x/Drivers/source/lpc177x_8x_can.c ****             }
 948:../src/lib/lpc177x_8x/Drivers/source/lpc177x_8x_can.c ****         }
 949:../src/lib/lpc177x_8x/Drivers/source/lpc177x_8x_can.c ****     }
 950:../src/lib/lpc177x_8x/Drivers/source/lpc177x_8x_can.c **** 
 951:../src/lib/lpc177x_8x/Drivers/source/lpc177x_8x_can.c ****     //restruct FulCAN Object Section
 952:../src/lib/lpc177x_8x/Drivers/source/lpc177x_8x_can.c ****     bound1 = CANAF_FullCAN_cnt - cnt2;
 2391              		.loc 1 952 0
 2392 1262 624B     		ldr	r3, .L139+4
 2393 1264 1A88     		ldrh	r2, [r3, #0]
 2394 1266 3B8C     		ldrh	r3, [r7, #32]
 2395 1268 D31A     		subs	r3, r2, r3
 2396 126a 9BB2     		uxth	r3, r3
 2397 126c FB83     		strh	r3, [r7, #30]	@ movhi
 953:../src/lib/lpc177x_8x/Drivers/source/lpc177x_8x_can.c **** 
 954:../src/lib/lpc177x_8x/Drivers/source/lpc177x_8x_can.c ****     cnt1 = total - (CANAF_FullCAN_cnt)*3 + cnt2*3 + 1;
 2398              		.loc 1 954 0
 2399 126e 5F4B     		ldr	r3, .L139+4
 2400 1270 1B88     		ldrh	r3, [r3, #0]
 2401 1272 1A46     		mov	r2, r3	@ movhi
 2402 1274 4FEA8303 		lsl	r3, r3, #2
 2403 1278 D31A     		subs	r3, r2, r3
 2404 127a 9AB2     		uxth	r2, r3
 2405 127c 3B8C     		ldrh	r3, [r7, #32]
 2406 127e 1946     		mov	r1, r3	@ movhi
 2407 1280 4FEA4101 		lsl	r1, r1, #1
 2408 1284 CB18     		adds	r3, r1, r3
 2409 1286 9BB2     		uxth	r3, r3
 2410 1288 D318     		adds	r3, r2, r3
 2411 128a 9AB2     		uxth	r2, r3
 2412 128c FB89     		ldrh	r3, [r7, #14]
 2413 128e D318     		adds	r3, r2, r3
 2414 1290 9BB2     		uxth	r3, r3
 2415 1292 03F10103 		add	r3, r3, #1
 2416 1296 9BB2     		uxth	r3, r3
 2417 1298 7B84     		strh	r3, [r7, #34]	@ movhi
 955:../src/lib/lpc177x_8x/Drivers/source/lpc177x_8x_can.c **** 
 956:../src/lib/lpc177x_8x/Drivers/source/lpc177x_8x_can.c ****     buf0 = LPC_CANAF_RAM->mask[cnt1];
 2418              		.loc 1 956 0
 2419 129a 534B     		ldr	r3, .L139
 2420 129c B7F92220 		ldrsh	r2, [r7, #34]
 2421 12a0 53F82230 		ldr	r3, [r3, r2, lsl #2]
 2422 12a4 FB62     		str	r3, [r7, #44]
 957:../src/lib/lpc177x_8x/Drivers/source/lpc177x_8x_can.c **** 
 958:../src/lib/lpc177x_8x/Drivers/source/lpc177x_8x_can.c ****     buf1 = LPC_CANAF_RAM->mask[cnt1+1];
 2423              		.loc 1 958 0
 2424 12a6 504B     		ldr	r3, .L139
 2425 12a8 B7F92220 		ldrsh	r2, [r7, #34]
 2426 12ac 02F10102 		add	r2, r2, #1
 2427 12b0 53F82230 		ldr	r3, [r3, r2, lsl #2]
 2428 12b4 BB62     		str	r3, [r7, #40]
 959:../src/lib/lpc177x_8x/Drivers/source/lpc177x_8x_can.c **** 
 960:../src/lib/lpc177x_8x/Drivers/source/lpc177x_8x_can.c ****     buf2 = LPC_CANAF_RAM->mask[cnt1+2];
 2429              		.loc 1 960 0
 2430 12b6 4C4B     		ldr	r3, .L139
 2431 12b8 B7F92220 		ldrsh	r2, [r7, #34]
 2432 12bc 02F10202 		add	r2, r2, #2
 2433 12c0 53F82230 		ldr	r3, [r3, r2, lsl #2]
 2434 12c4 7B62     		str	r3, [r7, #36]
 961:../src/lib/lpc177x_8x/Drivers/source/lpc177x_8x_can.c **** 
 962:../src/lib/lpc177x_8x/Drivers/source/lpc177x_8x_can.c ****     LPC_CANAF_RAM->mask[cnt1]=LPC_CANAF_RAM->mask[cnt1+1]= LPC_CANAF_RAM->mask[cnt1+2]=0x00;
 2435              		.loc 1 962 0
 2436 12c6 484A     		ldr	r2, .L139
 2437 12c8 B7F92210 		ldrsh	r1, [r7, #34]
 2438 12cc 4648     		ldr	r0, .L139
 2439 12ce B7F92230 		ldrsh	r3, [r7, #34]
 2440 12d2 03F10104 		add	r4, r3, #1
 2441 12d6 444D     		ldr	r5, .L139
 2442 12d8 B7F92230 		ldrsh	r3, [r7, #34]
 2443 12dc 03F10206 		add	r6, r3, #2
 2444 12e0 4FF00003 		mov	r3, #0
 2445 12e4 45F82630 		str	r3, [r5, r6, lsl #2]
 2446 12e8 40F82430 		str	r3, [r0, r4, lsl #2]
 2447 12ec 42F82130 		str	r3, [r2, r1, lsl #2]
 963:../src/lib/lpc177x_8x/Drivers/source/lpc177x_8x_can.c **** 
 964:../src/lib/lpc177x_8x/Drivers/source/lpc177x_8x_can.c ****     cnt1+=3;
 2448              		.loc 1 964 0
 2449 12f0 7B8C     		ldrh	r3, [r7, #34]
 2450 12f2 03F10303 		add	r3, r3, #3
 2451 12f6 9BB2     		uxth	r3, r3
 2452 12f8 7B84     		strh	r3, [r7, #34]	@ movhi
 965:../src/lib/lpc177x_8x/Drivers/source/lpc177x_8x_can.c **** 
 966:../src/lib/lpc177x_8x/Drivers/source/lpc177x_8x_can.c ****     while(bound1--)
 2453              		.loc 1 966 0
 2454 12fa 36E0     		b	.L135
 2455              	.L136:
 967:../src/lib/lpc177x_8x/Drivers/source/lpc177x_8x_can.c ****     {
 968:../src/lib/lpc177x_8x/Drivers/source/lpc177x_8x_can.c ****         tmp0 = LPC_CANAF_RAM->mask[cnt1];
 2456              		.loc 1 968 0
 2457 12fc 3A4B     		ldr	r3, .L139
 2458 12fe B7F92220 		ldrsh	r2, [r7, #34]
 2459 1302 53F82230 		ldr	r3, [r3, r2, lsl #2]
 2460 1306 BB61     		str	r3, [r7, #24]
 969:../src/lib/lpc177x_8x/Drivers/source/lpc177x_8x_can.c **** 
 970:../src/lib/lpc177x_8x/Drivers/source/lpc177x_8x_can.c ****         tmp1 = LPC_CANAF_RAM->mask[cnt1+1];
 2461              		.loc 1 970 0
 2462 1308 374B     		ldr	r3, .L139
 2463 130a B7F92220 		ldrsh	r2, [r7, #34]
 2464 130e 02F10102 		add	r2, r2, #1
 2465 1312 53F82230 		ldr	r3, [r3, r2, lsl #2]
 2466 1316 7B61     		str	r3, [r7, #20]
 971:../src/lib/lpc177x_8x/Drivers/source/lpc177x_8x_can.c **** 
 972:../src/lib/lpc177x_8x/Drivers/source/lpc177x_8x_can.c ****         tmp2 = LPC_CANAF_RAM->mask[cnt1+2];
 2467              		.loc 1 972 0
 2468 1318 334B     		ldr	r3, .L139
 2469 131a B7F92220 		ldrsh	r2, [r7, #34]
 2470 131e 02F10202 		add	r2, r2, #2
 2471 1322 53F82230 		ldr	r3, [r3, r2, lsl #2]
 2472 1326 3B61     		str	r3, [r7, #16]
 973:../src/lib/lpc177x_8x/Drivers/source/lpc177x_8x_can.c **** 
 974:../src/lib/lpc177x_8x/Drivers/source/lpc177x_8x_can.c ****         LPC_CANAF_RAM->mask[cnt1]= buf0;
 2473              		.loc 1 974 0
 2474 1328 2F4B     		ldr	r3, .L139
 2475 132a B7F92220 		ldrsh	r2, [r7, #34]
 2476 132e F96A     		ldr	r1, [r7, #44]
 2477 1330 43F82210 		str	r1, [r3, r2, lsl #2]
 975:../src/lib/lpc177x_8x/Drivers/source/lpc177x_8x_can.c **** 
 976:../src/lib/lpc177x_8x/Drivers/source/lpc177x_8x_can.c ****         LPC_CANAF_RAM->mask[cnt1+1]= buf1;
 2478              		.loc 1 976 0
 2479 1334 2C4B     		ldr	r3, .L139
 2480 1336 B7F92220 		ldrsh	r2, [r7, #34]
 2481 133a 02F10102 		add	r2, r2, #1
 2482 133e B96A     		ldr	r1, [r7, #40]
 2483 1340 43F82210 		str	r1, [r3, r2, lsl #2]
 977:../src/lib/lpc177x_8x/Drivers/source/lpc177x_8x_can.c **** 
 978:../src/lib/lpc177x_8x/Drivers/source/lpc177x_8x_can.c ****         LPC_CANAF_RAM->mask[cnt1+2]= buf2;
 2484              		.loc 1 978 0
 2485 1344 284B     		ldr	r3, .L139
 2486 1346 B7F92220 		ldrsh	r2, [r7, #34]
 2487 134a 02F10202 		add	r2, r2, #2
 2488 134e 796A     		ldr	r1, [r7, #36]
 2489 1350 43F82210 		str	r1, [r3, r2, lsl #2]
 979:../src/lib/lpc177x_8x/Drivers/source/lpc177x_8x_can.c **** 
 980:../src/lib/lpc177x_8x/Drivers/source/lpc177x_8x_can.c ****         buf0 = tmp0;
 2490              		.loc 1 980 0
 2491 1354 BB69     		ldr	r3, [r7, #24]
 2492 1356 FB62     		str	r3, [r7, #44]
 981:../src/lib/lpc177x_8x/Drivers/source/lpc177x_8x_can.c **** 
 982:../src/lib/lpc177x_8x/Drivers/source/lpc177x_8x_can.c ****         buf1 = tmp1;
 2493              		.loc 1 982 0
 2494 1358 7B69     		ldr	r3, [r7, #20]
 2495 135a BB62     		str	r3, [r7, #40]
 983:../src/lib/lpc177x_8x/Drivers/source/lpc177x_8x_can.c **** 
 984:../src/lib/lpc177x_8x/Drivers/source/lpc177x_8x_can.c ****         buf2 = tmp2;
 2496              		.loc 1 984 0
 2497 135c 3B69     		ldr	r3, [r7, #16]
 2498 135e 7B62     		str	r3, [r7, #36]
 985:../src/lib/lpc177x_8x/Drivers/source/lpc177x_8x_can.c **** 
 986:../src/lib/lpc177x_8x/Drivers/source/lpc177x_8x_can.c ****         cnt1+=3;
 2499              		.loc 1 986 0
 2500 1360 7B8C     		ldrh	r3, [r7, #34]
 2501 1362 03F10303 		add	r3, r3, #3
 2502 1366 9BB2     		uxth	r3, r3
 2503 1368 7B84     		strh	r3, [r7, #34]	@ movhi
 2504              	.L135:
 966:../src/lib/lpc177x_8x/Drivers/source/lpc177x_8x_can.c ****     while(bound1--)
 2505              		.loc 1 966 0 discriminator 1
 2506 136a B7F91E30 		ldrsh	r3, [r7, #30]
 2507 136e 002B     		cmp	r3, #0
 2508 1370 0CBF     		ite	eq
 2509 1372 0023     		moveq	r3, #0
 2510 1374 0123     		movne	r3, #1
 2511 1376 DBB2     		uxtb	r3, r3
 2512 1378 FA8B     		ldrh	r2, [r7, #30]	@ movhi
 2513 137a 02F1FF32 		add	r2, r2, #-1
 2514 137e FA83     		strh	r2, [r7, #30]	@ movhi
 2515 1380 002B     		cmp	r3, #0
 2516 1382 BBD1     		bne	.L136
 987:../src/lib/lpc177x_8x/Drivers/source/lpc177x_8x_can.c ****     }
 988:../src/lib/lpc177x_8x/Drivers/source/lpc177x_8x_can.c **** 
 989:../src/lib/lpc177x_8x/Drivers/source/lpc177x_8x_can.c ****     CANAF_FullCAN_cnt++;
 2517              		.loc 1 989 0
 2518 1384 194B     		ldr	r3, .L139+4
 2519 1386 1B88     		ldrh	r3, [r3, #0]
 2520 1388 03F10103 		add	r3, r3, #1
 2521 138c 9AB2     		uxth	r2, r3
 2522 138e 174B     		ldr	r3, .L139+4
 2523 1390 1A80     		strh	r2, [r3, #0]	@ movhi
 990:../src/lib/lpc177x_8x/Drivers/source/lpc177x_8x_can.c **** 
 991:../src/lib/lpc177x_8x/Drivers/source/lpc177x_8x_can.c ****     //update address values
 992:../src/lib/lpc177x_8x/Drivers/source/lpc177x_8x_can.c ****     LPC_CANAF->SFF_sa     += 0x04;
 2524              		.loc 1 992 0
 2525 1392 174B     		ldr	r3, .L139+8
 2526 1394 164A     		ldr	r2, .L139+8
 2527 1396 5268     		ldr	r2, [r2, #4]
 2528 1398 02F10402 		add	r2, r2, #4
 2529 139c 5A60     		str	r2, [r3, #4]
 993:../src/lib/lpc177x_8x/Drivers/source/lpc177x_8x_can.c **** 
 994:../src/lib/lpc177x_8x/Drivers/source/lpc177x_8x_can.c ****     LPC_CANAF->SFF_GRP_sa += 0x04 ;
 2530              		.loc 1 994 0
 2531 139e 144B     		ldr	r3, .L139+8
 2532 13a0 134A     		ldr	r2, .L139+8
 2533 13a2 9268     		ldr	r2, [r2, #8]
 2534 13a4 02F10402 		add	r2, r2, #4
 2535 13a8 9A60     		str	r2, [r3, #8]
 995:../src/lib/lpc177x_8x/Drivers/source/lpc177x_8x_can.c **** 
 996:../src/lib/lpc177x_8x/Drivers/source/lpc177x_8x_can.c ****     LPC_CANAF->EFF_sa     += 0x04 ;
 2536              		.loc 1 996 0
 2537 13aa 114B     		ldr	r3, .L139+8
 2538 13ac 104A     		ldr	r2, .L139+8
 2539 13ae D268     		ldr	r2, [r2, #12]
 2540 13b0 02F10402 		add	r2, r2, #4
 2541 13b4 DA60     		str	r2, [r3, #12]
 997:../src/lib/lpc177x_8x/Drivers/source/lpc177x_8x_can.c **** 
 998:../src/lib/lpc177x_8x/Drivers/source/lpc177x_8x_can.c ****     LPC_CANAF->EFF_GRP_sa += 0x04;
 2542              		.loc 1 998 0
 2543 13b6 0E4B     		ldr	r3, .L139+8
 2544 13b8 0D4A     		ldr	r2, .L139+8
 2545 13ba 1269     		ldr	r2, [r2, #16]
 2546 13bc 02F10402 		add	r2, r2, #4
 2547 13c0 1A61     		str	r2, [r3, #16]
 999:../src/lib/lpc177x_8x/Drivers/source/lpc177x_8x_can.c **** 
1000:../src/lib/lpc177x_8x/Drivers/source/lpc177x_8x_can.c ****     LPC_CANAF->ENDofTable += 0x04;
 2548              		.loc 1 1000 0
 2549 13c2 0B4B     		ldr	r3, .L139+8
 2550 13c4 0A4A     		ldr	r2, .L139+8
 2551 13c6 5269     		ldr	r2, [r2, #20]
 2552 13c8 02F10402 		add	r2, r2, #4
 2553 13cc 5A61     		str	r2, [r3, #20]
1001:../src/lib/lpc177x_8x/Drivers/source/lpc177x_8x_can.c **** 
1002:../src/lib/lpc177x_8x/Drivers/source/lpc177x_8x_can.c ****     LPC_CANAF->AFMR = 0x04;
 2554              		.loc 1 1002 0
 2555 13ce 084B     		ldr	r3, .L139+8
 2556 13d0 4FF00402 		mov	r2, #4
 2557 13d4 1A60     		str	r2, [r3, #0]
1003:../src/lib/lpc177x_8x/Drivers/source/lpc177x_8x_can.c **** 
1004:../src/lib/lpc177x_8x/Drivers/source/lpc177x_8x_can.c ****     return CAN_OK;
 2558              		.loc 1 1004 0
 2559 13d6 4FF00103 		mov	r3, #1
 2560              	.L116:
1005:../src/lib/lpc177x_8x/Drivers/source/lpc177x_8x_can.c **** }
 2561              		.loc 1 1005 0
 2562 13da 1846     		mov	r0, r3
 2563 13dc 07F13007 		add	r7, r7, #48
 2564 13e0 BD46     		mov	sp, r7
 2565 13e2 F0BC     		pop	{r4, r5, r6, r7}
 2566 13e4 7047     		bx	lr
 2567              	.L140:
 2568 13e6 00BF     		.align	2
 2569              	.L139:
 2570 13e8 00800340 		.word	1073971200
 2571 13ec 00000000 		.word	CANAF_FullCAN_cnt
 2572 13f0 00C00340 		.word	1073987584
 2573              		.cfi_endproc
 2574              	.LFE61:
 2576              		.align	2
 2577              		.global	CAN_LoadGroupEntry
 2578              		.thumb
 2579              		.thumb_func
 2581              	CAN_LoadGroupEntry:
 2582              	.LFB62:
1006:../src/lib/lpc177x_8x/Drivers/source/lpc177x_8x_can.c **** 
1007:../src/lib/lpc177x_8x/Drivers/source/lpc177x_8x_can.c **** /********************************************************************//**
1008:../src/lib/lpc177x_8x/Drivers/source/lpc177x_8x_can.c ****  * @brief       Load Group entry into AFLUT
1009:../src/lib/lpc177x_8x/Drivers/source/lpc177x_8x_can.c ****  * @param[in]    canId           The Id of the expected CAN component
1010:../src/lib/lpc177x_8x/Drivers/source/lpc177x_8x_can.c ****  *
1011:../src/lib/lpc177x_8x/Drivers/source/lpc177x_8x_can.c ****  * @param[in]   lowerID, upperID: lower and upper identifier of entry
1012:../src/lib/lpc177x_8x/Drivers/source/lpc177x_8x_can.c ****  * @param[in]   format: type of ID format, should be:
1013:../src/lib/lpc177x_8x/Drivers/source/lpc177x_8x_can.c ****  *              - STD_ID_FORMAT: Standard ID format (11-bit value)
1014:../src/lib/lpc177x_8x/Drivers/source/lpc177x_8x_can.c ****  *              - EXT_ID_FORMAT: Extended ID format (29-bit value)
1015:../src/lib/lpc177x_8x/Drivers/source/lpc177x_8x_can.c ****  * @return      CAN_ERROR, could be:
1016:../src/lib/lpc177x_8x/Drivers/source/lpc177x_8x_can.c ****  *              - CAN_OK: loading is successful
1017:../src/lib/lpc177x_8x/Drivers/source/lpc177x_8x_can.c ****  *              - CAN_CONFLICT_ID_ERROR: Conflict ID occurs
1018:../src/lib/lpc177x_8x/Drivers/source/lpc177x_8x_can.c ****  *              - CAN_OBJECTS_FULL_ERROR: no more space available
1019:../src/lib/lpc177x_8x/Drivers/source/lpc177x_8x_can.c ****  *********************************************************************/
1020:../src/lib/lpc177x_8x/Drivers/source/lpc177x_8x_can.c **** CAN_ERROR CAN_LoadGroupEntry(uint8_t canId, uint32_t lowerID,
1021:../src/lib/lpc177x_8x/Drivers/source/lpc177x_8x_can.c ****                                         uint32_t upperID, CAN_ID_FORMAT_Type format)
1022:../src/lib/lpc177x_8x/Drivers/source/lpc177x_8x_can.c **** {
 2583              		.loc 1 1022 0
 2584              		.cfi_startproc
 2585              		@ args = 0, pretend = 0, frame = 48
 2586              		@ frame_needed = 1, uses_anonymous_args = 0
 2587              		@ link register save eliminated.
 2588 13f4 80B4     		push	{r7}
 2589              	.LCFI21:
 2590              		.cfi_def_cfa_offset 4
 2591              		.cfi_offset 7, -4
 2592 13f6 8DB0     		sub	sp, sp, #52
 2593              	.LCFI22:
 2594              		.cfi_def_cfa_offset 56
 2595 13f8 00AF     		add	r7, sp, #0
 2596              	.LCFI23:
 2597              		.cfi_def_cfa_register 7
 2598 13fa B960     		str	r1, [r7, #8]
 2599 13fc 7A60     		str	r2, [r7, #4]
 2600 13fe 0246     		mov	r2, r0
 2601 1400 FA73     		strb	r2, [r7, #15]
 2602 1402 BB73     		strb	r3, [r7, #14]
1023:../src/lib/lpc177x_8x/Drivers/source/lpc177x_8x_can.c ****     uint32_t buf0, buf1, entry1, entry2, LID,UID;
1024:../src/lib/lpc177x_8x/Drivers/source/lpc177x_8x_can.c ****     int16_t cnt1, bound1, total;
1025:../src/lib/lpc177x_8x/Drivers/source/lpc177x_8x_can.c **** 
1026:../src/lib/lpc177x_8x/Drivers/source/lpc177x_8x_can.c ****     if(lowerID > upperID)
 2603              		.loc 1 1026 0
 2604 1404 BA68     		ldr	r2, [r7, #8]
 2605 1406 7B68     		ldr	r3, [r7, #4]
 2606 1408 9A42     		cmp	r2, r3
 2607 140a 02D9     		bls	.L142
1027:../src/lib/lpc177x_8x/Drivers/source/lpc177x_8x_can.c ****         return CAN_CONFLICT_ID_ERROR;
 2608              		.loc 1 1027 0
 2609 140c 4FF00603 		mov	r3, #6
 2610 1410 82E2     		b	.L143
 2611              	.L142:
1028:../src/lib/lpc177x_8x/Drivers/source/lpc177x_8x_can.c **** 
1029:../src/lib/lpc177x_8x/Drivers/source/lpc177x_8x_can.c ****     total =((CANAF_FullCAN_cnt+1) >> 1)+ CANAF_FullCAN_cnt*3 +((CANAF_std_cnt + 1) >> 1)  \
 2612              		.loc 1 1029 0
 2613 1412 9B4B     		ldr	r3, .L176
 2614 1414 1B88     		ldrh	r3, [r3, #0]
 2615 1416 03F10103 		add	r3, r3, #1
 2616 141a 4FEA6303 		asr	r3, r3, #1
 2617 141e 9AB2     		uxth	r2, r3
 2618 1420 974B     		ldr	r3, .L176
 2619 1422 1B88     		ldrh	r3, [r3, #0]
 2620 1424 1946     		mov	r1, r3	@ movhi
 2621 1426 4FEA4101 		lsl	r1, r1, #1
 2622 142a CB18     		adds	r3, r1, r3
 2623 142c 9BB2     		uxth	r3, r3
 2624 142e D318     		adds	r3, r2, r3
 2625 1430 9AB2     		uxth	r2, r3
 2626 1432 944B     		ldr	r3, .L176+4
 2627 1434 1B88     		ldrh	r3, [r3, #0]
 2628 1436 03F10103 		add	r3, r3, #1
 2629 143a 4FEA6303 		asr	r3, r3, #1
 2630 143e 9BB2     		uxth	r3, r3
 2631 1440 D318     		adds	r3, r2, r3
 2632 1442 9AB2     		uxth	r2, r3
 2633 1444 904B     		ldr	r3, .L176+8
 2634 1446 1B88     		ldrh	r3, [r3, #0]
 2635 1448 D318     		adds	r3, r2, r3
 2636 144a 9AB2     		uxth	r2, r3
 2637 144c 8F4B     		ldr	r3, .L176+12
 2638 144e 1B88     		ldrh	r3, [r3, #0]
 2639 1450 D318     		adds	r3, r2, r3
 2640 1452 9AB2     		uxth	r2, r3
 2641 1454 8E4B     		ldr	r3, .L176+16
 2642 1456 1B88     		ldrh	r3, [r3, #0]
 2643 1458 4FEA4303 		lsl	r3, r3, #1
 2644 145c 9BB2     		uxth	r3, r3
 2645 145e D318     		adds	r3, r2, r3
 2646 1460 9BB2     		uxth	r3, r3
 2647 1462 7B84     		strh	r3, [r7, #34]	@ movhi
1030:../src/lib/lpc177x_8x/Drivers/source/lpc177x_8x_can.c ****                 + CANAF_gstd_cnt + CANAF_ext_cnt + (CANAF_gext_cnt<<1);
1031:../src/lib/lpc177x_8x/Drivers/source/lpc177x_8x_can.c **** 
1032:../src/lib/lpc177x_8x/Drivers/source/lpc177x_8x_can.c ****     /* Setup Acceptance Filter Configuration
1033:../src/lib/lpc177x_8x/Drivers/source/lpc177x_8x_can.c ****     Acceptance Filter Mode Register = Off */
1034:../src/lib/lpc177x_8x/Drivers/source/lpc177x_8x_can.c ****     LPC_CANAF->AFMR = 0x00000001;
 2648              		.loc 1 1034 0
 2649 1464 8B4B     		ldr	r3, .L176+20
 2650 1466 4FF00102 		mov	r2, #1
 2651 146a 1A60     		str	r2, [r3, #0]
1035:../src/lib/lpc177x_8x/Drivers/source/lpc177x_8x_can.c **** 
1036:../src/lib/lpc177x_8x/Drivers/source/lpc177x_8x_can.c ****     /*********Add Group of Standard Identifier Frame Format************/
1037:../src/lib/lpc177x_8x/Drivers/source/lpc177x_8x_can.c ****     if(format == STD_ID_FORMAT)
 2652              		.loc 1 1037 0
 2653 146c BB7B     		ldrb	r3, [r7, #14]	@ zero_extendqisi2
 2654 146e 002B     		cmp	r3, #0
 2655 1470 40F0FD80 		bne	.L144
1038:../src/lib/lpc177x_8x/Drivers/source/lpc177x_8x_can.c ****     {
1039:../src/lib/lpc177x_8x/Drivers/source/lpc177x_8x_can.c ****         if ((total >= 512))
 2656              		.loc 1 1039 0
 2657 1474 B7F92220 		ldrsh	r2, [r7, #34]
 2658 1478 40F2FF13 		movw	r3, #511
 2659 147c 9A42     		cmp	r2, r3
 2660 147e 02DD     		ble	.L145
1040:../src/lib/lpc177x_8x/Drivers/source/lpc177x_8x_can.c ****         {
1041:../src/lib/lpc177x_8x/Drivers/source/lpc177x_8x_can.c ****             //don't have enough space
1042:../src/lib/lpc177x_8x/Drivers/source/lpc177x_8x_can.c ****             return CAN_OBJECTS_FULL_ERROR;
 2661              		.loc 1 1042 0
 2662 1480 4FF00203 		mov	r3, #2
 2663 1484 48E2     		b	.L143
 2664              	.L145:
1043:../src/lib/lpc177x_8x/Drivers/source/lpc177x_8x_can.c ****         }
1044:../src/lib/lpc177x_8x/Drivers/source/lpc177x_8x_can.c **** 
1045:../src/lib/lpc177x_8x/Drivers/source/lpc177x_8x_can.c ****         lowerID &=0x7FF; //mask ID
 2665              		.loc 1 1045 0
 2666 1486 BB68     		ldr	r3, [r7, #8]
 2667 1488 4FEA4353 		lsl	r3, r3, #21
 2668 148c 4FEA5353 		lsr	r3, r3, #21
 2669 1490 BB60     		str	r3, [r7, #8]
1046:../src/lib/lpc177x_8x/Drivers/source/lpc177x_8x_can.c **** 
1047:../src/lib/lpc177x_8x/Drivers/source/lpc177x_8x_can.c ****         upperID &=0x7FF;
 2670              		.loc 1 1047 0
 2671 1492 7B68     		ldr	r3, [r7, #4]
 2672 1494 4FEA4353 		lsl	r3, r3, #21
 2673 1498 4FEA5353 		lsr	r3, r3, #21
 2674 149c 7B60     		str	r3, [r7, #4]
1048:../src/lib/lpc177x_8x/Drivers/source/lpc177x_8x_can.c **** 
1049:../src/lib/lpc177x_8x/Drivers/source/lpc177x_8x_can.c ****         entry1  = (canId << 29) | (lowerID << 16) | (canId << 13)|(upperID << 0);
 2675              		.loc 1 1049 0
 2676 149e FB7B     		ldrb	r3, [r7, #15]	@ zero_extendqisi2
 2677 14a0 4FEA4373 		lsl	r3, r3, #29
 2678 14a4 1A46     		mov	r2, r3
 2679 14a6 BB68     		ldr	r3, [r7, #8]
 2680 14a8 4FEA0343 		lsl	r3, r3, #16
 2681 14ac 1A43     		orrs	r2, r2, r3
 2682 14ae FB7B     		ldrb	r3, [r7, #15]	@ zero_extendqisi2
 2683 14b0 4FEA4333 		lsl	r3, r3, #13
 2684 14b4 1A43     		orrs	r2, r2, r3
 2685 14b6 7B68     		ldr	r3, [r7, #4]
 2686 14b8 1343     		orrs	r3, r3, r2
 2687 14ba FB61     		str	r3, [r7, #28]
1050:../src/lib/lpc177x_8x/Drivers/source/lpc177x_8x_can.c **** 
1051:../src/lib/lpc177x_8x/Drivers/source/lpc177x_8x_can.c ****         cnt1 = ((CANAF_FullCAN_cnt+1)>>1) + ((CANAF_std_cnt + 1) >> 1);
 2688              		.loc 1 1051 0
 2689 14bc 704B     		ldr	r3, .L176
 2690 14be 1B88     		ldrh	r3, [r3, #0]
 2691 14c0 03F10103 		add	r3, r3, #1
 2692 14c4 4FEA6303 		asr	r3, r3, #1
 2693 14c8 9AB2     		uxth	r2, r3
 2694 14ca 6E4B     		ldr	r3, .L176+4
 2695 14cc 1B88     		ldrh	r3, [r3, #0]
 2696 14ce 03F10103 		add	r3, r3, #1
 2697 14d2 4FEA6303 		asr	r3, r3, #1
 2698 14d6 9BB2     		uxth	r3, r3
 2699 14d8 D318     		adds	r3, r2, r3
 2700 14da 9BB2     		uxth	r3, r3
 2701 14dc FB84     		strh	r3, [r7, #38]	@ movhi
1052:../src/lib/lpc177x_8x/Drivers/source/lpc177x_8x_can.c **** 
1053:../src/lib/lpc177x_8x/Drivers/source/lpc177x_8x_can.c ****         //if this is the first Group standard ID entry
1054:../src/lib/lpc177x_8x/Drivers/source/lpc177x_8x_can.c ****         if(CANAF_gstd_cnt == 0)
 2702              		.loc 1 1054 0
 2703 14de 6A4B     		ldr	r3, .L176+8
 2704 14e0 1B88     		ldrh	r3, [r3, #0]
 2705 14e2 002B     		cmp	r3, #0
 2706 14e4 06D1     		bne	.L146
1055:../src/lib/lpc177x_8x/Drivers/source/lpc177x_8x_can.c ****         {
1056:../src/lib/lpc177x_8x/Drivers/source/lpc177x_8x_can.c ****             LPC_CANAF_RAM->mask[cnt1] = entry1;
 2707              		.loc 1 1056 0
 2708 14e6 6C4B     		ldr	r3, .L176+24
 2709 14e8 B7F92620 		ldrsh	r2, [r7, #38]
 2710 14ec F969     		ldr	r1, [r7, #28]
 2711 14ee 43F82210 		str	r1, [r3, r2, lsl #2]
 2712 14f2 A2E0     		b	.L147
 2713              	.L146:
1057:../src/lib/lpc177x_8x/Drivers/source/lpc177x_8x_can.c ****         }
1058:../src/lib/lpc177x_8x/Drivers/source/lpc177x_8x_can.c ****         else
1059:../src/lib/lpc177x_8x/Drivers/source/lpc177x_8x_can.c ****         {
1060:../src/lib/lpc177x_8x/Drivers/source/lpc177x_8x_can.c ****             //find the position to add new Group entry
1061:../src/lib/lpc177x_8x/Drivers/source/lpc177x_8x_can.c ****             bound1 = ((CANAF_FullCAN_cnt+1)>>1) + ((CANAF_std_cnt + 1) >> 1) + CANAF_gstd_cnt;
 2714              		.loc 1 1061 0
 2715 14f4 624B     		ldr	r3, .L176
 2716 14f6 1B88     		ldrh	r3, [r3, #0]
 2717 14f8 03F10103 		add	r3, r3, #1
 2718 14fc 4FEA6303 		asr	r3, r3, #1
 2719 1500 9AB2     		uxth	r2, r3
 2720 1502 604B     		ldr	r3, .L176+4
 2721 1504 1B88     		ldrh	r3, [r3, #0]
 2722 1506 03F10103 		add	r3, r3, #1
 2723 150a 4FEA6303 		asr	r3, r3, #1
 2724 150e 9BB2     		uxth	r3, r3
 2725 1510 D318     		adds	r3, r2, r3
 2726 1512 9AB2     		uxth	r2, r3
 2727 1514 5C4B     		ldr	r3, .L176+8
 2728 1516 1B88     		ldrh	r3, [r3, #0]
 2729 1518 D318     		adds	r3, r2, r3
 2730 151a 9BB2     		uxth	r3, r3
 2731 151c BB84     		strh	r3, [r7, #36]	@ movhi
1062:../src/lib/lpc177x_8x/Drivers/source/lpc177x_8x_can.c **** 
1063:../src/lib/lpc177x_8x/Drivers/source/lpc177x_8x_can.c ****             while(cnt1 < bound1)
 2732              		.loc 1 1063 0
 2733 151e 4FE0     		b	.L148
 2734              	.L150:
1064:../src/lib/lpc177x_8x/Drivers/source/lpc177x_8x_can.c ****             {
1065:../src/lib/lpc177x_8x/Drivers/source/lpc177x_8x_can.c ****                 //compare controller first
1066:../src/lib/lpc177x_8x/Drivers/source/lpc177x_8x_can.c ****                 while((LPC_CANAF_RAM->mask[cnt1] >> 29)< (entry1 >> 29))//increase until meet great
1067:../src/lib/lpc177x_8x/Drivers/source/lpc177x_8x_can.c ****                     cnt1++;
 2735              		.loc 1 1067 0
 2736 1520 FB8C     		ldrh	r3, [r7, #38]	@ movhi
 2737 1522 03F10103 		add	r3, r3, #1
 2738 1526 FB84     		strh	r3, [r7, #38]	@ movhi
 2739 1528 00E0     		b	.L149
 2740              	.L174:
1066:../src/lib/lpc177x_8x/Drivers/source/lpc177x_8x_can.c ****                 while((LPC_CANAF_RAM->mask[cnt1] >> 29)< (entry1 >> 29))//increase until meet great
 2741              		.loc 1 1066 0
 2742 152a 00BF     		nop
 2743              	.L149:
1066:../src/lib/lpc177x_8x/Drivers/source/lpc177x_8x_can.c ****                 while((LPC_CANAF_RAM->mask[cnt1] >> 29)< (entry1 >> 29))//increase until meet great
 2744              		.loc 1 1066 0 is_stmt 0 discriminator 1
 2745 152c 5A4B     		ldr	r3, .L176+24
 2746 152e B7F92620 		ldrsh	r2, [r7, #38]
 2747 1532 53F82230 		ldr	r3, [r3, r2, lsl #2]
 2748 1536 4FEA5372 		lsr	r2, r3, #29
 2749 153a FB69     		ldr	r3, [r7, #28]
 2750 153c 4FEA5373 		lsr	r3, r3, #29
 2751 1540 9A42     		cmp	r2, r3
 2752 1542 EDD3     		bcc	.L150
1068:../src/lib/lpc177x_8x/Drivers/source/lpc177x_8x_can.c ****                 buf0 = LPC_CANAF_RAM->mask[cnt1];
 2753              		.loc 1 1068 0 is_stmt 1
 2754 1544 544B     		ldr	r3, .L176+24
 2755 1546 B7F92620 		ldrsh	r2, [r7, #38]
 2756 154a 53F82230 		ldr	r3, [r3, r2, lsl #2]
 2757 154e FB62     		str	r3, [r7, #44]
1069:../src/lib/lpc177x_8x/Drivers/source/lpc177x_8x_can.c ****                 if((LPC_CANAF_RAM->mask[cnt1] >> 29)> (entry1 >> 29)) //meet greater controller
 2758              		.loc 1 1069 0
 2759 1550 514B     		ldr	r3, .L176+24
 2760 1552 B7F92620 		ldrsh	r2, [r7, #38]
 2761 1556 53F82230 		ldr	r3, [r3, r2, lsl #2]
 2762 155a 4FEA5372 		lsr	r2, r3, #29
 2763 155e FB69     		ldr	r3, [r7, #28]
 2764 1560 4FEA5373 		lsr	r3, r3, #29
 2765 1564 9A42     		cmp	r2, r3
 2766 1566 06D9     		bls	.L151
1070:../src/lib/lpc177x_8x/Drivers/source/lpc177x_8x_can.c ****                 {
1071:../src/lib/lpc177x_8x/Drivers/source/lpc177x_8x_can.c ****                     //add at this position
1072:../src/lib/lpc177x_8x/Drivers/source/lpc177x_8x_can.c ****                     LPC_CANAF_RAM->mask[cnt1] = entry1;
 2767              		.loc 1 1072 0
 2768 1568 4B4B     		ldr	r3, .L176+24
 2769 156a B7F92620 		ldrsh	r2, [r7, #38]
 2770 156e F969     		ldr	r1, [r7, #28]
 2771 1570 43F82210 		str	r1, [r3, r2, lsl #2]
1073:../src/lib/lpc177x_8x/Drivers/source/lpc177x_8x_can.c ****                     break;
 2772              		.loc 1 1073 0
 2773 1574 2AE0     		b	.L152
 2774              	.L151:
1074:../src/lib/lpc177x_8x/Drivers/source/lpc177x_8x_can.c ****                 }
1075:../src/lib/lpc177x_8x/Drivers/source/lpc177x_8x_can.c ****                 else //meet equal controller
1076:../src/lib/lpc177x_8x/Drivers/source/lpc177x_8x_can.c ****                 {
1077:../src/lib/lpc177x_8x/Drivers/source/lpc177x_8x_can.c ****                     LID  = (buf0 >> 16)&0x7FF;
 2775              		.loc 1 1077 0
 2776 1576 FB6A     		ldr	r3, [r7, #44]
 2777 1578 4FEA1343 		lsr	r3, r3, #16
 2778 157c 4FEA4353 		lsl	r3, r3, #21
 2779 1580 4FEA5353 		lsr	r3, r3, #21
 2780 1584 BB61     		str	r3, [r7, #24]
1078:../src/lib/lpc177x_8x/Drivers/source/lpc177x_8x_can.c ****                     UID  = buf0 & 0x7FF;
 2781              		.loc 1 1078 0
 2782 1586 FB6A     		ldr	r3, [r7, #44]
 2783 1588 4FEA4353 		lsl	r3, r3, #21
 2784 158c 4FEA5353 		lsr	r3, r3, #21
 2785 1590 7B61     		str	r3, [r7, #20]
1079:../src/lib/lpc177x_8x/Drivers/source/lpc177x_8x_can.c ****                     if (upperID <= LID)
 2786              		.loc 1 1079 0
 2787 1592 7A68     		ldr	r2, [r7, #4]
 2788 1594 BB69     		ldr	r3, [r7, #24]
 2789 1596 9A42     		cmp	r2, r3
 2790 1598 06D8     		bhi	.L153
1080:../src/lib/lpc177x_8x/Drivers/source/lpc177x_8x_can.c ****                     {
1081:../src/lib/lpc177x_8x/Drivers/source/lpc177x_8x_can.c ****                         //add new entry before this entry
1082:../src/lib/lpc177x_8x/Drivers/source/lpc177x_8x_can.c ****                         LPC_CANAF_RAM->mask[cnt1] = entry1;
 2791              		.loc 1 1082 0
 2792 159a 3F4B     		ldr	r3, .L176+24
 2793 159c B7F92620 		ldrsh	r2, [r7, #38]
 2794 15a0 F969     		ldr	r1, [r7, #28]
 2795 15a2 43F82210 		str	r1, [r3, r2, lsl #2]
1083:../src/lib/lpc177x_8x/Drivers/source/lpc177x_8x_can.c ****                         break;
 2796              		.loc 1 1083 0
 2797 15a6 11E0     		b	.L152
 2798              	.L153:
1084:../src/lib/lpc177x_8x/Drivers/source/lpc177x_8x_can.c ****                     }
1085:../src/lib/lpc177x_8x/Drivers/source/lpc177x_8x_can.c ****                     else if (lowerID >= UID)
 2799              		.loc 1 1085 0
 2800 15a8 BA68     		ldr	r2, [r7, #8]
 2801 15aa 7B69     		ldr	r3, [r7, #20]
 2802 15ac 9A42     		cmp	r2, r3
 2803 15ae 04D3     		bcc	.L154
1086:../src/lib/lpc177x_8x/Drivers/source/lpc177x_8x_can.c ****                     {
1087:../src/lib/lpc177x_8x/Drivers/source/lpc177x_8x_can.c ****                         //load next entry to compare
1088:../src/lib/lpc177x_8x/Drivers/source/lpc177x_8x_can.c ****                         cnt1 ++;
 2804              		.loc 1 1088 0
 2805 15b0 FB8C     		ldrh	r3, [r7, #38]	@ movhi
 2806 15b2 03F10103 		add	r3, r3, #1
 2807 15b6 FB84     		strh	r3, [r7, #38]	@ movhi
 2808 15b8 02E0     		b	.L148
 2809              	.L154:
1089:../src/lib/lpc177x_8x/Drivers/source/lpc177x_8x_can.c ****                     }
1090:../src/lib/lpc177x_8x/Drivers/source/lpc177x_8x_can.c ****                     else
1091:../src/lib/lpc177x_8x/Drivers/source/lpc177x_8x_can.c ****                         return CAN_CONFLICT_ID_ERROR;
 2810              		.loc 1 1091 0
 2811 15ba 4FF00603 		mov	r3, #6
 2812 15be ABE1     		b	.L143
 2813              	.L148:
1063:../src/lib/lpc177x_8x/Drivers/source/lpc177x_8x_can.c ****             while(cnt1 < bound1)
 2814              		.loc 1 1063 0 discriminator 1
 2815 15c0 B7F92620 		ldrsh	r2, [r7, #38]
 2816 15c4 B7F92430 		ldrsh	r3, [r7, #36]
 2817 15c8 9A42     		cmp	r2, r3
 2818 15ca AEDB     		blt	.L174
 2819              	.L152:
1092:../src/lib/lpc177x_8x/Drivers/source/lpc177x_8x_can.c ****                 }
1093:../src/lib/lpc177x_8x/Drivers/source/lpc177x_8x_can.c ****             }
1094:../src/lib/lpc177x_8x/Drivers/source/lpc177x_8x_can.c ****             if(cnt1 >= bound1)
 2820              		.loc 1 1094 0
 2821 15cc B7F92620 		ldrsh	r2, [r7, #38]
 2822 15d0 B7F92430 		ldrsh	r3, [r7, #36]
 2823 15d4 9A42     		cmp	r2, r3
 2824 15d6 0BDB     		blt	.L156
1095:../src/lib/lpc177x_8x/Drivers/source/lpc177x_8x_can.c ****             {
1096:../src/lib/lpc177x_8x/Drivers/source/lpc177x_8x_can.c ****                 //add new entry at the last position in this list
1097:../src/lib/lpc177x_8x/Drivers/source/lpc177x_8x_can.c ****                 buf0 = LPC_CANAF_RAM->mask[cnt1];
 2825              		.loc 1 1097 0
 2826 15d8 2F4B     		ldr	r3, .L176+24
 2827 15da B7F92620 		ldrsh	r2, [r7, #38]
 2828 15de 53F82230 		ldr	r3, [r3, r2, lsl #2]
 2829 15e2 FB62     		str	r3, [r7, #44]
1098:../src/lib/lpc177x_8x/Drivers/source/lpc177x_8x_can.c **** 
1099:../src/lib/lpc177x_8x/Drivers/source/lpc177x_8x_can.c ****                 LPC_CANAF_RAM->mask[cnt1] = entry1;
 2830              		.loc 1 1099 0
 2831 15e4 2C4B     		ldr	r3, .L176+24
 2832 15e6 B7F92620 		ldrsh	r2, [r7, #38]
 2833 15ea F969     		ldr	r1, [r7, #28]
 2834 15ec 43F82210 		str	r1, [r3, r2, lsl #2]
 2835              	.L156:
1100:../src/lib/lpc177x_8x/Drivers/source/lpc177x_8x_can.c ****             }
1101:../src/lib/lpc177x_8x/Drivers/source/lpc177x_8x_can.c **** 
1102:../src/lib/lpc177x_8x/Drivers/source/lpc177x_8x_can.c ****             //remove all remaining entry of this section one place up
1103:../src/lib/lpc177x_8x/Drivers/source/lpc177x_8x_can.c ****             bound1 = total - cnt1;
 2836              		.loc 1 1103 0
 2837 15f0 7A8C     		ldrh	r2, [r7, #34]
 2838 15f2 FB8C     		ldrh	r3, [r7, #38]
 2839 15f4 D31A     		subs	r3, r2, r3
 2840 15f6 9BB2     		uxth	r3, r3
 2841 15f8 BB84     		strh	r3, [r7, #36]	@ movhi
1104:../src/lib/lpc177x_8x/Drivers/source/lpc177x_8x_can.c **** 
1105:../src/lib/lpc177x_8x/Drivers/source/lpc177x_8x_can.c ****             while(bound1--)
 2842              		.loc 1 1105 0
 2843 15fa 11E0     		b	.L157
 2844              	.L158:
1106:../src/lib/lpc177x_8x/Drivers/source/lpc177x_8x_can.c ****             {
1107:../src/lib/lpc177x_8x/Drivers/source/lpc177x_8x_can.c ****                 cnt1++;
 2845              		.loc 1 1107 0
 2846 15fc FB8C     		ldrh	r3, [r7, #38]	@ movhi
 2847 15fe 03F10103 		add	r3, r3, #1
 2848 1602 FB84     		strh	r3, [r7, #38]	@ movhi
1108:../src/lib/lpc177x_8x/Drivers/source/lpc177x_8x_can.c **** 
1109:../src/lib/lpc177x_8x/Drivers/source/lpc177x_8x_can.c ****                 buf1 = LPC_CANAF_RAM->mask[cnt1];
 2849              		.loc 1 1109 0
 2850 1604 244B     		ldr	r3, .L176+24
 2851 1606 B7F92620 		ldrsh	r2, [r7, #38]
 2852 160a 53F82230 		ldr	r3, [r3, r2, lsl #2]
 2853 160e BB62     		str	r3, [r7, #40]
1110:../src/lib/lpc177x_8x/Drivers/source/lpc177x_8x_can.c **** 
1111:../src/lib/lpc177x_8x/Drivers/source/lpc177x_8x_can.c ****                 LPC_CANAF_RAM->mask[cnt1] = buf0;
 2854              		.loc 1 1111 0
 2855 1610 214B     		ldr	r3, .L176+24
 2856 1612 B7F92620 		ldrsh	r2, [r7, #38]
 2857 1616 F96A     		ldr	r1, [r7, #44]
 2858 1618 43F82210 		str	r1, [r3, r2, lsl #2]
1112:../src/lib/lpc177x_8x/Drivers/source/lpc177x_8x_can.c **** 
1113:../src/lib/lpc177x_8x/Drivers/source/lpc177x_8x_can.c ****                 buf0 = buf1;
 2859              		.loc 1 1113 0
 2860 161c BB6A     		ldr	r3, [r7, #40]
 2861 161e FB62     		str	r3, [r7, #44]
 2862              	.L157:
1105:../src/lib/lpc177x_8x/Drivers/source/lpc177x_8x_can.c ****             while(bound1--)
 2863              		.loc 1 1105 0 discriminator 1
 2864 1620 B7F92430 		ldrsh	r3, [r7, #36]
 2865 1624 002B     		cmp	r3, #0
 2866 1626 0CBF     		ite	eq
 2867 1628 0023     		moveq	r3, #0
 2868 162a 0123     		movne	r3, #1
 2869 162c DBB2     		uxtb	r3, r3
 2870 162e BA8C     		ldrh	r2, [r7, #36]	@ movhi
 2871 1630 02F1FF32 		add	r2, r2, #-1
 2872 1634 BA84     		strh	r2, [r7, #36]	@ movhi
 2873 1636 002B     		cmp	r3, #0
 2874 1638 E0D1     		bne	.L158
 2875              	.L147:
1114:../src/lib/lpc177x_8x/Drivers/source/lpc177x_8x_can.c ****             }
1115:../src/lib/lpc177x_8x/Drivers/source/lpc177x_8x_can.c ****         }
1116:../src/lib/lpc177x_8x/Drivers/source/lpc177x_8x_can.c **** 
1117:../src/lib/lpc177x_8x/Drivers/source/lpc177x_8x_can.c ****         CANAF_gstd_cnt++;
 2876              		.loc 1 1117 0
 2877 163a 134B     		ldr	r3, .L176+8
 2878 163c 1B88     		ldrh	r3, [r3, #0]
 2879 163e 03F10103 		add	r3, r3, #1
 2880 1642 9AB2     		uxth	r2, r3
 2881 1644 104B     		ldr	r3, .L176+8
 2882 1646 1A80     		strh	r2, [r3, #0]	@ movhi
1118:../src/lib/lpc177x_8x/Drivers/source/lpc177x_8x_can.c **** 
1119:../src/lib/lpc177x_8x/Drivers/source/lpc177x_8x_can.c ****         //update address values
1120:../src/lib/lpc177x_8x/Drivers/source/lpc177x_8x_can.c ****         LPC_CANAF->EFF_sa     +=0x04 ;
 2883              		.loc 1 1120 0
 2884 1648 124B     		ldr	r3, .L176+20
 2885 164a 124A     		ldr	r2, .L176+20
 2886 164c D268     		ldr	r2, [r2, #12]
 2887 164e 02F10402 		add	r2, r2, #4
 2888 1652 DA60     		str	r2, [r3, #12]
1121:../src/lib/lpc177x_8x/Drivers/source/lpc177x_8x_can.c **** 
1122:../src/lib/lpc177x_8x/Drivers/source/lpc177x_8x_can.c ****         LPC_CANAF->EFF_GRP_sa +=0x04;
 2889              		.loc 1 1122 0
 2890 1654 0F4B     		ldr	r3, .L176+20
 2891 1656 0F4A     		ldr	r2, .L176+20
 2892 1658 1269     		ldr	r2, [r2, #16]
 2893 165a 02F10402 		add	r2, r2, #4
 2894 165e 1A61     		str	r2, [r3, #16]
1123:../src/lib/lpc177x_8x/Drivers/source/lpc177x_8x_can.c **** 
1124:../src/lib/lpc177x_8x/Drivers/source/lpc177x_8x_can.c ****         LPC_CANAF->ENDofTable +=0x04;
 2895              		.loc 1 1124 0
 2896 1660 0C4B     		ldr	r3, .L176+20
 2897 1662 0C4A     		ldr	r2, .L176+20
 2898 1664 5269     		ldr	r2, [r2, #20]
 2899 1666 02F10402 		add	r2, r2, #4
 2900 166a 5A61     		str	r2, [r3, #20]
 2901 166c 4EE1     		b	.L159
 2902              	.L144:
1125:../src/lib/lpc177x_8x/Drivers/source/lpc177x_8x_can.c ****     }
1126:../src/lib/lpc177x_8x/Drivers/source/lpc177x_8x_can.c **** 
1127:../src/lib/lpc177x_8x/Drivers/source/lpc177x_8x_can.c **** 
1128:../src/lib/lpc177x_8x/Drivers/source/lpc177x_8x_can.c ****     /*********Add Group of Extended Identifier Frame Format************/
1129:../src/lib/lpc177x_8x/Drivers/source/lpc177x_8x_can.c ****     else
1130:../src/lib/lpc177x_8x/Drivers/source/lpc177x_8x_can.c ****     {
1131:../src/lib/lpc177x_8x/Drivers/source/lpc177x_8x_can.c ****         if ((total >= 511))
 2903              		.loc 1 1131 0
 2904 166e B7F92230 		ldrsh	r3, [r7, #34]
 2905 1672 B3F5FF7F 		cmp	r3, #510
 2906 1676 11DD     		ble	.L160
1132:../src/lib/lpc177x_8x/Drivers/source/lpc177x_8x_can.c ****         {
1133:../src/lib/lpc177x_8x/Drivers/source/lpc177x_8x_can.c ****             //don't have enough space
1134:../src/lib/lpc177x_8x/Drivers/source/lpc177x_8x_can.c ****             return CAN_OBJECTS_FULL_ERROR;
 2907              		.loc 1 1134 0
 2908 1678 4FF00203 		mov	r3, #2
 2909 167c 4CE1     		b	.L143
 2910              	.L177:
 2911 167e 00BF     		.align	2
 2912              	.L176:
 2913 1680 00000000 		.word	CANAF_FullCAN_cnt
 2914 1684 00000000 		.word	CANAF_std_cnt
 2915 1688 00000000 		.word	CANAF_gstd_cnt
 2916 168c 00000000 		.word	CANAF_ext_cnt
 2917 1690 00000000 		.word	CANAF_gext_cnt
 2918 1694 00C00340 		.word	1073987584
 2919 1698 00800340 		.word	1073971200
 2920              	.L160:
1135:../src/lib/lpc177x_8x/Drivers/source/lpc177x_8x_can.c ****         }
1136:../src/lib/lpc177x_8x/Drivers/source/lpc177x_8x_can.c **** 
1137:../src/lib/lpc177x_8x/Drivers/source/lpc177x_8x_can.c ****         lowerID  &= 0x1FFFFFFF; //mask ID
 2921              		.loc 1 1137 0
 2922 169c BB68     		ldr	r3, [r7, #8]
 2923 169e 23F06043 		bic	r3, r3, #-536870912
 2924 16a2 BB60     		str	r3, [r7, #8]
1138:../src/lib/lpc177x_8x/Drivers/source/lpc177x_8x_can.c **** 
1139:../src/lib/lpc177x_8x/Drivers/source/lpc177x_8x_can.c ****         upperID &= 0x1FFFFFFF;
 2925              		.loc 1 1139 0
 2926 16a4 7B68     		ldr	r3, [r7, #4]
 2927 16a6 23F06043 		bic	r3, r3, #-536870912
 2928 16aa 7B60     		str	r3, [r7, #4]
1140:../src/lib/lpc177x_8x/Drivers/source/lpc177x_8x_can.c **** 
1141:../src/lib/lpc177x_8x/Drivers/source/lpc177x_8x_can.c ****         entry1   = (canId << 29)|(lowerID << 0);
 2929              		.loc 1 1141 0
 2930 16ac FB7B     		ldrb	r3, [r7, #15]	@ zero_extendqisi2
 2931 16ae 4FEA4373 		lsl	r3, r3, #29
 2932 16b2 1A46     		mov	r2, r3
 2933 16b4 BB68     		ldr	r3, [r7, #8]
 2934 16b6 1343     		orrs	r3, r3, r2
 2935 16b8 FB61     		str	r3, [r7, #28]
1142:../src/lib/lpc177x_8x/Drivers/source/lpc177x_8x_can.c **** 
1143:../src/lib/lpc177x_8x/Drivers/source/lpc177x_8x_can.c ****         entry2   = (canId << 29)|(upperID << 0);
 2936              		.loc 1 1143 0
 2937 16ba FB7B     		ldrb	r3, [r7, #15]	@ zero_extendqisi2
 2938 16bc 4FEA4373 		lsl	r3, r3, #29
 2939 16c0 1A46     		mov	r2, r3
 2940 16c2 7B68     		ldr	r3, [r7, #4]
 2941 16c4 1343     		orrs	r3, r3, r2
 2942 16c6 3B61     		str	r3, [r7, #16]
1144:../src/lib/lpc177x_8x/Drivers/source/lpc177x_8x_can.c **** 
1145:../src/lib/lpc177x_8x/Drivers/source/lpc177x_8x_can.c ****         cnt1 = ((CANAF_FullCAN_cnt+1)>>1) + ((CANAF_std_cnt + 1) >> 1) + CANAF_gstd_cnt + CANAF_ext
 2943              		.loc 1 1145 0
 2944 16c8 964B     		ldr	r3, .L178
 2945 16ca 1B88     		ldrh	r3, [r3, #0]
 2946 16cc 03F10103 		add	r3, r3, #1
 2947 16d0 4FEA6303 		asr	r3, r3, #1
 2948 16d4 9AB2     		uxth	r2, r3
 2949 16d6 944B     		ldr	r3, .L178+4
 2950 16d8 1B88     		ldrh	r3, [r3, #0]
 2951 16da 03F10103 		add	r3, r3, #1
 2952 16de 4FEA6303 		asr	r3, r3, #1
 2953 16e2 9BB2     		uxth	r3, r3
 2954 16e4 D318     		adds	r3, r2, r3
 2955 16e6 9AB2     		uxth	r2, r3
 2956 16e8 904B     		ldr	r3, .L178+8
 2957 16ea 1B88     		ldrh	r3, [r3, #0]
 2958 16ec D318     		adds	r3, r2, r3
 2959 16ee 9AB2     		uxth	r2, r3
 2960 16f0 8F4B     		ldr	r3, .L178+12
 2961 16f2 1B88     		ldrh	r3, [r3, #0]
 2962 16f4 D318     		adds	r3, r2, r3
 2963 16f6 9BB2     		uxth	r3, r3
 2964 16f8 FB84     		strh	r3, [r7, #38]	@ movhi
1146:../src/lib/lpc177x_8x/Drivers/source/lpc177x_8x_can.c **** 
1147:../src/lib/lpc177x_8x/Drivers/source/lpc177x_8x_can.c ****         //if this is the first Group standard ID entry
1148:../src/lib/lpc177x_8x/Drivers/source/lpc177x_8x_can.c ****         if(CANAF_gext_cnt == 0)
 2965              		.loc 1 1148 0
 2966 16fa 8E4B     		ldr	r3, .L178+16
 2967 16fc 1B88     		ldrh	r3, [r3, #0]
 2968 16fe 002B     		cmp	r3, #0
 2969 1700 0ED1     		bne	.L161
1149:../src/lib/lpc177x_8x/Drivers/source/lpc177x_8x_can.c ****         {
1150:../src/lib/lpc177x_8x/Drivers/source/lpc177x_8x_can.c ****             LPC_CANAF_RAM->mask[cnt1] = entry1;
 2970              		.loc 1 1150 0
 2971 1702 8D4B     		ldr	r3, .L178+20
 2972 1704 B7F92620 		ldrsh	r2, [r7, #38]
 2973 1708 F969     		ldr	r1, [r7, #28]
 2974 170a 43F82210 		str	r1, [r3, r2, lsl #2]
1151:../src/lib/lpc177x_8x/Drivers/source/lpc177x_8x_can.c **** 
1152:../src/lib/lpc177x_8x/Drivers/source/lpc177x_8x_can.c ****             LPC_CANAF_RAM->mask[cnt1+1] = entry2;
 2975              		.loc 1 1152 0
 2976 170e 8A4B     		ldr	r3, .L178+20
 2977 1710 B7F92620 		ldrsh	r2, [r7, #38]
 2978 1714 02F10102 		add	r2, r2, #1
 2979 1718 3969     		ldr	r1, [r7, #16]
 2980 171a 43F82210 		str	r1, [r3, r2, lsl #2]
 2981 171e E8E0     		b	.L162
 2982              	.L161:
1153:../src/lib/lpc177x_8x/Drivers/source/lpc177x_8x_can.c ****         }
1154:../src/lib/lpc177x_8x/Drivers/source/lpc177x_8x_can.c ****         else
1155:../src/lib/lpc177x_8x/Drivers/source/lpc177x_8x_can.c ****         {
1156:../src/lib/lpc177x_8x/Drivers/source/lpc177x_8x_can.c ****             //find the position to add new Group entry
1157:../src/lib/lpc177x_8x/Drivers/source/lpc177x_8x_can.c ****             bound1 = ((CANAF_FullCAN_cnt+1)>>1) + ((CANAF_std_cnt + 1) >> 1) + CANAF_gstd_cnt \
 2983              		.loc 1 1157 0
 2984 1720 804B     		ldr	r3, .L178
 2985 1722 1B88     		ldrh	r3, [r3, #0]
 2986 1724 03F10103 		add	r3, r3, #1
 2987 1728 4FEA6303 		asr	r3, r3, #1
 2988 172c 9AB2     		uxth	r2, r3
 2989 172e 7E4B     		ldr	r3, .L178+4
 2990 1730 1B88     		ldrh	r3, [r3, #0]
 2991 1732 03F10103 		add	r3, r3, #1
 2992 1736 4FEA6303 		asr	r3, r3, #1
 2993 173a 9BB2     		uxth	r3, r3
 2994 173c D318     		adds	r3, r2, r3
 2995 173e 9AB2     		uxth	r2, r3
 2996 1740 7A4B     		ldr	r3, .L178+8
 2997 1742 1B88     		ldrh	r3, [r3, #0]
 2998 1744 D318     		adds	r3, r2, r3
 2999 1746 9AB2     		uxth	r2, r3
 3000 1748 794B     		ldr	r3, .L178+12
 3001 174a 1B88     		ldrh	r3, [r3, #0]
 3002 174c D318     		adds	r3, r2, r3
 3003 174e 9AB2     		uxth	r2, r3
 3004 1750 784B     		ldr	r3, .L178+16
 3005 1752 1B88     		ldrh	r3, [r3, #0]
 3006 1754 4FEA4303 		lsl	r3, r3, #1
 3007 1758 9BB2     		uxth	r3, r3
 3008 175a D318     		adds	r3, r2, r3
 3009 175c 9BB2     		uxth	r3, r3
 3010 175e BB84     		strh	r3, [r7, #36]	@ movhi
1158:../src/lib/lpc177x_8x/Drivers/source/lpc177x_8x_can.c ****                         + CANAF_ext_cnt + (CANAF_gext_cnt<<1);
1159:../src/lib/lpc177x_8x/Drivers/source/lpc177x_8x_can.c **** 
1160:../src/lib/lpc177x_8x/Drivers/source/lpc177x_8x_can.c ****             while(cnt1 < bound1)
 3011              		.loc 1 1160 0
 3012 1760 62E0     		b	.L163
 3013              	.L165:
1161:../src/lib/lpc177x_8x/Drivers/source/lpc177x_8x_can.c ****             {
1162:../src/lib/lpc177x_8x/Drivers/source/lpc177x_8x_can.c ****                 while((LPC_CANAF_RAM->mask[cnt1] >>29)< canId) //increase until meet greater or equ
1163:../src/lib/lpc177x_8x/Drivers/source/lpc177x_8x_can.c ****                     cnt1++;
 3014              		.loc 1 1163 0
 3015 1762 FB8C     		ldrh	r3, [r7, #38]	@ movhi
 3016 1764 03F10103 		add	r3, r3, #1
 3017 1768 FB84     		strh	r3, [r7, #38]	@ movhi
 3018 176a 00E0     		b	.L164
 3019              	.L175:
1162:../src/lib/lpc177x_8x/Drivers/source/lpc177x_8x_can.c ****                 while((LPC_CANAF_RAM->mask[cnt1] >>29)< canId) //increase until meet greater or equ
 3020              		.loc 1 1162 0
 3021 176c 00BF     		nop
 3022              	.L164:
1162:../src/lib/lpc177x_8x/Drivers/source/lpc177x_8x_can.c ****                 while((LPC_CANAF_RAM->mask[cnt1] >>29)< canId) //increase until meet greater or equ
 3023              		.loc 1 1162 0 is_stmt 0 discriminator 1
 3024 176e 724B     		ldr	r3, .L178+20
 3025 1770 B7F92620 		ldrsh	r2, [r7, #38]
 3026 1774 53F82230 		ldr	r3, [r3, r2, lsl #2]
 3027 1778 4FEA5372 		lsr	r2, r3, #29
 3028 177c FB7B     		ldrb	r3, [r7, #15]	@ zero_extendqisi2
 3029 177e 9A42     		cmp	r2, r3
 3030 1780 EFD3     		bcc	.L165
1164:../src/lib/lpc177x_8x/Drivers/source/lpc177x_8x_can.c ****                 buf0 = LPC_CANAF_RAM->mask[cnt1];
 3031              		.loc 1 1164 0 is_stmt 1
 3032 1782 6D4B     		ldr	r3, .L178+20
 3033 1784 B7F92620 		ldrsh	r2, [r7, #38]
 3034 1788 53F82230 		ldr	r3, [r3, r2, lsl #2]
 3035 178c FB62     		str	r3, [r7, #44]
1165:../src/lib/lpc177x_8x/Drivers/source/lpc177x_8x_can.c **** 
1166:../src/lib/lpc177x_8x/Drivers/source/lpc177x_8x_can.c ****                 buf1 = LPC_CANAF_RAM->mask[cnt1+1];
 3036              		.loc 1 1166 0
 3037 178e 6A4B     		ldr	r3, .L178+20
 3038 1790 B7F92620 		ldrsh	r2, [r7, #38]
 3039 1794 02F10102 		add	r2, r2, #1
 3040 1798 53F82230 		ldr	r3, [r3, r2, lsl #2]
 3041 179c BB62     		str	r3, [r7, #40]
1167:../src/lib/lpc177x_8x/Drivers/source/lpc177x_8x_can.c ****                 if((LPC_CANAF_RAM->mask[cnt1] >> 29)> canId) //meet greater controller
 3042              		.loc 1 1167 0
 3043 179e 664B     		ldr	r3, .L178+20
 3044 17a0 B7F92620 		ldrsh	r2, [r7, #38]
 3045 17a4 53F82230 		ldr	r3, [r3, r2, lsl #2]
 3046 17a8 4FEA5372 		lsr	r2, r3, #29
 3047 17ac FB7B     		ldrb	r3, [r7, #15]	@ zero_extendqisi2
 3048 17ae 9A42     		cmp	r2, r3
 3049 17b0 10D9     		bls	.L166
1168:../src/lib/lpc177x_8x/Drivers/source/lpc177x_8x_can.c ****                 {
1169:../src/lib/lpc177x_8x/Drivers/source/lpc177x_8x_can.c ****                     //add at this position
1170:../src/lib/lpc177x_8x/Drivers/source/lpc177x_8x_can.c ****                     LPC_CANAF_RAM->mask[cnt1] = entry1;
 3050              		.loc 1 1170 0
 3051 17b2 614B     		ldr	r3, .L178+20
 3052 17b4 B7F92620 		ldrsh	r2, [r7, #38]
 3053 17b8 F969     		ldr	r1, [r7, #28]
 3054 17ba 43F82210 		str	r1, [r3, r2, lsl #2]
1171:../src/lib/lpc177x_8x/Drivers/source/lpc177x_8x_can.c ****                     LPC_CANAF_RAM->mask[++cnt1] = entry2;
 3055              		.loc 1 1171 0
 3056 17be 5E4B     		ldr	r3, .L178+20
 3057 17c0 FA8C     		ldrh	r2, [r7, #38]	@ movhi
 3058 17c2 02F10102 		add	r2, r2, #1
 3059 17c6 FA84     		strh	r2, [r7, #38]	@ movhi
 3060 17c8 B7F92620 		ldrsh	r2, [r7, #38]
 3061 17cc 3969     		ldr	r1, [r7, #16]
 3062 17ce 43F82210 		str	r1, [r3, r2, lsl #2]
1172:../src/lib/lpc177x_8x/Drivers/source/lpc177x_8x_can.c ****                     break;
 3063              		.loc 1 1172 0
 3064 17d2 2FE0     		b	.L167
 3065              	.L166:
1173:../src/lib/lpc177x_8x/Drivers/source/lpc177x_8x_can.c ****                 }
1174:../src/lib/lpc177x_8x/Drivers/source/lpc177x_8x_can.c ****                 else //meet equal controller
1175:../src/lib/lpc177x_8x/Drivers/source/lpc177x_8x_can.c ****                 {
1176:../src/lib/lpc177x_8x/Drivers/source/lpc177x_8x_can.c ****                     LID  = buf0 & 0x1FFFFFFF; //mask ID
 3066              		.loc 1 1176 0
 3067 17d4 FB6A     		ldr	r3, [r7, #44]
 3068 17d6 23F06043 		bic	r3, r3, #-536870912
 3069 17da BB61     		str	r3, [r7, #24]
1177:../src/lib/lpc177x_8x/Drivers/source/lpc177x_8x_can.c ****                     UID  = buf1 & 0x1FFFFFFF;
 3070              		.loc 1 1177 0
 3071 17dc BB6A     		ldr	r3, [r7, #40]
 3072 17de 23F06043 		bic	r3, r3, #-536870912
 3073 17e2 7B61     		str	r3, [r7, #20]
1178:../src/lib/lpc177x_8x/Drivers/source/lpc177x_8x_can.c ****                     if (upperID <= LID)
 3074              		.loc 1 1178 0
 3075 17e4 7A68     		ldr	r2, [r7, #4]
 3076 17e6 BB69     		ldr	r3, [r7, #24]
 3077 17e8 9A42     		cmp	r2, r3
 3078 17ea 10D8     		bhi	.L168
1179:../src/lib/lpc177x_8x/Drivers/source/lpc177x_8x_can.c ****                     {
1180:../src/lib/lpc177x_8x/Drivers/source/lpc177x_8x_can.c ****                         //add new entry before this entry
1181:../src/lib/lpc177x_8x/Drivers/source/lpc177x_8x_can.c ****                         LPC_CANAF_RAM->mask[cnt1] = entry1;
 3079              		.loc 1 1181 0
 3080 17ec 524B     		ldr	r3, .L178+20
 3081 17ee B7F92620 		ldrsh	r2, [r7, #38]
 3082 17f2 F969     		ldr	r1, [r7, #28]
 3083 17f4 43F82210 		str	r1, [r3, r2, lsl #2]
1182:../src/lib/lpc177x_8x/Drivers/source/lpc177x_8x_can.c ****                         LPC_CANAF_RAM->mask[++cnt1] = entry2;
 3084              		.loc 1 1182 0
 3085 17f8 4F4B     		ldr	r3, .L178+20
 3086 17fa FA8C     		ldrh	r2, [r7, #38]	@ movhi
 3087 17fc 02F10102 		add	r2, r2, #1
 3088 1800 FA84     		strh	r2, [r7, #38]	@ movhi
 3089 1802 B7F92620 		ldrsh	r2, [r7, #38]
 3090 1806 3969     		ldr	r1, [r7, #16]
 3091 1808 43F82210 		str	r1, [r3, r2, lsl #2]
1183:../src/lib/lpc177x_8x/Drivers/source/lpc177x_8x_can.c ****                         break;
 3092              		.loc 1 1183 0
 3093 180c 12E0     		b	.L167
 3094              	.L168:
1184:../src/lib/lpc177x_8x/Drivers/source/lpc177x_8x_can.c ****                     }
1185:../src/lib/lpc177x_8x/Drivers/source/lpc177x_8x_can.c ****                     else if (lowerID >= UID)
 3095              		.loc 1 1185 0
 3096 180e BA68     		ldr	r2, [r7, #8]
 3097 1810 7B69     		ldr	r3, [r7, #20]
 3098 1812 9A42     		cmp	r2, r3
 3099 1814 05D3     		bcc	.L169
1186:../src/lib/lpc177x_8x/Drivers/source/lpc177x_8x_can.c ****                     {
1187:../src/lib/lpc177x_8x/Drivers/source/lpc177x_8x_can.c ****                         //load next entry to compare
1188:../src/lib/lpc177x_8x/Drivers/source/lpc177x_8x_can.c ****                         cnt1 +=2;
 3100              		.loc 1 1188 0
 3101 1816 FB8C     		ldrh	r3, [r7, #38]
 3102 1818 03F10203 		add	r3, r3, #2
 3103 181c 9BB2     		uxth	r3, r3
 3104 181e FB84     		strh	r3, [r7, #38]	@ movhi
 3105 1820 02E0     		b	.L163
 3106              	.L169:
1189:../src/lib/lpc177x_8x/Drivers/source/lpc177x_8x_can.c ****                     }
1190:../src/lib/lpc177x_8x/Drivers/source/lpc177x_8x_can.c ****                     else
1191:../src/lib/lpc177x_8x/Drivers/source/lpc177x_8x_can.c ****                         return CAN_CONFLICT_ID_ERROR;
 3107              		.loc 1 1191 0
 3108 1822 4FF00603 		mov	r3, #6
 3109 1826 77E0     		b	.L143
 3110              	.L163:
1160:../src/lib/lpc177x_8x/Drivers/source/lpc177x_8x_can.c ****             while(cnt1 < bound1)
 3111              		.loc 1 1160 0 discriminator 1
 3112 1828 B7F92620 		ldrsh	r2, [r7, #38]
 3113 182c B7F92430 		ldrsh	r3, [r7, #36]
 3114 1830 9A42     		cmp	r2, r3
 3115 1832 9BDB     		blt	.L175
 3116              	.L167:
1192:../src/lib/lpc177x_8x/Drivers/source/lpc177x_8x_can.c ****                 }
1193:../src/lib/lpc177x_8x/Drivers/source/lpc177x_8x_can.c ****             }
1194:../src/lib/lpc177x_8x/Drivers/source/lpc177x_8x_can.c ****             if(cnt1 >= bound1)
 3117              		.loc 1 1194 0
 3118 1834 B7F92620 		ldrsh	r2, [r7, #38]
 3119 1838 B7F92430 		ldrsh	r3, [r7, #36]
 3120 183c 9A42     		cmp	r2, r3
 3121 183e 1DDB     		blt	.L171
1195:../src/lib/lpc177x_8x/Drivers/source/lpc177x_8x_can.c ****             {
1196:../src/lib/lpc177x_8x/Drivers/source/lpc177x_8x_can.c ****                 //add new entry at the last position in this list
1197:../src/lib/lpc177x_8x/Drivers/source/lpc177x_8x_can.c ****                 buf0 = LPC_CANAF_RAM->mask[cnt1];
 3122              		.loc 1 1197 0
 3123 1840 3D4B     		ldr	r3, .L178+20
 3124 1842 B7F92620 		ldrsh	r2, [r7, #38]
 3125 1846 53F82230 		ldr	r3, [r3, r2, lsl #2]
 3126 184a FB62     		str	r3, [r7, #44]
1198:../src/lib/lpc177x_8x/Drivers/source/lpc177x_8x_can.c **** 
1199:../src/lib/lpc177x_8x/Drivers/source/lpc177x_8x_can.c ****                 buf1 = LPC_CANAF_RAM->mask[cnt1+1];
 3127              		.loc 1 1199 0
 3128 184c 3A4B     		ldr	r3, .L178+20
 3129 184e B7F92620 		ldrsh	r2, [r7, #38]
 3130 1852 02F10102 		add	r2, r2, #1
 3131 1856 53F82230 		ldr	r3, [r3, r2, lsl #2]
 3132 185a BB62     		str	r3, [r7, #40]
1200:../src/lib/lpc177x_8x/Drivers/source/lpc177x_8x_can.c **** 
1201:../src/lib/lpc177x_8x/Drivers/source/lpc177x_8x_can.c ****                 LPC_CANAF_RAM->mask[cnt1]   = entry1;
 3133              		.loc 1 1201 0
 3134 185c 364B     		ldr	r3, .L178+20
 3135 185e B7F92620 		ldrsh	r2, [r7, #38]
 3136 1862 F969     		ldr	r1, [r7, #28]
 3137 1864 43F82210 		str	r1, [r3, r2, lsl #2]
1202:../src/lib/lpc177x_8x/Drivers/source/lpc177x_8x_can.c **** 
1203:../src/lib/lpc177x_8x/Drivers/source/lpc177x_8x_can.c ****                 LPC_CANAF_RAM->mask[++cnt1] = entry2;
 3138              		.loc 1 1203 0
 3139 1868 334B     		ldr	r3, .L178+20
 3140 186a FA8C     		ldrh	r2, [r7, #38]	@ movhi
 3141 186c 02F10102 		add	r2, r2, #1
 3142 1870 FA84     		strh	r2, [r7, #38]	@ movhi
 3143 1872 B7F92620 		ldrsh	r2, [r7, #38]
 3144 1876 3969     		ldr	r1, [r7, #16]
 3145 1878 43F82210 		str	r1, [r3, r2, lsl #2]
 3146              	.L171:
1204:../src/lib/lpc177x_8x/Drivers/source/lpc177x_8x_can.c ****             }
1205:../src/lib/lpc177x_8x/Drivers/source/lpc177x_8x_can.c **** 
1206:../src/lib/lpc177x_8x/Drivers/source/lpc177x_8x_can.c ****             //remove all remaining entry of this section two place up
1207:../src/lib/lpc177x_8x/Drivers/source/lpc177x_8x_can.c ****             bound1 = total - cnt1 + 1;
 3147              		.loc 1 1207 0
 3148 187c 7A8C     		ldrh	r2, [r7, #34]
 3149 187e FB8C     		ldrh	r3, [r7, #38]
 3150 1880 D31A     		subs	r3, r2, r3
 3151 1882 9BB2     		uxth	r3, r3
 3152 1884 03F10103 		add	r3, r3, #1
 3153 1888 9BB2     		uxth	r3, r3
 3154 188a BB84     		strh	r3, [r7, #36]	@ movhi
1208:../src/lib/lpc177x_8x/Drivers/source/lpc177x_8x_can.c **** 
1209:../src/lib/lpc177x_8x/Drivers/source/lpc177x_8x_can.c ****             cnt1++;
 3155              		.loc 1 1209 0
 3156 188c FB8C     		ldrh	r3, [r7, #38]	@ movhi
 3157 188e 03F10103 		add	r3, r3, #1
 3158 1892 FB84     		strh	r3, [r7, #38]	@ movhi
1210:../src/lib/lpc177x_8x/Drivers/source/lpc177x_8x_can.c **** 
1211:../src/lib/lpc177x_8x/Drivers/source/lpc177x_8x_can.c ****             while(bound1>0)
 3159              		.loc 1 1211 0
 3160 1894 29E0     		b	.L172
 3161              	.L173:
1212:../src/lib/lpc177x_8x/Drivers/source/lpc177x_8x_can.c ****             {
1213:../src/lib/lpc177x_8x/Drivers/source/lpc177x_8x_can.c ****                 entry1 = LPC_CANAF_RAM->mask[cnt1];
 3162              		.loc 1 1213 0
 3163 1896 284B     		ldr	r3, .L178+20
 3164 1898 B7F92620 		ldrsh	r2, [r7, #38]
 3165 189c 53F82230 		ldr	r3, [r3, r2, lsl #2]
 3166 18a0 FB61     		str	r3, [r7, #28]
1214:../src/lib/lpc177x_8x/Drivers/source/lpc177x_8x_can.c **** 
1215:../src/lib/lpc177x_8x/Drivers/source/lpc177x_8x_can.c ****                 entry2 = LPC_CANAF_RAM->mask[cnt1+1];
 3167              		.loc 1 1215 0
 3168 18a2 254B     		ldr	r3, .L178+20
 3169 18a4 B7F92620 		ldrsh	r2, [r7, #38]
 3170 18a8 02F10102 		add	r2, r2, #1
 3171 18ac 53F82230 		ldr	r3, [r3, r2, lsl #2]
 3172 18b0 3B61     		str	r3, [r7, #16]
1216:../src/lib/lpc177x_8x/Drivers/source/lpc177x_8x_can.c **** 
1217:../src/lib/lpc177x_8x/Drivers/source/lpc177x_8x_can.c ****                 LPC_CANAF_RAM->mask[cnt1]   = buf0;
 3173              		.loc 1 1217 0
 3174 18b2 214B     		ldr	r3, .L178+20
 3175 18b4 B7F92620 		ldrsh	r2, [r7, #38]
 3176 18b8 F96A     		ldr	r1, [r7, #44]
 3177 18ba 43F82210 		str	r1, [r3, r2, lsl #2]
1218:../src/lib/lpc177x_8x/Drivers/source/lpc177x_8x_can.c **** 
1219:../src/lib/lpc177x_8x/Drivers/source/lpc177x_8x_can.c ****                 LPC_CANAF_RAM->mask[cnt1+1] = buf1;
 3178              		.loc 1 1219 0
 3179 18be 1E4B     		ldr	r3, .L178+20
 3180 18c0 B7F92620 		ldrsh	r2, [r7, #38]
 3181 18c4 02F10102 		add	r2, r2, #1
 3182 18c8 B96A     		ldr	r1, [r7, #40]
 3183 18ca 43F82210 		str	r1, [r3, r2, lsl #2]
1220:../src/lib/lpc177x_8x/Drivers/source/lpc177x_8x_can.c **** 
1221:../src/lib/lpc177x_8x/Drivers/source/lpc177x_8x_can.c ****                 buf0 = entry1;
 3184              		.loc 1 1221 0
 3185 18ce FB69     		ldr	r3, [r7, #28]
 3186 18d0 FB62     		str	r3, [r7, #44]
1222:../src/lib/lpc177x_8x/Drivers/source/lpc177x_8x_can.c **** 
1223:../src/lib/lpc177x_8x/Drivers/source/lpc177x_8x_can.c ****                 buf1 = entry2;
 3187              		.loc 1 1223 0
 3188 18d2 3B69     		ldr	r3, [r7, #16]
 3189 18d4 BB62     		str	r3, [r7, #40]
1224:../src/lib/lpc177x_8x/Drivers/source/lpc177x_8x_can.c **** 
1225:../src/lib/lpc177x_8x/Drivers/source/lpc177x_8x_can.c ****                 cnt1   +=2;
 3190              		.loc 1 1225 0
 3191 18d6 FB8C     		ldrh	r3, [r7, #38]
 3192 18d8 03F10203 		add	r3, r3, #2
 3193 18dc 9BB2     		uxth	r3, r3
 3194 18de FB84     		strh	r3, [r7, #38]	@ movhi
1226:../src/lib/lpc177x_8x/Drivers/source/lpc177x_8x_can.c **** 
1227:../src/lib/lpc177x_8x/Drivers/source/lpc177x_8x_can.c ****                 bound1 -=2;
 3195              		.loc 1 1227 0
 3196 18e0 BB8C     		ldrh	r3, [r7, #36]
 3197 18e2 A3F10203 		sub	r3, r3, #2
 3198 18e6 9BB2     		uxth	r3, r3
 3199 18e8 BB84     		strh	r3, [r7, #36]	@ movhi
 3200              	.L172:
1211:../src/lib/lpc177x_8x/Drivers/source/lpc177x_8x_can.c ****             while(bound1>0)
 3201              		.loc 1 1211 0 discriminator 1
 3202 18ea B7F92430 		ldrsh	r3, [r7, #36]
 3203 18ee 002B     		cmp	r3, #0
 3204 18f0 D1DC     		bgt	.L173
 3205              	.L162:
1228:../src/lib/lpc177x_8x/Drivers/source/lpc177x_8x_can.c ****             }
1229:../src/lib/lpc177x_8x/Drivers/source/lpc177x_8x_can.c ****         }
1230:../src/lib/lpc177x_8x/Drivers/source/lpc177x_8x_can.c **** 
1231:../src/lib/lpc177x_8x/Drivers/source/lpc177x_8x_can.c ****         CANAF_gext_cnt++;
 3206              		.loc 1 1231 0
 3207 18f2 104B     		ldr	r3, .L178+16
 3208 18f4 1B88     		ldrh	r3, [r3, #0]
 3209 18f6 03F10103 		add	r3, r3, #1
 3210 18fa 9AB2     		uxth	r2, r3
 3211 18fc 0D4B     		ldr	r3, .L178+16
 3212 18fe 1A80     		strh	r2, [r3, #0]	@ movhi
1232:../src/lib/lpc177x_8x/Drivers/source/lpc177x_8x_can.c **** 
1233:../src/lib/lpc177x_8x/Drivers/source/lpc177x_8x_can.c ****         //update address values
1234:../src/lib/lpc177x_8x/Drivers/source/lpc177x_8x_can.c ****         LPC_CANAF->ENDofTable +=0x08;
 3213              		.loc 1 1234 0
 3214 1900 0E4B     		ldr	r3, .L178+24
 3215 1902 0E4A     		ldr	r2, .L178+24
 3216 1904 5269     		ldr	r2, [r2, #20]
 3217 1906 02F10802 		add	r2, r2, #8
 3218 190a 5A61     		str	r2, [r3, #20]
 3219              	.L159:
1235:../src/lib/lpc177x_8x/Drivers/source/lpc177x_8x_can.c ****     }
1236:../src/lib/lpc177x_8x/Drivers/source/lpc177x_8x_can.c **** 
1237:../src/lib/lpc177x_8x/Drivers/source/lpc177x_8x_can.c ****     LPC_CANAF->AFMR = 0x04;
 3220              		.loc 1 1237 0
 3221 190c 0B4B     		ldr	r3, .L178+24
 3222 190e 4FF00402 		mov	r2, #4
 3223 1912 1A60     		str	r2, [r3, #0]
1238:../src/lib/lpc177x_8x/Drivers/source/lpc177x_8x_can.c **** 
1239:../src/lib/lpc177x_8x/Drivers/source/lpc177x_8x_can.c ****     return CAN_OK;
 3224              		.loc 1 1239 0
 3225 1914 4FF00103 		mov	r3, #1
 3226              	.L143:
1240:../src/lib/lpc177x_8x/Drivers/source/lpc177x_8x_can.c **** }
 3227              		.loc 1 1240 0
 3228 1918 1846     		mov	r0, r3
 3229 191a 07F13407 		add	r7, r7, #52
 3230 191e BD46     		mov	sp, r7
 3231 1920 80BC     		pop	{r7}
 3232 1922 7047     		bx	lr
 3233              	.L179:
 3234              		.align	2
 3235              	.L178:
 3236 1924 00000000 		.word	CANAF_FullCAN_cnt
 3237 1928 00000000 		.word	CANAF_std_cnt
 3238 192c 00000000 		.word	CANAF_gstd_cnt
 3239 1930 00000000 		.word	CANAF_ext_cnt
 3240 1934 00000000 		.word	CANAF_gext_cnt
 3241 1938 00800340 		.word	1073971200
 3242 193c 00C00340 		.word	1073987584
 3243              		.cfi_endproc
 3244              	.LFE62:
 3246              		.align	2
 3247              		.global	CAN_RemoveEntry
 3248              		.thumb
 3249              		.thumb_func
 3251              	CAN_RemoveEntry:
 3252              	.LFB63:
1241:../src/lib/lpc177x_8x/Drivers/source/lpc177x_8x_can.c **** 
1242:../src/lib/lpc177x_8x/Drivers/source/lpc177x_8x_can.c **** /********************************************************************//**
1243:../src/lib/lpc177x_8x/Drivers/source/lpc177x_8x_can.c ****  * @brief       Remove AFLUT entry (FullCAN entry and Explicit Standard entry)
1244:../src/lib/lpc177x_8x/Drivers/source/lpc177x_8x_can.c ****  * @param[in]   EntryType: the type of entry that want to remove, should be:
1245:../src/lib/lpc177x_8x/Drivers/source/lpc177x_8x_can.c ****  *              - FULLCAN_ENTRY
1246:../src/lib/lpc177x_8x/Drivers/source/lpc177x_8x_can.c ****  *              - EXPLICIT_STANDARD_ENTRY
1247:../src/lib/lpc177x_8x/Drivers/source/lpc177x_8x_can.c ****  *              - GROUP_STANDARD_ENTRY
1248:../src/lib/lpc177x_8x/Drivers/source/lpc177x_8x_can.c ****  *              - EXPLICIT_EXTEND_ENTRY
1249:../src/lib/lpc177x_8x/Drivers/source/lpc177x_8x_can.c ****  *              - GROUP_EXTEND_ENTRY
1250:../src/lib/lpc177x_8x/Drivers/source/lpc177x_8x_can.c ****  * @param[in]   position: the position of this entry in its section
1251:../src/lib/lpc177x_8x/Drivers/source/lpc177x_8x_can.c ****  * Note: the first position is 0
1252:../src/lib/lpc177x_8x/Drivers/source/lpc177x_8x_can.c ****  * @return      CAN_ERROR, could be:
1253:../src/lib/lpc177x_8x/Drivers/source/lpc177x_8x_can.c ****  *              - CAN_OK: removing is successful
1254:../src/lib/lpc177x_8x/Drivers/source/lpc177x_8x_can.c ****  *              - CAN_ENTRY_NOT_EXIT_ERROR: entry want to remove is not exit
1255:../src/lib/lpc177x_8x/Drivers/source/lpc177x_8x_can.c ****  *********************************************************************/
1256:../src/lib/lpc177x_8x/Drivers/source/lpc177x_8x_can.c **** CAN_ERROR CAN_RemoveEntry(AFLUT_ENTRY_Type EntryType, uint16_t position)
1257:../src/lib/lpc177x_8x/Drivers/source/lpc177x_8x_can.c **** {
 3253              		.loc 1 1257 0
 3254              		.cfi_startproc
 3255              		@ args = 0, pretend = 0, frame = 24
 3256              		@ frame_needed = 1, uses_anonymous_args = 0
 3257              		@ link register save eliminated.
 3258 1940 80B4     		push	{r7}
 3259              	.LCFI24:
 3260              		.cfi_def_cfa_offset 4
 3261              		.cfi_offset 7, -4
 3262 1942 87B0     		sub	sp, sp, #28
 3263              	.LCFI25:
 3264              		.cfi_def_cfa_offset 32
 3265 1944 00AF     		add	r7, sp, #0
 3266              	.LCFI26:
 3267              		.cfi_def_cfa_register 7
 3268 1946 0246     		mov	r2, r0
 3269 1948 0B46     		mov	r3, r1
 3270 194a FA71     		strb	r2, [r7, #7]
 3271 194c BB80     		strh	r3, [r7, #4]	@ movhi
1258:../src/lib/lpc177x_8x/Drivers/source/lpc177x_8x_can.c ****     uint16_t cnt, bound, total;
1259:../src/lib/lpc177x_8x/Drivers/source/lpc177x_8x_can.c ****     uint32_t buf0, buf1;
1260:../src/lib/lpc177x_8x/Drivers/source/lpc177x_8x_can.c **** 
1261:../src/lib/lpc177x_8x/Drivers/source/lpc177x_8x_can.c ****     /* Setup Acceptance Filter Configuration
1262:../src/lib/lpc177x_8x/Drivers/source/lpc177x_8x_can.c ****     Acceptance Filter Mode Register = Off */
1263:../src/lib/lpc177x_8x/Drivers/source/lpc177x_8x_can.c ****     LPC_CANAF->AFMR = 0x00000001;
 3272              		.loc 1 1263 0
 3273 194e 994B     		ldr	r3, .L229
 3274 1950 4FF00102 		mov	r2, #1
 3275 1954 1A60     		str	r2, [r3, #0]
1264:../src/lib/lpc177x_8x/Drivers/source/lpc177x_8x_can.c **** 
1265:../src/lib/lpc177x_8x/Drivers/source/lpc177x_8x_can.c ****     total = ((CANAF_FullCAN_cnt + 1) >> 1) + ((CANAF_std_cnt + 1) >> 1) + \
 3276              		.loc 1 1265 0
 3277 1956 984B     		ldr	r3, .L229+4
 3278 1958 1B88     		ldrh	r3, [r3, #0]
 3279 195a 03F10103 		add	r3, r3, #1
 3280 195e 4FEA6303 		asr	r3, r3, #1
 3281 1962 9AB2     		uxth	r2, r3
 3282 1964 954B     		ldr	r3, .L229+8
 3283 1966 1B88     		ldrh	r3, [r3, #0]
 3284 1968 03F10103 		add	r3, r3, #1
 3285 196c 4FEA6303 		asr	r3, r3, #1
 3286 1970 9BB2     		uxth	r3, r3
 3287 1972 D318     		adds	r3, r2, r3
 3288 1974 9AB2     		uxth	r2, r3
 3289 1976 924B     		ldr	r3, .L229+12
 3290 1978 1B88     		ldrh	r3, [r3, #0]
 3291 197a D318     		adds	r3, r2, r3
 3292 197c 9AB2     		uxth	r2, r3
 3293 197e 914B     		ldr	r3, .L229+16
 3294 1980 1B88     		ldrh	r3, [r3, #0]
 3295 1982 D318     		adds	r3, r2, r3
 3296 1984 9AB2     		uxth	r2, r3
 3297 1986 904B     		ldr	r3, .L229+20
 3298 1988 1B88     		ldrh	r3, [r3, #0]
 3299 198a 4FEA4303 		lsl	r3, r3, #1
 3300 198e 9BB2     		uxth	r3, r3
 3301 1990 D318     		adds	r3, r2, r3
 3302 1992 FB81     		strh	r3, [r7, #14]	@ movhi
1266:../src/lib/lpc177x_8x/Drivers/source/lpc177x_8x_can.c ****                     + CANAF_gstd_cnt + CANAF_ext_cnt + (CANAF_gext_cnt << 1);
1267:../src/lib/lpc177x_8x/Drivers/source/lpc177x_8x_can.c **** 
1268:../src/lib/lpc177x_8x/Drivers/source/lpc177x_8x_can.c **** 
1269:../src/lib/lpc177x_8x/Drivers/source/lpc177x_8x_can.c ****     /************** Remove FullCAN Entry *************/
1270:../src/lib/lpc177x_8x/Drivers/source/lpc177x_8x_can.c ****     if(EntryType == FULLCAN_ENTRY)
 3303              		.loc 1 1270 0
 3304 1994 FB79     		ldrb	r3, [r7, #7]	@ zero_extendqisi2
 3305 1996 002B     		cmp	r3, #0
 3306 1998 40F04881 		bne	.L181
1271:../src/lib/lpc177x_8x/Drivers/source/lpc177x_8x_can.c ****     {
1272:../src/lib/lpc177x_8x/Drivers/source/lpc177x_8x_can.c ****         if((CANAF_FullCAN_cnt == 0)||(position >= CANAF_FullCAN_cnt))
 3307              		.loc 1 1272 0
 3308 199c 864B     		ldr	r3, .L229+4
 3309 199e 1B88     		ldrh	r3, [r3, #0]
 3310 19a0 002B     		cmp	r3, #0
 3311 19a2 04D0     		beq	.L182
 3312              		.loc 1 1272 0 is_stmt 0 discriminator 1
 3313 19a4 844B     		ldr	r3, .L229+4
 3314 19a6 1B88     		ldrh	r3, [r3, #0]
 3315 19a8 BA88     		ldrh	r2, [r7, #4]
 3316 19aa 9A42     		cmp	r2, r3
 3317 19ac 02D3     		bcc	.L183
 3318              	.L182:
1273:../src/lib/lpc177x_8x/Drivers/source/lpc177x_8x_can.c ****         {
1274:../src/lib/lpc177x_8x/Drivers/source/lpc177x_8x_can.c ****             return CAN_ENTRY_NOT_EXIT_ERROR;
 3319              		.loc 1 1274 0 is_stmt 1
 3320 19ae 4FF00703 		mov	r3, #7
 3321 19b2 65E3     		b	.L184
 3322              	.L183:
1275:../src/lib/lpc177x_8x/Drivers/source/lpc177x_8x_can.c ****         }
1276:../src/lib/lpc177x_8x/Drivers/source/lpc177x_8x_can.c ****         else
1277:../src/lib/lpc177x_8x/Drivers/source/lpc177x_8x_can.c ****         {
1278:../src/lib/lpc177x_8x/Drivers/source/lpc177x_8x_can.c ****             cnt = position >> 1;
 3323              		.loc 1 1278 0
 3324 19b4 BB88     		ldrh	r3, [r7, #4]
 3325 19b6 4FEA5303 		lsr	r3, r3, #1
 3326 19ba FB82     		strh	r3, [r7, #22]	@ movhi
1279:../src/lib/lpc177x_8x/Drivers/source/lpc177x_8x_can.c **** 
1280:../src/lib/lpc177x_8x/Drivers/source/lpc177x_8x_can.c ****             buf0 = LPC_CANAF_RAM->mask[cnt];
 3327              		.loc 1 1280 0
 3328 19bc 834B     		ldr	r3, .L229+24
 3329 19be FA8A     		ldrh	r2, [r7, #22]
 3330 19c0 53F82230 		ldr	r3, [r3, r2, lsl #2]
 3331 19c4 3B61     		str	r3, [r7, #16]
1281:../src/lib/lpc177x_8x/Drivers/source/lpc177x_8x_can.c **** 
1282:../src/lib/lpc177x_8x/Drivers/source/lpc177x_8x_can.c ****             bound = (CANAF_FullCAN_cnt - position -1)>>1;
 3332              		.loc 1 1282 0
 3333 19c6 7C4B     		ldr	r3, .L229+4
 3334 19c8 1B88     		ldrh	r3, [r3, #0]
 3335 19ca 1A46     		mov	r2, r3
 3336 19cc BB88     		ldrh	r3, [r7, #4]
 3337 19ce D31A     		subs	r3, r2, r3
 3338 19d0 03F1FF33 		add	r3, r3, #-1
 3339 19d4 4FEA6303 		asr	r3, r3, #1
 3340 19d8 BB82     		strh	r3, [r7, #20]	@ movhi
1283:../src/lib/lpc177x_8x/Drivers/source/lpc177x_8x_can.c **** 
1284:../src/lib/lpc177x_8x/Drivers/source/lpc177x_8x_can.c ****             if((position & 0x0001) == 0) //event position
 3341              		.loc 1 1284 0
 3342 19da BB88     		ldrh	r3, [r7, #4]
 3343 19dc 03F00103 		and	r3, r3, #1
 3344 19e0 002B     		cmp	r3, #0
 3345 19e2 50D1     		bne	.L227
1285:../src/lib/lpc177x_8x/Drivers/source/lpc177x_8x_can.c ****             {
1286:../src/lib/lpc177x_8x/Drivers/source/lpc177x_8x_can.c ****                 while(bound--)
 3346              		.loc 1 1286 0
 3347 19e4 17E0     		b	.L186
 3348              	.L187:
1287:../src/lib/lpc177x_8x/Drivers/source/lpc177x_8x_can.c ****                 {
1288:../src/lib/lpc177x_8x/Drivers/source/lpc177x_8x_can.c ****                     //remove all remaining FullCAN entry one place down
1289:../src/lib/lpc177x_8x/Drivers/source/lpc177x_8x_can.c ****                     buf1  = LPC_CANAF_RAM->mask[cnt+1];
 3349              		.loc 1 1289 0
 3350 19e6 794B     		ldr	r3, .L229+24
 3351 19e8 FA8A     		ldrh	r2, [r7, #22]
 3352 19ea 02F10102 		add	r2, r2, #1
 3353 19ee 53F82230 		ldr	r3, [r3, r2, lsl #2]
 3354 19f2 BB60     		str	r3, [r7, #8]
1290:../src/lib/lpc177x_8x/Drivers/source/lpc177x_8x_can.c **** 
1291:../src/lib/lpc177x_8x/Drivers/source/lpc177x_8x_can.c ****                     LPC_CANAF_RAM->mask[cnt] = (buf1 >> 16) | (buf0 << 16);
 3355              		.loc 1 1291 0
 3356 19f4 754B     		ldr	r3, .L229+24
 3357 19f6 FA8A     		ldrh	r2, [r7, #22]
 3358 19f8 B968     		ldr	r1, [r7, #8]
 3359 19fa 4FEA1140 		lsr	r0, r1, #16
 3360 19fe 3969     		ldr	r1, [r7, #16]
 3361 1a00 4FEA0141 		lsl	r1, r1, #16
 3362 1a04 0143     		orrs	r1, r1, r0
 3363 1a06 43F82210 		str	r1, [r3, r2, lsl #2]
1292:../src/lib/lpc177x_8x/Drivers/source/lpc177x_8x_can.c **** 
1293:../src/lib/lpc177x_8x/Drivers/source/lpc177x_8x_can.c ****                     buf0  = buf1;
 3364              		.loc 1 1293 0
 3365 1a0a BB68     		ldr	r3, [r7, #8]
 3366 1a0c 3B61     		str	r3, [r7, #16]
1294:../src/lib/lpc177x_8x/Drivers/source/lpc177x_8x_can.c **** 
1295:../src/lib/lpc177x_8x/Drivers/source/lpc177x_8x_can.c ****                     cnt++;
 3367              		.loc 1 1295 0
 3368 1a0e FB8A     		ldrh	r3, [r7, #22]	@ movhi
 3369 1a10 03F10103 		add	r3, r3, #1
 3370 1a14 FB82     		strh	r3, [r7, #22]	@ movhi
 3371              	.L186:
1286:../src/lib/lpc177x_8x/Drivers/source/lpc177x_8x_can.c ****                 while(bound--)
 3372              		.loc 1 1286 0 discriminator 1
 3373 1a16 BB8A     		ldrh	r3, [r7, #20]
 3374 1a18 002B     		cmp	r3, #0
 3375 1a1a 0CBF     		ite	eq
 3376 1a1c 0023     		moveq	r3, #0
 3377 1a1e 0123     		movne	r3, #1
 3378 1a20 DBB2     		uxtb	r3, r3
 3379 1a22 BA8A     		ldrh	r2, [r7, #20]	@ movhi
 3380 1a24 02F1FF32 		add	r2, r2, #-1
 3381 1a28 BA82     		strh	r2, [r7, #20]	@ movhi
 3382 1a2a 002B     		cmp	r3, #0
 3383 1a2c DBD1     		bne	.L187
1286:../src/lib/lpc177x_8x/Drivers/source/lpc177x_8x_can.c ****                 while(bound--)
 3384              		.loc 1 1286 0 is_stmt 0
 3385 1a2e 37E0     		b	.L188
 3386              	.L190:
1296:../src/lib/lpc177x_8x/Drivers/source/lpc177x_8x_can.c ****                 }
1297:../src/lib/lpc177x_8x/Drivers/source/lpc177x_8x_can.c ****             }
1298:../src/lib/lpc177x_8x/Drivers/source/lpc177x_8x_can.c ****             else //odd position
1299:../src/lib/lpc177x_8x/Drivers/source/lpc177x_8x_can.c ****             {
1300:../src/lib/lpc177x_8x/Drivers/source/lpc177x_8x_can.c ****                 while(bound--)
1301:../src/lib/lpc177x_8x/Drivers/source/lpc177x_8x_can.c ****                 {
1302:../src/lib/lpc177x_8x/Drivers/source/lpc177x_8x_can.c ****                     //remove all remaining FullCAN entry one place down
1303:../src/lib/lpc177x_8x/Drivers/source/lpc177x_8x_can.c ****                     buf1  = LPC_CANAF_RAM->mask[cnt+1];
 3387              		.loc 1 1303 0 is_stmt 1
 3388 1a30 664B     		ldr	r3, .L229+24
 3389 1a32 FA8A     		ldrh	r2, [r7, #22]
 3390 1a34 02F10102 		add	r2, r2, #1
 3391 1a38 53F82230 		ldr	r3, [r3, r2, lsl #2]
 3392 1a3c BB60     		str	r3, [r7, #8]
1304:../src/lib/lpc177x_8x/Drivers/source/lpc177x_8x_can.c **** 
1305:../src/lib/lpc177x_8x/Drivers/source/lpc177x_8x_can.c ****                     LPC_CANAF_RAM->mask[cnt] = (buf0 & 0xFFFF0000)|(buf1 >> 16);
 3393              		.loc 1 1305 0
 3394 1a3e 634A     		ldr	r2, .L229+24
 3395 1a40 F98A     		ldrh	r1, [r7, #22]
 3396 1a42 3B69     		ldr	r3, [r7, #16]
 3397 1a44 4FEA1343 		lsr	r3, r3, #16
 3398 1a48 4FEA0343 		lsl	r3, r3, #16
 3399 1a4c B868     		ldr	r0, [r7, #8]
 3400 1a4e 4FEA1040 		lsr	r0, r0, #16
 3401 1a52 0343     		orrs	r3, r3, r0
 3402 1a54 42F82130 		str	r3, [r2, r1, lsl #2]
1306:../src/lib/lpc177x_8x/Drivers/source/lpc177x_8x_can.c **** 
1307:../src/lib/lpc177x_8x/Drivers/source/lpc177x_8x_can.c ****                     LPC_CANAF_RAM->mask[cnt+1] = LPC_CANAF_RAM->mask[cnt+1] << 16;
 3403              		.loc 1 1307 0
 3404 1a58 5C4B     		ldr	r3, .L229+24
 3405 1a5a FA8A     		ldrh	r2, [r7, #22]
 3406 1a5c 02F10102 		add	r2, r2, #1
 3407 1a60 5A49     		ldr	r1, .L229+24
 3408 1a62 F88A     		ldrh	r0, [r7, #22]
 3409 1a64 00F10100 		add	r0, r0, #1
 3410 1a68 51F82010 		ldr	r1, [r1, r0, lsl #2]
 3411 1a6c 4FEA0141 		lsl	r1, r1, #16
 3412 1a70 43F82210 		str	r1, [r3, r2, lsl #2]
1308:../src/lib/lpc177x_8x/Drivers/source/lpc177x_8x_can.c **** 
1309:../src/lib/lpc177x_8x/Drivers/source/lpc177x_8x_can.c ****                     buf0  = buf1<<16;
 3413              		.loc 1 1309 0
 3414 1a74 BB68     		ldr	r3, [r7, #8]
 3415 1a76 4FEA0343 		lsl	r3, r3, #16
 3416 1a7a 3B61     		str	r3, [r7, #16]
1310:../src/lib/lpc177x_8x/Drivers/source/lpc177x_8x_can.c **** 
1311:../src/lib/lpc177x_8x/Drivers/source/lpc177x_8x_can.c ****                     cnt++;
 3417              		.loc 1 1311 0
 3418 1a7c FB8A     		ldrh	r3, [r7, #22]	@ movhi
 3419 1a7e 03F10103 		add	r3, r3, #1
 3420 1a82 FB82     		strh	r3, [r7, #22]	@ movhi
 3421 1a84 00E0     		b	.L189
 3422              	.L227:
1300:../src/lib/lpc177x_8x/Drivers/source/lpc177x_8x_can.c ****                 while(bound--)
 3423              		.loc 1 1300 0
 3424 1a86 00BF     		nop
 3425              	.L189:
1300:../src/lib/lpc177x_8x/Drivers/source/lpc177x_8x_can.c ****                 while(bound--)
 3426              		.loc 1 1300 0 is_stmt 0 discriminator 1
 3427 1a88 BB8A     		ldrh	r3, [r7, #20]
 3428 1a8a 002B     		cmp	r3, #0
 3429 1a8c 0CBF     		ite	eq
 3430 1a8e 0023     		moveq	r3, #0
 3431 1a90 0123     		movne	r3, #1
 3432 1a92 DBB2     		uxtb	r3, r3
 3433 1a94 BA8A     		ldrh	r2, [r7, #20]	@ movhi
 3434 1a96 02F1FF32 		add	r2, r2, #-1
 3435 1a9a BA82     		strh	r2, [r7, #20]	@ movhi
 3436 1a9c 002B     		cmp	r3, #0
 3437 1a9e C7D1     		bne	.L190
 3438              	.L188:
1312:../src/lib/lpc177x_8x/Drivers/source/lpc177x_8x_can.c ****                 }
1313:../src/lib/lpc177x_8x/Drivers/source/lpc177x_8x_can.c ****             }
1314:../src/lib/lpc177x_8x/Drivers/source/lpc177x_8x_can.c ****             if((CANAF_FullCAN_cnt & 0x0001) == 0)
 3439              		.loc 1 1314 0 is_stmt 1
 3440 1aa0 454B     		ldr	r3, .L229+4
 3441 1aa2 1B88     		ldrh	r3, [r3, #0]
 3442 1aa4 03F00103 		and	r3, r3, #1
 3443 1aa8 002B     		cmp	r3, #0
 3444 1aaa 1AD1     		bne	.L191
1315:../src/lib/lpc177x_8x/Drivers/source/lpc177x_8x_can.c ****             {
1316:../src/lib/lpc177x_8x/Drivers/source/lpc177x_8x_can.c ****                 if((position & 0x0001)==0)
 3445              		.loc 1 1316 0
 3446 1aac BB88     		ldrh	r3, [r7, #4]
 3447 1aae 03F00103 		and	r3, r3, #1
 3448 1ab2 002B     		cmp	r3, #0
 3449 1ab4 0BD1     		bne	.L192
1317:../src/lib/lpc177x_8x/Drivers/source/lpc177x_8x_can.c ****                     LPC_CANAF_RAM->mask[cnt] = (buf0 << 16) | (0x0000FFFF);
 3450              		.loc 1 1317 0
 3451 1ab6 454A     		ldr	r2, .L229+24
 3452 1ab8 F98A     		ldrh	r1, [r7, #22]
 3453 1aba 3B69     		ldr	r3, [r7, #16]
 3454 1abc 4FEA0343 		lsl	r3, r3, #16
 3455 1ac0 6FEA1343 		mvn	r3, r3, lsr #16
 3456 1ac4 6FEA0343 		mvn	r3, r3, lsl #16
 3457 1ac8 42F82130 		str	r3, [r2, r1, lsl #2]
 3458 1acc 53E0     		b	.L193
 3459              	.L192:
1318:../src/lib/lpc177x_8x/Drivers/source/lpc177x_8x_can.c ****                 else
1319:../src/lib/lpc177x_8x/Drivers/source/lpc177x_8x_can.c ****                     LPC_CANAF_RAM->mask[cnt] = buf0 | 0x0000FFFF;
 3460              		.loc 1 1319 0
 3461 1ace 3F4A     		ldr	r2, .L229+24
 3462 1ad0 F98A     		ldrh	r1, [r7, #22]
 3463 1ad2 3B69     		ldr	r3, [r7, #16]
 3464 1ad4 6FEA1343 		mvn	r3, r3, lsr #16
 3465 1ad8 6FEA0343 		mvn	r3, r3, lsl #16
 3466 1adc 42F82130 		str	r3, [r2, r1, lsl #2]
 3467 1ae0 49E0     		b	.L193
 3468              	.L191:
1320:../src/lib/lpc177x_8x/Drivers/source/lpc177x_8x_can.c ****             }
1321:../src/lib/lpc177x_8x/Drivers/source/lpc177x_8x_can.c ****             else
1322:../src/lib/lpc177x_8x/Drivers/source/lpc177x_8x_can.c ****             {
1323:../src/lib/lpc177x_8x/Drivers/source/lpc177x_8x_can.c ****                 //remove all remaining section one place down
1324:../src/lib/lpc177x_8x/Drivers/source/lpc177x_8x_can.c ****                 cnt = (CANAF_FullCAN_cnt + 1)>>1;
 3469              		.loc 1 1324 0
 3470 1ae2 354B     		ldr	r3, .L229+4
 3471 1ae4 1B88     		ldrh	r3, [r3, #0]
 3472 1ae6 03F10103 		add	r3, r3, #1
 3473 1aea 4FEA6303 		asr	r3, r3, #1
 3474 1aee FB82     		strh	r3, [r7, #22]	@ movhi
1325:../src/lib/lpc177x_8x/Drivers/source/lpc177x_8x_can.c **** 
1326:../src/lib/lpc177x_8x/Drivers/source/lpc177x_8x_can.c ****                 bound = total + CANAF_FullCAN_cnt * 3;
 3475              		.loc 1 1326 0
 3476 1af0 314B     		ldr	r3, .L229+4
 3477 1af2 1B88     		ldrh	r3, [r3, #0]
 3478 1af4 1A46     		mov	r2, r3	@ movhi
 3479 1af6 4FEA4202 		lsl	r2, r2, #1
 3480 1afa D318     		adds	r3, r2, r3
 3481 1afc 9AB2     		uxth	r2, r3
 3482 1afe FB89     		ldrh	r3, [r7, #14]	@ movhi
 3483 1b00 D318     		adds	r3, r2, r3
 3484 1b02 BB82     		strh	r3, [r7, #20]	@ movhi
1327:../src/lib/lpc177x_8x/Drivers/source/lpc177x_8x_can.c **** 
1328:../src/lib/lpc177x_8x/Drivers/source/lpc177x_8x_can.c ****                 while(bound>cnt)
 3485              		.loc 1 1328 0
 3486 1b04 0DE0     		b	.L194
 3487              	.L195:
1329:../src/lib/lpc177x_8x/Drivers/source/lpc177x_8x_can.c ****                 {
1330:../src/lib/lpc177x_8x/Drivers/source/lpc177x_8x_can.c ****                     LPC_CANAF_RAM->mask[cnt-1] = LPC_CANAF_RAM->mask[cnt];
 3488              		.loc 1 1330 0
 3489 1b06 314B     		ldr	r3, .L229+24
 3490 1b08 FA8A     		ldrh	r2, [r7, #22]
 3491 1b0a 02F1FF32 		add	r2, r2, #-1
 3492 1b0e 2F49     		ldr	r1, .L229+24
 3493 1b10 F88A     		ldrh	r0, [r7, #22]
 3494 1b12 51F82010 		ldr	r1, [r1, r0, lsl #2]
 3495 1b16 43F82210 		str	r1, [r3, r2, lsl #2]
1331:../src/lib/lpc177x_8x/Drivers/source/lpc177x_8x_can.c ****                     cnt++;
 3496              		.loc 1 1331 0
 3497 1b1a FB8A     		ldrh	r3, [r7, #22]	@ movhi
 3498 1b1c 03F10103 		add	r3, r3, #1
 3499 1b20 FB82     		strh	r3, [r7, #22]	@ movhi
 3500              	.L194:
1328:../src/lib/lpc177x_8x/Drivers/source/lpc177x_8x_can.c ****                 while(bound>cnt)
 3501              		.loc 1 1328 0 discriminator 1
 3502 1b22 BA8A     		ldrh	r2, [r7, #20]
 3503 1b24 FB8A     		ldrh	r3, [r7, #22]
 3504 1b26 9A42     		cmp	r2, r3
 3505 1b28 EDD8     		bhi	.L195
1332:../src/lib/lpc177x_8x/Drivers/source/lpc177x_8x_can.c ****                 }
1333:../src/lib/lpc177x_8x/Drivers/source/lpc177x_8x_can.c **** 
1334:../src/lib/lpc177x_8x/Drivers/source/lpc177x_8x_can.c ****                 LPC_CANAF_RAM->mask[cnt-1]=0x00;
 3506              		.loc 1 1334 0
 3507 1b2a 284B     		ldr	r3, .L229+24
 3508 1b2c FA8A     		ldrh	r2, [r7, #22]
 3509 1b2e 02F1FF32 		add	r2, r2, #-1
 3510 1b32 4FF00001 		mov	r1, #0
 3511 1b36 43F82210 		str	r1, [r3, r2, lsl #2]
1335:../src/lib/lpc177x_8x/Drivers/source/lpc177x_8x_can.c **** 
1336:../src/lib/lpc177x_8x/Drivers/source/lpc177x_8x_can.c ****                 //update address values
1337:../src/lib/lpc177x_8x/Drivers/source/lpc177x_8x_can.c ****                 LPC_CANAF->SFF_sa     -= 0x04;
 3512              		.loc 1 1337 0
 3513 1b3a 1E4B     		ldr	r3, .L229
 3514 1b3c 1D4A     		ldr	r2, .L229
 3515 1b3e 5268     		ldr	r2, [r2, #4]
 3516 1b40 A2F10402 		sub	r2, r2, #4
 3517 1b44 5A60     		str	r2, [r3, #4]
1338:../src/lib/lpc177x_8x/Drivers/source/lpc177x_8x_can.c **** 
1339:../src/lib/lpc177x_8x/Drivers/source/lpc177x_8x_can.c ****                 LPC_CANAF->SFF_GRP_sa -= 0x04 ;
 3518              		.loc 1 1339 0
 3519 1b46 1B4B     		ldr	r3, .L229
 3520 1b48 1A4A     		ldr	r2, .L229
 3521 1b4a 9268     		ldr	r2, [r2, #8]
 3522 1b4c A2F10402 		sub	r2, r2, #4
 3523 1b50 9A60     		str	r2, [r3, #8]
1340:../src/lib/lpc177x_8x/Drivers/source/lpc177x_8x_can.c **** 
1341:../src/lib/lpc177x_8x/Drivers/source/lpc177x_8x_can.c ****                 LPC_CANAF->EFF_sa     -= 0x04 ;
 3524              		.loc 1 1341 0
 3525 1b52 184B     		ldr	r3, .L229
 3526 1b54 174A     		ldr	r2, .L229
 3527 1b56 D268     		ldr	r2, [r2, #12]
 3528 1b58 A2F10402 		sub	r2, r2, #4
 3529 1b5c DA60     		str	r2, [r3, #12]
1342:../src/lib/lpc177x_8x/Drivers/source/lpc177x_8x_can.c **** 
1343:../src/lib/lpc177x_8x/Drivers/source/lpc177x_8x_can.c ****                 LPC_CANAF->EFF_GRP_sa -= 0x04;
 3530              		.loc 1 1343 0
 3531 1b5e 154B     		ldr	r3, .L229
 3532 1b60 144A     		ldr	r2, .L229
 3533 1b62 1269     		ldr	r2, [r2, #16]
 3534 1b64 A2F10402 		sub	r2, r2, #4
 3535 1b68 1A61     		str	r2, [r3, #16]
1344:../src/lib/lpc177x_8x/Drivers/source/lpc177x_8x_can.c **** 
1345:../src/lib/lpc177x_8x/Drivers/source/lpc177x_8x_can.c ****                 LPC_CANAF->ENDofTable -= 0x04;
 3536              		.loc 1 1345 0
 3537 1b6a 124B     		ldr	r3, .L229
 3538 1b6c 114A     		ldr	r2, .L229
 3539 1b6e 5269     		ldr	r2, [r2, #20]
 3540 1b70 A2F10402 		sub	r2, r2, #4
 3541 1b74 5A61     		str	r2, [r3, #20]
 3542              	.L193:
1346:../src/lib/lpc177x_8x/Drivers/source/lpc177x_8x_can.c ****             }
1347:../src/lib/lpc177x_8x/Drivers/source/lpc177x_8x_can.c **** 
1348:../src/lib/lpc177x_8x/Drivers/source/lpc177x_8x_can.c ****             CANAF_FullCAN_cnt--;
 3543              		.loc 1 1348 0
 3544 1b76 104B     		ldr	r3, .L229+4
 3545 1b78 1B88     		ldrh	r3, [r3, #0]
 3546 1b7a 03F1FF33 		add	r3, r3, #-1
 3547 1b7e 9AB2     		uxth	r2, r3
 3548 1b80 0D4B     		ldr	r3, .L229+4
 3549 1b82 1A80     		strh	r2, [r3, #0]	@ movhi
1349:../src/lib/lpc177x_8x/Drivers/source/lpc177x_8x_can.c **** 
1350:../src/lib/lpc177x_8x/Drivers/source/lpc177x_8x_can.c ****             //delete its FullCAN Object in the FullCAN Object section
1351:../src/lib/lpc177x_8x/Drivers/source/lpc177x_8x_can.c ****             //remove all remaining FullCAN Object three place down
1352:../src/lib/lpc177x_8x/Drivers/source/lpc177x_8x_can.c ****             cnt = total + position * 3;
 3550              		.loc 1 1352 0
 3551 1b84 BB88     		ldrh	r3, [r7, #4]	@ movhi
 3552 1b86 1A46     		mov	r2, r3	@ movhi
 3553 1b88 4FEA4202 		lsl	r2, r2, #1
 3554 1b8c D318     		adds	r3, r2, r3
 3555 1b8e 9AB2     		uxth	r2, r3
 3556 1b90 FB89     		ldrh	r3, [r7, #14]	@ movhi
 3557 1b92 D318     		adds	r3, r2, r3
 3558 1b94 FB82     		strh	r3, [r7, #22]	@ movhi
1353:../src/lib/lpc177x_8x/Drivers/source/lpc177x_8x_can.c **** 
1354:../src/lib/lpc177x_8x/Drivers/source/lpc177x_8x_can.c ****             bound = (CANAF_FullCAN_cnt - position + 1) * 3;
 3559              		.loc 1 1354 0
 3560 1b96 084B     		ldr	r3, .L229+4
 3561 1b98 1B88     		ldrh	r3, [r3, #0]
 3562 1b9a 1A46     		mov	r2, r3
 3563 1b9c BB88     		ldrh	r3, [r7, #4]
 3564 1b9e D31A     		subs	r3, r2, r3
 3565 1ba0 03F10103 		add	r3, r3, #1
 3566 1ba4 9BB2     		uxth	r3, r3
 3567 1ba6 1A46     		mov	r2, r3	@ movhi
 3568 1ba8 4FEA4202 		lsl	r2, r2, #1
 3569 1bac D318     		adds	r3, r2, r3
 3570 1bae BB82     		strh	r3, [r7, #20]	@ movhi
1355:../src/lib/lpc177x_8x/Drivers/source/lpc177x_8x_can.c **** 
1356:../src/lib/lpc177x_8x/Drivers/source/lpc177x_8x_can.c ****             while(bound)
 3571              		.loc 1 1356 0
 3572 1bb0 38E0     		b	.L196
 3573              	.L230:
 3574 1bb2 00BF     		.align	2
 3575              	.L229:
 3576 1bb4 00C00340 		.word	1073987584
 3577 1bb8 00000000 		.word	CANAF_FullCAN_cnt
 3578 1bbc 00000000 		.word	CANAF_std_cnt
 3579 1bc0 00000000 		.word	CANAF_gstd_cnt
 3580 1bc4 00000000 		.word	CANAF_ext_cnt
 3581 1bc8 00000000 		.word	CANAF_gext_cnt
 3582 1bcc 00800340 		.word	1073971200
 3583              	.L197:
1357:../src/lib/lpc177x_8x/Drivers/source/lpc177x_8x_can.c ****             {
1358:../src/lib/lpc177x_8x/Drivers/source/lpc177x_8x_can.c ****                 LPC_CANAF_RAM->mask[cnt]= LPC_CANAF_RAM->mask[cnt+3];;
 3584              		.loc 1 1358 0
 3585 1bd0 994B     		ldr	r3, .L231
 3586 1bd2 FA8A     		ldrh	r2, [r7, #22]
 3587 1bd4 9849     		ldr	r1, .L231
 3588 1bd6 F88A     		ldrh	r0, [r7, #22]
 3589 1bd8 00F10300 		add	r0, r0, #3
 3590 1bdc 51F82010 		ldr	r1, [r1, r0, lsl #2]
 3591 1be0 43F82210 		str	r1, [r3, r2, lsl #2]
1359:../src/lib/lpc177x_8x/Drivers/source/lpc177x_8x_can.c **** 
1360:../src/lib/lpc177x_8x/Drivers/source/lpc177x_8x_can.c ****                 LPC_CANAF_RAM->mask[cnt+1]= LPC_CANAF_RAM->mask[cnt+4];
 3592              		.loc 1 1360 0
 3593 1be4 944B     		ldr	r3, .L231
 3594 1be6 FA8A     		ldrh	r2, [r7, #22]
 3595 1be8 02F10102 		add	r2, r2, #1
 3596 1bec 9249     		ldr	r1, .L231
 3597 1bee F88A     		ldrh	r0, [r7, #22]
 3598 1bf0 00F10400 		add	r0, r0, #4
 3599 1bf4 51F82010 		ldr	r1, [r1, r0, lsl #2]
 3600 1bf8 43F82210 		str	r1, [r3, r2, lsl #2]
1361:../src/lib/lpc177x_8x/Drivers/source/lpc177x_8x_can.c **** 
1362:../src/lib/lpc177x_8x/Drivers/source/lpc177x_8x_can.c ****                 LPC_CANAF_RAM->mask[cnt+2]= LPC_CANAF_RAM->mask[cnt+5];
 3601              		.loc 1 1362 0
 3602 1bfc 8E4B     		ldr	r3, .L231
 3603 1bfe FA8A     		ldrh	r2, [r7, #22]
 3604 1c00 02F10202 		add	r2, r2, #2
 3605 1c04 8C49     		ldr	r1, .L231
 3606 1c06 F88A     		ldrh	r0, [r7, #22]
 3607 1c08 00F10500 		add	r0, r0, #5
 3608 1c0c 51F82010 		ldr	r1, [r1, r0, lsl #2]
 3609 1c10 43F82210 		str	r1, [r3, r2, lsl #2]
1363:../src/lib/lpc177x_8x/Drivers/source/lpc177x_8x_can.c **** 
1364:../src/lib/lpc177x_8x/Drivers/source/lpc177x_8x_can.c ****                 bound -= 3;
 3610              		.loc 1 1364 0
 3611 1c14 BB8A     		ldrh	r3, [r7, #20]	@ movhi
 3612 1c16 A3F10303 		sub	r3, r3, #3
 3613 1c1a BB82     		strh	r3, [r7, #20]	@ movhi
1365:../src/lib/lpc177x_8x/Drivers/source/lpc177x_8x_can.c **** 
1366:../src/lib/lpc177x_8x/Drivers/source/lpc177x_8x_can.c ****                 cnt   += 3;
 3614              		.loc 1 1366 0
 3615 1c1c FB8A     		ldrh	r3, [r7, #22]	@ movhi
 3616 1c1e 03F10303 		add	r3, r3, #3
 3617 1c22 FB82     		strh	r3, [r7, #22]	@ movhi
 3618              	.L196:
1356:../src/lib/lpc177x_8x/Drivers/source/lpc177x_8x_can.c ****             while(bound)
 3619              		.loc 1 1356 0 discriminator 1
 3620 1c24 BB8A     		ldrh	r3, [r7, #20]
 3621 1c26 002B     		cmp	r3, #0
 3622 1c28 D2D1     		bne	.L197
1356:../src/lib/lpc177x_8x/Drivers/source/lpc177x_8x_can.c ****             while(bound)
 3623              		.loc 1 1356 0 is_stmt 0
 3624 1c2a 23E2     		b	.L198
 3625              	.L181:
1367:../src/lib/lpc177x_8x/Drivers/source/lpc177x_8x_can.c ****             }
1368:../src/lib/lpc177x_8x/Drivers/source/lpc177x_8x_can.c ****         }
1369:../src/lib/lpc177x_8x/Drivers/source/lpc177x_8x_can.c ****     }
1370:../src/lib/lpc177x_8x/Drivers/source/lpc177x_8x_can.c **** 
1371:../src/lib/lpc177x_8x/Drivers/source/lpc177x_8x_can.c ****     /************** Remove Explicit Standard ID Entry *************/
1372:../src/lib/lpc177x_8x/Drivers/source/lpc177x_8x_can.c ****     else if(EntryType == EXPLICIT_STANDARD_ENTRY)
 3626              		.loc 1 1372 0 is_stmt 1
 3627 1c2c FB79     		ldrb	r3, [r7, #7]	@ zero_extendqisi2
 3628 1c2e 012B     		cmp	r3, #1
 3629 1c30 40F00A81 		bne	.L199
1373:../src/lib/lpc177x_8x/Drivers/source/lpc177x_8x_can.c ****     {
1374:../src/lib/lpc177x_8x/Drivers/source/lpc177x_8x_can.c ****         if((CANAF_std_cnt == 0)||(position >= CANAF_std_cnt))
 3630              		.loc 1 1374 0
 3631 1c34 814B     		ldr	r3, .L231+4
 3632 1c36 1B88     		ldrh	r3, [r3, #0]
 3633 1c38 002B     		cmp	r3, #0
 3634 1c3a 04D0     		beq	.L200
 3635              		.loc 1 1374 0 is_stmt 0 discriminator 1
 3636 1c3c 7F4B     		ldr	r3, .L231+4
 3637 1c3e 1B88     		ldrh	r3, [r3, #0]
 3638 1c40 BA88     		ldrh	r2, [r7, #4]
 3639 1c42 9A42     		cmp	r2, r3
 3640 1c44 02D3     		bcc	.L201
 3641              	.L200:
1375:../src/lib/lpc177x_8x/Drivers/source/lpc177x_8x_can.c ****         {
1376:../src/lib/lpc177x_8x/Drivers/source/lpc177x_8x_can.c ****             return CAN_ENTRY_NOT_EXIT_ERROR;
 3642              		.loc 1 1376 0 is_stmt 1
 3643 1c46 4FF00703 		mov	r3, #7
 3644 1c4a 19E2     		b	.L184
 3645              	.L201:
1377:../src/lib/lpc177x_8x/Drivers/source/lpc177x_8x_can.c ****         }
1378:../src/lib/lpc177x_8x/Drivers/source/lpc177x_8x_can.c ****         else
1379:../src/lib/lpc177x_8x/Drivers/source/lpc177x_8x_can.c ****         {
1380:../src/lib/lpc177x_8x/Drivers/source/lpc177x_8x_can.c ****             cnt = ((CANAF_FullCAN_cnt+1) >> 1) + (position >> 1);
 3646              		.loc 1 1380 0
 3647 1c4c 7C4B     		ldr	r3, .L231+8
 3648 1c4e 1B88     		ldrh	r3, [r3, #0]
 3649 1c50 03F10103 		add	r3, r3, #1
 3650 1c54 4FEA6303 		asr	r3, r3, #1
 3651 1c58 9AB2     		uxth	r2, r3
 3652 1c5a BB88     		ldrh	r3, [r7, #4]
 3653 1c5c 4FEA5303 		lsr	r3, r3, #1
 3654 1c60 9BB2     		uxth	r3, r3
 3655 1c62 D318     		adds	r3, r2, r3
 3656 1c64 FB82     		strh	r3, [r7, #22]	@ movhi
1381:../src/lib/lpc177x_8x/Drivers/source/lpc177x_8x_can.c **** 
1382:../src/lib/lpc177x_8x/Drivers/source/lpc177x_8x_can.c ****             buf0 = LPC_CANAF_RAM->mask[cnt];
 3657              		.loc 1 1382 0
 3658 1c66 744B     		ldr	r3, .L231
 3659 1c68 FA8A     		ldrh	r2, [r7, #22]
 3660 1c6a 53F82230 		ldr	r3, [r3, r2, lsl #2]
 3661 1c6e 3B61     		str	r3, [r7, #16]
1383:../src/lib/lpc177x_8x/Drivers/source/lpc177x_8x_can.c **** 
1384:../src/lib/lpc177x_8x/Drivers/source/lpc177x_8x_can.c ****             bound = (CANAF_std_cnt - position - 1) >> 1;
 3662              		.loc 1 1384 0
 3663 1c70 724B     		ldr	r3, .L231+4
 3664 1c72 1B88     		ldrh	r3, [r3, #0]
 3665 1c74 1A46     		mov	r2, r3
 3666 1c76 BB88     		ldrh	r3, [r7, #4]
 3667 1c78 D31A     		subs	r3, r2, r3
 3668 1c7a 03F1FF33 		add	r3, r3, #-1
 3669 1c7e 4FEA6303 		asr	r3, r3, #1
 3670 1c82 BB82     		strh	r3, [r7, #20]	@ movhi
1385:../src/lib/lpc177x_8x/Drivers/source/lpc177x_8x_can.c **** 
1386:../src/lib/lpc177x_8x/Drivers/source/lpc177x_8x_can.c ****             if((position & 0x0001) == 0) //event position
 3671              		.loc 1 1386 0
 3672 1c84 BB88     		ldrh	r3, [r7, #4]
 3673 1c86 03F00103 		and	r3, r3, #1
 3674 1c8a 002B     		cmp	r3, #0
 3675 1c8c 50D1     		bne	.L228
1387:../src/lib/lpc177x_8x/Drivers/source/lpc177x_8x_can.c ****             {
1388:../src/lib/lpc177x_8x/Drivers/source/lpc177x_8x_can.c ****                 while(bound--)
 3676              		.loc 1 1388 0
 3677 1c8e 17E0     		b	.L203
 3678              	.L204:
1389:../src/lib/lpc177x_8x/Drivers/source/lpc177x_8x_can.c ****                 {
1390:../src/lib/lpc177x_8x/Drivers/source/lpc177x_8x_can.c ****                     //remove all remaining FullCAN entry one place down
1391:../src/lib/lpc177x_8x/Drivers/source/lpc177x_8x_can.c ****                     buf1  = LPC_CANAF_RAM->mask[cnt + 1];
 3679              		.loc 1 1391 0
 3680 1c90 694B     		ldr	r3, .L231
 3681 1c92 FA8A     		ldrh	r2, [r7, #22]
 3682 1c94 02F10102 		add	r2, r2, #1
 3683 1c98 53F82230 		ldr	r3, [r3, r2, lsl #2]
 3684 1c9c BB60     		str	r3, [r7, #8]
1392:../src/lib/lpc177x_8x/Drivers/source/lpc177x_8x_can.c **** 
1393:../src/lib/lpc177x_8x/Drivers/source/lpc177x_8x_can.c ****                     LPC_CANAF_RAM->mask[cnt] = (buf1 >> 16) | (buf0 << 16);
 3685              		.loc 1 1393 0
 3686 1c9e 664B     		ldr	r3, .L231
 3687 1ca0 FA8A     		ldrh	r2, [r7, #22]
 3688 1ca2 B968     		ldr	r1, [r7, #8]
 3689 1ca4 4FEA1140 		lsr	r0, r1, #16
 3690 1ca8 3969     		ldr	r1, [r7, #16]
 3691 1caa 4FEA0141 		lsl	r1, r1, #16
 3692 1cae 0143     		orrs	r1, r1, r0
 3693 1cb0 43F82210 		str	r1, [r3, r2, lsl #2]
1394:../src/lib/lpc177x_8x/Drivers/source/lpc177x_8x_can.c **** 
1395:../src/lib/lpc177x_8x/Drivers/source/lpc177x_8x_can.c ****                     buf0  = buf1;
 3694              		.loc 1 1395 0
 3695 1cb4 BB68     		ldr	r3, [r7, #8]
 3696 1cb6 3B61     		str	r3, [r7, #16]
1396:../src/lib/lpc177x_8x/Drivers/source/lpc177x_8x_can.c **** 
1397:../src/lib/lpc177x_8x/Drivers/source/lpc177x_8x_can.c ****                     cnt++;
 3697              		.loc 1 1397 0
 3698 1cb8 FB8A     		ldrh	r3, [r7, #22]	@ movhi
 3699 1cba 03F10103 		add	r3, r3, #1
 3700 1cbe FB82     		strh	r3, [r7, #22]	@ movhi
 3701              	.L203:
1388:../src/lib/lpc177x_8x/Drivers/source/lpc177x_8x_can.c ****                 while(bound--)
 3702              		.loc 1 1388 0 discriminator 1
 3703 1cc0 BB8A     		ldrh	r3, [r7, #20]
 3704 1cc2 002B     		cmp	r3, #0
 3705 1cc4 0CBF     		ite	eq
 3706 1cc6 0023     		moveq	r3, #0
 3707 1cc8 0123     		movne	r3, #1
 3708 1cca DBB2     		uxtb	r3, r3
 3709 1ccc BA8A     		ldrh	r2, [r7, #20]	@ movhi
 3710 1cce 02F1FF32 		add	r2, r2, #-1
 3711 1cd2 BA82     		strh	r2, [r7, #20]	@ movhi
 3712 1cd4 002B     		cmp	r3, #0
 3713 1cd6 DBD1     		bne	.L204
1388:../src/lib/lpc177x_8x/Drivers/source/lpc177x_8x_can.c ****                 while(bound--)
 3714              		.loc 1 1388 0 is_stmt 0
 3715 1cd8 37E0     		b	.L205
 3716              	.L207:
1398:../src/lib/lpc177x_8x/Drivers/source/lpc177x_8x_can.c ****                 }
1399:../src/lib/lpc177x_8x/Drivers/source/lpc177x_8x_can.c ****             }
1400:../src/lib/lpc177x_8x/Drivers/source/lpc177x_8x_can.c ****             else //odd position
1401:../src/lib/lpc177x_8x/Drivers/source/lpc177x_8x_can.c ****             {
1402:../src/lib/lpc177x_8x/Drivers/source/lpc177x_8x_can.c ****                 while(bound--)
1403:../src/lib/lpc177x_8x/Drivers/source/lpc177x_8x_can.c ****                 {
1404:../src/lib/lpc177x_8x/Drivers/source/lpc177x_8x_can.c ****                     //remove all remaining FullCAN entry one place down
1405:../src/lib/lpc177x_8x/Drivers/source/lpc177x_8x_can.c ****                     buf1  = LPC_CANAF_RAM->mask[cnt + 1];
 3717              		.loc 1 1405 0 is_stmt 1
 3718 1cda 574B     		ldr	r3, .L231
 3719 1cdc FA8A     		ldrh	r2, [r7, #22]
 3720 1cde 02F10102 		add	r2, r2, #1
 3721 1ce2 53F82230 		ldr	r3, [r3, r2, lsl #2]
 3722 1ce6 BB60     		str	r3, [r7, #8]
1406:../src/lib/lpc177x_8x/Drivers/source/lpc177x_8x_can.c **** 
1407:../src/lib/lpc177x_8x/Drivers/source/lpc177x_8x_can.c ****                     LPC_CANAF_RAM->mask[cnt] = (buf0 & 0xFFFF0000) | (buf1 >> 16);
 3723              		.loc 1 1407 0
 3724 1ce8 534A     		ldr	r2, .L231
 3725 1cea F98A     		ldrh	r1, [r7, #22]
 3726 1cec 3B69     		ldr	r3, [r7, #16]
 3727 1cee 4FEA1343 		lsr	r3, r3, #16
 3728 1cf2 4FEA0343 		lsl	r3, r3, #16
 3729 1cf6 B868     		ldr	r0, [r7, #8]
 3730 1cf8 4FEA1040 		lsr	r0, r0, #16
 3731 1cfc 0343     		orrs	r3, r3, r0
 3732 1cfe 42F82130 		str	r3, [r2, r1, lsl #2]
1408:../src/lib/lpc177x_8x/Drivers/source/lpc177x_8x_can.c **** 
1409:../src/lib/lpc177x_8x/Drivers/source/lpc177x_8x_can.c ****                     LPC_CANAF_RAM->mask[cnt + 1] = LPC_CANAF_RAM->mask[cnt + 1] << 16;
 3733              		.loc 1 1409 0
 3734 1d02 4D4B     		ldr	r3, .L231
 3735 1d04 FA8A     		ldrh	r2, [r7, #22]
 3736 1d06 02F10102 		add	r2, r2, #1
 3737 1d0a 4B49     		ldr	r1, .L231
 3738 1d0c F88A     		ldrh	r0, [r7, #22]
 3739 1d0e 00F10100 		add	r0, r0, #1
 3740 1d12 51F82010 		ldr	r1, [r1, r0, lsl #2]
 3741 1d16 4FEA0141 		lsl	r1, r1, #16
 3742 1d1a 43F82210 		str	r1, [r3, r2, lsl #2]
1410:../src/lib/lpc177x_8x/Drivers/source/lpc177x_8x_can.c **** 
1411:../src/lib/lpc177x_8x/Drivers/source/lpc177x_8x_can.c ****                     buf0  = buf1<<16;
 3743              		.loc 1 1411 0
 3744 1d1e BB68     		ldr	r3, [r7, #8]
 3745 1d20 4FEA0343 		lsl	r3, r3, #16
 3746 1d24 3B61     		str	r3, [r7, #16]
1412:../src/lib/lpc177x_8x/Drivers/source/lpc177x_8x_can.c **** 
1413:../src/lib/lpc177x_8x/Drivers/source/lpc177x_8x_can.c ****                     cnt++;
 3747              		.loc 1 1413 0
 3748 1d26 FB8A     		ldrh	r3, [r7, #22]	@ movhi
 3749 1d28 03F10103 		add	r3, r3, #1
 3750 1d2c FB82     		strh	r3, [r7, #22]	@ movhi
 3751 1d2e 00E0     		b	.L206
 3752              	.L228:
1402:../src/lib/lpc177x_8x/Drivers/source/lpc177x_8x_can.c ****                 while(bound--)
 3753              		.loc 1 1402 0
 3754 1d30 00BF     		nop
 3755              	.L206:
1402:../src/lib/lpc177x_8x/Drivers/source/lpc177x_8x_can.c ****                 while(bound--)
 3756              		.loc 1 1402 0 is_stmt 0 discriminator 1
 3757 1d32 BB8A     		ldrh	r3, [r7, #20]
 3758 1d34 002B     		cmp	r3, #0
 3759 1d36 0CBF     		ite	eq
 3760 1d38 0023     		moveq	r3, #0
 3761 1d3a 0123     		movne	r3, #1
 3762 1d3c DBB2     		uxtb	r3, r3
 3763 1d3e BA8A     		ldrh	r2, [r7, #20]	@ movhi
 3764 1d40 02F1FF32 		add	r2, r2, #-1
 3765 1d44 BA82     		strh	r2, [r7, #20]	@ movhi
 3766 1d46 002B     		cmp	r3, #0
 3767 1d48 C7D1     		bne	.L207
 3768              	.L205:
1414:../src/lib/lpc177x_8x/Drivers/source/lpc177x_8x_can.c ****                 }
1415:../src/lib/lpc177x_8x/Drivers/source/lpc177x_8x_can.c ****             }
1416:../src/lib/lpc177x_8x/Drivers/source/lpc177x_8x_can.c ****             if((CANAF_std_cnt & 0x0001) == 0)
 3769              		.loc 1 1416 0 is_stmt 1
 3770 1d4a 3C4B     		ldr	r3, .L231+4
 3771 1d4c 1B88     		ldrh	r3, [r3, #0]
 3772 1d4e 03F00103 		and	r3, r3, #1
 3773 1d52 002B     		cmp	r3, #0
 3774 1d54 1AD1     		bne	.L208
1417:../src/lib/lpc177x_8x/Drivers/source/lpc177x_8x_can.c ****             {
1418:../src/lib/lpc177x_8x/Drivers/source/lpc177x_8x_can.c ****                 if((position & 0x0001)==0)
 3775              		.loc 1 1418 0
 3776 1d56 BB88     		ldrh	r3, [r7, #4]
 3777 1d58 03F00103 		and	r3, r3, #1
 3778 1d5c 002B     		cmp	r3, #0
 3779 1d5e 0BD1     		bne	.L209
1419:../src/lib/lpc177x_8x/Drivers/source/lpc177x_8x_can.c ****                     LPC_CANAF_RAM->mask[cnt] = (buf0 << 16) | (0x0000FFFF);
 3780              		.loc 1 1419 0
 3781 1d60 354A     		ldr	r2, .L231
 3782 1d62 F98A     		ldrh	r1, [r7, #22]
 3783 1d64 3B69     		ldr	r3, [r7, #16]
 3784 1d66 4FEA0343 		lsl	r3, r3, #16
 3785 1d6a 6FEA1343 		mvn	r3, r3, lsr #16
 3786 1d6e 6FEA0343 		mvn	r3, r3, lsl #16
 3787 1d72 42F82130 		str	r3, [r2, r1, lsl #2]
 3788 1d76 56E0     		b	.L210
 3789              	.L209:
1420:../src/lib/lpc177x_8x/Drivers/source/lpc177x_8x_can.c ****                 else
1421:../src/lib/lpc177x_8x/Drivers/source/lpc177x_8x_can.c ****                     LPC_CANAF_RAM->mask[cnt] = buf0 | 0x0000FFFF;
 3790              		.loc 1 1421 0
 3791 1d78 2F4A     		ldr	r2, .L231
 3792 1d7a F98A     		ldrh	r1, [r7, #22]
 3793 1d7c 3B69     		ldr	r3, [r7, #16]
 3794 1d7e 6FEA1343 		mvn	r3, r3, lsr #16
 3795 1d82 6FEA0343 		mvn	r3, r3, lsl #16
 3796 1d86 42F82130 		str	r3, [r2, r1, lsl #2]
 3797 1d8a 4CE0     		b	.L210
 3798              	.L208:
1422:../src/lib/lpc177x_8x/Drivers/source/lpc177x_8x_can.c ****             }
1423:../src/lib/lpc177x_8x/Drivers/source/lpc177x_8x_can.c ****             else
1424:../src/lib/lpc177x_8x/Drivers/source/lpc177x_8x_can.c ****             {
1425:../src/lib/lpc177x_8x/Drivers/source/lpc177x_8x_can.c ****                 //remove all remaining section one place down
1426:../src/lib/lpc177x_8x/Drivers/source/lpc177x_8x_can.c ****                 cnt = ((CANAF_FullCAN_cnt + 1)>>1) + ((CANAF_std_cnt + 1) >> 1);
 3799              		.loc 1 1426 0
 3800 1d8c 2C4B     		ldr	r3, .L231+8
 3801 1d8e 1B88     		ldrh	r3, [r3, #0]
 3802 1d90 03F10103 		add	r3, r3, #1
 3803 1d94 4FEA6303 		asr	r3, r3, #1
 3804 1d98 9AB2     		uxth	r2, r3
 3805 1d9a 284B     		ldr	r3, .L231+4
 3806 1d9c 1B88     		ldrh	r3, [r3, #0]
 3807 1d9e 03F10103 		add	r3, r3, #1
 3808 1da2 4FEA6303 		asr	r3, r3, #1
 3809 1da6 9BB2     		uxth	r3, r3
 3810 1da8 D318     		adds	r3, r2, r3
 3811 1daa FB82     		strh	r3, [r7, #22]	@ movhi
1427:../src/lib/lpc177x_8x/Drivers/source/lpc177x_8x_can.c **** 
1428:../src/lib/lpc177x_8x/Drivers/source/lpc177x_8x_can.c ****                 bound = total + CANAF_FullCAN_cnt * 3;
 3812              		.loc 1 1428 0
 3813 1dac 244B     		ldr	r3, .L231+8
 3814 1dae 1B88     		ldrh	r3, [r3, #0]
 3815 1db0 1A46     		mov	r2, r3	@ movhi
 3816 1db2 4FEA4202 		lsl	r2, r2, #1
 3817 1db6 D318     		adds	r3, r2, r3
 3818 1db8 9AB2     		uxth	r2, r3
 3819 1dba FB89     		ldrh	r3, [r7, #14]	@ movhi
 3820 1dbc D318     		adds	r3, r2, r3
 3821 1dbe BB82     		strh	r3, [r7, #20]	@ movhi
1429:../src/lib/lpc177x_8x/Drivers/source/lpc177x_8x_can.c **** 
1430:../src/lib/lpc177x_8x/Drivers/source/lpc177x_8x_can.c ****                 while(bound>cnt)
 3822              		.loc 1 1430 0
 3823 1dc0 0DE0     		b	.L211
 3824              	.L212:
1431:../src/lib/lpc177x_8x/Drivers/source/lpc177x_8x_can.c ****                 {
1432:../src/lib/lpc177x_8x/Drivers/source/lpc177x_8x_can.c ****                     LPC_CANAF_RAM->mask[cnt-1] = LPC_CANAF_RAM->mask[cnt];
 3825              		.loc 1 1432 0
 3826 1dc2 1D4B     		ldr	r3, .L231
 3827 1dc4 FA8A     		ldrh	r2, [r7, #22]
 3828 1dc6 02F1FF32 		add	r2, r2, #-1
 3829 1dca 1B49     		ldr	r1, .L231
 3830 1dcc F88A     		ldrh	r0, [r7, #22]
 3831 1dce 51F82010 		ldr	r1, [r1, r0, lsl #2]
 3832 1dd2 43F82210 		str	r1, [r3, r2, lsl #2]
1433:../src/lib/lpc177x_8x/Drivers/source/lpc177x_8x_can.c ****                     cnt++;
 3833              		.loc 1 1433 0
 3834 1dd6 FB8A     		ldrh	r3, [r7, #22]	@ movhi
 3835 1dd8 03F10103 		add	r3, r3, #1
 3836 1ddc FB82     		strh	r3, [r7, #22]	@ movhi
 3837              	.L211:
1430:../src/lib/lpc177x_8x/Drivers/source/lpc177x_8x_can.c ****                 while(bound>cnt)
 3838              		.loc 1 1430 0 discriminator 1
 3839 1dde BA8A     		ldrh	r2, [r7, #20]
 3840 1de0 FB8A     		ldrh	r3, [r7, #22]
 3841 1de2 9A42     		cmp	r2, r3
 3842 1de4 EDD8     		bhi	.L212
1434:../src/lib/lpc177x_8x/Drivers/source/lpc177x_8x_can.c ****                 }
1435:../src/lib/lpc177x_8x/Drivers/source/lpc177x_8x_can.c **** 
1436:../src/lib/lpc177x_8x/Drivers/source/lpc177x_8x_can.c ****                 LPC_CANAF_RAM->mask[cnt-1]=0x00;
 3843              		.loc 1 1436 0
 3844 1de6 144B     		ldr	r3, .L231
 3845 1de8 FA8A     		ldrh	r2, [r7, #22]
 3846 1dea 02F1FF32 		add	r2, r2, #-1
 3847 1dee 4FF00001 		mov	r1, #0
 3848 1df2 43F82210 		str	r1, [r3, r2, lsl #2]
1437:../src/lib/lpc177x_8x/Drivers/source/lpc177x_8x_can.c **** 
1438:../src/lib/lpc177x_8x/Drivers/source/lpc177x_8x_can.c ****                 //update address value
1439:../src/lib/lpc177x_8x/Drivers/source/lpc177x_8x_can.c ****                 LPC_CANAF->SFF_GRP_sa -= 0x04 ;
 3849              		.loc 1 1439 0
 3850 1df6 134B     		ldr	r3, .L231+12
 3851 1df8 124A     		ldr	r2, .L231+12
 3852 1dfa 9268     		ldr	r2, [r2, #8]
 3853 1dfc A2F10402 		sub	r2, r2, #4
 3854 1e00 9A60     		str	r2, [r3, #8]
1440:../src/lib/lpc177x_8x/Drivers/source/lpc177x_8x_can.c **** 
1441:../src/lib/lpc177x_8x/Drivers/source/lpc177x_8x_can.c ****                 LPC_CANAF->EFF_sa     -= 0x04 ;
 3855              		.loc 1 1441 0
 3856 1e02 104B     		ldr	r3, .L231+12
 3857 1e04 0F4A     		ldr	r2, .L231+12
 3858 1e06 D268     		ldr	r2, [r2, #12]
 3859 1e08 A2F10402 		sub	r2, r2, #4
 3860 1e0c DA60     		str	r2, [r3, #12]
1442:../src/lib/lpc177x_8x/Drivers/source/lpc177x_8x_can.c **** 
1443:../src/lib/lpc177x_8x/Drivers/source/lpc177x_8x_can.c ****                 LPC_CANAF->EFF_GRP_sa -= 0x04;
 3861              		.loc 1 1443 0
 3862 1e0e 0D4B     		ldr	r3, .L231+12
 3863 1e10 0C4A     		ldr	r2, .L231+12
 3864 1e12 1269     		ldr	r2, [r2, #16]
 3865 1e14 A2F10402 		sub	r2, r2, #4
 3866 1e18 1A61     		str	r2, [r3, #16]
1444:../src/lib/lpc177x_8x/Drivers/source/lpc177x_8x_can.c **** 
1445:../src/lib/lpc177x_8x/Drivers/source/lpc177x_8x_can.c ****                 LPC_CANAF->ENDofTable -= 0x04;
 3867              		.loc 1 1445 0
 3868 1e1a 0A4B     		ldr	r3, .L231+12
 3869 1e1c 094A     		ldr	r2, .L231+12
 3870 1e1e 5269     		ldr	r2, [r2, #20]
 3871 1e20 A2F10402 		sub	r2, r2, #4
 3872 1e24 5A61     		str	r2, [r3, #20]
 3873              	.L210:
1446:../src/lib/lpc177x_8x/Drivers/source/lpc177x_8x_can.c ****             }
1447:../src/lib/lpc177x_8x/Drivers/source/lpc177x_8x_can.c **** 
1448:../src/lib/lpc177x_8x/Drivers/source/lpc177x_8x_can.c ****             CANAF_std_cnt--;
 3874              		.loc 1 1448 0
 3875 1e26 054B     		ldr	r3, .L231+4
 3876 1e28 1B88     		ldrh	r3, [r3, #0]
 3877 1e2a 03F1FF33 		add	r3, r3, #-1
 3878 1e2e 9AB2     		uxth	r2, r3
 3879 1e30 024B     		ldr	r3, .L231+4
 3880 1e32 1A80     		strh	r2, [r3, #0]	@ movhi
 3881 1e34 1EE1     		b	.L198
 3882              	.L232:
 3883 1e36 00BF     		.align	2
 3884              	.L231:
 3885 1e38 00800340 		.word	1073971200
 3886 1e3c 00000000 		.word	CANAF_std_cnt
 3887 1e40 00000000 		.word	CANAF_FullCAN_cnt
 3888 1e44 00C00340 		.word	1073987584
 3889              	.L199:
1449:../src/lib/lpc177x_8x/Drivers/source/lpc177x_8x_can.c ****         }
1450:../src/lib/lpc177x_8x/Drivers/source/lpc177x_8x_can.c ****     }
1451:../src/lib/lpc177x_8x/Drivers/source/lpc177x_8x_can.c **** 
1452:../src/lib/lpc177x_8x/Drivers/source/lpc177x_8x_can.c ****     /************** Remove Group of Standard ID Entry *************/
1453:../src/lib/lpc177x_8x/Drivers/source/lpc177x_8x_can.c ****     else if(EntryType == GROUP_STANDARD_ENTRY)
 3890              		.loc 1 1453 0
 3891 1e48 FB79     		ldrb	r3, [r7, #7]	@ zero_extendqisi2
 3892 1e4a 022B     		cmp	r3, #2
 3893 1e4c 60D1     		bne	.L213
1454:../src/lib/lpc177x_8x/Drivers/source/lpc177x_8x_can.c ****     {
1455:../src/lib/lpc177x_8x/Drivers/source/lpc177x_8x_can.c ****         if((CANAF_gstd_cnt == 0)||(position >= CANAF_gstd_cnt))
 3894              		.loc 1 1455 0
 3895 1e4e 8F4B     		ldr	r3, .L233
 3896 1e50 1B88     		ldrh	r3, [r3, #0]
 3897 1e52 002B     		cmp	r3, #0
 3898 1e54 04D0     		beq	.L214
 3899              		.loc 1 1455 0 is_stmt 0 discriminator 1
 3900 1e56 8D4B     		ldr	r3, .L233
 3901 1e58 1B88     		ldrh	r3, [r3, #0]
 3902 1e5a BA88     		ldrh	r2, [r7, #4]
 3903 1e5c 9A42     		cmp	r2, r3
 3904 1e5e 02D3     		bcc	.L215
 3905              	.L214:
1456:../src/lib/lpc177x_8x/Drivers/source/lpc177x_8x_can.c ****         {
1457:../src/lib/lpc177x_8x/Drivers/source/lpc177x_8x_can.c ****             return CAN_ENTRY_NOT_EXIT_ERROR;
 3906              		.loc 1 1457 0 is_stmt 1
 3907 1e60 4FF00703 		mov	r3, #7
 3908 1e64 0CE1     		b	.L184
 3909              	.L215:
1458:../src/lib/lpc177x_8x/Drivers/source/lpc177x_8x_can.c ****         }
1459:../src/lib/lpc177x_8x/Drivers/source/lpc177x_8x_can.c ****         else
1460:../src/lib/lpc177x_8x/Drivers/source/lpc177x_8x_can.c ****         {
1461:../src/lib/lpc177x_8x/Drivers/source/lpc177x_8x_can.c ****             cnt = ((CANAF_FullCAN_cnt + 1) >> 1) + ((CANAF_std_cnt + 1) >> 1)+ position + 1;
 3910              		.loc 1 1461 0
 3911 1e66 8A4B     		ldr	r3, .L233+4
 3912 1e68 1B88     		ldrh	r3, [r3, #0]
 3913 1e6a 03F10103 		add	r3, r3, #1
 3914 1e6e 4FEA6303 		asr	r3, r3, #1
 3915 1e72 9AB2     		uxth	r2, r3
 3916 1e74 874B     		ldr	r3, .L233+8
 3917 1e76 1B88     		ldrh	r3, [r3, #0]
 3918 1e78 03F10103 		add	r3, r3, #1
 3919 1e7c 4FEA6303 		asr	r3, r3, #1
 3920 1e80 9BB2     		uxth	r3, r3
 3921 1e82 D318     		adds	r3, r2, r3
 3922 1e84 9AB2     		uxth	r2, r3
 3923 1e86 BB88     		ldrh	r3, [r7, #4]	@ movhi
 3924 1e88 D318     		adds	r3, r2, r3
 3925 1e8a 9BB2     		uxth	r3, r3
 3926 1e8c 03F10103 		add	r3, r3, #1
 3927 1e90 FB82     		strh	r3, [r7, #22]	@ movhi
1462:../src/lib/lpc177x_8x/Drivers/source/lpc177x_8x_can.c **** 
1463:../src/lib/lpc177x_8x/Drivers/source/lpc177x_8x_can.c ****             bound = total + CANAF_FullCAN_cnt * 3;
 3928              		.loc 1 1463 0
 3929 1e92 7F4B     		ldr	r3, .L233+4
 3930 1e94 1B88     		ldrh	r3, [r3, #0]
 3931 1e96 1A46     		mov	r2, r3	@ movhi
 3932 1e98 4FEA4202 		lsl	r2, r2, #1
 3933 1e9c D318     		adds	r3, r2, r3
 3934 1e9e 9AB2     		uxth	r2, r3
 3935 1ea0 FB89     		ldrh	r3, [r7, #14]	@ movhi
 3936 1ea2 D318     		adds	r3, r2, r3
 3937 1ea4 BB82     		strh	r3, [r7, #20]	@ movhi
1464:../src/lib/lpc177x_8x/Drivers/source/lpc177x_8x_can.c **** 
1465:../src/lib/lpc177x_8x/Drivers/source/lpc177x_8x_can.c ****             while (cnt < bound)
 3938              		.loc 1 1465 0
 3939 1ea6 0DE0     		b	.L216
 3940              	.L217:
1466:../src/lib/lpc177x_8x/Drivers/source/lpc177x_8x_can.c ****             {
1467:../src/lib/lpc177x_8x/Drivers/source/lpc177x_8x_can.c ****                 LPC_CANAF_RAM->mask[cnt - 1] = LPC_CANAF_RAM->mask[cnt];
 3941              		.loc 1 1467 0
 3942 1ea8 7B4B     		ldr	r3, .L233+12
 3943 1eaa FA8A     		ldrh	r2, [r7, #22]
 3944 1eac 02F1FF32 		add	r2, r2, #-1
 3945 1eb0 7949     		ldr	r1, .L233+12
 3946 1eb2 F88A     		ldrh	r0, [r7, #22]
 3947 1eb4 51F82010 		ldr	r1, [r1, r0, lsl #2]
 3948 1eb8 43F82210 		str	r1, [r3, r2, lsl #2]
1468:../src/lib/lpc177x_8x/Drivers/source/lpc177x_8x_can.c ****                 cnt++;
 3949              		.loc 1 1468 0
 3950 1ebc FB8A     		ldrh	r3, [r7, #22]	@ movhi
 3951 1ebe 03F10103 		add	r3, r3, #1
 3952 1ec2 FB82     		strh	r3, [r7, #22]	@ movhi
 3953              	.L216:
1465:../src/lib/lpc177x_8x/Drivers/source/lpc177x_8x_can.c ****             while (cnt < bound)
 3954              		.loc 1 1465 0 discriminator 1
 3955 1ec4 FA8A     		ldrh	r2, [r7, #22]
 3956 1ec6 BB8A     		ldrh	r3, [r7, #20]
 3957 1ec8 9A42     		cmp	r2, r3
 3958 1eca EDD3     		bcc	.L217
1469:../src/lib/lpc177x_8x/Drivers/source/lpc177x_8x_can.c ****             }
1470:../src/lib/lpc177x_8x/Drivers/source/lpc177x_8x_can.c ****             LPC_CANAF_RAM->mask[cnt - 1]=0x00;
 3959              		.loc 1 1470 0
 3960 1ecc 724B     		ldr	r3, .L233+12
 3961 1ece FA8A     		ldrh	r2, [r7, #22]
 3962 1ed0 02F1FF32 		add	r2, r2, #-1
 3963 1ed4 4FF00001 		mov	r1, #0
 3964 1ed8 43F82210 		str	r1, [r3, r2, lsl #2]
1471:../src/lib/lpc177x_8x/Drivers/source/lpc177x_8x_can.c ****         }
1472:../src/lib/lpc177x_8x/Drivers/source/lpc177x_8x_can.c **** 
1473:../src/lib/lpc177x_8x/Drivers/source/lpc177x_8x_can.c ****         CANAF_gstd_cnt--;
 3965              		.loc 1 1473 0
 3966 1edc 6B4B     		ldr	r3, .L233
 3967 1ede 1B88     		ldrh	r3, [r3, #0]
 3968 1ee0 03F1FF33 		add	r3, r3, #-1
 3969 1ee4 9AB2     		uxth	r2, r3
 3970 1ee6 694B     		ldr	r3, .L233
 3971 1ee8 1A80     		strh	r2, [r3, #0]	@ movhi
1474:../src/lib/lpc177x_8x/Drivers/source/lpc177x_8x_can.c **** 
1475:../src/lib/lpc177x_8x/Drivers/source/lpc177x_8x_can.c ****         //update address value
1476:../src/lib/lpc177x_8x/Drivers/source/lpc177x_8x_can.c ****         LPC_CANAF->EFF_sa     -= 0x04;
 3972              		.loc 1 1476 0
 3973 1eea 6C4B     		ldr	r3, .L233+16
 3974 1eec 6B4A     		ldr	r2, .L233+16
 3975 1eee D268     		ldr	r2, [r2, #12]
 3976 1ef0 A2F10402 		sub	r2, r2, #4
 3977 1ef4 DA60     		str	r2, [r3, #12]
1477:../src/lib/lpc177x_8x/Drivers/source/lpc177x_8x_can.c **** 
1478:../src/lib/lpc177x_8x/Drivers/source/lpc177x_8x_can.c ****         LPC_CANAF->EFF_GRP_sa -= 0x04;
 3978              		.loc 1 1478 0
 3979 1ef6 694B     		ldr	r3, .L233+16
 3980 1ef8 684A     		ldr	r2, .L233+16
 3981 1efa 1269     		ldr	r2, [r2, #16]
 3982 1efc A2F10402 		sub	r2, r2, #4
 3983 1f00 1A61     		str	r2, [r3, #16]
1479:../src/lib/lpc177x_8x/Drivers/source/lpc177x_8x_can.c **** 
1480:../src/lib/lpc177x_8x/Drivers/source/lpc177x_8x_can.c ****         LPC_CANAF->ENDofTable -= 0x04;
 3984              		.loc 1 1480 0
 3985 1f02 664B     		ldr	r3, .L233+16
 3986 1f04 654A     		ldr	r2, .L233+16
 3987 1f06 5269     		ldr	r2, [r2, #20]
 3988 1f08 A2F10402 		sub	r2, r2, #4
 3989 1f0c 5A61     		str	r2, [r3, #20]
 3990 1f0e B1E0     		b	.L198
 3991              	.L213:
1481:../src/lib/lpc177x_8x/Drivers/source/lpc177x_8x_can.c ****     }
1482:../src/lib/lpc177x_8x/Drivers/source/lpc177x_8x_can.c **** 
1483:../src/lib/lpc177x_8x/Drivers/source/lpc177x_8x_can.c ****     /************** Remove Explicit Extended ID Entry *************/
1484:../src/lib/lpc177x_8x/Drivers/source/lpc177x_8x_can.c ****     else if(EntryType == EXPLICIT_EXTEND_ENTRY)
 3992              		.loc 1 1484 0
 3993 1f10 FB79     		ldrb	r3, [r7, #7]	@ zero_extendqisi2
 3994 1f12 032B     		cmp	r3, #3
 3995 1f14 5ED1     		bne	.L218
1485:../src/lib/lpc177x_8x/Drivers/source/lpc177x_8x_can.c ****     {
1486:../src/lib/lpc177x_8x/Drivers/source/lpc177x_8x_can.c ****         if((CANAF_ext_cnt == 0)||(position >= CANAF_ext_cnt))
 3996              		.loc 1 1486 0
 3997 1f16 624B     		ldr	r3, .L233+20
 3998 1f18 1B88     		ldrh	r3, [r3, #0]
 3999 1f1a 002B     		cmp	r3, #0
 4000 1f1c 04D0     		beq	.L219
 4001              		.loc 1 1486 0 is_stmt 0 discriminator 1
 4002 1f1e 604B     		ldr	r3, .L233+20
 4003 1f20 1B88     		ldrh	r3, [r3, #0]
 4004 1f22 BA88     		ldrh	r2, [r7, #4]
 4005 1f24 9A42     		cmp	r2, r3
 4006 1f26 02D3     		bcc	.L220
 4007              	.L219:
1487:../src/lib/lpc177x_8x/Drivers/source/lpc177x_8x_can.c ****         {
1488:../src/lib/lpc177x_8x/Drivers/source/lpc177x_8x_can.c ****             return CAN_ENTRY_NOT_EXIT_ERROR;
 4008              		.loc 1 1488 0 is_stmt 1
 4009 1f28 4FF00703 		mov	r3, #7
 4010 1f2c A8E0     		b	.L184
 4011              	.L220:
1489:../src/lib/lpc177x_8x/Drivers/source/lpc177x_8x_can.c ****         }
1490:../src/lib/lpc177x_8x/Drivers/source/lpc177x_8x_can.c ****         else
1491:../src/lib/lpc177x_8x/Drivers/source/lpc177x_8x_can.c ****         {
1492:../src/lib/lpc177x_8x/Drivers/source/lpc177x_8x_can.c ****             cnt = ((CANAF_FullCAN_cnt + 1) >> 1) + ((CANAF_std_cnt + 1) >> 1)+ CANAF_gstd_cnt + pos
 4012              		.loc 1 1492 0
 4013 1f2e 584B     		ldr	r3, .L233+4
 4014 1f30 1B88     		ldrh	r3, [r3, #0]
 4015 1f32 03F10103 		add	r3, r3, #1
 4016 1f36 4FEA6303 		asr	r3, r3, #1
 4017 1f3a 9AB2     		uxth	r2, r3
 4018 1f3c 554B     		ldr	r3, .L233+8
 4019 1f3e 1B88     		ldrh	r3, [r3, #0]
 4020 1f40 03F10103 		add	r3, r3, #1
 4021 1f44 4FEA6303 		asr	r3, r3, #1
 4022 1f48 9BB2     		uxth	r3, r3
 4023 1f4a D318     		adds	r3, r2, r3
 4024 1f4c 9AB2     		uxth	r2, r3
 4025 1f4e 4F4B     		ldr	r3, .L233
 4026 1f50 1B88     		ldrh	r3, [r3, #0]
 4027 1f52 D318     		adds	r3, r2, r3
 4028 1f54 9AB2     		uxth	r2, r3
 4029 1f56 BB88     		ldrh	r3, [r7, #4]	@ movhi
 4030 1f58 D318     		adds	r3, r2, r3
 4031 1f5a 9BB2     		uxth	r3, r3
 4032 1f5c 03F10103 		add	r3, r3, #1
 4033 1f60 FB82     		strh	r3, [r7, #22]	@ movhi
1493:../src/lib/lpc177x_8x/Drivers/source/lpc177x_8x_can.c **** 
1494:../src/lib/lpc177x_8x/Drivers/source/lpc177x_8x_can.c ****             bound = total + CANAF_FullCAN_cnt * 3;
 4034              		.loc 1 1494 0
 4035 1f62 4B4B     		ldr	r3, .L233+4
 4036 1f64 1B88     		ldrh	r3, [r3, #0]
 4037 1f66 1A46     		mov	r2, r3	@ movhi
 4038 1f68 4FEA4202 		lsl	r2, r2, #1
 4039 1f6c D318     		adds	r3, r2, r3
 4040 1f6e 9AB2     		uxth	r2, r3
 4041 1f70 FB89     		ldrh	r3, [r7, #14]	@ movhi
 4042 1f72 D318     		adds	r3, r2, r3
 4043 1f74 BB82     		strh	r3, [r7, #20]	@ movhi
1495:../src/lib/lpc177x_8x/Drivers/source/lpc177x_8x_can.c **** 
1496:../src/lib/lpc177x_8x/Drivers/source/lpc177x_8x_can.c ****             while (cnt<bound)
 4044              		.loc 1 1496 0
 4045 1f76 0DE0     		b	.L221
 4046              	.L222:
1497:../src/lib/lpc177x_8x/Drivers/source/lpc177x_8x_can.c ****             {
1498:../src/lib/lpc177x_8x/Drivers/source/lpc177x_8x_can.c ****                 LPC_CANAF_RAM->mask[cnt - 1] = LPC_CANAF_RAM->mask[cnt];
 4047              		.loc 1 1498 0
 4048 1f78 474B     		ldr	r3, .L233+12
 4049 1f7a FA8A     		ldrh	r2, [r7, #22]
 4050 1f7c 02F1FF32 		add	r2, r2, #-1
 4051 1f80 4549     		ldr	r1, .L233+12
 4052 1f82 F88A     		ldrh	r0, [r7, #22]
 4053 1f84 51F82010 		ldr	r1, [r1, r0, lsl #2]
 4054 1f88 43F82210 		str	r1, [r3, r2, lsl #2]
1499:../src/lib/lpc177x_8x/Drivers/source/lpc177x_8x_can.c ****                 cnt++;
 4055              		.loc 1 1499 0
 4056 1f8c FB8A     		ldrh	r3, [r7, #22]	@ movhi
 4057 1f8e 03F10103 		add	r3, r3, #1
 4058 1f92 FB82     		strh	r3, [r7, #22]	@ movhi
 4059              	.L221:
1496:../src/lib/lpc177x_8x/Drivers/source/lpc177x_8x_can.c ****             while (cnt<bound)
 4060              		.loc 1 1496 0 discriminator 1
 4061 1f94 FA8A     		ldrh	r2, [r7, #22]
 4062 1f96 BB8A     		ldrh	r3, [r7, #20]
 4063 1f98 9A42     		cmp	r2, r3
 4064 1f9a EDD3     		bcc	.L222
1500:../src/lib/lpc177x_8x/Drivers/source/lpc177x_8x_can.c ****             }
1501:../src/lib/lpc177x_8x/Drivers/source/lpc177x_8x_can.c ****             LPC_CANAF_RAM->mask[cnt - 1]=0x00;
 4065              		.loc 1 1501 0
 4066 1f9c 3E4B     		ldr	r3, .L233+12
 4067 1f9e FA8A     		ldrh	r2, [r7, #22]
 4068 1fa0 02F1FF32 		add	r2, r2, #-1
 4069 1fa4 4FF00001 		mov	r1, #0
 4070 1fa8 43F82210 		str	r1, [r3, r2, lsl #2]
1502:../src/lib/lpc177x_8x/Drivers/source/lpc177x_8x_can.c ****         }
1503:../src/lib/lpc177x_8x/Drivers/source/lpc177x_8x_can.c **** 
1504:../src/lib/lpc177x_8x/Drivers/source/lpc177x_8x_can.c ****         CANAF_ext_cnt--;
 4071              		.loc 1 1504 0
 4072 1fac 3C4B     		ldr	r3, .L233+20
 4073 1fae 1B88     		ldrh	r3, [r3, #0]
 4074 1fb0 03F1FF33 		add	r3, r3, #-1
 4075 1fb4 9AB2     		uxth	r2, r3
 4076 1fb6 3A4B     		ldr	r3, .L233+20
 4077 1fb8 1A80     		strh	r2, [r3, #0]	@ movhi
1505:../src/lib/lpc177x_8x/Drivers/source/lpc177x_8x_can.c **** 
1506:../src/lib/lpc177x_8x/Drivers/source/lpc177x_8x_can.c ****         LPC_CANAF->EFF_GRP_sa -= 0x04;
 4078              		.loc 1 1506 0
 4079 1fba 384B     		ldr	r3, .L233+16
 4080 1fbc 374A     		ldr	r2, .L233+16
 4081 1fbe 1269     		ldr	r2, [r2, #16]
 4082 1fc0 A2F10402 		sub	r2, r2, #4
 4083 1fc4 1A61     		str	r2, [r3, #16]
1507:../src/lib/lpc177x_8x/Drivers/source/lpc177x_8x_can.c **** 
1508:../src/lib/lpc177x_8x/Drivers/source/lpc177x_8x_can.c ****         LPC_CANAF->ENDofTable -= 0x04;
 4084              		.loc 1 1508 0
 4085 1fc6 354B     		ldr	r3, .L233+16
 4086 1fc8 344A     		ldr	r2, .L233+16
 4087 1fca 5269     		ldr	r2, [r2, #20]
 4088 1fcc A2F10402 		sub	r2, r2, #4
 4089 1fd0 5A61     		str	r2, [r3, #20]
 4090 1fd2 4FE0     		b	.L198
 4091              	.L218:
1509:../src/lib/lpc177x_8x/Drivers/source/lpc177x_8x_can.c ****     }
1510:../src/lib/lpc177x_8x/Drivers/source/lpc177x_8x_can.c **** 
1511:../src/lib/lpc177x_8x/Drivers/source/lpc177x_8x_can.c ****     /************** Remove Group of Extended ID Entry *************/
1512:../src/lib/lpc177x_8x/Drivers/source/lpc177x_8x_can.c ****     else
1513:../src/lib/lpc177x_8x/Drivers/source/lpc177x_8x_can.c ****     {
1514:../src/lib/lpc177x_8x/Drivers/source/lpc177x_8x_can.c ****         if((CANAF_gext_cnt == 0)||(position >= CANAF_gext_cnt))
 4092              		.loc 1 1514 0
 4093 1fd4 334B     		ldr	r3, .L233+24
 4094 1fd6 1B88     		ldrh	r3, [r3, #0]
 4095 1fd8 002B     		cmp	r3, #0
 4096 1fda 04D0     		beq	.L223
 4097              		.loc 1 1514 0 is_stmt 0 discriminator 1
 4098 1fdc 314B     		ldr	r3, .L233+24
 4099 1fde 1B88     		ldrh	r3, [r3, #0]
 4100 1fe0 BA88     		ldrh	r2, [r7, #4]
 4101 1fe2 9A42     		cmp	r2, r3
 4102 1fe4 02D3     		bcc	.L224
 4103              	.L223:
1515:../src/lib/lpc177x_8x/Drivers/source/lpc177x_8x_can.c ****         {
1516:../src/lib/lpc177x_8x/Drivers/source/lpc177x_8x_can.c ****             return CAN_ENTRY_NOT_EXIT_ERROR;
 4104              		.loc 1 1516 0 is_stmt 1
 4105 1fe6 4FF00703 		mov	r3, #7
 4106 1fea 49E0     		b	.L184
 4107              	.L224:
1517:../src/lib/lpc177x_8x/Drivers/source/lpc177x_8x_can.c ****         }
1518:../src/lib/lpc177x_8x/Drivers/source/lpc177x_8x_can.c ****         else
1519:../src/lib/lpc177x_8x/Drivers/source/lpc177x_8x_can.c ****         {
1520:../src/lib/lpc177x_8x/Drivers/source/lpc177x_8x_can.c ****             cnt = total - (CANAF_gext_cnt << 1) + (position << 1);
 4108              		.loc 1 1520 0
 4109 1fec 2D4B     		ldr	r3, .L233+24
 4110 1fee 1B88     		ldrh	r3, [r3, #0]
 4111 1ff0 4FEA4303 		lsl	r3, r3, #1
 4112 1ff4 9BB2     		uxth	r3, r3
 4113 1ff6 FA89     		ldrh	r2, [r7, #14]	@ movhi
 4114 1ff8 D31A     		subs	r3, r2, r3
 4115 1ffa 9AB2     		uxth	r2, r3
 4116 1ffc BB88     		ldrh	r3, [r7, #4]	@ movhi
 4117 1ffe 4FEA4303 		lsl	r3, r3, #1
 4118 2002 9BB2     		uxth	r3, r3
 4119 2004 D318     		adds	r3, r2, r3
 4120 2006 FB82     		strh	r3, [r7, #22]	@ movhi
1521:../src/lib/lpc177x_8x/Drivers/source/lpc177x_8x_can.c **** 
1522:../src/lib/lpc177x_8x/Drivers/source/lpc177x_8x_can.c ****             bound = total + CANAF_FullCAN_cnt * 3;
 4121              		.loc 1 1522 0
 4122 2008 214B     		ldr	r3, .L233+4
 4123 200a 1B88     		ldrh	r3, [r3, #0]
 4124 200c 1A46     		mov	r2, r3	@ movhi
 4125 200e 4FEA4202 		lsl	r2, r2, #1
 4126 2012 D318     		adds	r3, r2, r3
 4127 2014 9AB2     		uxth	r2, r3
 4128 2016 FB89     		ldrh	r3, [r7, #14]	@ movhi
 4129 2018 D318     		adds	r3, r2, r3
 4130 201a BB82     		strh	r3, [r7, #20]	@ movhi
1523:../src/lib/lpc177x_8x/Drivers/source/lpc177x_8x_can.c **** 
1524:../src/lib/lpc177x_8x/Drivers/source/lpc177x_8x_can.c ****             while (cnt<bound)
 4131              		.loc 1 1524 0
 4132 201c 19E0     		b	.L225
 4133              	.L226:
1525:../src/lib/lpc177x_8x/Drivers/source/lpc177x_8x_can.c ****             {
1526:../src/lib/lpc177x_8x/Drivers/source/lpc177x_8x_can.c ****                 //remove all remaining entry two place up
1527:../src/lib/lpc177x_8x/Drivers/source/lpc177x_8x_can.c ****                 LPC_CANAF_RAM->mask[cnt] = LPC_CANAF_RAM->mask[cnt + 2];
 4134              		.loc 1 1527 0
 4135 201e 1E4B     		ldr	r3, .L233+12
 4136 2020 FA8A     		ldrh	r2, [r7, #22]
 4137 2022 1D49     		ldr	r1, .L233+12
 4138 2024 F88A     		ldrh	r0, [r7, #22]
 4139 2026 00F10200 		add	r0, r0, #2
 4140 202a 51F82010 		ldr	r1, [r1, r0, lsl #2]
 4141 202e 43F82210 		str	r1, [r3, r2, lsl #2]
1528:../src/lib/lpc177x_8x/Drivers/source/lpc177x_8x_can.c **** 
1529:../src/lib/lpc177x_8x/Drivers/source/lpc177x_8x_can.c ****                 LPC_CANAF_RAM->mask[cnt + 1] = LPC_CANAF_RAM->mask[cnt + 3];
 4142              		.loc 1 1529 0
 4143 2032 194B     		ldr	r3, .L233+12
 4144 2034 FA8A     		ldrh	r2, [r7, #22]
 4145 2036 02F10102 		add	r2, r2, #1
 4146 203a 1749     		ldr	r1, .L233+12
 4147 203c F88A     		ldrh	r0, [r7, #22]
 4148 203e 00F10300 		add	r0, r0, #3
 4149 2042 51F82010 		ldr	r1, [r1, r0, lsl #2]
 4150 2046 43F82210 		str	r1, [r3, r2, lsl #2]
1530:../src/lib/lpc177x_8x/Drivers/source/lpc177x_8x_can.c **** 
1531:../src/lib/lpc177x_8x/Drivers/source/lpc177x_8x_can.c ****                 cnt += 2;
 4151              		.loc 1 1531 0
 4152 204a FB8A     		ldrh	r3, [r7, #22]	@ movhi
 4153 204c 03F10203 		add	r3, r3, #2
 4154 2050 FB82     		strh	r3, [r7, #22]	@ movhi
 4155              	.L225:
1524:../src/lib/lpc177x_8x/Drivers/source/lpc177x_8x_can.c ****             while (cnt<bound)
 4156              		.loc 1 1524 0 discriminator 1
 4157 2052 FA8A     		ldrh	r2, [r7, #22]
 4158 2054 BB8A     		ldrh	r3, [r7, #20]
 4159 2056 9A42     		cmp	r2, r3
 4160 2058 E1D3     		bcc	.L226
1532:../src/lib/lpc177x_8x/Drivers/source/lpc177x_8x_can.c ****             }
1533:../src/lib/lpc177x_8x/Drivers/source/lpc177x_8x_can.c ****         }
1534:../src/lib/lpc177x_8x/Drivers/source/lpc177x_8x_can.c **** 
1535:../src/lib/lpc177x_8x/Drivers/source/lpc177x_8x_can.c ****         CANAF_gext_cnt--;
 4161              		.loc 1 1535 0
 4162 205a 124B     		ldr	r3, .L233+24
 4163 205c 1B88     		ldrh	r3, [r3, #0]
 4164 205e 03F1FF33 		add	r3, r3, #-1
 4165 2062 9AB2     		uxth	r2, r3
 4166 2064 0F4B     		ldr	r3, .L233+24
 4167 2066 1A80     		strh	r2, [r3, #0]	@ movhi
1536:../src/lib/lpc177x_8x/Drivers/source/lpc177x_8x_can.c **** 
1537:../src/lib/lpc177x_8x/Drivers/source/lpc177x_8x_can.c ****         LPC_CANAF->ENDofTable -= 0x08;
 4168              		.loc 1 1537 0
 4169 2068 0C4B     		ldr	r3, .L233+16
 4170 206a 0C4A     		ldr	r2, .L233+16
 4171 206c 5269     		ldr	r2, [r2, #20]
 4172 206e A2F10802 		sub	r2, r2, #8
 4173 2072 5A61     		str	r2, [r3, #20]
 4174              	.L198:
1538:../src/lib/lpc177x_8x/Drivers/source/lpc177x_8x_can.c ****     }
1539:../src/lib/lpc177x_8x/Drivers/source/lpc177x_8x_can.c **** 
1540:../src/lib/lpc177x_8x/Drivers/source/lpc177x_8x_can.c ****     LPC_CANAF->AFMR = 0x04;
 4175              		.loc 1 1540 0
 4176 2074 094B     		ldr	r3, .L233+16
 4177 2076 4FF00402 		mov	r2, #4
 4178 207a 1A60     		str	r2, [r3, #0]
1541:../src/lib/lpc177x_8x/Drivers/source/lpc177x_8x_can.c **** 
1542:../src/lib/lpc177x_8x/Drivers/source/lpc177x_8x_can.c ****     return CAN_OK;
 4179              		.loc 1 1542 0
 4180 207c 4FF00103 		mov	r3, #1
 4181              	.L184:
1543:../src/lib/lpc177x_8x/Drivers/source/lpc177x_8x_can.c **** }
 4182              		.loc 1 1543 0
 4183 2080 1846     		mov	r0, r3
 4184 2082 07F11C07 		add	r7, r7, #28
 4185 2086 BD46     		mov	sp, r7
 4186 2088 80BC     		pop	{r7}
 4187 208a 7047     		bx	lr
 4188              	.L234:
 4189              		.align	2
 4190              	.L233:
 4191 208c 00000000 		.word	CANAF_gstd_cnt
 4192 2090 00000000 		.word	CANAF_FullCAN_cnt
 4193 2094 00000000 		.word	CANAF_std_cnt
 4194 2098 00800340 		.word	1073971200
 4195 209c 00C00340 		.word	1073987584
 4196 20a0 00000000 		.word	CANAF_ext_cnt
 4197 20a4 00000000 		.word	CANAF_gext_cnt
 4198              		.cfi_endproc
 4199              	.LFE63:
 4201              		.align	2
 4202              		.global	CAN_SendMsg
 4203              		.thumb
 4204              		.thumb_func
 4206              	CAN_SendMsg:
 4207              	.LFB64:
1544:../src/lib/lpc177x_8x/Drivers/source/lpc177x_8x_can.c **** 
1545:../src/lib/lpc177x_8x/Drivers/source/lpc177x_8x_can.c **** /********************************************************************//**
1546:../src/lib/lpc177x_8x/Drivers/source/lpc177x_8x_can.c ****  * @brief       Send message data
1547:../src/lib/lpc177x_8x/Drivers/source/lpc177x_8x_can.c ****  * @param[in]    canId           The Id of the expected CAN component
1548:../src/lib/lpc177x_8x/Drivers/source/lpc177x_8x_can.c ****  *
1549:../src/lib/lpc177x_8x/Drivers/source/lpc177x_8x_can.c ****  * @param[in]   CAN_Msg point to the CAN_MSG_Type Structure, it contains message
1550:../src/lib/lpc177x_8x/Drivers/source/lpc177x_8x_can.c ****  *              information such as: ID, DLC, RTR, ID Format
1551:../src/lib/lpc177x_8x/Drivers/source/lpc177x_8x_can.c ****  * @return      Status:
1552:../src/lib/lpc177x_8x/Drivers/source/lpc177x_8x_can.c ****  *              - SUCCESS: send message successfully
1553:../src/lib/lpc177x_8x/Drivers/source/lpc177x_8x_can.c ****  *              - ERROR: send message unsuccessfully
1554:../src/lib/lpc177x_8x/Drivers/source/lpc177x_8x_can.c ****  *********************************************************************/
1555:../src/lib/lpc177x_8x/Drivers/source/lpc177x_8x_can.c **** Status CAN_SendMsg (uint8_t canId, CAN_MSG_Type *CAN_Msg)
1556:../src/lib/lpc177x_8x/Drivers/source/lpc177x_8x_can.c **** {
 4208              		.loc 1 1556 0
 4209              		.cfi_startproc
 4210              		@ args = 0, pretend = 0, frame = 16
 4211              		@ frame_needed = 1, uses_anonymous_args = 0
 4212 20a8 80B5     		push	{r7, lr}
 4213              	.LCFI27:
 4214              		.cfi_def_cfa_offset 8
 4215              		.cfi_offset 7, -8
 4216              		.cfi_offset 14, -4
 4217 20aa 84B0     		sub	sp, sp, #16
 4218              	.LCFI28:
 4219              		.cfi_def_cfa_offset 24
 4220 20ac 00AF     		add	r7, sp, #0
 4221              	.LCFI29:
 4222              		.cfi_def_cfa_register 7
 4223 20ae 0346     		mov	r3, r0
 4224 20b0 3960     		str	r1, [r7, #0]
 4225 20b2 FB71     		strb	r3, [r7, #7]
1557:../src/lib/lpc177x_8x/Drivers/source/lpc177x_8x_can.c ****     LPC_CAN_TypeDef* pCan = CAN_GetPointer(canId);
 4226              		.loc 1 1557 0
 4227 20b4 FB79     		ldrb	r3, [r7, #7]	@ zero_extendqisi2
 4228 20b6 1846     		mov	r0, r3
 4229 20b8 FDF7A2FF 		bl	CAN_GetPointer
 4230 20bc F860     		str	r0, [r7, #12]
1558:../src/lib/lpc177x_8x/Drivers/source/lpc177x_8x_can.c **** 
1559:../src/lib/lpc177x_8x/Drivers/source/lpc177x_8x_can.c ****     uint32_t data;
1560:../src/lib/lpc177x_8x/Drivers/source/lpc177x_8x_can.c **** 
1561:../src/lib/lpc177x_8x/Drivers/source/lpc177x_8x_can.c ****     //Check status of Transmit Buffer 1
1562:../src/lib/lpc177x_8x/Drivers/source/lpc177x_8x_can.c ****     if (pCan->SR & (1 << 2))
 4231              		.loc 1 1562 0
 4232 20be FB68     		ldr	r3, [r7, #12]
 4233 20c0 DB69     		ldr	r3, [r3, #28]
 4234 20c2 03F00403 		and	r3, r3, #4
 4235 20c6 002B     		cmp	r3, #0
 4236 20c8 67D0     		beq	.L236
1563:../src/lib/lpc177x_8x/Drivers/source/lpc177x_8x_can.c ****     {
1564:../src/lib/lpc177x_8x/Drivers/source/lpc177x_8x_can.c ****         /* Transmit Channel 1 is available */
1565:../src/lib/lpc177x_8x/Drivers/source/lpc177x_8x_can.c ****         /* Write frame informations and frame data into its CANxTFI1,
1566:../src/lib/lpc177x_8x/Drivers/source/lpc177x_8x_can.c ****          * CANxTID1, CANxTDA1, CANxTDB1 register */
1567:../src/lib/lpc177x_8x/Drivers/source/lpc177x_8x_can.c ****         pCan->TFI1 &= ~ 0x000F0000;
 4237              		.loc 1 1567 0
 4238 20ca FB68     		ldr	r3, [r7, #12]
 4239 20cc 1B6B     		ldr	r3, [r3, #48]
 4240 20ce 23F47022 		bic	r2, r3, #983040
 4241 20d2 FB68     		ldr	r3, [r7, #12]
 4242 20d4 1A63     		str	r2, [r3, #48]
1568:../src/lib/lpc177x_8x/Drivers/source/lpc177x_8x_can.c **** 
1569:../src/lib/lpc177x_8x/Drivers/source/lpc177x_8x_can.c ****         pCan->TFI1 |= (CAN_Msg->len) << 16;
 4243              		.loc 1 1569 0
 4244 20d6 FB68     		ldr	r3, [r7, #12]
 4245 20d8 1A6B     		ldr	r2, [r3, #48]
 4246 20da 3B68     		ldr	r3, [r7, #0]
 4247 20dc 1B7B     		ldrb	r3, [r3, #12]	@ zero_extendqisi2
 4248 20de 4FEA0343 		lsl	r3, r3, #16
 4249 20e2 1A43     		orrs	r2, r2, r3
 4250 20e4 FB68     		ldr	r3, [r7, #12]
 4251 20e6 1A63     		str	r2, [r3, #48]
1570:../src/lib/lpc177x_8x/Drivers/source/lpc177x_8x_can.c **** 
1571:../src/lib/lpc177x_8x/Drivers/source/lpc177x_8x_can.c ****         if(CAN_Msg->type == REMOTE_FRAME)
 4252              		.loc 1 1571 0
 4253 20e8 3B68     		ldr	r3, [r7, #0]
 4254 20ea 9B7B     		ldrb	r3, [r3, #14]	@ zero_extendqisi2
 4255 20ec 012B     		cmp	r3, #1
 4256 20ee 06D1     		bne	.L237
1572:../src/lib/lpc177x_8x/Drivers/source/lpc177x_8x_can.c ****         {
1573:../src/lib/lpc177x_8x/Drivers/source/lpc177x_8x_can.c ****             pCan->TFI1 |= (1 << 30); //set bit RTR
 4257              		.loc 1 1573 0
 4258 20f0 FB68     		ldr	r3, [r7, #12]
 4259 20f2 1B6B     		ldr	r3, [r3, #48]
 4260 20f4 43F08042 		orr	r2, r3, #1073741824
 4261 20f8 FB68     		ldr	r3, [r7, #12]
 4262 20fa 1A63     		str	r2, [r3, #48]
 4263 20fc 05E0     		b	.L238
 4264              	.L237:
1574:../src/lib/lpc177x_8x/Drivers/source/lpc177x_8x_can.c ****         }
1575:../src/lib/lpc177x_8x/Drivers/source/lpc177x_8x_can.c ****         else
1576:../src/lib/lpc177x_8x/Drivers/source/lpc177x_8x_can.c ****         {
1577:../src/lib/lpc177x_8x/Drivers/source/lpc177x_8x_can.c ****             pCan->TFI1 &= ~(1 << 30);
 4265              		.loc 1 1577 0
 4266 20fe FB68     		ldr	r3, [r7, #12]
 4267 2100 1B6B     		ldr	r3, [r3, #48]
 4268 2102 23F08042 		bic	r2, r3, #1073741824
 4269 2106 FB68     		ldr	r3, [r7, #12]
 4270 2108 1A63     		str	r2, [r3, #48]
 4271              	.L238:
1578:../src/lib/lpc177x_8x/Drivers/source/lpc177x_8x_can.c ****         }
1579:../src/lib/lpc177x_8x/Drivers/source/lpc177x_8x_can.c **** 
1580:../src/lib/lpc177x_8x/Drivers/source/lpc177x_8x_can.c ****         if(CAN_Msg->format == EXT_ID_FORMAT)
 4272              		.loc 1 1580 0
 4273 210a 3B68     		ldr	r3, [r7, #0]
 4274 210c 5B7B     		ldrb	r3, [r3, #13]	@ zero_extendqisi2
 4275 210e 012B     		cmp	r3, #1
 4276 2110 06D1     		bne	.L239
1581:../src/lib/lpc177x_8x/Drivers/source/lpc177x_8x_can.c ****         {
1582:../src/lib/lpc177x_8x/Drivers/source/lpc177x_8x_can.c ****             pCan->TFI1 |= (((uint32_t)1) << 31); //set bit FF
 4277              		.loc 1 1582 0
 4278 2112 FB68     		ldr	r3, [r7, #12]
 4279 2114 1B6B     		ldr	r3, [r3, #48]
 4280 2116 43F00042 		orr	r2, r3, #-2147483648
 4281 211a FB68     		ldr	r3, [r7, #12]
 4282 211c 1A63     		str	r2, [r3, #48]
 4283 211e 05E0     		b	.L240
 4284              	.L239:
1583:../src/lib/lpc177x_8x/Drivers/source/lpc177x_8x_can.c ****         }
1584:../src/lib/lpc177x_8x/Drivers/source/lpc177x_8x_can.c ****         else
1585:../src/lib/lpc177x_8x/Drivers/source/lpc177x_8x_can.c ****         {
1586:../src/lib/lpc177x_8x/Drivers/source/lpc177x_8x_can.c ****             pCan->TFI1 &= ~(((uint32_t)1) << 31);
 4285              		.loc 1 1586 0
 4286 2120 FB68     		ldr	r3, [r7, #12]
 4287 2122 1B6B     		ldr	r3, [r3, #48]
 4288 2124 23F00042 		bic	r2, r3, #-2147483648
 4289 2128 FB68     		ldr	r3, [r7, #12]
 4290 212a 1A63     		str	r2, [r3, #48]
 4291              	.L240:
1587:../src/lib/lpc177x_8x/Drivers/source/lpc177x_8x_can.c ****         }
1588:../src/lib/lpc177x_8x/Drivers/source/lpc177x_8x_can.c **** 
1589:../src/lib/lpc177x_8x/Drivers/source/lpc177x_8x_can.c ****         /* Write CAN ID*/
1590:../src/lib/lpc177x_8x/Drivers/source/lpc177x_8x_can.c ****         pCan->TID1 = CAN_Msg->id;
 4292              		.loc 1 1590 0
 4293 212c 3B68     		ldr	r3, [r7, #0]
 4294 212e 1A68     		ldr	r2, [r3, #0]
 4295 2130 FB68     		ldr	r3, [r7, #12]
 4296 2132 5A63     		str	r2, [r3, #52]
1591:../src/lib/lpc177x_8x/Drivers/source/lpc177x_8x_can.c **** 
1592:../src/lib/lpc177x_8x/Drivers/source/lpc177x_8x_can.c ****         /*Write first 4 data bytes*/
1593:../src/lib/lpc177x_8x/Drivers/source/lpc177x_8x_can.c ****         data = (CAN_Msg->dataA[0]) | (((CAN_Msg->dataA[1]))<< 8) | ((CAN_Msg->dataA[2]) << 16) | ((
 4297              		.loc 1 1593 0
 4298 2134 3B68     		ldr	r3, [r7, #0]
 4299 2136 1B79     		ldrb	r3, [r3, #4]	@ zero_extendqisi2
 4300 2138 1A46     		mov	r2, r3
 4301 213a 3B68     		ldr	r3, [r7, #0]
 4302 213c 5B79     		ldrb	r3, [r3, #5]	@ zero_extendqisi2
 4303 213e 4FEA0323 		lsl	r3, r3, #8
 4304 2142 1A43     		orrs	r2, r2, r3
 4305 2144 3B68     		ldr	r3, [r7, #0]
 4306 2146 9B79     		ldrb	r3, [r3, #6]	@ zero_extendqisi2
 4307 2148 4FEA0343 		lsl	r3, r3, #16
 4308 214c 1A43     		orrs	r2, r2, r3
 4309 214e 3B68     		ldr	r3, [r7, #0]
 4310 2150 DB79     		ldrb	r3, [r3, #7]	@ zero_extendqisi2
 4311 2152 4FEA0363 		lsl	r3, r3, #24
 4312 2156 1343     		orrs	r3, r3, r2
 4313 2158 BB60     		str	r3, [r7, #8]
1594:../src/lib/lpc177x_8x/Drivers/source/lpc177x_8x_can.c **** 
1595:../src/lib/lpc177x_8x/Drivers/source/lpc177x_8x_can.c ****         pCan->TDA1 = data;
 4314              		.loc 1 1595 0
 4315 215a FB68     		ldr	r3, [r7, #12]
 4316 215c BA68     		ldr	r2, [r7, #8]
 4317 215e 9A63     		str	r2, [r3, #56]
1596:../src/lib/lpc177x_8x/Drivers/source/lpc177x_8x_can.c **** 
1597:../src/lib/lpc177x_8x/Drivers/source/lpc177x_8x_can.c ****         /*Write second 4 data bytes*/
1598:../src/lib/lpc177x_8x/Drivers/source/lpc177x_8x_can.c ****         data = (CAN_Msg->dataB[0]) | (((CAN_Msg->dataB[1])) << 8)|((CAN_Msg->dataB[2]) << 16)|((CAN
 4318              		.loc 1 1598 0
 4319 2160 3B68     		ldr	r3, [r7, #0]
 4320 2162 1B7A     		ldrb	r3, [r3, #8]	@ zero_extendqisi2
 4321 2164 1A46     		mov	r2, r3
 4322 2166 3B68     		ldr	r3, [r7, #0]
 4323 2168 5B7A     		ldrb	r3, [r3, #9]	@ zero_extendqisi2
 4324 216a 4FEA0323 		lsl	r3, r3, #8
 4325 216e 1A43     		orrs	r2, r2, r3
 4326 2170 3B68     		ldr	r3, [r7, #0]
 4327 2172 9B7A     		ldrb	r3, [r3, #10]	@ zero_extendqisi2
 4328 2174 4FEA0343 		lsl	r3, r3, #16
 4329 2178 1A43     		orrs	r2, r2, r3
 4330 217a 3B68     		ldr	r3, [r7, #0]
 4331 217c DB7A     		ldrb	r3, [r3, #11]	@ zero_extendqisi2
 4332 217e 4FEA0363 		lsl	r3, r3, #24
 4333 2182 1343     		orrs	r3, r3, r2
 4334 2184 BB60     		str	r3, [r7, #8]
1599:../src/lib/lpc177x_8x/Drivers/source/lpc177x_8x_can.c **** 
1600:../src/lib/lpc177x_8x/Drivers/source/lpc177x_8x_can.c ****         pCan->TDB1 = data;
 4335              		.loc 1 1600 0
 4336 2186 FB68     		ldr	r3, [r7, #12]
 4337 2188 BA68     		ldr	r2, [r7, #8]
 4338 218a DA63     		str	r2, [r3, #60]
1601:../src/lib/lpc177x_8x/Drivers/source/lpc177x_8x_can.c **** 
1602:../src/lib/lpc177x_8x/Drivers/source/lpc177x_8x_can.c ****          /*Write transmission request*/
1603:../src/lib/lpc177x_8x/Drivers/source/lpc177x_8x_can.c ****          pCan->CMR = 0x21;
 4339              		.loc 1 1603 0
 4340 218c FB68     		ldr	r3, [r7, #12]
 4341 218e 4FF02102 		mov	r2, #33
 4342 2192 5A60     		str	r2, [r3, #4]
1604:../src/lib/lpc177x_8x/Drivers/source/lpc177x_8x_can.c **** 
1605:../src/lib/lpc177x_8x/Drivers/source/lpc177x_8x_can.c ****          return SUCCESS;
 4343              		.loc 1 1605 0
 4344 2194 4FF00103 		mov	r3, #1
 4345 2198 DDE0     		b	.L241
 4346              	.L236:
1606:../src/lib/lpc177x_8x/Drivers/source/lpc177x_8x_can.c ****     }
1607:../src/lib/lpc177x_8x/Drivers/source/lpc177x_8x_can.c **** 
1608:../src/lib/lpc177x_8x/Drivers/source/lpc177x_8x_can.c ****     //check status of Transmit Buffer 2
1609:../src/lib/lpc177x_8x/Drivers/source/lpc177x_8x_can.c ****     else if((pCan->SR) & (1 << 10))
 4347              		.loc 1 1609 0
 4348 219a FB68     		ldr	r3, [r7, #12]
 4349 219c DB69     		ldr	r3, [r3, #28]
 4350 219e 03F48063 		and	r3, r3, #1024
 4351 21a2 002B     		cmp	r3, #0
 4352 21a4 67D0     		beq	.L242
1610:../src/lib/lpc177x_8x/Drivers/source/lpc177x_8x_can.c ****     {
1611:../src/lib/lpc177x_8x/Drivers/source/lpc177x_8x_can.c ****         /* Transmit Channel 2 is available */
1612:../src/lib/lpc177x_8x/Drivers/source/lpc177x_8x_can.c ****         /* Write frame informations and frame data into its CANxTFI2,
1613:../src/lib/lpc177x_8x/Drivers/source/lpc177x_8x_can.c ****          * CANxTID2, CANxTDA2, CANxTDB2 register */
1614:../src/lib/lpc177x_8x/Drivers/source/lpc177x_8x_can.c ****         pCan->TFI2 &= ~0x000F0000;
 4353              		.loc 1 1614 0
 4354 21a6 FB68     		ldr	r3, [r7, #12]
 4355 21a8 1B6C     		ldr	r3, [r3, #64]
 4356 21aa 23F47022 		bic	r2, r3, #983040
 4357 21ae FB68     		ldr	r3, [r7, #12]
 4358 21b0 1A64     		str	r2, [r3, #64]
1615:../src/lib/lpc177x_8x/Drivers/source/lpc177x_8x_can.c **** 
1616:../src/lib/lpc177x_8x/Drivers/source/lpc177x_8x_can.c ****         pCan->TFI2 |= (CAN_Msg->len) << 16;
 4359              		.loc 1 1616 0
 4360 21b2 FB68     		ldr	r3, [r7, #12]
 4361 21b4 1A6C     		ldr	r2, [r3, #64]
 4362 21b6 3B68     		ldr	r3, [r7, #0]
 4363 21b8 1B7B     		ldrb	r3, [r3, #12]	@ zero_extendqisi2
 4364 21ba 4FEA0343 		lsl	r3, r3, #16
 4365 21be 1A43     		orrs	r2, r2, r3
 4366 21c0 FB68     		ldr	r3, [r7, #12]
 4367 21c2 1A64     		str	r2, [r3, #64]
1617:../src/lib/lpc177x_8x/Drivers/source/lpc177x_8x_can.c **** 
1618:../src/lib/lpc177x_8x/Drivers/source/lpc177x_8x_can.c ****         if(CAN_Msg->type == REMOTE_FRAME)
 4368              		.loc 1 1618 0
 4369 21c4 3B68     		ldr	r3, [r7, #0]
 4370 21c6 9B7B     		ldrb	r3, [r3, #14]	@ zero_extendqisi2
 4371 21c8 012B     		cmp	r3, #1
 4372 21ca 06D1     		bne	.L243
1619:../src/lib/lpc177x_8x/Drivers/source/lpc177x_8x_can.c ****         {
1620:../src/lib/lpc177x_8x/Drivers/source/lpc177x_8x_can.c ****             pCan->TFI2 |= (1 << 30); //set bit RTR
 4373              		.loc 1 1620 0
 4374 21cc FB68     		ldr	r3, [r7, #12]
 4375 21ce 1B6C     		ldr	r3, [r3, #64]
 4376 21d0 43F08042 		orr	r2, r3, #1073741824
 4377 21d4 FB68     		ldr	r3, [r7, #12]
 4378 21d6 1A64     		str	r2, [r3, #64]
 4379 21d8 05E0     		b	.L244
 4380              	.L243:
1621:../src/lib/lpc177x_8x/Drivers/source/lpc177x_8x_can.c ****         }
1622:../src/lib/lpc177x_8x/Drivers/source/lpc177x_8x_can.c ****         else
1623:../src/lib/lpc177x_8x/Drivers/source/lpc177x_8x_can.c ****         {
1624:../src/lib/lpc177x_8x/Drivers/source/lpc177x_8x_can.c ****             pCan->TFI2 &= ~(1 << 30);
 4381              		.loc 1 1624 0
 4382 21da FB68     		ldr	r3, [r7, #12]
 4383 21dc 1B6C     		ldr	r3, [r3, #64]
 4384 21de 23F08042 		bic	r2, r3, #1073741824
 4385 21e2 FB68     		ldr	r3, [r7, #12]
 4386 21e4 1A64     		str	r2, [r3, #64]
 4387              	.L244:
1625:../src/lib/lpc177x_8x/Drivers/source/lpc177x_8x_can.c ****         }
1626:../src/lib/lpc177x_8x/Drivers/source/lpc177x_8x_can.c **** 
1627:../src/lib/lpc177x_8x/Drivers/source/lpc177x_8x_can.c ****         if(CAN_Msg->format == EXT_ID_FORMAT)
 4388              		.loc 1 1627 0
 4389 21e6 3B68     		ldr	r3, [r7, #0]
 4390 21e8 5B7B     		ldrb	r3, [r3, #13]	@ zero_extendqisi2
 4391 21ea 012B     		cmp	r3, #1
 4392 21ec 06D1     		bne	.L245
1628:../src/lib/lpc177x_8x/Drivers/source/lpc177x_8x_can.c ****         {
1629:../src/lib/lpc177x_8x/Drivers/source/lpc177x_8x_can.c ****             pCan->TFI2 |= (((uint32_t)1) << 31); //set bit FF
 4393              		.loc 1 1629 0
 4394 21ee FB68     		ldr	r3, [r7, #12]
 4395 21f0 1B6C     		ldr	r3, [r3, #64]
 4396 21f2 43F00042 		orr	r2, r3, #-2147483648
 4397 21f6 FB68     		ldr	r3, [r7, #12]
 4398 21f8 1A64     		str	r2, [r3, #64]
 4399 21fa 05E0     		b	.L246
 4400              	.L245:
1630:../src/lib/lpc177x_8x/Drivers/source/lpc177x_8x_can.c ****         }
1631:../src/lib/lpc177x_8x/Drivers/source/lpc177x_8x_can.c ****         else
1632:../src/lib/lpc177x_8x/Drivers/source/lpc177x_8x_can.c ****         {
1633:../src/lib/lpc177x_8x/Drivers/source/lpc177x_8x_can.c ****             pCan->TFI2 &= ~(((uint32_t)1) << 31);
 4401              		.loc 1 1633 0
 4402 21fc FB68     		ldr	r3, [r7, #12]
 4403 21fe 1B6C     		ldr	r3, [r3, #64]
 4404 2200 23F00042 		bic	r2, r3, #-2147483648
 4405 2204 FB68     		ldr	r3, [r7, #12]
 4406 2206 1A64     		str	r2, [r3, #64]
 4407              	.L246:
1634:../src/lib/lpc177x_8x/Drivers/source/lpc177x_8x_can.c ****         }
1635:../src/lib/lpc177x_8x/Drivers/source/lpc177x_8x_can.c **** 
1636:../src/lib/lpc177x_8x/Drivers/source/lpc177x_8x_can.c ****         /* Write CAN ID*/
1637:../src/lib/lpc177x_8x/Drivers/source/lpc177x_8x_can.c ****         pCan->TID2 = CAN_Msg->id;
 4408              		.loc 1 1637 0
 4409 2208 3B68     		ldr	r3, [r7, #0]
 4410 220a 1A68     		ldr	r2, [r3, #0]
 4411 220c FB68     		ldr	r3, [r7, #12]
 4412 220e 5A64     		str	r2, [r3, #68]
1638:../src/lib/lpc177x_8x/Drivers/source/lpc177x_8x_can.c **** 
1639:../src/lib/lpc177x_8x/Drivers/source/lpc177x_8x_can.c ****         /*Write first 4 data bytes*/
1640:../src/lib/lpc177x_8x/Drivers/source/lpc177x_8x_can.c ****         data = (CAN_Msg->dataA[0]) | (((CAN_Msg->dataA[1])) << 8) | ((CAN_Msg->dataA[2]) << 16)|((C
 4413              		.loc 1 1640 0
 4414 2210 3B68     		ldr	r3, [r7, #0]
 4415 2212 1B79     		ldrb	r3, [r3, #4]	@ zero_extendqisi2
 4416 2214 1A46     		mov	r2, r3
 4417 2216 3B68     		ldr	r3, [r7, #0]
 4418 2218 5B79     		ldrb	r3, [r3, #5]	@ zero_extendqisi2
 4419 221a 4FEA0323 		lsl	r3, r3, #8
 4420 221e 1A43     		orrs	r2, r2, r3
 4421 2220 3B68     		ldr	r3, [r7, #0]
 4422 2222 9B79     		ldrb	r3, [r3, #6]	@ zero_extendqisi2
 4423 2224 4FEA0343 		lsl	r3, r3, #16
 4424 2228 1A43     		orrs	r2, r2, r3
 4425 222a 3B68     		ldr	r3, [r7, #0]
 4426 222c DB79     		ldrb	r3, [r3, #7]	@ zero_extendqisi2
 4427 222e 4FEA0363 		lsl	r3, r3, #24
 4428 2232 1343     		orrs	r3, r3, r2
 4429 2234 BB60     		str	r3, [r7, #8]
1641:../src/lib/lpc177x_8x/Drivers/source/lpc177x_8x_can.c **** 
1642:../src/lib/lpc177x_8x/Drivers/source/lpc177x_8x_can.c ****         pCan->TDA2 = data;
 4430              		.loc 1 1642 0
 4431 2236 FB68     		ldr	r3, [r7, #12]
 4432 2238 BA68     		ldr	r2, [r7, #8]
 4433 223a 9A64     		str	r2, [r3, #72]
1643:../src/lib/lpc177x_8x/Drivers/source/lpc177x_8x_can.c **** 
1644:../src/lib/lpc177x_8x/Drivers/source/lpc177x_8x_can.c ****         /*Write second 4 data bytes*/
1645:../src/lib/lpc177x_8x/Drivers/source/lpc177x_8x_can.c ****         data = (CAN_Msg->dataB[0]) | (((CAN_Msg->dataB[1])) << 8) | ((CAN_Msg->dataB[2]) << 16) | (
 4434              		.loc 1 1645 0
 4435 223c 3B68     		ldr	r3, [r7, #0]
 4436 223e 1B7A     		ldrb	r3, [r3, #8]	@ zero_extendqisi2
 4437 2240 1A46     		mov	r2, r3
 4438 2242 3B68     		ldr	r3, [r7, #0]
 4439 2244 5B7A     		ldrb	r3, [r3, #9]	@ zero_extendqisi2
 4440 2246 4FEA0323 		lsl	r3, r3, #8
 4441 224a 1A43     		orrs	r2, r2, r3
 4442 224c 3B68     		ldr	r3, [r7, #0]
 4443 224e 9B7A     		ldrb	r3, [r3, #10]	@ zero_extendqisi2
 4444 2250 4FEA0343 		lsl	r3, r3, #16
 4445 2254 1A43     		orrs	r2, r2, r3
 4446 2256 3B68     		ldr	r3, [r7, #0]
 4447 2258 DB7A     		ldrb	r3, [r3, #11]	@ zero_extendqisi2
 4448 225a 4FEA0363 		lsl	r3, r3, #24
 4449 225e 1343     		orrs	r3, r3, r2
 4450 2260 BB60     		str	r3, [r7, #8]
1646:../src/lib/lpc177x_8x/Drivers/source/lpc177x_8x_can.c **** 
1647:../src/lib/lpc177x_8x/Drivers/source/lpc177x_8x_can.c ****         pCan->TDB2 = data;
 4451              		.loc 1 1647 0
 4452 2262 FB68     		ldr	r3, [r7, #12]
 4453 2264 BA68     		ldr	r2, [r7, #8]
 4454 2266 DA64     		str	r2, [r3, #76]
1648:../src/lib/lpc177x_8x/Drivers/source/lpc177x_8x_can.c **** 
1649:../src/lib/lpc177x_8x/Drivers/source/lpc177x_8x_can.c ****         /*Write transmission request*/
1650:../src/lib/lpc177x_8x/Drivers/source/lpc177x_8x_can.c ****         pCan->CMR = 0x41;
 4455              		.loc 1 1650 0
 4456 2268 FB68     		ldr	r3, [r7, #12]
 4457 226a 4FF04102 		mov	r2, #65
 4458 226e 5A60     		str	r2, [r3, #4]
1651:../src/lib/lpc177x_8x/Drivers/source/lpc177x_8x_can.c **** 
1652:../src/lib/lpc177x_8x/Drivers/source/lpc177x_8x_can.c ****         return SUCCESS;
 4459              		.loc 1 1652 0
 4460 2270 4FF00103 		mov	r3, #1
 4461 2274 6FE0     		b	.L241
 4462              	.L242:
1653:../src/lib/lpc177x_8x/Drivers/source/lpc177x_8x_can.c ****     }
1654:../src/lib/lpc177x_8x/Drivers/source/lpc177x_8x_can.c **** 
1655:../src/lib/lpc177x_8x/Drivers/source/lpc177x_8x_can.c ****     //check status of Transmit Buffer 3
1656:../src/lib/lpc177x_8x/Drivers/source/lpc177x_8x_can.c ****     else if (pCan->SR & (1<<18))
 4463              		.loc 1 1656 0
 4464 2276 FB68     		ldr	r3, [r7, #12]
 4465 2278 DB69     		ldr	r3, [r3, #28]
 4466 227a 03F48023 		and	r3, r3, #262144
 4467 227e 002B     		cmp	r3, #0
 4468 2280 67D0     		beq	.L247
1657:../src/lib/lpc177x_8x/Drivers/source/lpc177x_8x_can.c ****     {
1658:../src/lib/lpc177x_8x/Drivers/source/lpc177x_8x_can.c ****         /* Transmit Channel 3 is available */
1659:../src/lib/lpc177x_8x/Drivers/source/lpc177x_8x_can.c ****         /* Write frame informations and frame data into its CANxTFI3,
1660:../src/lib/lpc177x_8x/Drivers/source/lpc177x_8x_can.c ****          * CANxTID3, CANxTDA3, CANxTDB3 register */
1661:../src/lib/lpc177x_8x/Drivers/source/lpc177x_8x_can.c ****         pCan->TFI3 &= ~0x000F0000;
 4469              		.loc 1 1661 0
 4470 2282 FB68     		ldr	r3, [r7, #12]
 4471 2284 1B6D     		ldr	r3, [r3, #80]
 4472 2286 23F47022 		bic	r2, r3, #983040
 4473 228a FB68     		ldr	r3, [r7, #12]
 4474 228c 1A65     		str	r2, [r3, #80]
1662:../src/lib/lpc177x_8x/Drivers/source/lpc177x_8x_can.c **** 
1663:../src/lib/lpc177x_8x/Drivers/source/lpc177x_8x_can.c ****         pCan->TFI3 |= (CAN_Msg->len) << 16;
 4475              		.loc 1 1663 0
 4476 228e FB68     		ldr	r3, [r7, #12]
 4477 2290 1A6D     		ldr	r2, [r3, #80]
 4478 2292 3B68     		ldr	r3, [r7, #0]
 4479 2294 1B7B     		ldrb	r3, [r3, #12]	@ zero_extendqisi2
 4480 2296 4FEA0343 		lsl	r3, r3, #16
 4481 229a 1A43     		orrs	r2, r2, r3
 4482 229c FB68     		ldr	r3, [r7, #12]
 4483 229e 1A65     		str	r2, [r3, #80]
1664:../src/lib/lpc177x_8x/Drivers/source/lpc177x_8x_can.c **** 
1665:../src/lib/lpc177x_8x/Drivers/source/lpc177x_8x_can.c ****         if(CAN_Msg->type == REMOTE_FRAME)
 4484              		.loc 1 1665 0
 4485 22a0 3B68     		ldr	r3, [r7, #0]
 4486 22a2 9B7B     		ldrb	r3, [r3, #14]	@ zero_extendqisi2
 4487 22a4 012B     		cmp	r3, #1
 4488 22a6 06D1     		bne	.L248
1666:../src/lib/lpc177x_8x/Drivers/source/lpc177x_8x_can.c ****         {
1667:../src/lib/lpc177x_8x/Drivers/source/lpc177x_8x_can.c ****             pCan->TFI3 |= (1 << 30); //set bit RTR
 4489              		.loc 1 1667 0
 4490 22a8 FB68     		ldr	r3, [r7, #12]
 4491 22aa 1B6D     		ldr	r3, [r3, #80]
 4492 22ac 43F08042 		orr	r2, r3, #1073741824
 4493 22b0 FB68     		ldr	r3, [r7, #12]
 4494 22b2 1A65     		str	r2, [r3, #80]
 4495 22b4 05E0     		b	.L249
 4496              	.L248:
1668:../src/lib/lpc177x_8x/Drivers/source/lpc177x_8x_can.c ****         }
1669:../src/lib/lpc177x_8x/Drivers/source/lpc177x_8x_can.c ****         else
1670:../src/lib/lpc177x_8x/Drivers/source/lpc177x_8x_can.c ****         {
1671:../src/lib/lpc177x_8x/Drivers/source/lpc177x_8x_can.c ****             pCan->TFI3 &= ~(1 << 30);
 4497              		.loc 1 1671 0
 4498 22b6 FB68     		ldr	r3, [r7, #12]
 4499 22b8 1B6D     		ldr	r3, [r3, #80]
 4500 22ba 23F08042 		bic	r2, r3, #1073741824
 4501 22be FB68     		ldr	r3, [r7, #12]
 4502 22c0 1A65     		str	r2, [r3, #80]
 4503              	.L249:
1672:../src/lib/lpc177x_8x/Drivers/source/lpc177x_8x_can.c ****         }
1673:../src/lib/lpc177x_8x/Drivers/source/lpc177x_8x_can.c **** 
1674:../src/lib/lpc177x_8x/Drivers/source/lpc177x_8x_can.c ****         if(CAN_Msg->format == EXT_ID_FORMAT)
 4504              		.loc 1 1674 0
 4505 22c2 3B68     		ldr	r3, [r7, #0]
 4506 22c4 5B7B     		ldrb	r3, [r3, #13]	@ zero_extendqisi2
 4507 22c6 012B     		cmp	r3, #1
 4508 22c8 06D1     		bne	.L250
1675:../src/lib/lpc177x_8x/Drivers/source/lpc177x_8x_can.c ****         {
1676:../src/lib/lpc177x_8x/Drivers/source/lpc177x_8x_can.c ****             pCan->TFI3 |= (((uint32_t)1) << 31); //set bit FF
 4509              		.loc 1 1676 0
 4510 22ca FB68     		ldr	r3, [r7, #12]
 4511 22cc 1B6D     		ldr	r3, [r3, #80]
 4512 22ce 43F00042 		orr	r2, r3, #-2147483648
 4513 22d2 FB68     		ldr	r3, [r7, #12]
 4514 22d4 1A65     		str	r2, [r3, #80]
 4515 22d6 05E0     		b	.L251
 4516              	.L250:
1677:../src/lib/lpc177x_8x/Drivers/source/lpc177x_8x_can.c ****         }
1678:../src/lib/lpc177x_8x/Drivers/source/lpc177x_8x_can.c ****         else
1679:../src/lib/lpc177x_8x/Drivers/source/lpc177x_8x_can.c ****         {
1680:../src/lib/lpc177x_8x/Drivers/source/lpc177x_8x_can.c ****             pCan->TFI3 &= ~(((uint32_t)1) << 31);
 4517              		.loc 1 1680 0
 4518 22d8 FB68     		ldr	r3, [r7, #12]
 4519 22da 1B6D     		ldr	r3, [r3, #80]
 4520 22dc 23F00042 		bic	r2, r3, #-2147483648
 4521 22e0 FB68     		ldr	r3, [r7, #12]
 4522 22e2 1A65     		str	r2, [r3, #80]
 4523              	.L251:
1681:../src/lib/lpc177x_8x/Drivers/source/lpc177x_8x_can.c ****         }
1682:../src/lib/lpc177x_8x/Drivers/source/lpc177x_8x_can.c **** 
1683:../src/lib/lpc177x_8x/Drivers/source/lpc177x_8x_can.c ****         /* Write CAN ID*/
1684:../src/lib/lpc177x_8x/Drivers/source/lpc177x_8x_can.c ****         pCan->TID3 = CAN_Msg->id;
 4524              		.loc 1 1684 0
 4525 22e4 3B68     		ldr	r3, [r7, #0]
 4526 22e6 1A68     		ldr	r2, [r3, #0]
 4527 22e8 FB68     		ldr	r3, [r7, #12]
 4528 22ea 5A65     		str	r2, [r3, #84]
1685:../src/lib/lpc177x_8x/Drivers/source/lpc177x_8x_can.c **** 
1686:../src/lib/lpc177x_8x/Drivers/source/lpc177x_8x_can.c ****         /*Write first 4 data bytes*/
1687:../src/lib/lpc177x_8x/Drivers/source/lpc177x_8x_can.c ****         data = (CAN_Msg->dataA[0]) | (((CAN_Msg->dataA[1])) << 8) | ((CAN_Msg->dataA[2]) << 16) | (
 4529              		.loc 1 1687 0
 4530 22ec 3B68     		ldr	r3, [r7, #0]
 4531 22ee 1B79     		ldrb	r3, [r3, #4]	@ zero_extendqisi2
 4532 22f0 1A46     		mov	r2, r3
 4533 22f2 3B68     		ldr	r3, [r7, #0]
 4534 22f4 5B79     		ldrb	r3, [r3, #5]	@ zero_extendqisi2
 4535 22f6 4FEA0323 		lsl	r3, r3, #8
 4536 22fa 1A43     		orrs	r2, r2, r3
 4537 22fc 3B68     		ldr	r3, [r7, #0]
 4538 22fe 9B79     		ldrb	r3, [r3, #6]	@ zero_extendqisi2
 4539 2300 4FEA0343 		lsl	r3, r3, #16
 4540 2304 1A43     		orrs	r2, r2, r3
 4541 2306 3B68     		ldr	r3, [r7, #0]
 4542 2308 DB79     		ldrb	r3, [r3, #7]	@ zero_extendqisi2
 4543 230a 4FEA0363 		lsl	r3, r3, #24
 4544 230e 1343     		orrs	r3, r3, r2
 4545 2310 BB60     		str	r3, [r7, #8]
1688:../src/lib/lpc177x_8x/Drivers/source/lpc177x_8x_can.c **** 
1689:../src/lib/lpc177x_8x/Drivers/source/lpc177x_8x_can.c ****         pCan->TDA3 = data;
 4546              		.loc 1 1689 0
 4547 2312 FB68     		ldr	r3, [r7, #12]
 4548 2314 BA68     		ldr	r2, [r7, #8]
 4549 2316 9A65     		str	r2, [r3, #88]
1690:../src/lib/lpc177x_8x/Drivers/source/lpc177x_8x_can.c **** 
1691:../src/lib/lpc177x_8x/Drivers/source/lpc177x_8x_can.c ****         /*Write second 4 data bytes*/
1692:../src/lib/lpc177x_8x/Drivers/source/lpc177x_8x_can.c ****         data = (CAN_Msg->dataB[0]) | (((CAN_Msg->dataB[1])) << 8) | ((CAN_Msg->dataB[2]) << 16) | (
 4550              		.loc 1 1692 0
 4551 2318 3B68     		ldr	r3, [r7, #0]
 4552 231a 1B7A     		ldrb	r3, [r3, #8]	@ zero_extendqisi2
 4553 231c 1A46     		mov	r2, r3
 4554 231e 3B68     		ldr	r3, [r7, #0]
 4555 2320 5B7A     		ldrb	r3, [r3, #9]	@ zero_extendqisi2
 4556 2322 4FEA0323 		lsl	r3, r3, #8
 4557 2326 1A43     		orrs	r2, r2, r3
 4558 2328 3B68     		ldr	r3, [r7, #0]
 4559 232a 9B7A     		ldrb	r3, [r3, #10]	@ zero_extendqisi2
 4560 232c 4FEA0343 		lsl	r3, r3, #16
 4561 2330 1A43     		orrs	r2, r2, r3
 4562 2332 3B68     		ldr	r3, [r7, #0]
 4563 2334 DB7A     		ldrb	r3, [r3, #11]	@ zero_extendqisi2
 4564 2336 4FEA0363 		lsl	r3, r3, #24
 4565 233a 1343     		orrs	r3, r3, r2
 4566 233c BB60     		str	r3, [r7, #8]
1693:../src/lib/lpc177x_8x/Drivers/source/lpc177x_8x_can.c **** 
1694:../src/lib/lpc177x_8x/Drivers/source/lpc177x_8x_can.c ****         pCan->TDB3 = data;
 4567              		.loc 1 1694 0
 4568 233e FB68     		ldr	r3, [r7, #12]
 4569 2340 BA68     		ldr	r2, [r7, #8]
 4570 2342 DA65     		str	r2, [r3, #92]
1695:../src/lib/lpc177x_8x/Drivers/source/lpc177x_8x_can.c **** 
1696:../src/lib/lpc177x_8x/Drivers/source/lpc177x_8x_can.c ****         /*Write transmission request*/
1697:../src/lib/lpc177x_8x/Drivers/source/lpc177x_8x_can.c ****         pCan->CMR = 0x81;
 4571              		.loc 1 1697 0
 4572 2344 FB68     		ldr	r3, [r7, #12]
 4573 2346 4FF08102 		mov	r2, #129
 4574 234a 5A60     		str	r2, [r3, #4]
1698:../src/lib/lpc177x_8x/Drivers/source/lpc177x_8x_can.c **** 
1699:../src/lib/lpc177x_8x/Drivers/source/lpc177x_8x_can.c ****         return SUCCESS;
 4575              		.loc 1 1699 0
 4576 234c 4FF00103 		mov	r3, #1
 4577 2350 01E0     		b	.L241
 4578              	.L247:
1700:../src/lib/lpc177x_8x/Drivers/source/lpc177x_8x_can.c ****     }
1701:../src/lib/lpc177x_8x/Drivers/source/lpc177x_8x_can.c ****     else
1702:../src/lib/lpc177x_8x/Drivers/source/lpc177x_8x_can.c ****     {
1703:../src/lib/lpc177x_8x/Drivers/source/lpc177x_8x_can.c ****         return ERROR;
 4579              		.loc 1 1703 0
 4580 2352 4FF00003 		mov	r3, #0
 4581              	.L241:
1704:../src/lib/lpc177x_8x/Drivers/source/lpc177x_8x_can.c ****     }
1705:../src/lib/lpc177x_8x/Drivers/source/lpc177x_8x_can.c **** }
 4582              		.loc 1 1705 0
 4583 2356 1846     		mov	r0, r3
 4584 2358 07F11007 		add	r7, r7, #16
 4585 235c BD46     		mov	sp, r7
 4586 235e 80BD     		pop	{r7, pc}
 4587              		.cfi_endproc
 4588              	.LFE64:
 4590              		.align	2
 4591              		.global	CAN_ReceiveMsg
 4592              		.thumb
 4593              		.thumb_func
 4595              	CAN_ReceiveMsg:
 4596              	.LFB65:
1706:../src/lib/lpc177x_8x/Drivers/source/lpc177x_8x_can.c **** 
1707:../src/lib/lpc177x_8x/Drivers/source/lpc177x_8x_can.c **** /********************************************************************//**
1708:../src/lib/lpc177x_8x/Drivers/source/lpc177x_8x_can.c ****  * @brief       Receive message data
1709:../src/lib/lpc177x_8x/Drivers/source/lpc177x_8x_can.c ****  * @param[in]    canId           The Id of the expected CAN component
1710:../src/lib/lpc177x_8x/Drivers/source/lpc177x_8x_can.c ****  *
1711:../src/lib/lpc177x_8x/Drivers/source/lpc177x_8x_can.c ****  * @param[in]   CAN_Msg point to the CAN_MSG_Type Struct, it will contain received
1712:../src/lib/lpc177x_8x/Drivers/source/lpc177x_8x_can.c ****  *              message information such as: ID, DLC, RTR, ID Format
1713:../src/lib/lpc177x_8x/Drivers/source/lpc177x_8x_can.c ****  * @return      Status:
1714:../src/lib/lpc177x_8x/Drivers/source/lpc177x_8x_can.c ****  *              - SUCCESS: receive message successfully
1715:../src/lib/lpc177x_8x/Drivers/source/lpc177x_8x_can.c ****  *              - ERROR: receive message unsuccessfully
1716:../src/lib/lpc177x_8x/Drivers/source/lpc177x_8x_can.c ****  *********************************************************************/
1717:../src/lib/lpc177x_8x/Drivers/source/lpc177x_8x_can.c **** Status CAN_ReceiveMsg (uint8_t canId, CAN_MSG_Type *CAN_Msg)
1718:../src/lib/lpc177x_8x/Drivers/source/lpc177x_8x_can.c **** {
 4597              		.loc 1 1718 0
 4598              		.cfi_startproc
 4599              		@ args = 0, pretend = 0, frame = 16
 4600              		@ frame_needed = 1, uses_anonymous_args = 0
 4601 2360 80B5     		push	{r7, lr}
 4602              	.LCFI30:
 4603              		.cfi_def_cfa_offset 8
 4604              		.cfi_offset 7, -8
 4605              		.cfi_offset 14, -4
 4606 2362 84B0     		sub	sp, sp, #16
 4607              	.LCFI31:
 4608              		.cfi_def_cfa_offset 24
 4609 2364 00AF     		add	r7, sp, #0
 4610              	.LCFI32:
 4611              		.cfi_def_cfa_register 7
 4612 2366 0346     		mov	r3, r0
 4613 2368 3960     		str	r1, [r7, #0]
 4614 236a FB71     		strb	r3, [r7, #7]
1719:../src/lib/lpc177x_8x/Drivers/source/lpc177x_8x_can.c ****     LPC_CAN_TypeDef* pCan = CAN_GetPointer(canId);
 4615              		.loc 1 1719 0
 4616 236c FB79     		ldrb	r3, [r7, #7]	@ zero_extendqisi2
 4617 236e 1846     		mov	r0, r3
 4618 2370 FDF746FE 		bl	CAN_GetPointer
 4619 2374 F860     		str	r0, [r7, #12]
1720:../src/lib/lpc177x_8x/Drivers/source/lpc177x_8x_can.c **** 
1721:../src/lib/lpc177x_8x/Drivers/source/lpc177x_8x_can.c ****     uint32_t data;
1722:../src/lib/lpc177x_8x/Drivers/source/lpc177x_8x_can.c **** 
1723:../src/lib/lpc177x_8x/Drivers/source/lpc177x_8x_can.c ****     //check status of Receive Buffer
1724:../src/lib/lpc177x_8x/Drivers/source/lpc177x_8x_can.c ****     if((pCan->SR &0x00000001))
 4620              		.loc 1 1724 0
 4621 2376 FB68     		ldr	r3, [r7, #12]
 4622 2378 DB69     		ldr	r3, [r3, #28]
 4623 237a 03F00103 		and	r3, r3, #1
 4624 237e 002B     		cmp	r3, #0
 4625 2380 68D0     		beq	.L253
1725:../src/lib/lpc177x_8x/Drivers/source/lpc177x_8x_can.c ****     {
1726:../src/lib/lpc177x_8x/Drivers/source/lpc177x_8x_can.c ****         /* Receive message is available */
1727:../src/lib/lpc177x_8x/Drivers/source/lpc177x_8x_can.c ****         /* Read frame informations */
1728:../src/lib/lpc177x_8x/Drivers/source/lpc177x_8x_can.c ****         CAN_Msg->format = (uint8_t)(((pCan->RFS) & 0x80000000) >> 31);
 4626              		.loc 1 1728 0
 4627 2382 FB68     		ldr	r3, [r7, #12]
 4628 2384 1B6A     		ldr	r3, [r3, #32]
 4629 2386 4FEAD373 		lsr	r3, r3, #31
 4630 238a DAB2     		uxtb	r2, r3
 4631 238c 3B68     		ldr	r3, [r7, #0]
 4632 238e 5A73     		strb	r2, [r3, #13]
1729:../src/lib/lpc177x_8x/Drivers/source/lpc177x_8x_can.c **** 
1730:../src/lib/lpc177x_8x/Drivers/source/lpc177x_8x_can.c ****         CAN_Msg->type = (uint8_t)(((pCan->RFS) & 0x40000000) >> 30);
 4633              		.loc 1 1730 0
 4634 2390 FB68     		ldr	r3, [r7, #12]
 4635 2392 1B6A     		ldr	r3, [r3, #32]
 4636 2394 03F08043 		and	r3, r3, #1073741824
 4637 2398 4FEA9373 		lsr	r3, r3, #30
 4638 239c DAB2     		uxtb	r2, r3
 4639 239e 3B68     		ldr	r3, [r7, #0]
 4640 23a0 9A73     		strb	r2, [r3, #14]
1731:../src/lib/lpc177x_8x/Drivers/source/lpc177x_8x_can.c **** 
1732:../src/lib/lpc177x_8x/Drivers/source/lpc177x_8x_can.c ****         CAN_Msg->len = (uint8_t)(((pCan->RFS) & 0x000F0000) >> 16);
 4641              		.loc 1 1732 0
 4642 23a2 FB68     		ldr	r3, [r7, #12]
 4643 23a4 1B6A     		ldr	r3, [r3, #32]
 4644 23a6 03F47023 		and	r3, r3, #983040
 4645 23aa 4FEA1343 		lsr	r3, r3, #16
 4646 23ae DAB2     		uxtb	r2, r3
 4647 23b0 3B68     		ldr	r3, [r7, #0]
 4648 23b2 1A73     		strb	r2, [r3, #12]
1733:../src/lib/lpc177x_8x/Drivers/source/lpc177x_8x_can.c **** 
1734:../src/lib/lpc177x_8x/Drivers/source/lpc177x_8x_can.c ****         /* Read CAN message identifier */
1735:../src/lib/lpc177x_8x/Drivers/source/lpc177x_8x_can.c ****         CAN_Msg->id = pCan->RID;
 4649              		.loc 1 1735 0
 4650 23b4 FB68     		ldr	r3, [r7, #12]
 4651 23b6 5A6A     		ldr	r2, [r3, #36]
 4652 23b8 3B68     		ldr	r3, [r7, #0]
 4653 23ba 1A60     		str	r2, [r3, #0]
1736:../src/lib/lpc177x_8x/Drivers/source/lpc177x_8x_can.c **** 
1737:../src/lib/lpc177x_8x/Drivers/source/lpc177x_8x_can.c ****         /* Read the data if received message was DATA FRAME */
1738:../src/lib/lpc177x_8x/Drivers/source/lpc177x_8x_can.c ****         if (CAN_Msg->type == DATA_FRAME)
 4654              		.loc 1 1738 0
 4655 23bc 3B68     		ldr	r3, [r7, #0]
 4656 23be 9B7B     		ldrb	r3, [r3, #14]	@ zero_extendqisi2
 4657 23c0 002B     		cmp	r3, #0
 4658 23c2 40D1     		bne	.L254
1739:../src/lib/lpc177x_8x/Drivers/source/lpc177x_8x_can.c ****         {
1740:../src/lib/lpc177x_8x/Drivers/source/lpc177x_8x_can.c ****             /* Read first 4 data bytes */
1741:../src/lib/lpc177x_8x/Drivers/source/lpc177x_8x_can.c ****             data = pCan->RDA;
 4659              		.loc 1 1741 0
 4660 23c4 FB68     		ldr	r3, [r7, #12]
 4661 23c6 9B6A     		ldr	r3, [r3, #40]
 4662 23c8 BB60     		str	r3, [r7, #8]
1742:../src/lib/lpc177x_8x/Drivers/source/lpc177x_8x_can.c **** 
1743:../src/lib/lpc177x_8x/Drivers/source/lpc177x_8x_can.c ****             *((uint8_t *) &CAN_Msg->dataA[0])= data & 0x000000FF;
 4663              		.loc 1 1743 0
 4664 23ca BB68     		ldr	r3, [r7, #8]
 4665 23cc DAB2     		uxtb	r2, r3
 4666 23ce 3B68     		ldr	r3, [r7, #0]
 4667 23d0 1A71     		strb	r2, [r3, #4]
1744:../src/lib/lpc177x_8x/Drivers/source/lpc177x_8x_can.c **** 
1745:../src/lib/lpc177x_8x/Drivers/source/lpc177x_8x_can.c ****             *((uint8_t *) &CAN_Msg->dataA[1])= (data & 0x0000FF00) >> 8;;
 4668              		.loc 1 1745 0
 4669 23d2 BB68     		ldr	r3, [r7, #8]
 4670 23d4 03F47F43 		and	r3, r3, #65280
 4671 23d8 4FEA1323 		lsr	r3, r3, #8
 4672 23dc DAB2     		uxtb	r2, r3
 4673 23de 3B68     		ldr	r3, [r7, #0]
 4674 23e0 5A71     		strb	r2, [r3, #5]
1746:../src/lib/lpc177x_8x/Drivers/source/lpc177x_8x_can.c **** 
1747:../src/lib/lpc177x_8x/Drivers/source/lpc177x_8x_can.c ****             *((uint8_t *) &CAN_Msg->dataA[2])= (data & 0x00FF0000) >> 16;
 4675              		.loc 1 1747 0
 4676 23e2 BB68     		ldr	r3, [r7, #8]
 4677 23e4 03F47F03 		and	r3, r3, #16711680
 4678 23e8 4FEA1343 		lsr	r3, r3, #16
 4679 23ec DAB2     		uxtb	r2, r3
 4680 23ee 3B68     		ldr	r3, [r7, #0]
 4681 23f0 9A71     		strb	r2, [r3, #6]
1748:../src/lib/lpc177x_8x/Drivers/source/lpc177x_8x_can.c **** 
1749:../src/lib/lpc177x_8x/Drivers/source/lpc177x_8x_can.c ****             *((uint8_t *) &CAN_Msg->dataA[3])= (data & 0xFF000000) >> 24;
 4682              		.loc 1 1749 0
 4683 23f2 BB68     		ldr	r3, [r7, #8]
 4684 23f4 4FEA1363 		lsr	r3, r3, #24
 4685 23f8 DAB2     		uxtb	r2, r3
 4686 23fa 3B68     		ldr	r3, [r7, #0]
 4687 23fc DA71     		strb	r2, [r3, #7]
1750:../src/lib/lpc177x_8x/Drivers/source/lpc177x_8x_can.c **** 
1751:../src/lib/lpc177x_8x/Drivers/source/lpc177x_8x_can.c ****             /* Read second 4 data bytes */
1752:../src/lib/lpc177x_8x/Drivers/source/lpc177x_8x_can.c ****             data = pCan->RDB;
 4688              		.loc 1 1752 0
 4689 23fe FB68     		ldr	r3, [r7, #12]
 4690 2400 DB6A     		ldr	r3, [r3, #44]
 4691 2402 BB60     		str	r3, [r7, #8]
1753:../src/lib/lpc177x_8x/Drivers/source/lpc177x_8x_can.c **** 
1754:../src/lib/lpc177x_8x/Drivers/source/lpc177x_8x_can.c ****             *((uint8_t *) &CAN_Msg->dataB[0])= data & 0x000000FF;
 4692              		.loc 1 1754 0
 4693 2404 BB68     		ldr	r3, [r7, #8]
 4694 2406 DAB2     		uxtb	r2, r3
 4695 2408 3B68     		ldr	r3, [r7, #0]
 4696 240a 1A72     		strb	r2, [r3, #8]
1755:../src/lib/lpc177x_8x/Drivers/source/lpc177x_8x_can.c **** 
1756:../src/lib/lpc177x_8x/Drivers/source/lpc177x_8x_can.c ****             *((uint8_t *) &CAN_Msg->dataB[1])= (data & 0x0000FF00) >> 8;
 4697              		.loc 1 1756 0
 4698 240c BB68     		ldr	r3, [r7, #8]
 4699 240e 03F47F43 		and	r3, r3, #65280
 4700 2412 4FEA1323 		lsr	r3, r3, #8
 4701 2416 DAB2     		uxtb	r2, r3
 4702 2418 3B68     		ldr	r3, [r7, #0]
 4703 241a 5A72     		strb	r2, [r3, #9]
1757:../src/lib/lpc177x_8x/Drivers/source/lpc177x_8x_can.c **** 
1758:../src/lib/lpc177x_8x/Drivers/source/lpc177x_8x_can.c ****             *((uint8_t *) &CAN_Msg->dataB[2])= (data & 0x00FF0000) >> 16;
 4704              		.loc 1 1758 0
 4705 241c BB68     		ldr	r3, [r7, #8]
 4706 241e 03F47F03 		and	r3, r3, #16711680
 4707 2422 4FEA1343 		lsr	r3, r3, #16
 4708 2426 DAB2     		uxtb	r2, r3
 4709 2428 3B68     		ldr	r3, [r7, #0]
 4710 242a 9A72     		strb	r2, [r3, #10]
1759:../src/lib/lpc177x_8x/Drivers/source/lpc177x_8x_can.c **** 
1760:../src/lib/lpc177x_8x/Drivers/source/lpc177x_8x_can.c ****             *((uint8_t *) &CAN_Msg->dataB[3])= (data & 0xFF000000) >> 24;
 4711              		.loc 1 1760 0
 4712 242c BB68     		ldr	r3, [r7, #8]
 4713 242e 4FEA1363 		lsr	r3, r3, #24
 4714 2432 DAB2     		uxtb	r2, r3
 4715 2434 3B68     		ldr	r3, [r7, #0]
 4716 2436 DA72     		strb	r2, [r3, #11]
1761:../src/lib/lpc177x_8x/Drivers/source/lpc177x_8x_can.c **** 
1762:../src/lib/lpc177x_8x/Drivers/source/lpc177x_8x_can.c ****             /*release receive buffer*/
1763:../src/lib/lpc177x_8x/Drivers/source/lpc177x_8x_can.c ****             pCan->CMR = 0x04;
 4717              		.loc 1 1763 0
 4718 2438 FB68     		ldr	r3, [r7, #12]
 4719 243a 4FF00402 		mov	r2, #4
 4720 243e 5A60     		str	r2, [r3, #4]
1764:../src/lib/lpc177x_8x/Drivers/source/lpc177x_8x_can.c ****         }
1765:../src/lib/lpc177x_8x/Drivers/source/lpc177x_8x_can.c ****         else
1766:../src/lib/lpc177x_8x/Drivers/source/lpc177x_8x_can.c ****         {
1767:../src/lib/lpc177x_8x/Drivers/source/lpc177x_8x_can.c ****             /* Received Frame is a Remote Frame, not have data, we just receive
1768:../src/lib/lpc177x_8x/Drivers/source/lpc177x_8x_can.c ****              * message information only */
1769:../src/lib/lpc177x_8x/Drivers/source/lpc177x_8x_can.c ****             pCan->CMR = 0x04; /*release receive buffer*/
1770:../src/lib/lpc177x_8x/Drivers/source/lpc177x_8x_can.c **** 
1771:../src/lib/lpc177x_8x/Drivers/source/lpc177x_8x_can.c ****             return SUCCESS;
1772:../src/lib/lpc177x_8x/Drivers/source/lpc177x_8x_can.c ****         }
1773:../src/lib/lpc177x_8x/Drivers/source/lpc177x_8x_can.c ****     }
1774:../src/lib/lpc177x_8x/Drivers/source/lpc177x_8x_can.c ****     else
1775:../src/lib/lpc177x_8x/Drivers/source/lpc177x_8x_can.c ****     {
1776:../src/lib/lpc177x_8x/Drivers/source/lpc177x_8x_can.c ****         // no receive message available
1777:../src/lib/lpc177x_8x/Drivers/source/lpc177x_8x_can.c ****         return ERROR;
1778:../src/lib/lpc177x_8x/Drivers/source/lpc177x_8x_can.c ****     }
1779:../src/lib/lpc177x_8x/Drivers/source/lpc177x_8x_can.c **** 
1780:../src/lib/lpc177x_8x/Drivers/source/lpc177x_8x_can.c ****     return SUCCESS;
 4721              		.loc 1 1780 0
 4722 2440 4FF00103 		mov	r3, #1
 4723 2444 08E0     		b	.L255
 4724              	.L254:
1769:../src/lib/lpc177x_8x/Drivers/source/lpc177x_8x_can.c ****             pCan->CMR = 0x04; /*release receive buffer*/
 4725              		.loc 1 1769 0
 4726 2446 FB68     		ldr	r3, [r7, #12]
 4727 2448 4FF00402 		mov	r2, #4
 4728 244c 5A60     		str	r2, [r3, #4]
1771:../src/lib/lpc177x_8x/Drivers/source/lpc177x_8x_can.c ****             return SUCCESS;
 4729              		.loc 1 1771 0
 4730 244e 4FF00103 		mov	r3, #1
 4731 2452 01E0     		b	.L255
 4732              	.L253:
1777:../src/lib/lpc177x_8x/Drivers/source/lpc177x_8x_can.c ****         return ERROR;
 4733              		.loc 1 1777 0
 4734 2454 4FF00003 		mov	r3, #0
 4735              	.L255:
1781:../src/lib/lpc177x_8x/Drivers/source/lpc177x_8x_can.c **** }
 4736              		.loc 1 1781 0
 4737 2458 1846     		mov	r0, r3
 4738 245a 07F11007 		add	r7, r7, #16
 4739 245e BD46     		mov	sp, r7
 4740 2460 80BD     		pop	{r7, pc}
 4741              		.cfi_endproc
 4742              	.LFE65:
 4744 2462 00BF     		.align	2
 4745              		.global	FCAN_ReadObj
 4746              		.thumb
 4747              		.thumb_func
 4749              	FCAN_ReadObj:
 4750              	.LFB66:
1782:../src/lib/lpc177x_8x/Drivers/source/lpc177x_8x_can.c **** 
1783:../src/lib/lpc177x_8x/Drivers/source/lpc177x_8x_can.c **** /********************************************************************//**
1784:../src/lib/lpc177x_8x/Drivers/source/lpc177x_8x_can.c ****  * @brief       Receive FullCAN Object
1785:../src/lib/lpc177x_8x/Drivers/source/lpc177x_8x_can.c ****  * @param[in]   CANAFx: CAN Acceptance Filter register, should be: LPC_CANAF
1786:../src/lib/lpc177x_8x/Drivers/source/lpc177x_8x_can.c ****  * @param[in]   CAN_Msg point to the CAN_MSG_Type Struct, it will contain received
1787:../src/lib/lpc177x_8x/Drivers/source/lpc177x_8x_can.c ****  *              message information such as: ID, DLC, RTR, ID Format
1788:../src/lib/lpc177x_8x/Drivers/source/lpc177x_8x_can.c ****  * @return      CAN_ERROR, could be:
1789:../src/lib/lpc177x_8x/Drivers/source/lpc177x_8x_can.c ****  *              - CAN_FULL_OBJ_NOT_RCV: FullCAN Object is not be received
1790:../src/lib/lpc177x_8x/Drivers/source/lpc177x_8x_can.c ****  *              - CAN_OK: Received FullCAN Object successful
1791:../src/lib/lpc177x_8x/Drivers/source/lpc177x_8x_can.c ****  *
1792:../src/lib/lpc177x_8x/Drivers/source/lpc177x_8x_can.c ****  *********************************************************************/
1793:../src/lib/lpc177x_8x/Drivers/source/lpc177x_8x_can.c **** CAN_ERROR FCAN_ReadObj (CAN_MSG_Type *CAN_Msg)
1794:../src/lib/lpc177x_8x/Drivers/source/lpc177x_8x_can.c **** {
 4751              		.loc 1 1794 0
 4752              		.cfi_startproc
 4753              		@ args = 0, pretend = 0, frame = 40
 4754              		@ frame_needed = 1, uses_anonymous_args = 0
 4755              		@ link register save eliminated.
 4756 2464 80B4     		push	{r7}
 4757              	.LCFI33:
 4758              		.cfi_def_cfa_offset 4
 4759              		.cfi_offset 7, -4
 4760 2466 8BB0     		sub	sp, sp, #44
 4761              	.LCFI34:
 4762              		.cfi_def_cfa_offset 48
 4763 2468 00AF     		add	r7, sp, #0
 4764              	.LCFI35:
 4765              		.cfi_def_cfa_register 7
 4766 246a 7860     		str	r0, [r7, #4]
1795:../src/lib/lpc177x_8x/Drivers/source/lpc177x_8x_can.c ****     uint32_t *pSrc, data;
1796:../src/lib/lpc177x_8x/Drivers/source/lpc177x_8x_can.c ****     uint32_t interrut_word, msg_idx, test_bit, head_idx, tail_idx;
1797:../src/lib/lpc177x_8x/Drivers/source/lpc177x_8x_can.c **** 
1798:../src/lib/lpc177x_8x/Drivers/source/lpc177x_8x_can.c ****     interrut_word = 0;
 4767              		.loc 1 1798 0
 4768 246c 4FF00003 		mov	r3, #0
 4769 2470 7B62     		str	r3, [r7, #36]
1799:../src/lib/lpc177x_8x/Drivers/source/lpc177x_8x_can.c **** 
1800:../src/lib/lpc177x_8x/Drivers/source/lpc177x_8x_can.c ****     if (LPC_CANAF->FCANIC0 != 0)
 4770              		.loc 1 1800 0
 4771 2472 664B     		ldr	r3, .L264
 4772 2474 5B6A     		ldr	r3, [r3, #36]
 4773 2476 002B     		cmp	r3, #0
 4774 2478 09D0     		beq	.L257
1801:../src/lib/lpc177x_8x/Drivers/source/lpc177x_8x_can.c ****     {
1802:../src/lib/lpc177x_8x/Drivers/source/lpc177x_8x_can.c ****         interrut_word = LPC_CANAF->FCANIC0;
 4775              		.loc 1 1802 0
 4776 247a 644B     		ldr	r3, .L264
 4777 247c 5B6A     		ldr	r3, [r3, #36]
 4778 247e 7B62     		str	r3, [r7, #36]
1803:../src/lib/lpc177x_8x/Drivers/source/lpc177x_8x_can.c **** 
1804:../src/lib/lpc177x_8x/Drivers/source/lpc177x_8x_can.c ****         head_idx = 0;
 4779              		.loc 1 1804 0
 4780 2480 4FF00003 		mov	r3, #0
 4781 2484 FB61     		str	r3, [r7, #28]
1805:../src/lib/lpc177x_8x/Drivers/source/lpc177x_8x_can.c **** 
1806:../src/lib/lpc177x_8x/Drivers/source/lpc177x_8x_can.c ****         tail_idx = 31;
 4782              		.loc 1 1806 0
 4783 2486 4FF01F03 		mov	r3, #31
 4784 248a BB61     		str	r3, [r7, #24]
 4785 248c 0CE0     		b	.L258
 4786              	.L257:
1807:../src/lib/lpc177x_8x/Drivers/source/lpc177x_8x_can.c ****     }
1808:../src/lib/lpc177x_8x/Drivers/source/lpc177x_8x_can.c ****     else if (LPC_CANAF->FCANIC1 != 0)
 4787              		.loc 1 1808 0
 4788 248e 5F4B     		ldr	r3, .L264
 4789 2490 9B6A     		ldr	r3, [r3, #40]
 4790 2492 002B     		cmp	r3, #0
 4791 2494 08D0     		beq	.L258
1809:../src/lib/lpc177x_8x/Drivers/source/lpc177x_8x_can.c ****     {
1810:../src/lib/lpc177x_8x/Drivers/source/lpc177x_8x_can.c ****         interrut_word = LPC_CANAF->FCANIC1;
 4792              		.loc 1 1810 0
 4793 2496 5D4B     		ldr	r3, .L264
 4794 2498 9B6A     		ldr	r3, [r3, #40]
 4795 249a 7B62     		str	r3, [r7, #36]
1811:../src/lib/lpc177x_8x/Drivers/source/lpc177x_8x_can.c **** 
1812:../src/lib/lpc177x_8x/Drivers/source/lpc177x_8x_can.c ****         head_idx = 32;
 4796              		.loc 1 1812 0
 4797 249c 4FF02003 		mov	r3, #32
 4798 24a0 FB61     		str	r3, [r7, #28]
1813:../src/lib/lpc177x_8x/Drivers/source/lpc177x_8x_can.c **** 
1814:../src/lib/lpc177x_8x/Drivers/source/lpc177x_8x_can.c ****         tail_idx = 63;
 4799              		.loc 1 1814 0
 4800 24a2 4FF03F03 		mov	r3, #63
 4801 24a6 BB61     		str	r3, [r7, #24]
 4802              	.L258:
1815:../src/lib/lpc177x_8x/Drivers/source/lpc177x_8x_can.c ****     }
1816:../src/lib/lpc177x_8x/Drivers/source/lpc177x_8x_can.c **** 
1817:../src/lib/lpc177x_8x/Drivers/source/lpc177x_8x_can.c ****     if (interrut_word != 0)
 4803              		.loc 1 1817 0
 4804 24a8 7B6A     		ldr	r3, [r7, #36]
 4805 24aa 002B     		cmp	r3, #0
 4806 24ac 00F0A680 		beq	.L259
1818:../src/lib/lpc177x_8x/Drivers/source/lpc177x_8x_can.c ****     {
1819:../src/lib/lpc177x_8x/Drivers/source/lpc177x_8x_can.c ****         /* Detect for interrupt pending */
1820:../src/lib/lpc177x_8x/Drivers/source/lpc177x_8x_can.c ****         msg_idx = 0;
 4807              		.loc 1 1820 0
 4808 24b0 4FF00003 		mov	r3, #0
 4809 24b4 3B62     		str	r3, [r7, #32]
1821:../src/lib/lpc177x_8x/Drivers/source/lpc177x_8x_can.c **** 
1822:../src/lib/lpc177x_8x/Drivers/source/lpc177x_8x_can.c ****         for (msg_idx = head_idx; msg_idx <= tail_idx; msg_idx++)
 4810              		.loc 1 1822 0
 4811 24b6 FB69     		ldr	r3, [r7, #28]
 4812 24b8 3B62     		str	r3, [r7, #32]
 4813 24ba 9AE0     		b	.L260
 4814              	.L263:
1823:../src/lib/lpc177x_8x/Drivers/source/lpc177x_8x_can.c ****         {
1824:../src/lib/lpc177x_8x/Drivers/source/lpc177x_8x_can.c ****             test_bit = interrut_word & 0x1;
 4815              		.loc 1 1824 0
 4816 24bc 7B6A     		ldr	r3, [r7, #36]
 4817 24be 03F00103 		and	r3, r3, #1
 4818 24c2 7B61     		str	r3, [r7, #20]
1825:../src/lib/lpc177x_8x/Drivers/source/lpc177x_8x_can.c **** 
1826:../src/lib/lpc177x_8x/Drivers/source/lpc177x_8x_can.c ****             interrut_word = interrut_word >> 1;
 4819              		.loc 1 1826 0
 4820 24c4 7B6A     		ldr	r3, [r7, #36]
 4821 24c6 4FEA5303 		lsr	r3, r3, #1
 4822 24ca 7B62     		str	r3, [r7, #36]
1827:../src/lib/lpc177x_8x/Drivers/source/lpc177x_8x_can.c **** 
1828:../src/lib/lpc177x_8x/Drivers/source/lpc177x_8x_can.c ****             if (test_bit)
 4823              		.loc 1 1828 0
 4824 24cc 7B69     		ldr	r3, [r7, #20]
 4825 24ce 002B     		cmp	r3, #0
 4826 24d0 00F08B80 		beq	.L261
1829:../src/lib/lpc177x_8x/Drivers/source/lpc177x_8x_can.c ****             {
1830:../src/lib/lpc177x_8x/Drivers/source/lpc177x_8x_can.c ****                 pSrc = (uint32_t *) (LPC_CANAF->ENDofTable + LPC_CANAF_RAM_BASE + msg_idx * 12);
 4827              		.loc 1 1830 0
 4828 24d4 4D4B     		ldr	r3, .L264
 4829 24d6 5969     		ldr	r1, [r3, #20]
 4830 24d8 3A6A     		ldr	r2, [r7, #32]
 4831 24da 1346     		mov	r3, r2
 4832 24dc 4FEA4303 		lsl	r3, r3, #1
 4833 24e0 9B18     		adds	r3, r3, r2
 4834 24e2 4FEA8303 		lsl	r3, r3, #2
 4835 24e6 CB18     		adds	r3, r1, r3
 4836 24e8 03F18043 		add	r3, r3, #1073741824
 4837 24ec 03F56033 		add	r3, r3, #229376
 4838 24f0 3B61     		str	r3, [r7, #16]
1831:../src/lib/lpc177x_8x/Drivers/source/lpc177x_8x_can.c **** 
1832:../src/lib/lpc177x_8x/Drivers/source/lpc177x_8x_can.c ****                 /* Has been finished updating the content */
1833:../src/lib/lpc177x_8x/Drivers/source/lpc177x_8x_can.c ****                 if ((*pSrc & 0x03000000L) == 0x03000000L)
 4839              		.loc 1 1833 0
 4840 24f2 3B69     		ldr	r3, [r7, #16]
 4841 24f4 1B68     		ldr	r3, [r3, #0]
 4842 24f6 03F04073 		and	r3, r3, #50331648
 4843 24fa B3F1407F 		cmp	r3, #50331648
 4844 24fe 74D1     		bne	.L261
1834:../src/lib/lpc177x_8x/Drivers/source/lpc177x_8x_can.c ****                 {
1835:../src/lib/lpc177x_8x/Drivers/source/lpc177x_8x_can.c ****                     /*clear semaphore*/
1836:../src/lib/lpc177x_8x/Drivers/source/lpc177x_8x_can.c ****                     *pSrc &= 0xFCFFFFFF;
 4845              		.loc 1 1836 0
 4846 2500 3B69     		ldr	r3, [r7, #16]
 4847 2502 1B68     		ldr	r3, [r3, #0]
 4848 2504 23F04072 		bic	r2, r3, #50331648
 4849 2508 3B69     		ldr	r3, [r7, #16]
 4850 250a 1A60     		str	r2, [r3, #0]
1837:../src/lib/lpc177x_8x/Drivers/source/lpc177x_8x_can.c **** 
1838:../src/lib/lpc177x_8x/Drivers/source/lpc177x_8x_can.c ****                     /*Set to DatA*/
1839:../src/lib/lpc177x_8x/Drivers/source/lpc177x_8x_can.c ****                     pSrc++;
 4851              		.loc 1 1839 0
 4852 250c 3B69     		ldr	r3, [r7, #16]
 4853 250e 03F10403 		add	r3, r3, #4
 4854 2512 3B61     		str	r3, [r7, #16]
1840:../src/lib/lpc177x_8x/Drivers/source/lpc177x_8x_can.c **** 
1841:../src/lib/lpc177x_8x/Drivers/source/lpc177x_8x_can.c ****                     /* Copy to dest buf */
1842:../src/lib/lpc177x_8x/Drivers/source/lpc177x_8x_can.c ****                     data = *pSrc;
 4855              		.loc 1 1842 0
 4856 2514 3B69     		ldr	r3, [r7, #16]
 4857 2516 1B68     		ldr	r3, [r3, #0]
 4858 2518 FB60     		str	r3, [r7, #12]
1843:../src/lib/lpc177x_8x/Drivers/source/lpc177x_8x_can.c **** 
1844:../src/lib/lpc177x_8x/Drivers/source/lpc177x_8x_can.c ****                     *((uint8_t *) &CAN_Msg->dataA[0])= data & 0x000000FF;
 4859              		.loc 1 1844 0
 4860 251a FB68     		ldr	r3, [r7, #12]
 4861 251c DAB2     		uxtb	r2, r3
 4862 251e 7B68     		ldr	r3, [r7, #4]
 4863 2520 1A71     		strb	r2, [r3, #4]
1845:../src/lib/lpc177x_8x/Drivers/source/lpc177x_8x_can.c **** 
1846:../src/lib/lpc177x_8x/Drivers/source/lpc177x_8x_can.c ****                     *((uint8_t *) &CAN_Msg->dataA[1])= (data & 0x0000FF00) >> 8;
 4864              		.loc 1 1846 0
 4865 2522 FB68     		ldr	r3, [r7, #12]
 4866 2524 03F47F43 		and	r3, r3, #65280
 4867 2528 4FEA1323 		lsr	r3, r3, #8
 4868 252c DAB2     		uxtb	r2, r3
 4869 252e 7B68     		ldr	r3, [r7, #4]
 4870 2530 5A71     		strb	r2, [r3, #5]
1847:../src/lib/lpc177x_8x/Drivers/source/lpc177x_8x_can.c **** 
1848:../src/lib/lpc177x_8x/Drivers/source/lpc177x_8x_can.c ****                     *((uint8_t *) &CAN_Msg->dataA[2])= (data & 0x00FF0000) >> 16;
 4871              		.loc 1 1848 0
 4872 2532 FB68     		ldr	r3, [r7, #12]
 4873 2534 03F47F03 		and	r3, r3, #16711680
 4874 2538 4FEA1343 		lsr	r3, r3, #16
 4875 253c DAB2     		uxtb	r2, r3
 4876 253e 7B68     		ldr	r3, [r7, #4]
 4877 2540 9A71     		strb	r2, [r3, #6]
1849:../src/lib/lpc177x_8x/Drivers/source/lpc177x_8x_can.c **** 
1850:../src/lib/lpc177x_8x/Drivers/source/lpc177x_8x_can.c ****                     *((uint8_t *) &CAN_Msg->dataA[3])= (data & 0xFF000000) >> 24;
 4878              		.loc 1 1850 0
 4879 2542 FB68     		ldr	r3, [r7, #12]
 4880 2544 4FEA1363 		lsr	r3, r3, #24
 4881 2548 DAB2     		uxtb	r2, r3
 4882 254a 7B68     		ldr	r3, [r7, #4]
 4883 254c DA71     		strb	r2, [r3, #7]
1851:../src/lib/lpc177x_8x/Drivers/source/lpc177x_8x_can.c **** 
1852:../src/lib/lpc177x_8x/Drivers/source/lpc177x_8x_can.c ****                     /*Set to DatB*/
1853:../src/lib/lpc177x_8x/Drivers/source/lpc177x_8x_can.c ****                     pSrc++;
 4884              		.loc 1 1853 0
 4885 254e 3B69     		ldr	r3, [r7, #16]
 4886 2550 03F10403 		add	r3, r3, #4
 4887 2554 3B61     		str	r3, [r7, #16]
1854:../src/lib/lpc177x_8x/Drivers/source/lpc177x_8x_can.c **** 
1855:../src/lib/lpc177x_8x/Drivers/source/lpc177x_8x_can.c ****                     /* Copy to dest buf */
1856:../src/lib/lpc177x_8x/Drivers/source/lpc177x_8x_can.c ****                     data = *pSrc;
 4888              		.loc 1 1856 0
 4889 2556 3B69     		ldr	r3, [r7, #16]
 4890 2558 1B68     		ldr	r3, [r3, #0]
 4891 255a FB60     		str	r3, [r7, #12]
1857:../src/lib/lpc177x_8x/Drivers/source/lpc177x_8x_can.c **** 
1858:../src/lib/lpc177x_8x/Drivers/source/lpc177x_8x_can.c ****                     *((uint8_t *) &CAN_Msg->dataB[0])= data & 0x000000FF;
 4892              		.loc 1 1858 0
 4893 255c FB68     		ldr	r3, [r7, #12]
 4894 255e DAB2     		uxtb	r2, r3
 4895 2560 7B68     		ldr	r3, [r7, #4]
 4896 2562 1A72     		strb	r2, [r3, #8]
1859:../src/lib/lpc177x_8x/Drivers/source/lpc177x_8x_can.c **** 
1860:../src/lib/lpc177x_8x/Drivers/source/lpc177x_8x_can.c ****                     *((uint8_t *) &CAN_Msg->dataB[1])= (data & 0x0000FF00) >> 8;
 4897              		.loc 1 1860 0
 4898 2564 FB68     		ldr	r3, [r7, #12]
 4899 2566 03F47F43 		and	r3, r3, #65280
 4900 256a 4FEA1323 		lsr	r3, r3, #8
 4901 256e DAB2     		uxtb	r2, r3
 4902 2570 7B68     		ldr	r3, [r7, #4]
 4903 2572 5A72     		strb	r2, [r3, #9]
1861:../src/lib/lpc177x_8x/Drivers/source/lpc177x_8x_can.c **** 
1862:../src/lib/lpc177x_8x/Drivers/source/lpc177x_8x_can.c ****                     *((uint8_t *) &CAN_Msg->dataB[2])= (data & 0x00FF0000) >> 16;
 4904              		.loc 1 1862 0
 4905 2574 FB68     		ldr	r3, [r7, #12]
 4906 2576 03F47F03 		and	r3, r3, #16711680
 4907 257a 4FEA1343 		lsr	r3, r3, #16
 4908 257e DAB2     		uxtb	r2, r3
 4909 2580 7B68     		ldr	r3, [r7, #4]
 4910 2582 9A72     		strb	r2, [r3, #10]
1863:../src/lib/lpc177x_8x/Drivers/source/lpc177x_8x_can.c **** 
1864:../src/lib/lpc177x_8x/Drivers/source/lpc177x_8x_can.c ****                     *((uint8_t *) &CAN_Msg->dataB[3])= (data & 0xFF000000) >> 24;
 4911              		.loc 1 1864 0
 4912 2584 FB68     		ldr	r3, [r7, #12]
 4913 2586 4FEA1363 		lsr	r3, r3, #24
 4914 258a DAB2     		uxtb	r2, r3
 4915 258c 7B68     		ldr	r3, [r7, #4]
 4916 258e DA72     		strb	r2, [r3, #11]
1865:../src/lib/lpc177x_8x/Drivers/source/lpc177x_8x_can.c **** 
1866:../src/lib/lpc177x_8x/Drivers/source/lpc177x_8x_can.c ****                     /*Back to Dat1*/
1867:../src/lib/lpc177x_8x/Drivers/source/lpc177x_8x_can.c ****                     pSrc -= 2;
 4917              		.loc 1 1867 0
 4918 2590 3B69     		ldr	r3, [r7, #16]
 4919 2592 A3F10803 		sub	r3, r3, #8
 4920 2596 3B61     		str	r3, [r7, #16]
1868:../src/lib/lpc177x_8x/Drivers/source/lpc177x_8x_can.c **** 
1869:../src/lib/lpc177x_8x/Drivers/source/lpc177x_8x_can.c ****                     CAN_Msg->id = *pSrc & 0x7FF;
 4921              		.loc 1 1869 0
 4922 2598 3B69     		ldr	r3, [r7, #16]
 4923 259a 1B68     		ldr	r3, [r3, #0]
 4924 259c 4FEA4353 		lsl	r3, r3, #21
 4925 25a0 4FEA5353 		lsr	r3, r3, #21
 4926 25a4 7A68     		ldr	r2, [r7, #4]
 4927 25a6 1360     		str	r3, [r2, #0]
1870:../src/lib/lpc177x_8x/Drivers/source/lpc177x_8x_can.c **** 
1871:../src/lib/lpc177x_8x/Drivers/source/lpc177x_8x_can.c ****                     CAN_Msg->len = (uint8_t) (*pSrc >> 16) & 0x0F;
 4928              		.loc 1 1871 0
 4929 25a8 3B69     		ldr	r3, [r7, #16]
 4930 25aa 1B68     		ldr	r3, [r3, #0]
 4931 25ac 4FEA1343 		lsr	r3, r3, #16
 4932 25b0 DBB2     		uxtb	r3, r3
 4933 25b2 03F00F03 		and	r3, r3, #15
 4934 25b6 DAB2     		uxtb	r2, r3
 4935 25b8 7B68     		ldr	r3, [r7, #4]
 4936 25ba 1A73     		strb	r2, [r3, #12]
1872:../src/lib/lpc177x_8x/Drivers/source/lpc177x_8x_can.c **** 
1873:../src/lib/lpc177x_8x/Drivers/source/lpc177x_8x_can.c ****                     CAN_Msg->format = 0; //FullCAN Object ID always is 11-bit value
 4937              		.loc 1 1873 0
 4938 25bc 7B68     		ldr	r3, [r7, #4]
 4939 25be 4FF00002 		mov	r2, #0
 4940 25c2 5A73     		strb	r2, [r3, #13]
1874:../src/lib/lpc177x_8x/Drivers/source/lpc177x_8x_can.c **** 
1875:../src/lib/lpc177x_8x/Drivers/source/lpc177x_8x_can.c ****                     CAN_Msg->type = (uint8_t)(*pSrc >> 30) &0x01;
 4941              		.loc 1 1875 0
 4942 25c4 3B69     		ldr	r3, [r7, #16]
 4943 25c6 1B68     		ldr	r3, [r3, #0]
 4944 25c8 4FEA9373 		lsr	r3, r3, #30
 4945 25cc DBB2     		uxtb	r3, r3
 4946 25ce 03F00103 		and	r3, r3, #1
 4947 25d2 DAB2     		uxtb	r2, r3
 4948 25d4 7B68     		ldr	r3, [r7, #4]
 4949 25d6 9A73     		strb	r2, [r3, #14]
1876:../src/lib/lpc177x_8x/Drivers/source/lpc177x_8x_can.c **** 
1877:../src/lib/lpc177x_8x/Drivers/source/lpc177x_8x_can.c ****                     /*Re-read semaphore*/
1878:../src/lib/lpc177x_8x/Drivers/source/lpc177x_8x_can.c ****                     if ((*pSrc & 0x03000000L) == 0)
 4950              		.loc 1 1878 0
 4951 25d8 3B69     		ldr	r3, [r7, #16]
 4952 25da 1B68     		ldr	r3, [r3, #0]
 4953 25dc 03F04073 		and	r3, r3, #50331648
 4954 25e0 002B     		cmp	r3, #0
 4955 25e2 02D1     		bne	.L261
1879:../src/lib/lpc177x_8x/Drivers/source/lpc177x_8x_can.c ****                     {
1880:../src/lib/lpc177x_8x/Drivers/source/lpc177x_8x_can.c ****                         return CAN_OK;
 4956              		.loc 1 1880 0
 4957 25e4 4FF00103 		mov	r3, #1
 4958 25e8 0AE0     		b	.L262
 4959              	.L261:
1822:../src/lib/lpc177x_8x/Drivers/source/lpc177x_8x_can.c ****         for (msg_idx = head_idx; msg_idx <= tail_idx; msg_idx++)
 4960              		.loc 1 1822 0
 4961 25ea 3B6A     		ldr	r3, [r7, #32]
 4962 25ec 03F10103 		add	r3, r3, #1
 4963 25f0 3B62     		str	r3, [r7, #32]
 4964              	.L260:
1822:../src/lib/lpc177x_8x/Drivers/source/lpc177x_8x_can.c ****         for (msg_idx = head_idx; msg_idx <= tail_idx; msg_idx++)
 4965              		.loc 1 1822 0 is_stmt 0 discriminator 1
 4966 25f2 3A6A     		ldr	r2, [r7, #32]
 4967 25f4 BB69     		ldr	r3, [r7, #24]
 4968 25f6 9A42     		cmp	r2, r3
 4969 25f8 7FF660AF 		bls	.L263
 4970              	.L259:
1881:../src/lib/lpc177x_8x/Drivers/source/lpc177x_8x_can.c ****                     }
1882:../src/lib/lpc177x_8x/Drivers/source/lpc177x_8x_can.c ****                 }
1883:../src/lib/lpc177x_8x/Drivers/source/lpc177x_8x_can.c ****             }
1884:../src/lib/lpc177x_8x/Drivers/source/lpc177x_8x_can.c ****         }
1885:../src/lib/lpc177x_8x/Drivers/source/lpc177x_8x_can.c ****     }
1886:../src/lib/lpc177x_8x/Drivers/source/lpc177x_8x_can.c **** 
1887:../src/lib/lpc177x_8x/Drivers/source/lpc177x_8x_can.c ****     return CAN_FULL_OBJ_NOT_RCV;
 4971              		.loc 1 1887 0 is_stmt 1
 4972 25fc 4FF00303 		mov	r3, #3
 4973              	.L262:
1888:../src/lib/lpc177x_8x/Drivers/source/lpc177x_8x_can.c **** }
 4974              		.loc 1 1888 0
 4975 2600 1846     		mov	r0, r3
 4976 2602 07F12C07 		add	r7, r7, #44
 4977 2606 BD46     		mov	sp, r7
 4978 2608 80BC     		pop	{r7}
 4979 260a 7047     		bx	lr
 4980              	.L265:
 4981              		.align	2
 4982              	.L264:
 4983 260c 00C00340 		.word	1073987584
 4984              		.cfi_endproc
 4985              	.LFE66:
 4987              		.align	2
 4988              		.global	CAN_GetCTRLStatus
 4989              		.thumb
 4990              		.thumb_func
 4992              	CAN_GetCTRLStatus:
 4993              	.LFB67:
1889:../src/lib/lpc177x_8x/Drivers/source/lpc177x_8x_can.c **** 
1890:../src/lib/lpc177x_8x/Drivers/source/lpc177x_8x_can.c **** /********************************************************************//**
1891:../src/lib/lpc177x_8x/Drivers/source/lpc177x_8x_can.c ****  * @brief       Get CAN Control Status
1892:../src/lib/lpc177x_8x/Drivers/source/lpc177x_8x_can.c ****  * @param[in]    canId           The Id of the expected CAN component
1893:../src/lib/lpc177x_8x/Drivers/source/lpc177x_8x_can.c ****  *
1894:../src/lib/lpc177x_8x/Drivers/source/lpc177x_8x_can.c ****  * @param[in]   arg: type of CAN status to get from CAN status register
1895:../src/lib/lpc177x_8x/Drivers/source/lpc177x_8x_can.c ****  *              Should be:
1896:../src/lib/lpc177x_8x/Drivers/source/lpc177x_8x_can.c ****  *              - CANCTRL_GLOBAL_STS: CAN Global Status
1897:../src/lib/lpc177x_8x/Drivers/source/lpc177x_8x_can.c ****  *              - CANCTRL_INT_CAP: CAN Interrupt and Capture
1898:../src/lib/lpc177x_8x/Drivers/source/lpc177x_8x_can.c ****  *              - CANCTRL_ERR_WRN: CAN Error Warning Limit
1899:../src/lib/lpc177x_8x/Drivers/source/lpc177x_8x_can.c ****  *              - CANCTRL_STS: CAN Control Status
1900:../src/lib/lpc177x_8x/Drivers/source/lpc177x_8x_can.c ****  * @return      Current Control Status that you want to get value
1901:../src/lib/lpc177x_8x/Drivers/source/lpc177x_8x_can.c ****  *********************************************************************/
1902:../src/lib/lpc177x_8x/Drivers/source/lpc177x_8x_can.c **** uint32_t CAN_GetCTRLStatus (uint8_t canId, CAN_CTRL_STS_Type arg)
1903:../src/lib/lpc177x_8x/Drivers/source/lpc177x_8x_can.c **** {
 4994              		.loc 1 1903 0
 4995              		.cfi_startproc
 4996              		@ args = 0, pretend = 0, frame = 16
 4997              		@ frame_needed = 1, uses_anonymous_args = 0
 4998 2610 80B5     		push	{r7, lr}
 4999              	.LCFI36:
 5000              		.cfi_def_cfa_offset 8
 5001              		.cfi_offset 7, -8
 5002              		.cfi_offset 14, -4
 5003 2612 84B0     		sub	sp, sp, #16
 5004              	.LCFI37:
 5005              		.cfi_def_cfa_offset 24
 5006 2614 00AF     		add	r7, sp, #0
 5007              	.LCFI38:
 5008              		.cfi_def_cfa_register 7
 5009 2616 0246     		mov	r2, r0
 5010 2618 0B46     		mov	r3, r1
 5011 261a FA71     		strb	r2, [r7, #7]
 5012 261c BB71     		strb	r3, [r7, #6]
1904:../src/lib/lpc177x_8x/Drivers/source/lpc177x_8x_can.c ****     LPC_CAN_TypeDef* pCan = CAN_GetPointer(canId);
 5013              		.loc 1 1904 0
 5014 261e FB79     		ldrb	r3, [r7, #7]	@ zero_extendqisi2
 5015 2620 1846     		mov	r0, r3
 5016 2622 FDF7EDFC 		bl	CAN_GetPointer
 5017 2626 F860     		str	r0, [r7, #12]
1905:../src/lib/lpc177x_8x/Drivers/source/lpc177x_8x_can.c **** 
1906:../src/lib/lpc177x_8x/Drivers/source/lpc177x_8x_can.c ****     switch (arg)
 5018              		.loc 1 1906 0
 5019 2628 BB79     		ldrb	r3, [r7, #6]	@ zero_extendqisi2
 5020 262a 012B     		cmp	r3, #1
 5021 262c 06D0     		beq	.L269
 5022 262e 022B     		cmp	r3, #2
 5023 2630 07D0     		beq	.L270
 5024 2632 002B     		cmp	r3, #0
 5025 2634 08D1     		bne	.L272
 5026              	.L268:
1907:../src/lib/lpc177x_8x/Drivers/source/lpc177x_8x_can.c ****     {
1908:../src/lib/lpc177x_8x/Drivers/source/lpc177x_8x_can.c ****         case CANCTRL_GLOBAL_STS:
1909:../src/lib/lpc177x_8x/Drivers/source/lpc177x_8x_can.c ****             return pCan->GSR;
 5027              		.loc 1 1909 0
 5028 2636 FB68     		ldr	r3, [r7, #12]
 5029 2638 9B68     		ldr	r3, [r3, #8]
 5030 263a 07E0     		b	.L271
 5031              	.L269:
1910:../src/lib/lpc177x_8x/Drivers/source/lpc177x_8x_can.c **** 
1911:../src/lib/lpc177x_8x/Drivers/source/lpc177x_8x_can.c ****         case CANCTRL_INT_CAP:
1912:../src/lib/lpc177x_8x/Drivers/source/lpc177x_8x_can.c ****             return pCan->ICR;
 5032              		.loc 1 1912 0
 5033 263c FB68     		ldr	r3, [r7, #12]
 5034 263e DB68     		ldr	r3, [r3, #12]
 5035 2640 04E0     		b	.L271
 5036              	.L270:
1913:../src/lib/lpc177x_8x/Drivers/source/lpc177x_8x_can.c **** 
1914:../src/lib/lpc177x_8x/Drivers/source/lpc177x_8x_can.c ****         case CANCTRL_ERR_WRN:
1915:../src/lib/lpc177x_8x/Drivers/source/lpc177x_8x_can.c ****             return pCan->EWL;
 5037              		.loc 1 1915 0
 5038 2642 FB68     		ldr	r3, [r7, #12]
 5039 2644 9B69     		ldr	r3, [r3, #24]
 5040 2646 01E0     		b	.L271
 5041              	.L272:
1916:../src/lib/lpc177x_8x/Drivers/source/lpc177x_8x_can.c **** 
1917:../src/lib/lpc177x_8x/Drivers/source/lpc177x_8x_can.c ****         default: // CANCTRL_STS
1918:../src/lib/lpc177x_8x/Drivers/source/lpc177x_8x_can.c ****             return pCan->SR;
 5042              		.loc 1 1918 0
 5043 2648 FB68     		ldr	r3, [r7, #12]
 5044 264a DB69     		ldr	r3, [r3, #28]
 5045              	.L271:
1919:../src/lib/lpc177x_8x/Drivers/source/lpc177x_8x_can.c ****     }
1920:../src/lib/lpc177x_8x/Drivers/source/lpc177x_8x_can.c **** }
 5046              		.loc 1 1920 0
 5047 264c 1846     		mov	r0, r3
 5048 264e 07F11007 		add	r7, r7, #16
 5049 2652 BD46     		mov	sp, r7
 5050 2654 80BD     		pop	{r7, pc}
 5051              		.cfi_endproc
 5052              	.LFE67:
 5054 2656 00BF     		.align	2
 5055              		.global	CAN_GetCRStatus
 5056              		.thumb
 5057              		.thumb_func
 5059              	CAN_GetCRStatus:
 5060              	.LFB68:
1921:../src/lib/lpc177x_8x/Drivers/source/lpc177x_8x_can.c **** /********************************************************************//**
1922:../src/lib/lpc177x_8x/Drivers/source/lpc177x_8x_can.c ****  * @brief       Get CAN Central Status
1923:../src/lib/lpc177x_8x/Drivers/source/lpc177x_8x_can.c ****  * @param[in]   CANCRx point to LPC_CANCR_TypeDef, should be: LPC_CANCR
1924:../src/lib/lpc177x_8x/Drivers/source/lpc177x_8x_can.c ****  * @param[in]   arg: type of CAN status to get from CAN Central status register
1925:../src/lib/lpc177x_8x/Drivers/source/lpc177x_8x_can.c ****  *              Should be:
1926:../src/lib/lpc177x_8x/Drivers/source/lpc177x_8x_can.c ****  *              - CANCR_TX_STS: Central CAN Tx Status
1927:../src/lib/lpc177x_8x/Drivers/source/lpc177x_8x_can.c ****  *              - CANCR_RX_STS: Central CAN Rx Status
1928:../src/lib/lpc177x_8x/Drivers/source/lpc177x_8x_can.c ****  *              - CANCR_MS: Central CAN Miscellaneous Status
1929:../src/lib/lpc177x_8x/Drivers/source/lpc177x_8x_can.c ****  * @return      Current Central Status that you want to get value
1930:../src/lib/lpc177x_8x/Drivers/source/lpc177x_8x_can.c ****  *********************************************************************/
1931:../src/lib/lpc177x_8x/Drivers/source/lpc177x_8x_can.c **** uint32_t CAN_GetCRStatus (CAN_CR_STS_Type arg)
1932:../src/lib/lpc177x_8x/Drivers/source/lpc177x_8x_can.c **** {
 5061              		.loc 1 1932 0
 5062              		.cfi_startproc
 5063              		@ args = 0, pretend = 0, frame = 8
 5064              		@ frame_needed = 1, uses_anonymous_args = 0
 5065              		@ link register save eliminated.
 5066 2658 80B4     		push	{r7}
 5067              	.LCFI39:
 5068              		.cfi_def_cfa_offset 4
 5069              		.cfi_offset 7, -4
 5070 265a 83B0     		sub	sp, sp, #12
 5071              	.LCFI40:
 5072              		.cfi_def_cfa_offset 16
 5073 265c 00AF     		add	r7, sp, #0
 5074              	.LCFI41:
 5075              		.cfi_def_cfa_register 7
 5076 265e 0346     		mov	r3, r0
 5077 2660 FB71     		strb	r3, [r7, #7]
1933:../src/lib/lpc177x_8x/Drivers/source/lpc177x_8x_can.c ****     switch (arg)
 5078              		.loc 1 1933 0
 5079 2662 FB79     		ldrb	r3, [r7, #7]	@ zero_extendqisi2
 5080 2664 002B     		cmp	r3, #0
 5081 2666 02D0     		beq	.L275
 5082 2668 012B     		cmp	r3, #1
 5083 266a 03D0     		beq	.L276
 5084 266c 05E0     		b	.L278
 5085              	.L275:
1934:../src/lib/lpc177x_8x/Drivers/source/lpc177x_8x_can.c ****     {
1935:../src/lib/lpc177x_8x/Drivers/source/lpc177x_8x_can.c ****         case CANCR_TX_STS:
1936:../src/lib/lpc177x_8x/Drivers/source/lpc177x_8x_can.c ****             return LPC_CANCR->TxSR;
 5086              		.loc 1 1936 0
 5087 266e 074B     		ldr	r3, .L279
 5088 2670 1B68     		ldr	r3, [r3, #0]
 5089 2672 04E0     		b	.L277
 5090              	.L276:
1937:../src/lib/lpc177x_8x/Drivers/source/lpc177x_8x_can.c **** 
1938:../src/lib/lpc177x_8x/Drivers/source/lpc177x_8x_can.c ****         case CANCR_RX_STS:
1939:../src/lib/lpc177x_8x/Drivers/source/lpc177x_8x_can.c ****             return LPC_CANCR->RxSR;
 5091              		.loc 1 1939 0
 5092 2674 054B     		ldr	r3, .L279
 5093 2676 5B68     		ldr	r3, [r3, #4]
 5094 2678 01E0     		b	.L277
 5095              	.L278:
1940:../src/lib/lpc177x_8x/Drivers/source/lpc177x_8x_can.c **** 
1941:../src/lib/lpc177x_8x/Drivers/source/lpc177x_8x_can.c ****         default:    // CANCR_MS
1942:../src/lib/lpc177x_8x/Drivers/source/lpc177x_8x_can.c ****             return LPC_CANCR->MSR;
 5096              		.loc 1 1942 0
 5097 267a 044B     		ldr	r3, .L279
 5098 267c 9B68     		ldr	r3, [r3, #8]
 5099              	.L277:
1943:../src/lib/lpc177x_8x/Drivers/source/lpc177x_8x_can.c ****     }
1944:../src/lib/lpc177x_8x/Drivers/source/lpc177x_8x_can.c **** }
 5100              		.loc 1 1944 0
 5101 267e 1846     		mov	r0, r3
 5102 2680 07F10C07 		add	r7, r7, #12
 5103 2684 BD46     		mov	sp, r7
 5104 2686 80BC     		pop	{r7}
 5105 2688 7047     		bx	lr
 5106              	.L280:
 5107 268a 00BF     		.align	2
 5108              	.L279:
 5109 268c 00000440 		.word	1074003968
 5110              		.cfi_endproc
 5111              	.LFE68:
 5113              		.align	2
 5114              		.global	CAN_IRQCmd
 5115              		.thumb
 5116              		.thumb_func
 5118              	CAN_IRQCmd:
 5119              	.LFB69:
1945:../src/lib/lpc177x_8x/Drivers/source/lpc177x_8x_can.c **** /********************************************************************//**
1946:../src/lib/lpc177x_8x/Drivers/source/lpc177x_8x_can.c ****  * @brief       Enable/Disable CAN Interrupt
1947:../src/lib/lpc177x_8x/Drivers/source/lpc177x_8x_can.c ****  * @param[in]    canId           The Id of the expected CAN component
1948:../src/lib/lpc177x_8x/Drivers/source/lpc177x_8x_can.c ****  *
1949:../src/lib/lpc177x_8x/Drivers/source/lpc177x_8x_can.c ****  * @param[in]   arg: type of CAN interrupt that you want to enable/disable
1950:../src/lib/lpc177x_8x/Drivers/source/lpc177x_8x_can.c ****  *              Should be:
1951:../src/lib/lpc177x_8x/Drivers/source/lpc177x_8x_can.c ****  *              - CANINT_RIE: CAN Receiver Interrupt Enable
1952:../src/lib/lpc177x_8x/Drivers/source/lpc177x_8x_can.c ****  *              - CANINT_TIE1: CAN Transmit Interrupt Enable
1953:../src/lib/lpc177x_8x/Drivers/source/lpc177x_8x_can.c ****  *              - CANINT_EIE: CAN Error Warning Interrupt Enable
1954:../src/lib/lpc177x_8x/Drivers/source/lpc177x_8x_can.c ****  *              - CANINT_DOIE: CAN Data Overrun Interrupt Enable
1955:../src/lib/lpc177x_8x/Drivers/source/lpc177x_8x_can.c ****  *              - CANINT_WUIE: CAN Wake-Up Interrupt Enable
1956:../src/lib/lpc177x_8x/Drivers/source/lpc177x_8x_can.c ****  *              - CANINT_EPIE: CAN Error Passive Interrupt Enable
1957:../src/lib/lpc177x_8x/Drivers/source/lpc177x_8x_can.c ****  *              - CANINT_ALIE: CAN Arbitration Lost Interrupt Enable
1958:../src/lib/lpc177x_8x/Drivers/source/lpc177x_8x_can.c ****  *              - CANINT_BEIE: CAN Bus Error Interrupt Enable
1959:../src/lib/lpc177x_8x/Drivers/source/lpc177x_8x_can.c ****  *              - CANINT_IDIE: CAN ID Ready Interrupt Enable
1960:../src/lib/lpc177x_8x/Drivers/source/lpc177x_8x_can.c ****  *              - CANINT_TIE2: CAN Transmit Interrupt Enable for Buffer2
1961:../src/lib/lpc177x_8x/Drivers/source/lpc177x_8x_can.c ****  *              - CANINT_TIE3: CAN Transmit Interrupt Enable for Buffer3
1962:../src/lib/lpc177x_8x/Drivers/source/lpc177x_8x_can.c ****  *              - CANINT_FCE: FullCAN Interrupt Enable
1963:../src/lib/lpc177x_8x/Drivers/source/lpc177x_8x_can.c ****  * @param[in]   NewState: New state of this function, should be:
1964:../src/lib/lpc177x_8x/Drivers/source/lpc177x_8x_can.c ****  *              - ENABLE
1965:../src/lib/lpc177x_8x/Drivers/source/lpc177x_8x_can.c ****  *              - DISABLE
1966:../src/lib/lpc177x_8x/Drivers/source/lpc177x_8x_can.c ****  * @return      none
1967:../src/lib/lpc177x_8x/Drivers/source/lpc177x_8x_can.c ****  *********************************************************************/
1968:../src/lib/lpc177x_8x/Drivers/source/lpc177x_8x_can.c **** void CAN_IRQCmd (uint8_t canId, CAN_INT_EN_Type arg, FunctionalState NewState)
1969:../src/lib/lpc177x_8x/Drivers/source/lpc177x_8x_can.c **** {
 5120              		.loc 1 1969 0
 5121              		.cfi_startproc
 5122              		@ args = 0, pretend = 0, frame = 16
 5123              		@ frame_needed = 1, uses_anonymous_args = 0
 5124 2690 80B5     		push	{r7, lr}
 5125              	.LCFI42:
 5126              		.cfi_def_cfa_offset 8
 5127              		.cfi_offset 7, -8
 5128              		.cfi_offset 14, -4
 5129 2692 84B0     		sub	sp, sp, #16
 5130              	.LCFI43:
 5131              		.cfi_def_cfa_offset 24
 5132 2694 00AF     		add	r7, sp, #0
 5133              	.LCFI44:
 5134              		.cfi_def_cfa_register 7
 5135 2696 1346     		mov	r3, r2
 5136 2698 0246     		mov	r2, r0
 5137 269a FA71     		strb	r2, [r7, #7]
 5138 269c 0A46     		mov	r2, r1
 5139 269e BA71     		strb	r2, [r7, #6]
 5140 26a0 7B71     		strb	r3, [r7, #5]
1970:../src/lib/lpc177x_8x/Drivers/source/lpc177x_8x_can.c ****     LPC_CAN_TypeDef* pCan = CAN_GetPointer(canId);
 5141              		.loc 1 1970 0
 5142 26a2 FB79     		ldrb	r3, [r7, #7]	@ zero_extendqisi2
 5143 26a4 1846     		mov	r0, r3
 5144 26a6 FDF7ABFC 		bl	CAN_GetPointer
 5145 26aa F860     		str	r0, [r7, #12]
1971:../src/lib/lpc177x_8x/Drivers/source/lpc177x_8x_can.c **** 
1972:../src/lib/lpc177x_8x/Drivers/source/lpc177x_8x_can.c ****     if(NewState == ENABLE)
 5146              		.loc 1 1972 0
 5147 26ac 7B79     		ldrb	r3, [r7, #5]	@ zero_extendqisi2
 5148 26ae 012B     		cmp	r3, #1
 5149 26b0 1AD1     		bne	.L282
1973:../src/lib/lpc177x_8x/Drivers/source/lpc177x_8x_can.c ****     {
1974:../src/lib/lpc177x_8x/Drivers/source/lpc177x_8x_can.c ****         if(arg == CANINT_FCE)
 5150              		.loc 1 1974 0
 5151 26b2 BB79     		ldrb	r3, [r7, #6]	@ zero_extendqisi2
 5152 26b4 0B2B     		cmp	r3, #11
 5153 26b6 0CD1     		bne	.L283
1975:../src/lib/lpc177x_8x/Drivers/source/lpc177x_8x_can.c ****         {
1976:../src/lib/lpc177x_8x/Drivers/source/lpc177x_8x_can.c ****             LPC_CANAF->AFMR = 0x01;
 5154              		.loc 1 1976 0
 5155 26b8 1B4B     		ldr	r3, .L286
 5156 26ba 4FF00102 		mov	r2, #1
 5157 26be 1A60     		str	r2, [r3, #0]
1977:../src/lib/lpc177x_8x/Drivers/source/lpc177x_8x_can.c **** 
1978:../src/lib/lpc177x_8x/Drivers/source/lpc177x_8x_can.c ****             LPC_CANAF->FCANIE = 0x01;
 5158              		.loc 1 1978 0
 5159 26c0 194B     		ldr	r3, .L286
 5160 26c2 4FF00102 		mov	r2, #1
 5161 26c6 1A62     		str	r2, [r3, #32]
1979:../src/lib/lpc177x_8x/Drivers/source/lpc177x_8x_can.c **** 
1980:../src/lib/lpc177x_8x/Drivers/source/lpc177x_8x_can.c ****             LPC_CANAF->AFMR = 0x04;
 5162              		.loc 1 1980 0
 5163 26c8 174B     		ldr	r3, .L286
 5164 26ca 4FF00402 		mov	r2, #4
 5165 26ce 1A60     		str	r2, [r3, #0]
 5166 26d0 26E0     		b	.L281
 5167              	.L283:
1981:../src/lib/lpc177x_8x/Drivers/source/lpc177x_8x_can.c ****         }
1982:../src/lib/lpc177x_8x/Drivers/source/lpc177x_8x_can.c ****         else
1983:../src/lib/lpc177x_8x/Drivers/source/lpc177x_8x_can.c ****             pCan->IER |= (1 << arg);
 5168              		.loc 1 1983 0
 5169 26d2 FB68     		ldr	r3, [r7, #12]
 5170 26d4 1A69     		ldr	r2, [r3, #16]
 5171 26d6 BB79     		ldrb	r3, [r7, #6]	@ zero_extendqisi2
 5172 26d8 4FF00101 		mov	r1, #1
 5173 26dc 01FA03F3 		lsl	r3, r1, r3
 5174 26e0 1A43     		orrs	r2, r2, r3
 5175 26e2 FB68     		ldr	r3, [r7, #12]
 5176 26e4 1A61     		str	r2, [r3, #16]
 5177 26e6 1BE0     		b	.L281
 5178              	.L282:
1984:../src/lib/lpc177x_8x/Drivers/source/lpc177x_8x_can.c ****     }
1985:../src/lib/lpc177x_8x/Drivers/source/lpc177x_8x_can.c ****     else
1986:../src/lib/lpc177x_8x/Drivers/source/lpc177x_8x_can.c ****     {
1987:../src/lib/lpc177x_8x/Drivers/source/lpc177x_8x_can.c ****         if(arg == CANINT_FCE)
 5179              		.loc 1 1987 0
 5180 26e8 BB79     		ldrb	r3, [r7, #6]	@ zero_extendqisi2
 5181 26ea 0B2B     		cmp	r3, #11
 5182 26ec 0CD1     		bne	.L285
1988:../src/lib/lpc177x_8x/Drivers/source/lpc177x_8x_can.c ****         {
1989:../src/lib/lpc177x_8x/Drivers/source/lpc177x_8x_can.c ****             LPC_CANAF->AFMR = 0x01;
 5183              		.loc 1 1989 0
 5184 26ee 0E4B     		ldr	r3, .L286
 5185 26f0 4FF00102 		mov	r2, #1
 5186 26f4 1A60     		str	r2, [r3, #0]
1990:../src/lib/lpc177x_8x/Drivers/source/lpc177x_8x_can.c **** 
1991:../src/lib/lpc177x_8x/Drivers/source/lpc177x_8x_can.c ****             LPC_CANAF->FCANIE = 0x01;
 5187              		.loc 1 1991 0
 5188 26f6 0C4B     		ldr	r3, .L286
 5189 26f8 4FF00102 		mov	r2, #1
 5190 26fc 1A62     		str	r2, [r3, #32]
1992:../src/lib/lpc177x_8x/Drivers/source/lpc177x_8x_can.c **** 
1993:../src/lib/lpc177x_8x/Drivers/source/lpc177x_8x_can.c ****             LPC_CANAF->AFMR = 0x00;
 5191              		.loc 1 1993 0
 5192 26fe 0A4B     		ldr	r3, .L286
 5193 2700 4FF00002 		mov	r2, #0
 5194 2704 1A60     		str	r2, [r3, #0]
 5195 2706 0BE0     		b	.L281
 5196              	.L285:
1994:../src/lib/lpc177x_8x/Drivers/source/lpc177x_8x_can.c ****         }
1995:../src/lib/lpc177x_8x/Drivers/source/lpc177x_8x_can.c ****         else
1996:../src/lib/lpc177x_8x/Drivers/source/lpc177x_8x_can.c ****             pCan->IER &= ~(1 << arg);
 5197              		.loc 1 1996 0
 5198 2708 FB68     		ldr	r3, [r7, #12]
 5199 270a 1A69     		ldr	r2, [r3, #16]
 5200 270c BB79     		ldrb	r3, [r7, #6]	@ zero_extendqisi2
 5201 270e 4FF00101 		mov	r1, #1
 5202 2712 01FA03F3 		lsl	r3, r1, r3
 5203 2716 6FEA0303 		mvn	r3, r3
 5204 271a 1A40     		ands	r2, r2, r3
 5205 271c FB68     		ldr	r3, [r7, #12]
 5206 271e 1A61     		str	r2, [r3, #16]
 5207              	.L281:
1997:../src/lib/lpc177x_8x/Drivers/source/lpc177x_8x_can.c ****     }
1998:../src/lib/lpc177x_8x/Drivers/source/lpc177x_8x_can.c **** }
 5208              		.loc 1 1998 0
 5209 2720 07F11007 		add	r7, r7, #16
 5210 2724 BD46     		mov	sp, r7
 5211 2726 80BD     		pop	{r7, pc}
 5212              	.L287:
 5213              		.align	2
 5214              	.L286:
 5215 2728 00C00340 		.word	1073987584
 5216              		.cfi_endproc
 5217              	.LFE69:
 5219              		.align	2
 5220              		.global	CAN_SetAFMode
 5221              		.thumb
 5222              		.thumb_func
 5224              	CAN_SetAFMode:
 5225              	.LFB70:
1999:../src/lib/lpc177x_8x/Drivers/source/lpc177x_8x_can.c **** 
2000:../src/lib/lpc177x_8x/Drivers/source/lpc177x_8x_can.c **** /********************************************************************//**
2001:../src/lib/lpc177x_8x/Drivers/source/lpc177x_8x_can.c ****  * @brief       Setting Acceptance Filter mode
2002:../src/lib/lpc177x_8x/Drivers/source/lpc177x_8x_can.c ****  * @param[in]   CANAFx point to LPC_CANAF_TypeDef object, should be: LPC_CANAF
2003:../src/lib/lpc177x_8x/Drivers/source/lpc177x_8x_can.c ****  * @param[in]   AFMode: type of AF mode that you want to set, should be:
2004:../src/lib/lpc177x_8x/Drivers/source/lpc177x_8x_can.c ****  *              - CAN_NORMAL: Normal mode
2005:../src/lib/lpc177x_8x/Drivers/source/lpc177x_8x_can.c ****  *              - CAN_ACC_OFF: Acceptance Filter Off Mode
2006:../src/lib/lpc177x_8x/Drivers/source/lpc177x_8x_can.c ****  *              - CAN_ACC_BP: Acceptance Fileter Bypass Mode
2007:../src/lib/lpc177x_8x/Drivers/source/lpc177x_8x_can.c ****  *              - CAN_EFCAN: FullCAN Mode Enhancement
2008:../src/lib/lpc177x_8x/Drivers/source/lpc177x_8x_can.c ****  * @return      none
2009:../src/lib/lpc177x_8x/Drivers/source/lpc177x_8x_can.c ****  *********************************************************************/
2010:../src/lib/lpc177x_8x/Drivers/source/lpc177x_8x_can.c **** void CAN_SetAFMode (CAN_AFMODE_Type AFMode)
2011:../src/lib/lpc177x_8x/Drivers/source/lpc177x_8x_can.c **** {
 5226              		.loc 1 2011 0
 5227              		.cfi_startproc
 5228              		@ args = 0, pretend = 0, frame = 8
 5229              		@ frame_needed = 1, uses_anonymous_args = 0
 5230              		@ link register save eliminated.
 5231 272c 80B4     		push	{r7}
 5232              	.LCFI45:
 5233              		.cfi_def_cfa_offset 4
 5234              		.cfi_offset 7, -4
 5235 272e 83B0     		sub	sp, sp, #12
 5236              	.LCFI46:
 5237              		.cfi_def_cfa_offset 16
 5238 2730 00AF     		add	r7, sp, #0
 5239              	.LCFI47:
 5240              		.cfi_def_cfa_register 7
 5241 2732 0346     		mov	r3, r0
 5242 2734 FB71     		strb	r3, [r7, #7]
2012:../src/lib/lpc177x_8x/Drivers/source/lpc177x_8x_can.c ****     switch(AFMode)
 5243              		.loc 1 2012 0
 5244 2736 FB79     		ldrb	r3, [r7, #7]	@ zero_extendqisi2
 5245 2738 032B     		cmp	r3, #3
 5246 273a 1FD8     		bhi	.L288
 5247 273c 01A2     		adr	r2, .L294
 5248 273e 52F823F0 		ldr	pc, [r2, r3, lsl #2]
 5249 2742 00BF     		.align	2
 5250              	.L294:
 5251 2744 55270000 		.word	.L290+1
 5252 2748 5F270000 		.word	.L291+1
 5253 274c 69270000 		.word	.L292+1
 5254 2750 73270000 		.word	.L293+1
 5255              	.L290:
2013:../src/lib/lpc177x_8x/Drivers/source/lpc177x_8x_can.c ****     {
2014:../src/lib/lpc177x_8x/Drivers/source/lpc177x_8x_can.c ****         case CAN_NORMAL:
2015:../src/lib/lpc177x_8x/Drivers/source/lpc177x_8x_can.c ****             LPC_CANAF->AFMR = 0x00;
 5256              		.loc 1 2015 0
 5257 2754 0C4B     		ldr	r3, .L295
 5258 2756 4FF00002 		mov	r2, #0
 5259 275a 1A60     		str	r2, [r3, #0]
2016:../src/lib/lpc177x_8x/Drivers/source/lpc177x_8x_can.c ****             break;
 5260              		.loc 1 2016 0
 5261 275c 0EE0     		b	.L288
 5262              	.L291:
2017:../src/lib/lpc177x_8x/Drivers/source/lpc177x_8x_can.c **** 
2018:../src/lib/lpc177x_8x/Drivers/source/lpc177x_8x_can.c ****         case CAN_ACC_OFF:
2019:../src/lib/lpc177x_8x/Drivers/source/lpc177x_8x_can.c ****             LPC_CANAF->AFMR = 0x01;
 5263              		.loc 1 2019 0
 5264 275e 0A4B     		ldr	r3, .L295
 5265 2760 4FF00102 		mov	r2, #1
 5266 2764 1A60     		str	r2, [r3, #0]
2020:../src/lib/lpc177x_8x/Drivers/source/lpc177x_8x_can.c ****             break;
 5267              		.loc 1 2020 0
 5268 2766 09E0     		b	.L288
 5269              	.L292:
2021:../src/lib/lpc177x_8x/Drivers/source/lpc177x_8x_can.c **** 
2022:../src/lib/lpc177x_8x/Drivers/source/lpc177x_8x_can.c ****         case CAN_ACC_BP:
2023:../src/lib/lpc177x_8x/Drivers/source/lpc177x_8x_can.c ****             LPC_CANAF->AFMR = 0x02;
 5270              		.loc 1 2023 0
 5271 2768 074B     		ldr	r3, .L295
 5272 276a 4FF00202 		mov	r2, #2
 5273 276e 1A60     		str	r2, [r3, #0]
2024:../src/lib/lpc177x_8x/Drivers/source/lpc177x_8x_can.c ****             break;
 5274              		.loc 1 2024 0
 5275 2770 04E0     		b	.L288
 5276              	.L293:
2025:../src/lib/lpc177x_8x/Drivers/source/lpc177x_8x_can.c **** 
2026:../src/lib/lpc177x_8x/Drivers/source/lpc177x_8x_can.c ****         case CAN_EFCAN:
2027:../src/lib/lpc177x_8x/Drivers/source/lpc177x_8x_can.c ****             LPC_CANAF->AFMR = 0x04;
 5277              		.loc 1 2027 0
 5278 2772 054B     		ldr	r3, .L295
 5279 2774 4FF00402 		mov	r2, #4
 5280 2778 1A60     		str	r2, [r3, #0]
2028:../src/lib/lpc177x_8x/Drivers/source/lpc177x_8x_can.c ****             break;
 5281              		.loc 1 2028 0
 5282 277a 00BF     		nop
 5283              	.L288:
2029:../src/lib/lpc177x_8x/Drivers/source/lpc177x_8x_can.c ****     }
2030:../src/lib/lpc177x_8x/Drivers/source/lpc177x_8x_can.c **** }
 5284              		.loc 1 2030 0
 5285 277c 07F10C07 		add	r7, r7, #12
 5286 2780 BD46     		mov	sp, r7
 5287 2782 80BC     		pop	{r7}
 5288 2784 7047     		bx	lr
 5289              	.L296:
 5290 2786 00BF     		.align	2
 5291              	.L295:
 5292 2788 00C00340 		.word	1073987584
 5293              		.cfi_endproc
 5294              	.LFE70:
 5296              		.align	2
 5297              		.global	CAN_ModeConfig
 5298              		.thumb
 5299              		.thumb_func
 5301              	CAN_ModeConfig:
 5302              	.LFB71:
2031:../src/lib/lpc177x_8x/Drivers/source/lpc177x_8x_can.c **** 
2032:../src/lib/lpc177x_8x/Drivers/source/lpc177x_8x_can.c **** /********************************************************************//**
2033:../src/lib/lpc177x_8x/Drivers/source/lpc177x_8x_can.c ****  * @brief       Enable/Disable CAN Mode
2034:../src/lib/lpc177x_8x/Drivers/source/lpc177x_8x_can.c ****  * @param[in]    canId           The Id of the expected CAN component
2035:../src/lib/lpc177x_8x/Drivers/source/lpc177x_8x_can.c ****  *
2036:../src/lib/lpc177x_8x/Drivers/source/lpc177x_8x_can.c ****  * @param[in]   mode: type of CAN mode that you want to enable/disable, should be:
2037:../src/lib/lpc177x_8x/Drivers/source/lpc177x_8x_can.c ****  *              - CAN_OPERATING_MODE: Normal Operating Mode
2038:../src/lib/lpc177x_8x/Drivers/source/lpc177x_8x_can.c ****  *              - CAN_RESET_MODE: Reset Mode
2039:../src/lib/lpc177x_8x/Drivers/source/lpc177x_8x_can.c ****  *              - CAN_LISTENONLY_MODE: Listen Only Mode
2040:../src/lib/lpc177x_8x/Drivers/source/lpc177x_8x_can.c ****  *              - CAN_SELFTEST_MODE: Self Test Mode
2041:../src/lib/lpc177x_8x/Drivers/source/lpc177x_8x_can.c ****  *              - CAN_TXPRIORITY_MODE: Transmit Priority Mode
2042:../src/lib/lpc177x_8x/Drivers/source/lpc177x_8x_can.c ****  *              - CAN_SLEEP_MODE: Sleep Mode
2043:../src/lib/lpc177x_8x/Drivers/source/lpc177x_8x_can.c ****  *              - CAN_RXPOLARITY_MODE: Receive Polarity Mode
2044:../src/lib/lpc177x_8x/Drivers/source/lpc177x_8x_can.c ****  *              - CAN_TEST_MODE: Test Mode
2045:../src/lib/lpc177x_8x/Drivers/source/lpc177x_8x_can.c ****  * @param[in]   NewState: New State of this function, should be:
2046:../src/lib/lpc177x_8x/Drivers/source/lpc177x_8x_can.c ****  *              - ENABLE
2047:../src/lib/lpc177x_8x/Drivers/source/lpc177x_8x_can.c ****  *              - DISABLE
2048:../src/lib/lpc177x_8x/Drivers/source/lpc177x_8x_can.c ****  * @return      none
2049:../src/lib/lpc177x_8x/Drivers/source/lpc177x_8x_can.c ****  *********************************************************************/
2050:../src/lib/lpc177x_8x/Drivers/source/lpc177x_8x_can.c **** void CAN_ModeConfig(uint8_t canId, CAN_MODE_Type mode, FunctionalState NewState)
2051:../src/lib/lpc177x_8x/Drivers/source/lpc177x_8x_can.c **** {
 5303              		.loc 1 2051 0
 5304              		.cfi_startproc
 5305              		@ args = 0, pretend = 0, frame = 16
 5306              		@ frame_needed = 1, uses_anonymous_args = 0
 5307 278c 80B5     		push	{r7, lr}
 5308              	.LCFI48:
 5309              		.cfi_def_cfa_offset 8
 5310              		.cfi_offset 7, -8
 5311              		.cfi_offset 14, -4
 5312 278e 84B0     		sub	sp, sp, #16
 5313              	.LCFI49:
 5314              		.cfi_def_cfa_offset 24
 5315 2790 00AF     		add	r7, sp, #0
 5316              	.LCFI50:
 5317              		.cfi_def_cfa_register 7
 5318 2792 1346     		mov	r3, r2
 5319 2794 0246     		mov	r2, r0
 5320 2796 FA71     		strb	r2, [r7, #7]
 5321 2798 0A46     		mov	r2, r1
 5322 279a BA71     		strb	r2, [r7, #6]
 5323 279c 7B71     		strb	r3, [r7, #5]
2052:../src/lib/lpc177x_8x/Drivers/source/lpc177x_8x_can.c ****     LPC_CAN_TypeDef* pCan = CAN_GetPointer(canId);
 5324              		.loc 1 2052 0
 5325 279e FB79     		ldrb	r3, [r7, #7]	@ zero_extendqisi2
 5326 27a0 1846     		mov	r0, r3
 5327 27a2 FDF72DFC 		bl	CAN_GetPointer
 5328 27a6 F860     		str	r0, [r7, #12]
2053:../src/lib/lpc177x_8x/Drivers/source/lpc177x_8x_can.c **** 
2054:../src/lib/lpc177x_8x/Drivers/source/lpc177x_8x_can.c ****     switch(mode)
 5329              		.loc 1 2054 0
 5330 27a8 BB79     		ldrb	r3, [r7, #6]	@ zero_extendqisi2
 5331 27aa 072B     		cmp	r3, #7
 5332 27ac 00F2A880 		bhi	.L297
 5333 27b0 01A2     		adr	r2, .L307
 5334 27b2 52F823F0 		ldr	pc, [r2, r3, lsl #2]
 5335 27b6 00BF     		.align	2
 5336              	.L307:
 5337 27b8 D9270000 		.word	.L299+1
 5338 27bc E3270000 		.word	.L300+1
 5339 27c0 05280000 		.word	.L301+1
 5340 27c4 3F280000 		.word	.L302+1
 5341 27c8 79280000 		.word	.L303+1
 5342 27cc 9B280000 		.word	.L304+1
 5343 27d0 BD280000 		.word	.L305+1
 5344 27d4 DF280000 		.word	.L306+1
 5345              	.L299:
2055:../src/lib/lpc177x_8x/Drivers/source/lpc177x_8x_can.c ****     {
2056:../src/lib/lpc177x_8x/Drivers/source/lpc177x_8x_can.c ****         case CAN_OPERATING_MODE:
2057:../src/lib/lpc177x_8x/Drivers/source/lpc177x_8x_can.c ****             pCan->MOD = 0x00;
 5346              		.loc 1 2057 0
 5347 27d8 FB68     		ldr	r3, [r7, #12]
 5348 27da 4FF00002 		mov	r2, #0
 5349 27de 1A60     		str	r2, [r3, #0]
2058:../src/lib/lpc177x_8x/Drivers/source/lpc177x_8x_can.c ****             break;
 5350              		.loc 1 2058 0
 5351 27e0 8EE0     		b	.L297
 5352              	.L300:
2059:../src/lib/lpc177x_8x/Drivers/source/lpc177x_8x_can.c **** 
2060:../src/lib/lpc177x_8x/Drivers/source/lpc177x_8x_can.c ****         case CAN_RESET_MODE:
2061:../src/lib/lpc177x_8x/Drivers/source/lpc177x_8x_can.c ****             if(NewState == ENABLE)
 5353              		.loc 1 2061 0
 5354 27e2 7B79     		ldrb	r3, [r7, #5]	@ zero_extendqisi2
 5355 27e4 012B     		cmp	r3, #1
 5356 27e6 06D1     		bne	.L308
2062:../src/lib/lpc177x_8x/Drivers/source/lpc177x_8x_can.c ****                 pCan->MOD |= CAN_MOD_RM;
 5357              		.loc 1 2062 0
 5358 27e8 FB68     		ldr	r3, [r7, #12]
 5359 27ea 1B68     		ldr	r3, [r3, #0]
 5360 27ec 43F00102 		orr	r2, r3, #1
 5361 27f0 FB68     		ldr	r3, [r7, #12]
 5362 27f2 1A60     		str	r2, [r3, #0]
2063:../src/lib/lpc177x_8x/Drivers/source/lpc177x_8x_can.c ****             else
2064:../src/lib/lpc177x_8x/Drivers/source/lpc177x_8x_can.c ****                 pCan->MOD &= ~CAN_MOD_RM;
2065:../src/lib/lpc177x_8x/Drivers/source/lpc177x_8x_can.c **** 
2066:../src/lib/lpc177x_8x/Drivers/source/lpc177x_8x_can.c ****             break;
 5363              		.loc 1 2066 0
 5364 27f4 84E0     		b	.L297
 5365              	.L308:
2064:../src/lib/lpc177x_8x/Drivers/source/lpc177x_8x_can.c ****                 pCan->MOD &= ~CAN_MOD_RM;
 5366              		.loc 1 2064 0
 5367 27f6 FB68     		ldr	r3, [r7, #12]
 5368 27f8 1B68     		ldr	r3, [r3, #0]
 5369 27fa 23F00102 		bic	r2, r3, #1
 5370 27fe FB68     		ldr	r3, [r7, #12]
 5371 2800 1A60     		str	r2, [r3, #0]
 5372              		.loc 1 2066 0
 5373 2802 7DE0     		b	.L297
 5374              	.L301:
2067:../src/lib/lpc177x_8x/Drivers/source/lpc177x_8x_can.c **** 
2068:../src/lib/lpc177x_8x/Drivers/source/lpc177x_8x_can.c ****         case CAN_LISTENONLY_MODE:
2069:../src/lib/lpc177x_8x/Drivers/source/lpc177x_8x_can.c ****             pCan->MOD |=CAN_MOD_RM;//Enter Reset mode
 5375              		.loc 1 2069 0
 5376 2804 FB68     		ldr	r3, [r7, #12]
 5377 2806 1B68     		ldr	r3, [r3, #0]
 5378 2808 43F00102 		orr	r2, r3, #1
 5379 280c FB68     		ldr	r3, [r7, #12]
 5380 280e 1A60     		str	r2, [r3, #0]
2070:../src/lib/lpc177x_8x/Drivers/source/lpc177x_8x_can.c **** 
2071:../src/lib/lpc177x_8x/Drivers/source/lpc177x_8x_can.c ****             if(NewState == ENABLE)
 5381              		.loc 1 2071 0
 5382 2810 7B79     		ldrb	r3, [r7, #5]	@ zero_extendqisi2
 5383 2812 012B     		cmp	r3, #1
 5384 2814 06D1     		bne	.L310
2072:../src/lib/lpc177x_8x/Drivers/source/lpc177x_8x_can.c ****                 pCan->MOD |= CAN_MOD_LOM;
 5385              		.loc 1 2072 0
 5386 2816 FB68     		ldr	r3, [r7, #12]
 5387 2818 1B68     		ldr	r3, [r3, #0]
 5388 281a 43F00202 		orr	r2, r3, #2
 5389 281e FB68     		ldr	r3, [r7, #12]
 5390 2820 1A60     		str	r2, [r3, #0]
 5391 2822 05E0     		b	.L311
 5392              	.L310:
2073:../src/lib/lpc177x_8x/Drivers/source/lpc177x_8x_can.c ****             else
2074:../src/lib/lpc177x_8x/Drivers/source/lpc177x_8x_can.c ****                 pCan->MOD &= ~ CAN_MOD_LOM;
 5393              		.loc 1 2074 0
 5394 2824 FB68     		ldr	r3, [r7, #12]
 5395 2826 1B68     		ldr	r3, [r3, #0]
 5396 2828 23F00202 		bic	r2, r3, #2
 5397 282c FB68     		ldr	r3, [r7, #12]
 5398 282e 1A60     		str	r2, [r3, #0]
 5399              	.L311:
2075:../src/lib/lpc177x_8x/Drivers/source/lpc177x_8x_can.c **** 
2076:../src/lib/lpc177x_8x/Drivers/source/lpc177x_8x_can.c ****             pCan->MOD &= ~ CAN_MOD_RM;//Release Reset mode
 5400              		.loc 1 2076 0
 5401 2830 FB68     		ldr	r3, [r7, #12]
 5402 2832 1B68     		ldr	r3, [r3, #0]
 5403 2834 23F00102 		bic	r2, r3, #1
 5404 2838 FB68     		ldr	r3, [r7, #12]
 5405 283a 1A60     		str	r2, [r3, #0]
2077:../src/lib/lpc177x_8x/Drivers/source/lpc177x_8x_can.c **** 
2078:../src/lib/lpc177x_8x/Drivers/source/lpc177x_8x_can.c ****             break;
 5406              		.loc 1 2078 0
 5407 283c 60E0     		b	.L297
 5408              	.L302:
2079:../src/lib/lpc177x_8x/Drivers/source/lpc177x_8x_can.c **** 
2080:../src/lib/lpc177x_8x/Drivers/source/lpc177x_8x_can.c ****         case CAN_SELFTEST_MODE:
2081:../src/lib/lpc177x_8x/Drivers/source/lpc177x_8x_can.c ****             pCan->MOD |= CAN_MOD_RM;//Enter Reset mode
 5409              		.loc 1 2081 0
 5410 283e FB68     		ldr	r3, [r7, #12]
 5411 2840 1B68     		ldr	r3, [r3, #0]
 5412 2842 43F00102 		orr	r2, r3, #1
 5413 2846 FB68     		ldr	r3, [r7, #12]
 5414 2848 1A60     		str	r2, [r3, #0]
2082:../src/lib/lpc177x_8x/Drivers/source/lpc177x_8x_can.c **** 
2083:../src/lib/lpc177x_8x/Drivers/source/lpc177x_8x_can.c ****             if(NewState == ENABLE)
 5415              		.loc 1 2083 0
 5416 284a 7B79     		ldrb	r3, [r7, #5]	@ zero_extendqisi2
 5417 284c 012B     		cmp	r3, #1
 5418 284e 06D1     		bne	.L312
2084:../src/lib/lpc177x_8x/Drivers/source/lpc177x_8x_can.c ****                 pCan->MOD |= CAN_MOD_STM;
 5419              		.loc 1 2084 0
 5420 2850 FB68     		ldr	r3, [r7, #12]
 5421 2852 1B68     		ldr	r3, [r3, #0]
 5422 2854 43F00402 		orr	r2, r3, #4
 5423 2858 FB68     		ldr	r3, [r7, #12]
 5424 285a 1A60     		str	r2, [r3, #0]
 5425 285c 05E0     		b	.L313
 5426              	.L312:
2085:../src/lib/lpc177x_8x/Drivers/source/lpc177x_8x_can.c ****             else
2086:../src/lib/lpc177x_8x/Drivers/source/lpc177x_8x_can.c ****                 pCan->MOD &= ~ CAN_MOD_STM;
 5427              		.loc 1 2086 0
 5428 285e FB68     		ldr	r3, [r7, #12]
 5429 2860 1B68     		ldr	r3, [r3, #0]
 5430 2862 23F00402 		bic	r2, r3, #4
 5431 2866 FB68     		ldr	r3, [r7, #12]
 5432 2868 1A60     		str	r2, [r3, #0]
 5433              	.L313:
2087:../src/lib/lpc177x_8x/Drivers/source/lpc177x_8x_can.c **** 
2088:../src/lib/lpc177x_8x/Drivers/source/lpc177x_8x_can.c ****             pCan->MOD &= ~ CAN_MOD_RM;//Release Reset mode
 5434              		.loc 1 2088 0
 5435 286a FB68     		ldr	r3, [r7, #12]
 5436 286c 1B68     		ldr	r3, [r3, #0]
 5437 286e 23F00102 		bic	r2, r3, #1
 5438 2872 FB68     		ldr	r3, [r7, #12]
 5439 2874 1A60     		str	r2, [r3, #0]
2089:../src/lib/lpc177x_8x/Drivers/source/lpc177x_8x_can.c **** 
2090:../src/lib/lpc177x_8x/Drivers/source/lpc177x_8x_can.c ****             break;
 5440              		.loc 1 2090 0
 5441 2876 43E0     		b	.L297
 5442              	.L303:
2091:../src/lib/lpc177x_8x/Drivers/source/lpc177x_8x_can.c **** 
2092:../src/lib/lpc177x_8x/Drivers/source/lpc177x_8x_can.c ****         case CAN_TXPRIORITY_MODE:
2093:../src/lib/lpc177x_8x/Drivers/source/lpc177x_8x_can.c ****             if(NewState == ENABLE)
 5443              		.loc 1 2093 0
 5444 2878 7B79     		ldrb	r3, [r7, #5]	@ zero_extendqisi2
 5445 287a 012B     		cmp	r3, #1
 5446 287c 06D1     		bne	.L314
2094:../src/lib/lpc177x_8x/Drivers/source/lpc177x_8x_can.c ****                 pCan->MOD |= CAN_MOD_TPM;
 5447              		.loc 1 2094 0
 5448 287e FB68     		ldr	r3, [r7, #12]
 5449 2880 1B68     		ldr	r3, [r3, #0]
 5450 2882 43F00802 		orr	r2, r3, #8
 5451 2886 FB68     		ldr	r3, [r7, #12]
 5452 2888 1A60     		str	r2, [r3, #0]
2095:../src/lib/lpc177x_8x/Drivers/source/lpc177x_8x_can.c ****             else
2096:../src/lib/lpc177x_8x/Drivers/source/lpc177x_8x_can.c ****                 pCan->MOD &= ~ CAN_MOD_TPM;
2097:../src/lib/lpc177x_8x/Drivers/source/lpc177x_8x_can.c **** 
2098:../src/lib/lpc177x_8x/Drivers/source/lpc177x_8x_can.c ****             break;
 5453              		.loc 1 2098 0
 5454 288a 39E0     		b	.L297
 5455              	.L314:
2096:../src/lib/lpc177x_8x/Drivers/source/lpc177x_8x_can.c ****                 pCan->MOD &= ~ CAN_MOD_TPM;
 5456              		.loc 1 2096 0
 5457 288c FB68     		ldr	r3, [r7, #12]
 5458 288e 1B68     		ldr	r3, [r3, #0]
 5459 2890 23F00802 		bic	r2, r3, #8
 5460 2894 FB68     		ldr	r3, [r7, #12]
 5461 2896 1A60     		str	r2, [r3, #0]
 5462              		.loc 1 2098 0
 5463 2898 32E0     		b	.L297
 5464              	.L304:
2099:../src/lib/lpc177x_8x/Drivers/source/lpc177x_8x_can.c **** 
2100:../src/lib/lpc177x_8x/Drivers/source/lpc177x_8x_can.c ****         case CAN_SLEEP_MODE:
2101:../src/lib/lpc177x_8x/Drivers/source/lpc177x_8x_can.c ****             if(NewState == ENABLE)
 5465              		.loc 1 2101 0
 5466 289a 7B79     		ldrb	r3, [r7, #5]	@ zero_extendqisi2
 5467 289c 012B     		cmp	r3, #1
 5468 289e 06D1     		bne	.L316
2102:../src/lib/lpc177x_8x/Drivers/source/lpc177x_8x_can.c ****                 pCan->MOD |= CAN_MOD_SM;
 5469              		.loc 1 2102 0
 5470 28a0 FB68     		ldr	r3, [r7, #12]
 5471 28a2 1B68     		ldr	r3, [r3, #0]
 5472 28a4 43F01002 		orr	r2, r3, #16
 5473 28a8 FB68     		ldr	r3, [r7, #12]
 5474 28aa 1A60     		str	r2, [r3, #0]
2103:../src/lib/lpc177x_8x/Drivers/source/lpc177x_8x_can.c ****             else
2104:../src/lib/lpc177x_8x/Drivers/source/lpc177x_8x_can.c ****                 pCan->MOD &= ~ CAN_MOD_SM;
2105:../src/lib/lpc177x_8x/Drivers/source/lpc177x_8x_can.c **** 
2106:../src/lib/lpc177x_8x/Drivers/source/lpc177x_8x_can.c ****             break;
 5475              		.loc 1 2106 0
 5476 28ac 28E0     		b	.L297
 5477              	.L316:
2104:../src/lib/lpc177x_8x/Drivers/source/lpc177x_8x_can.c ****                 pCan->MOD &= ~ CAN_MOD_SM;
 5478              		.loc 1 2104 0
 5479 28ae FB68     		ldr	r3, [r7, #12]
 5480 28b0 1B68     		ldr	r3, [r3, #0]
 5481 28b2 23F01002 		bic	r2, r3, #16
 5482 28b6 FB68     		ldr	r3, [r7, #12]
 5483 28b8 1A60     		str	r2, [r3, #0]
 5484              		.loc 1 2106 0
 5485 28ba 21E0     		b	.L297
 5486              	.L305:
2107:../src/lib/lpc177x_8x/Drivers/source/lpc177x_8x_can.c **** 
2108:../src/lib/lpc177x_8x/Drivers/source/lpc177x_8x_can.c ****         case CAN_RXPOLARITY_MODE:
2109:../src/lib/lpc177x_8x/Drivers/source/lpc177x_8x_can.c ****             if(NewState == ENABLE)
 5487              		.loc 1 2109 0
 5488 28bc 7B79     		ldrb	r3, [r7, #5]	@ zero_extendqisi2
 5489 28be 012B     		cmp	r3, #1
 5490 28c0 06D1     		bne	.L318
2110:../src/lib/lpc177x_8x/Drivers/source/lpc177x_8x_can.c ****                 pCan->MOD |= CAN_MOD_RPM;
 5491              		.loc 1 2110 0
 5492 28c2 FB68     		ldr	r3, [r7, #12]
 5493 28c4 1B68     		ldr	r3, [r3, #0]
 5494 28c6 43F02002 		orr	r2, r3, #32
 5495 28ca FB68     		ldr	r3, [r7, #12]
 5496 28cc 1A60     		str	r2, [r3, #0]
2111:../src/lib/lpc177x_8x/Drivers/source/lpc177x_8x_can.c ****             else
2112:../src/lib/lpc177x_8x/Drivers/source/lpc177x_8x_can.c ****                 pCan->MOD &= ~ CAN_MOD_RPM;
2113:../src/lib/lpc177x_8x/Drivers/source/lpc177x_8x_can.c **** 
2114:../src/lib/lpc177x_8x/Drivers/source/lpc177x_8x_can.c ****             break;
 5497              		.loc 1 2114 0
 5498 28ce 17E0     		b	.L297
 5499              	.L318:
2112:../src/lib/lpc177x_8x/Drivers/source/lpc177x_8x_can.c ****                 pCan->MOD &= ~ CAN_MOD_RPM;
 5500              		.loc 1 2112 0
 5501 28d0 FB68     		ldr	r3, [r7, #12]
 5502 28d2 1B68     		ldr	r3, [r3, #0]
 5503 28d4 23F02002 		bic	r2, r3, #32
 5504 28d8 FB68     		ldr	r3, [r7, #12]
 5505 28da 1A60     		str	r2, [r3, #0]
 5506              		.loc 1 2114 0
 5507 28dc 10E0     		b	.L297
 5508              	.L306:
2115:../src/lib/lpc177x_8x/Drivers/source/lpc177x_8x_can.c **** 
2116:../src/lib/lpc177x_8x/Drivers/source/lpc177x_8x_can.c ****         case CAN_TEST_MODE:
2117:../src/lib/lpc177x_8x/Drivers/source/lpc177x_8x_can.c ****             if(NewState == ENABLE)
 5509              		.loc 1 2117 0
 5510 28de 7B79     		ldrb	r3, [r7, #5]	@ zero_extendqisi2
 5511 28e0 012B     		cmp	r3, #1
 5512 28e2 06D1     		bne	.L320
2118:../src/lib/lpc177x_8x/Drivers/source/lpc177x_8x_can.c ****                 pCan->MOD |= CAN_MOD_TM;
 5513              		.loc 1 2118 0
 5514 28e4 FB68     		ldr	r3, [r7, #12]
 5515 28e6 1B68     		ldr	r3, [r3, #0]
 5516 28e8 43F08002 		orr	r2, r3, #128
 5517 28ec FB68     		ldr	r3, [r7, #12]
 5518 28ee 1A60     		str	r2, [r3, #0]
2119:../src/lib/lpc177x_8x/Drivers/source/lpc177x_8x_can.c ****             else
2120:../src/lib/lpc177x_8x/Drivers/source/lpc177x_8x_can.c ****                 pCan->MOD &= ~ CAN_MOD_TM;
2121:../src/lib/lpc177x_8x/Drivers/source/lpc177x_8x_can.c **** 
2122:../src/lib/lpc177x_8x/Drivers/source/lpc177x_8x_can.c ****             break;
 5519              		.loc 1 2122 0
 5520 28f0 05E0     		b	.L322
 5521              	.L320:
2120:../src/lib/lpc177x_8x/Drivers/source/lpc177x_8x_can.c ****                 pCan->MOD &= ~ CAN_MOD_TM;
 5522              		.loc 1 2120 0
 5523 28f2 FB68     		ldr	r3, [r7, #12]
 5524 28f4 1B68     		ldr	r3, [r3, #0]
 5525 28f6 23F08002 		bic	r2, r3, #128
 5526 28fa FB68     		ldr	r3, [r7, #12]
 5527 28fc 1A60     		str	r2, [r3, #0]
 5528              	.L322:
 5529              		.loc 1 2122 0
 5530 28fe 00BF     		nop
 5531              	.L297:
2123:../src/lib/lpc177x_8x/Drivers/source/lpc177x_8x_can.c ****     }
2124:../src/lib/lpc177x_8x/Drivers/source/lpc177x_8x_can.c **** }
 5532              		.loc 1 2124 0
 5533 2900 07F11007 		add	r7, r7, #16
 5534 2904 BD46     		mov	sp, r7
 5535 2906 80BD     		pop	{r7, pc}
 5536              		.cfi_endproc
 5537              	.LFE71:
 5539              		.align	2
 5540              		.global	CAN_SetCommand
 5541              		.thumb
 5542              		.thumb_func
 5544              	CAN_SetCommand:
 5545              	.LFB72:
2125:../src/lib/lpc177x_8x/Drivers/source/lpc177x_8x_can.c **** /*********************************************************************//**
2126:../src/lib/lpc177x_8x/Drivers/source/lpc177x_8x_can.c ****  * @brief       Set CAN command request
2127:../src/lib/lpc177x_8x/Drivers/source/lpc177x_8x_can.c ****  * @param[in]    canId           The Id of the expected CAN component
2128:../src/lib/lpc177x_8x/Drivers/source/lpc177x_8x_can.c ****  *
2129:../src/lib/lpc177x_8x/Drivers/source/lpc177x_8x_can.c ****  * @param[in]   CMRType command request type, should be:
2130:../src/lib/lpc177x_8x/Drivers/source/lpc177x_8x_can.c ****  *              - CAN_CMR_TR: Transmission request
2131:../src/lib/lpc177x_8x/Drivers/source/lpc177x_8x_can.c ****  *              - CAN_CMR_AT: Abort Transmission request
2132:../src/lib/lpc177x_8x/Drivers/source/lpc177x_8x_can.c ****  *              - CAN_CMR_RRB: Release Receive Buffer request
2133:../src/lib/lpc177x_8x/Drivers/source/lpc177x_8x_can.c ****  *              - CAN_CMR_CDO: Clear Data Overrun request
2134:../src/lib/lpc177x_8x/Drivers/source/lpc177x_8x_can.c ****  *              - CAN_CMR_SRR: Self Reception request
2135:../src/lib/lpc177x_8x/Drivers/source/lpc177x_8x_can.c ****  *              - CAN_CMR_STB1: Select Tx Buffer 1 request
2136:../src/lib/lpc177x_8x/Drivers/source/lpc177x_8x_can.c ****  *              - CAN_CMR_STB2: Select Tx Buffer 2 request
2137:../src/lib/lpc177x_8x/Drivers/source/lpc177x_8x_can.c ****  *              - CAN_CMR_STB3: Select Tx Buffer 3 request
2138:../src/lib/lpc177x_8x/Drivers/source/lpc177x_8x_can.c ****  * @return      CANICR (CAN interrupt and Capture register) value
2139:../src/lib/lpc177x_8x/Drivers/source/lpc177x_8x_can.c ****  **********************************************************************/
2140:../src/lib/lpc177x_8x/Drivers/source/lpc177x_8x_can.c **** void CAN_SetCommand(uint8_t canId, uint32_t CMRType)
2141:../src/lib/lpc177x_8x/Drivers/source/lpc177x_8x_can.c **** {
 5546              		.loc 1 2141 0
 5547              		.cfi_startproc
 5548              		@ args = 0, pretend = 0, frame = 16
 5549              		@ frame_needed = 1, uses_anonymous_args = 0
 5550 2908 80B5     		push	{r7, lr}
 5551              	.LCFI51:
 5552              		.cfi_def_cfa_offset 8
 5553              		.cfi_offset 7, -8
 5554              		.cfi_offset 14, -4
 5555 290a 84B0     		sub	sp, sp, #16
 5556              	.LCFI52:
 5557              		.cfi_def_cfa_offset 24
 5558 290c 00AF     		add	r7, sp, #0
 5559              	.LCFI53:
 5560              		.cfi_def_cfa_register 7
 5561 290e 0346     		mov	r3, r0
 5562 2910 3960     		str	r1, [r7, #0]
 5563 2912 FB71     		strb	r3, [r7, #7]
2142:../src/lib/lpc177x_8x/Drivers/source/lpc177x_8x_can.c ****     LPC_CAN_TypeDef* pCan = CAN_GetPointer(canId);
 5564              		.loc 1 2142 0
 5565 2914 FB79     		ldrb	r3, [r7, #7]	@ zero_extendqisi2
 5566 2916 1846     		mov	r0, r3
 5567 2918 FDF772FB 		bl	CAN_GetPointer
 5568 291c F860     		str	r0, [r7, #12]
2143:../src/lib/lpc177x_8x/Drivers/source/lpc177x_8x_can.c **** 
2144:../src/lib/lpc177x_8x/Drivers/source/lpc177x_8x_can.c ****     pCan->CMR |= CMRType;
 5569              		.loc 1 2144 0
 5570 291e FB68     		ldr	r3, [r7, #12]
 5571 2920 5A68     		ldr	r2, [r3, #4]
 5572 2922 3B68     		ldr	r3, [r7, #0]
 5573 2924 1A43     		orrs	r2, r2, r3
 5574 2926 FB68     		ldr	r3, [r7, #12]
 5575 2928 5A60     		str	r2, [r3, #4]
2145:../src/lib/lpc177x_8x/Drivers/source/lpc177x_8x_can.c **** }
 5576              		.loc 1 2145 0
 5577 292a 07F11007 		add	r7, r7, #16
 5578 292e BD46     		mov	sp, r7
 5579 2930 80BD     		pop	{r7, pc}
 5580              		.cfi_endproc
 5581              	.LFE72:
 5583 2932 00BF     		.align	2
 5584              		.global	CAN_IntGetStatus
 5585              		.thumb
 5586              		.thumb_func
 5588              	CAN_IntGetStatus:
 5589              	.LFB73:
2146:../src/lib/lpc177x_8x/Drivers/source/lpc177x_8x_can.c **** 
2147:../src/lib/lpc177x_8x/Drivers/source/lpc177x_8x_can.c **** /*********************************************************************//**
2148:../src/lib/lpc177x_8x/Drivers/source/lpc177x_8x_can.c ****  * @brief       Get CAN interrupt status
2149:../src/lib/lpc177x_8x/Drivers/source/lpc177x_8x_can.c ****  * @param[in]    canId           The Id of the expected CAN component
2150:../src/lib/lpc177x_8x/Drivers/source/lpc177x_8x_can.c ****  *
2151:../src/lib/lpc177x_8x/Drivers/source/lpc177x_8x_can.c ****  * @return      CANICR (CAN interrupt and Capture register) value
2152:../src/lib/lpc177x_8x/Drivers/source/lpc177x_8x_can.c ****  **********************************************************************/
2153:../src/lib/lpc177x_8x/Drivers/source/lpc177x_8x_can.c **** uint32_t CAN_IntGetStatus(uint8_t canId)
2154:../src/lib/lpc177x_8x/Drivers/source/lpc177x_8x_can.c **** {
 5590              		.loc 1 2154 0
 5591              		.cfi_startproc
 5592              		@ args = 0, pretend = 0, frame = 16
 5593              		@ frame_needed = 1, uses_anonymous_args = 0
 5594 2934 80B5     		push	{r7, lr}
 5595              	.LCFI54:
 5596              		.cfi_def_cfa_offset 8
 5597              		.cfi_offset 7, -8
 5598              		.cfi_offset 14, -4
 5599 2936 84B0     		sub	sp, sp, #16
 5600              	.LCFI55:
 5601              		.cfi_def_cfa_offset 24
 5602 2938 00AF     		add	r7, sp, #0
 5603              	.LCFI56:
 5604              		.cfi_def_cfa_register 7
 5605 293a 0346     		mov	r3, r0
 5606 293c FB71     		strb	r3, [r7, #7]
2155:../src/lib/lpc177x_8x/Drivers/source/lpc177x_8x_can.c ****     LPC_CAN_TypeDef* pCan = CAN_GetPointer(canId);
 5607              		.loc 1 2155 0
 5608 293e FB79     		ldrb	r3, [r7, #7]	@ zero_extendqisi2
 5609 2940 1846     		mov	r0, r3
 5610 2942 FDF75DFB 		bl	CAN_GetPointer
 5611 2946 F860     		str	r0, [r7, #12]
2156:../src/lib/lpc177x_8x/Drivers/source/lpc177x_8x_can.c **** 
2157:../src/lib/lpc177x_8x/Drivers/source/lpc177x_8x_can.c ****     return pCan->ICR;
 5612              		.loc 1 2157 0
 5613 2948 FB68     		ldr	r3, [r7, #12]
 5614 294a DB68     		ldr	r3, [r3, #12]
2158:../src/lib/lpc177x_8x/Drivers/source/lpc177x_8x_can.c **** }
 5615              		.loc 1 2158 0
 5616 294c 1846     		mov	r0, r3
 5617 294e 07F11007 		add	r7, r7, #16
 5618 2952 BD46     		mov	sp, r7
 5619 2954 80BD     		pop	{r7, pc}
 5620              		.cfi_endproc
 5621              	.LFE73:
 5623 2956 00BF     		.align	2
 5624              		.global	CAN_FullCANIntGetStatus
 5625              		.thumb
 5626              		.thumb_func
 5628              	CAN_FullCANIntGetStatus:
 5629              	.LFB74:
2159:../src/lib/lpc177x_8x/Drivers/source/lpc177x_8x_can.c **** 
2160:../src/lib/lpc177x_8x/Drivers/source/lpc177x_8x_can.c **** /*********************************************************************//**
2161:../src/lib/lpc177x_8x/Drivers/source/lpc177x_8x_can.c ****  * @brief       Check if FullCAN interrupt enable or not
2162:../src/lib/lpc177x_8x/Drivers/source/lpc177x_8x_can.c ****  * @param[in]   CANAFx point to LPC_CANAF_TypeDef object, should be: LPC_CANAF
2163:../src/lib/lpc177x_8x/Drivers/source/lpc177x_8x_can.c ****  * @return      IntStatus, could be:
2164:../src/lib/lpc177x_8x/Drivers/source/lpc177x_8x_can.c ****  *              - SET: if FullCAN interrupt is enable
2165:../src/lib/lpc177x_8x/Drivers/source/lpc177x_8x_can.c ****  *              - RESET: if FullCAN interrupt is disable
2166:../src/lib/lpc177x_8x/Drivers/source/lpc177x_8x_can.c ****  **********************************************************************/
2167:../src/lib/lpc177x_8x/Drivers/source/lpc177x_8x_can.c **** IntStatus CAN_FullCANIntGetStatus (void)
2168:../src/lib/lpc177x_8x/Drivers/source/lpc177x_8x_can.c **** {
 5630              		.loc 1 2168 0
 5631              		.cfi_startproc
 5632              		@ args = 0, pretend = 0, frame = 0
 5633              		@ frame_needed = 1, uses_anonymous_args = 0
 5634              		@ link register save eliminated.
 5635 2958 80B4     		push	{r7}
 5636              	.LCFI57:
 5637              		.cfi_def_cfa_offset 4
 5638              		.cfi_offset 7, -4
 5639 295a 00AF     		add	r7, sp, #0
 5640              	.LCFI58:
 5641              		.cfi_def_cfa_register 7
2169:../src/lib/lpc177x_8x/Drivers/source/lpc177x_8x_can.c ****     if (LPC_CANAF->FCANIE)
 5642              		.loc 1 2169 0
 5643 295c 064B     		ldr	r3, .L329
 5644 295e 1B6A     		ldr	r3, [r3, #32]
 5645 2960 002B     		cmp	r3, #0
 5646 2962 02D0     		beq	.L327
2170:../src/lib/lpc177x_8x/Drivers/source/lpc177x_8x_can.c ****         return SET;
 5647              		.loc 1 2170 0
 5648 2964 4FF00103 		mov	r3, #1
 5649 2968 01E0     		b	.L328
 5650              	.L327:
2171:../src/lib/lpc177x_8x/Drivers/source/lpc177x_8x_can.c **** 
2172:../src/lib/lpc177x_8x/Drivers/source/lpc177x_8x_can.c ****     return RESET;
 5651              		.loc 1 2172 0
 5652 296a 4FF00003 		mov	r3, #0
 5653              	.L328:
2173:../src/lib/lpc177x_8x/Drivers/source/lpc177x_8x_can.c **** }
 5654              		.loc 1 2173 0
 5655 296e 1846     		mov	r0, r3
 5656 2970 BD46     		mov	sp, r7
 5657 2972 80BC     		pop	{r7}
 5658 2974 7047     		bx	lr
 5659              	.L330:
 5660 2976 00BF     		.align	2
 5661              	.L329:
 5662 2978 00C00340 		.word	1073987584
 5663              		.cfi_endproc
 5664              	.LFE74:
 5666              		.align	2
 5667              		.global	CAN_FullCANPendGetStatus
 5668              		.thumb
 5669              		.thumb_func
 5671              	CAN_FullCANPendGetStatus:
 5672              	.LFB75:
2174:../src/lib/lpc177x_8x/Drivers/source/lpc177x_8x_can.c **** 
2175:../src/lib/lpc177x_8x/Drivers/source/lpc177x_8x_can.c **** /*********************************************************************//**
2176:../src/lib/lpc177x_8x/Drivers/source/lpc177x_8x_can.c ****  * @brief       Get value of FullCAN interrupt and capture register
2177:../src/lib/lpc177x_8x/Drivers/source/lpc177x_8x_can.c ****  * @param[in]   CANAFx point to LPC_CANAF_TypeDef object, should be: LPC_CANAF
2178:../src/lib/lpc177x_8x/Drivers/source/lpc177x_8x_can.c ****  * @param[in]   type: FullCAN IC type, should be:
2179:../src/lib/lpc177x_8x/Drivers/source/lpc177x_8x_can.c ****  *              - FULLCAN_IC0: FullCAN Interrupt Capture 0
2180:../src/lib/lpc177x_8x/Drivers/source/lpc177x_8x_can.c ****  *              - FULLCAN_IC1: FullCAN Interrupt Capture 1
2181:../src/lib/lpc177x_8x/Drivers/source/lpc177x_8x_can.c ****  * @return      FCANIC0 or FCANIC1 (FullCAN interrupt and Capture register) value
2182:../src/lib/lpc177x_8x/Drivers/source/lpc177x_8x_can.c ****  **********************************************************************/
2183:../src/lib/lpc177x_8x/Drivers/source/lpc177x_8x_can.c **** uint32_t CAN_FullCANPendGetStatus(FullCAN_IC_Type type)
2184:../src/lib/lpc177x_8x/Drivers/source/lpc177x_8x_can.c **** {
 5673              		.loc 1 2184 0
 5674              		.cfi_startproc
 5675              		@ args = 0, pretend = 0, frame = 8
 5676              		@ frame_needed = 1, uses_anonymous_args = 0
 5677              		@ link register save eliminated.
 5678 297c 80B4     		push	{r7}
 5679              	.LCFI59:
 5680              		.cfi_def_cfa_offset 4
 5681              		.cfi_offset 7, -4
 5682 297e 83B0     		sub	sp, sp, #12
 5683              	.LCFI60:
 5684              		.cfi_def_cfa_offset 16
 5685 2980 00AF     		add	r7, sp, #0
 5686              	.LCFI61:
 5687              		.cfi_def_cfa_register 7
 5688 2982 0346     		mov	r3, r0
 5689 2984 FB71     		strb	r3, [r7, #7]
2185:../src/lib/lpc177x_8x/Drivers/source/lpc177x_8x_can.c ****     if (type == FULLCAN_IC0)
 5690              		.loc 1 2185 0
 5691 2986 FB79     		ldrb	r3, [r7, #7]	@ zero_extendqisi2
 5692 2988 002B     		cmp	r3, #0
 5693 298a 02D1     		bne	.L332
2186:../src/lib/lpc177x_8x/Drivers/source/lpc177x_8x_can.c ****         return LPC_CANAF->FCANIC0;
 5694              		.loc 1 2186 0
 5695 298c 054B     		ldr	r3, .L334
 5696 298e 5B6A     		ldr	r3, [r3, #36]
 5697 2990 01E0     		b	.L333
 5698              	.L332:
2187:../src/lib/lpc177x_8x/Drivers/source/lpc177x_8x_can.c **** 
2188:../src/lib/lpc177x_8x/Drivers/source/lpc177x_8x_can.c ****     return LPC_CANAF->FCANIC1;
 5699              		.loc 1 2188 0
 5700 2992 044B     		ldr	r3, .L334
 5701 2994 9B6A     		ldr	r3, [r3, #40]
 5702              	.L333:
2189:../src/lib/lpc177x_8x/Drivers/source/lpc177x_8x_can.c **** }
 5703              		.loc 1 2189 0
 5704 2996 1846     		mov	r0, r3
 5705 2998 07F10C07 		add	r7, r7, #12
 5706 299c BD46     		mov	sp, r7
 5707 299e 80BC     		pop	{r7}
 5708 29a0 7047     		bx	lr
 5709              	.L335:
 5710 29a2 00BF     		.align	2
 5711              	.L334:
 5712 29a4 00C00340 		.word	1073987584
 5713              		.cfi_endproc
 5714              	.LFE75:
 5716              	.Letext0:
 5717              		.file 2 "g:\\program files\\codesourcery\\sourcery_codebench_lite_for_arm_eabi\\bin\\../lib/gcc/ar
 5718              		.file 3 "D:\\workspace_gnu\\RTT_Demo0\\src\\lib\\lpc177x_8x\\Drivers\\include/lpc_types.h"
 5719              		.file 4 "D:\\workspace_gnu\\RTT_Demo0\\src\\lib\\lpc177x_8x\\Core\\Device\\NXP\\LPC177x_8x\\Includ
 5720              		.file 5 "D:\\workspace_gnu\\RTT_Demo0\\src\\lib\\lpc177x_8x\\Drivers\\include/lpc177x_8x_can.h"
 5721              		.file 6 "D:\\workspace_gnu\\RTT_Demo0\\src\\lib\\lpc177x_8x\\Core\\CMSIS\\Include/core_cm3.h"
DEFINED SYMBOLS
                            *ABS*:00000000 lpc177x_8x_can.c
                            *COM*:00000001 FULLCAN_ENABLE
C:\Users\YANGZH~1\AppData\Local\Temp\ccdKrqlv.s:24     .bss:00000000 CANAF_FullCAN_cnt
C:\Users\YANGZH~1\AppData\Local\Temp\ccdKrqlv.s:21     .bss:00000000 $d
C:\Users\YANGZH~1\AppData\Local\Temp\ccdKrqlv.s:30     .bss:00000002 CANAF_std_cnt
C:\Users\YANGZH~1\AppData\Local\Temp\ccdKrqlv.s:36     .bss:00000004 CANAF_gstd_cnt
C:\Users\YANGZH~1\AppData\Local\Temp\ccdKrqlv.s:42     .bss:00000006 CANAF_ext_cnt
C:\Users\YANGZH~1\AppData\Local\Temp\ccdKrqlv.s:48     .bss:00000008 CANAF_gext_cnt
C:\Users\YANGZH~1\AppData\Local\Temp\ccdKrqlv.s:51     .text:00000000 $t
C:\Users\YANGZH~1\AppData\Local\Temp\ccdKrqlv.s:55     .text:00000000 CAN_GetPointer
C:\Users\YANGZH~1\AppData\Local\Temp\ccdKrqlv.s:112    .text:00000038 $d
C:\Users\YANGZH~1\AppData\Local\Temp\ccdKrqlv.s:117    .text:00000040 $t
C:\Users\YANGZH~1\AppData\Local\Temp\ccdKrqlv.s:121    .text:00000040 can_SetBaudrate
C:\Users\YANGZH~1\AppData\Local\Temp\ccdKrqlv.s:237    .text:0000010c $d
C:\Users\YANGZH~1\AppData\Local\Temp\ccdKrqlv.s:241    .text:00000110 $t
C:\Users\YANGZH~1\AppData\Local\Temp\ccdKrqlv.s:246    .text:00000110 CAN_Init
C:\Users\YANGZH~1\AppData\Local\Temp\ccdKrqlv.s:378    .text:000001ec $d
C:\Users\YANGZH~1\AppData\Local\Temp\ccdKrqlv.s:383    .text:000001f4 $t
C:\Users\YANGZH~1\AppData\Local\Temp\ccdKrqlv.s:388    .text:000001f4 CAN_DeInit
C:\Users\YANGZH~1\AppData\Local\Temp\ccdKrqlv.s:442    .text:00000230 CAN_SetupAFLUT
C:\Users\YANGZH~1\AppData\Local\Temp\ccdKrqlv.s:799    .text:0000054c $d
C:\Users\YANGZH~1\AppData\Local\Temp\ccdKrqlv.s:806    .text:00000560 $t
C:\Users\YANGZH~1\AppData\Local\Temp\ccdKrqlv.s:1125   .text:00000820 $d
C:\Users\YANGZH~1\AppData\Local\Temp\ccdKrqlv.s:1131   .text:00000830 $t
C:\Users\YANGZH~1\AppData\Local\Temp\ccdKrqlv.s:1309   .text:000009a8 $d
C:\Users\YANGZH~1\AppData\Local\Temp\ccdKrqlv.s:1320   .text:000009c8 $t
C:\Users\YANGZH~1\AppData\Local\Temp\ccdKrqlv.s:1325   .text:000009c8 CAN_LoadExplicitEntry
C:\Users\YANGZH~1\AppData\Local\Temp\ccdKrqlv.s:1669   .text:00000ca0 $d
C:\Users\YANGZH~1\AppData\Local\Temp\ccdKrqlv.s:1678   .text:00000cbc $t
C:\Users\YANGZH~1\AppData\Local\Temp\ccdKrqlv.s:1953   .text:00000ee4 $d
C:\Users\YANGZH~1\AppData\Local\Temp\ccdKrqlv.s:1962   .text:00000efc $t
C:\Users\YANGZH~1\AppData\Local\Temp\ccdKrqlv.s:1967   .text:00000efc CAN_LoadFullCANEntry
C:\Users\YANGZH~1\AppData\Local\Temp\ccdKrqlv.s:2316   .text:000011b8 $d
C:\Users\YANGZH~1\AppData\Local\Temp\ccdKrqlv.s:2325   .text:000011d4 $t
C:\Users\YANGZH~1\AppData\Local\Temp\ccdKrqlv.s:2570   .text:000013e8 $d
C:\Users\YANGZH~1\AppData\Local\Temp\ccdKrqlv.s:2576   .text:000013f4 $t
C:\Users\YANGZH~1\AppData\Local\Temp\ccdKrqlv.s:2581   .text:000013f4 CAN_LoadGroupEntry
C:\Users\YANGZH~1\AppData\Local\Temp\ccdKrqlv.s:2913   .text:00001680 $d
C:\Users\YANGZH~1\AppData\Local\Temp\ccdKrqlv.s:2922   .text:0000169c $t
C:\Users\YANGZH~1\AppData\Local\Temp\ccdKrqlv.s:3236   .text:00001924 $d
C:\Users\YANGZH~1\AppData\Local\Temp\ccdKrqlv.s:3246   .text:00001940 $t
C:\Users\YANGZH~1\AppData\Local\Temp\ccdKrqlv.s:3251   .text:00001940 CAN_RemoveEntry
C:\Users\YANGZH~1\AppData\Local\Temp\ccdKrqlv.s:3576   .text:00001bb4 $d
C:\Users\YANGZH~1\AppData\Local\Temp\ccdKrqlv.s:3585   .text:00001bd0 $t
C:\Users\YANGZH~1\AppData\Local\Temp\ccdKrqlv.s:3885   .text:00001e38 $d
C:\Users\YANGZH~1\AppData\Local\Temp\ccdKrqlv.s:3891   .text:00001e48 $t
C:\Users\YANGZH~1\AppData\Local\Temp\ccdKrqlv.s:4191   .text:0000208c $d
C:\Users\YANGZH~1\AppData\Local\Temp\ccdKrqlv.s:4201   .text:000020a8 $t
C:\Users\YANGZH~1\AppData\Local\Temp\ccdKrqlv.s:4206   .text:000020a8 CAN_SendMsg
C:\Users\YANGZH~1\AppData\Local\Temp\ccdKrqlv.s:4595   .text:00002360 CAN_ReceiveMsg
C:\Users\YANGZH~1\AppData\Local\Temp\ccdKrqlv.s:4749   .text:00002464 FCAN_ReadObj
C:\Users\YANGZH~1\AppData\Local\Temp\ccdKrqlv.s:4983   .text:0000260c $d
C:\Users\YANGZH~1\AppData\Local\Temp\ccdKrqlv.s:4987   .text:00002610 $t
C:\Users\YANGZH~1\AppData\Local\Temp\ccdKrqlv.s:4992   .text:00002610 CAN_GetCTRLStatus
C:\Users\YANGZH~1\AppData\Local\Temp\ccdKrqlv.s:5059   .text:00002658 CAN_GetCRStatus
C:\Users\YANGZH~1\AppData\Local\Temp\ccdKrqlv.s:5109   .text:0000268c $d
C:\Users\YANGZH~1\AppData\Local\Temp\ccdKrqlv.s:5113   .text:00002690 $t
C:\Users\YANGZH~1\AppData\Local\Temp\ccdKrqlv.s:5118   .text:00002690 CAN_IRQCmd
C:\Users\YANGZH~1\AppData\Local\Temp\ccdKrqlv.s:5215   .text:00002728 $d
C:\Users\YANGZH~1\AppData\Local\Temp\ccdKrqlv.s:5219   .text:0000272c $t
C:\Users\YANGZH~1\AppData\Local\Temp\ccdKrqlv.s:5224   .text:0000272c CAN_SetAFMode
C:\Users\YANGZH~1\AppData\Local\Temp\ccdKrqlv.s:5251   .text:00002744 $d
C:\Users\YANGZH~1\AppData\Local\Temp\ccdKrqlv.s:5257   .text:00002754 $t
C:\Users\YANGZH~1\AppData\Local\Temp\ccdKrqlv.s:5292   .text:00002788 $d
C:\Users\YANGZH~1\AppData\Local\Temp\ccdKrqlv.s:5296   .text:0000278c $t
C:\Users\YANGZH~1\AppData\Local\Temp\ccdKrqlv.s:5301   .text:0000278c CAN_ModeConfig
C:\Users\YANGZH~1\AppData\Local\Temp\ccdKrqlv.s:5337   .text:000027b8 $d
C:\Users\YANGZH~1\AppData\Local\Temp\ccdKrqlv.s:5347   .text:000027d8 $t
C:\Users\YANGZH~1\AppData\Local\Temp\ccdKrqlv.s:5544   .text:00002908 CAN_SetCommand
C:\Users\YANGZH~1\AppData\Local\Temp\ccdKrqlv.s:5588   .text:00002934 CAN_IntGetStatus
C:\Users\YANGZH~1\AppData\Local\Temp\ccdKrqlv.s:5628   .text:00002958 CAN_FullCANIntGetStatus
C:\Users\YANGZH~1\AppData\Local\Temp\ccdKrqlv.s:5662   .text:00002978 $d
C:\Users\YANGZH~1\AppData\Local\Temp\ccdKrqlv.s:5666   .text:0000297c $t
C:\Users\YANGZH~1\AppData\Local\Temp\ccdKrqlv.s:5671   .text:0000297c CAN_FullCANPendGetStatus
C:\Users\YANGZH~1\AppData\Local\Temp\ccdKrqlv.s:5712   .text:000029a4 $d
                     .debug_frame:00000010 $d
                           .group:00000000 wm4.1.9fa2be94b3b27131c651c32db681ca6e
                           .group:00000000 wm4.stdint.h.10.90b695f550ca6cc3fb08fa83baf01e05
                           .group:00000000 wm4.lpc_types.h.61.500abe635b953859f645467b1debaa34
                           .group:00000000 wm4.lpc177x_8x_libcfg_default.h.42.c21d4d8531a15b96cd9ccfa94b76f68e
                           .group:00000000 wm4.LPC177x_8x.h.34.ced9b468ef83bb68f280515946661353
                           .group:00000000 wm4.core_cm3.h.32.790cc16ac64d67f02f3790c90a28e38c
                           .group:00000000 wm4.core_cmInstr.h.25.dd98b40e8e0d1d9ee958eb9cce5e7898
                           .group:00000000 wm4.core_cm3.h.132.82da42f2eaa4f3e645984b3550bd4c22
                           .group:00000000 wm4.LPC177x_8x.h.1353.9b0a09b2831088a36b3e4060dcdc4532
                           .group:00000000 wm4.lpc177x_8x_can.h.58.a225d98decd7608f4b45da5c2929782a
                           .group:00000000 wm4.system_LPC177x_8x.h.34.e57b19a2859ef593a5974e6904d3f0ac
                           .group:00000000 wm4.lpc177x_8x_clkpwr.h.61.8bfb9350f1be3b242e7e7c6f04f31221

UNDEFINED SYMBOLS
CLKPWR_GetCLK
CLKPWR_ConfigPPWR
