   1              		.syntax unified
   2              		.cpu cortex-m4
   3              		.fpu softvfp
   4              		.eabi_attribute 20, 1
   5              		.eabi_attribute 21, 1
   6              		.eabi_attribute 23, 3
   7              		.eabi_attribute 24, 1
   8              		.eabi_attribute 25, 1
   9              		.eabi_attribute 26, 1
  10              		.eabi_attribute 30, 6
  11              		.eabi_attribute 34, 1
  12              		.eabi_attribute 18, 4
  13              		.thumb
  14              		.file	"lpc177x_8x_rtc.c"
  15              		.text
  16              	.Ltext0:
  17              		.cfi_sections	.debug_frame
  18              		.align	2
  19              		.global	RTC_Init
  20              		.thumb
  21              		.thumb_func
  23              	RTC_Init:
  24              	.LFB55:
  25              		.file 1 "../src/lib/lpc177x_8x/Drivers/source/lpc177x_8x_rtc.c"
   1:../src/lib/lpc177x_8x/Drivers/source/lpc177x_8x_rtc.c **** /**********************************************************************
   2:../src/lib/lpc177x_8x/Drivers/source/lpc177x_8x_rtc.c **** * $Id$      lpc177x_8x_rtc.c            2011-06-02
   3:../src/lib/lpc177x_8x/Drivers/source/lpc177x_8x_rtc.c **** *//**
   4:../src/lib/lpc177x_8x/Drivers/source/lpc177x_8x_rtc.c **** * @file     lpc177x_8x_rtc.c
   5:../src/lib/lpc177x_8x/Drivers/source/lpc177x_8x_rtc.c **** * @brief    Contains all functions support for RTC firmware library
   6:../src/lib/lpc177x_8x/Drivers/source/lpc177x_8x_rtc.c **** *           on LPC177x_8x
   7:../src/lib/lpc177x_8x/Drivers/source/lpc177x_8x_rtc.c **** * @version  1.0
   8:../src/lib/lpc177x_8x/Drivers/source/lpc177x_8x_rtc.c **** * @date     02. June. 2011
   9:../src/lib/lpc177x_8x/Drivers/source/lpc177x_8x_rtc.c **** * @author   NXP MCU SW Application Team
  10:../src/lib/lpc177x_8x/Drivers/source/lpc177x_8x_rtc.c **** * 
  11:../src/lib/lpc177x_8x/Drivers/source/lpc177x_8x_rtc.c **** * Copyright(C) 2011, NXP Semiconductor
  12:../src/lib/lpc177x_8x/Drivers/source/lpc177x_8x_rtc.c **** * All rights reserved.
  13:../src/lib/lpc177x_8x/Drivers/source/lpc177x_8x_rtc.c **** *
  14:../src/lib/lpc177x_8x/Drivers/source/lpc177x_8x_rtc.c **** ***********************************************************************
  15:../src/lib/lpc177x_8x/Drivers/source/lpc177x_8x_rtc.c **** * Software that is described herein is for illustrative purposes only
  16:../src/lib/lpc177x_8x/Drivers/source/lpc177x_8x_rtc.c **** * which provides customers with programming information regarding the
  17:../src/lib/lpc177x_8x/Drivers/source/lpc177x_8x_rtc.c **** * products. This software is supplied "AS IS" without any warranties.
  18:../src/lib/lpc177x_8x/Drivers/source/lpc177x_8x_rtc.c **** * NXP Semiconductors assumes no responsibility or liability for the
  19:../src/lib/lpc177x_8x/Drivers/source/lpc177x_8x_rtc.c **** * use of the software, conveys no license or title under any patent,
  20:../src/lib/lpc177x_8x/Drivers/source/lpc177x_8x_rtc.c **** * copyright, or mask work right to the product. NXP Semiconductors
  21:../src/lib/lpc177x_8x/Drivers/source/lpc177x_8x_rtc.c **** * reserves the right to make changes in the software without
  22:../src/lib/lpc177x_8x/Drivers/source/lpc177x_8x_rtc.c **** * notification. NXP Semiconductors also make no representation or
  23:../src/lib/lpc177x_8x/Drivers/source/lpc177x_8x_rtc.c **** * warranty that such application will be suitable for the specified
  24:../src/lib/lpc177x_8x/Drivers/source/lpc177x_8x_rtc.c **** * use without further testing or modification.
  25:../src/lib/lpc177x_8x/Drivers/source/lpc177x_8x_rtc.c **** * Permission to use, copy, modify, and distribute this software and its
  26:../src/lib/lpc177x_8x/Drivers/source/lpc177x_8x_rtc.c **** * documentation is hereby granted, under NXP Semiconductors'
  27:../src/lib/lpc177x_8x/Drivers/source/lpc177x_8x_rtc.c **** * relevant copyright in the software, without fee, provided that it
  28:../src/lib/lpc177x_8x/Drivers/source/lpc177x_8x_rtc.c **** * is used in conjunction with NXP Semiconductors microcontrollers.  This
  29:../src/lib/lpc177x_8x/Drivers/source/lpc177x_8x_rtc.c **** * copyright, permission, and disclaimer notice must appear in all copies of
  30:../src/lib/lpc177x_8x/Drivers/source/lpc177x_8x_rtc.c **** * this code.
  31:../src/lib/lpc177x_8x/Drivers/source/lpc177x_8x_rtc.c **** **********************************************************************/
  32:../src/lib/lpc177x_8x/Drivers/source/lpc177x_8x_rtc.c **** 
  33:../src/lib/lpc177x_8x/Drivers/source/lpc177x_8x_rtc.c **** /* Peripheral group ----------------------------------------------------------- */
  34:../src/lib/lpc177x_8x/Drivers/source/lpc177x_8x_rtc.c **** /** @addtogroup RTC
  35:../src/lib/lpc177x_8x/Drivers/source/lpc177x_8x_rtc.c ****  * @{
  36:../src/lib/lpc177x_8x/Drivers/source/lpc177x_8x_rtc.c ****  */
  37:../src/lib/lpc177x_8x/Drivers/source/lpc177x_8x_rtc.c **** #ifdef __BUILD_WITH_EXAMPLE__
  38:../src/lib/lpc177x_8x/Drivers/source/lpc177x_8x_rtc.c **** #include "lpc177x_8x_libcfg.h"
  39:../src/lib/lpc177x_8x/Drivers/source/lpc177x_8x_rtc.c **** #else
  40:../src/lib/lpc177x_8x/Drivers/source/lpc177x_8x_rtc.c **** #include "lpc177x_8x_libcfg_default.h"
  41:../src/lib/lpc177x_8x/Drivers/source/lpc177x_8x_rtc.c **** #endif /* __BUILD_WITH_EXAMPLE__ */
  42:../src/lib/lpc177x_8x/Drivers/source/lpc177x_8x_rtc.c **** #ifdef _RTC
  43:../src/lib/lpc177x_8x/Drivers/source/lpc177x_8x_rtc.c **** 
  44:../src/lib/lpc177x_8x/Drivers/source/lpc177x_8x_rtc.c **** /* Includes ------------------------------------------------------------------- */
  45:../src/lib/lpc177x_8x/Drivers/source/lpc177x_8x_rtc.c **** #include "lpc177x_8x_rtc.h"
  46:../src/lib/lpc177x_8x/Drivers/source/lpc177x_8x_rtc.c **** #include "lpc177x_8x_clkpwr.h"
  47:../src/lib/lpc177x_8x/Drivers/source/lpc177x_8x_rtc.c **** 
  48:../src/lib/lpc177x_8x/Drivers/source/lpc177x_8x_rtc.c **** /* Public Functions ----------------------------------------------------------- */
  49:../src/lib/lpc177x_8x/Drivers/source/lpc177x_8x_rtc.c **** /** @addtogroup RTC_Public_Functions
  50:../src/lib/lpc177x_8x/Drivers/source/lpc177x_8x_rtc.c ****  * @{
  51:../src/lib/lpc177x_8x/Drivers/source/lpc177x_8x_rtc.c ****  */
  52:../src/lib/lpc177x_8x/Drivers/source/lpc177x_8x_rtc.c **** 
  53:../src/lib/lpc177x_8x/Drivers/source/lpc177x_8x_rtc.c **** /********************************************************************//**
  54:../src/lib/lpc177x_8x/Drivers/source/lpc177x_8x_rtc.c ****  * @brief       Initializes the RTC peripheral.
  55:../src/lib/lpc177x_8x/Drivers/source/lpc177x_8x_rtc.c ****  * @param[in]   RTCx    RTC peripheral selected, should be LPC_RTC
  56:../src/lib/lpc177x_8x/Drivers/source/lpc177x_8x_rtc.c ****  * @return      None
  57:../src/lib/lpc177x_8x/Drivers/source/lpc177x_8x_rtc.c ****  *********************************************************************/
  58:../src/lib/lpc177x_8x/Drivers/source/lpc177x_8x_rtc.c **** void RTC_Init (LPC_RTC_TypeDef *RTCx)
  59:../src/lib/lpc177x_8x/Drivers/source/lpc177x_8x_rtc.c **** {
  26              		.loc 1 59 0
  27              		.cfi_startproc
  28              		@ args = 0, pretend = 0, frame = 8
  29              		@ frame_needed = 1, uses_anonymous_args = 0
  30 0000 80B5     		push	{r7, lr}
  31              	.LCFI0:
  32              		.cfi_def_cfa_offset 8
  33              		.cfi_offset 7, -8
  34              		.cfi_offset 14, -4
  35 0002 82B0     		sub	sp, sp, #8
  36              	.LCFI1:
  37              		.cfi_def_cfa_offset 16
  38 0004 00AF     		add	r7, sp, #0
  39              	.LCFI2:
  40              		.cfi_def_cfa_register 7
  41 0006 7860     		str	r0, [r7, #4]
  60:../src/lib/lpc177x_8x/Drivers/source/lpc177x_8x_rtc.c ****     /* Set up clock and power for RTC module */
  61:../src/lib/lpc177x_8x/Drivers/source/lpc177x_8x_rtc.c ****     CLKPWR_ConfigPPWR (CLKPWR_PCONP_PCRTC, ENABLE);
  42              		.loc 1 61 0
  43 0008 4FF40070 		mov	r0, #512
  44 000c 4FF00101 		mov	r1, #1
  45 0010 FFF7FEFF 		bl	CLKPWR_ConfigPPWR
  62:../src/lib/lpc177x_8x/Drivers/source/lpc177x_8x_rtc.c **** 
  63:../src/lib/lpc177x_8x/Drivers/source/lpc177x_8x_rtc.c ****     // Clear all register to be default
  64:../src/lib/lpc177x_8x/Drivers/source/lpc177x_8x_rtc.c ****     RTCx->ILR = 0x00;
  46              		.loc 1 64 0
  47 0014 7B68     		ldr	r3, [r7, #4]
  48 0016 4FF00002 		mov	r2, #0
  49 001a 1A70     		strb	r2, [r3, #0]
  65:../src/lib/lpc177x_8x/Drivers/source/lpc177x_8x_rtc.c ****     RTCx->CCR = 0x00;
  50              		.loc 1 65 0
  51 001c 7B68     		ldr	r3, [r7, #4]
  52 001e 4FF00002 		mov	r2, #0
  53 0022 1A72     		strb	r2, [r3, #8]
  66:../src/lib/lpc177x_8x/Drivers/source/lpc177x_8x_rtc.c ****     RTCx->CIIR = 0x00;
  54              		.loc 1 66 0
  55 0024 7B68     		ldr	r3, [r7, #4]
  56 0026 4FF00002 		mov	r2, #0
  57 002a 1A73     		strb	r2, [r3, #12]
  67:../src/lib/lpc177x_8x/Drivers/source/lpc177x_8x_rtc.c ****     RTCx->AMR = 0xFF;
  58              		.loc 1 67 0
  59 002c 7B68     		ldr	r3, [r7, #4]
  60 002e 4FF0FF02 		mov	r2, #255
  61 0032 1A74     		strb	r2, [r3, #16]
  68:../src/lib/lpc177x_8x/Drivers/source/lpc177x_8x_rtc.c ****     RTCx->CALIBRATION = 0x00;
  62              		.loc 1 68 0
  63 0034 7B68     		ldr	r3, [r7, #4]
  64 0036 4FF00002 		mov	r2, #0
  65 003a 1A64     		str	r2, [r3, #64]
  69:../src/lib/lpc177x_8x/Drivers/source/lpc177x_8x_rtc.c **** }
  66              		.loc 1 69 0
  67 003c 07F10807 		add	r7, r7, #8
  68 0040 BD46     		mov	sp, r7
  69 0042 80BD     		pop	{r7, pc}
  70              		.cfi_endproc
  71              	.LFE55:
  73              		.align	2
  74              		.global	RTC_DeInit
  75              		.thumb
  76              		.thumb_func
  78              	RTC_DeInit:
  79              	.LFB56:
  70:../src/lib/lpc177x_8x/Drivers/source/lpc177x_8x_rtc.c **** 
  71:../src/lib/lpc177x_8x/Drivers/source/lpc177x_8x_rtc.c **** 
  72:../src/lib/lpc177x_8x/Drivers/source/lpc177x_8x_rtc.c **** /*********************************************************************//**
  73:../src/lib/lpc177x_8x/Drivers/source/lpc177x_8x_rtc.c ****  * @brief       De-initializes the RTC peripheral registers to their
  74:../src/lib/lpc177x_8x/Drivers/source/lpc177x_8x_rtc.c **** *                  default reset values.
  75:../src/lib/lpc177x_8x/Drivers/source/lpc177x_8x_rtc.c ****  * @param[in]   RTCx    RTC peripheral selected, should be LPC_RTC
  76:../src/lib/lpc177x_8x/Drivers/source/lpc177x_8x_rtc.c ****  * @return      None
  77:../src/lib/lpc177x_8x/Drivers/source/lpc177x_8x_rtc.c ****  **********************************************************************/
  78:../src/lib/lpc177x_8x/Drivers/source/lpc177x_8x_rtc.c **** void RTC_DeInit(LPC_RTC_TypeDef *RTCx)
  79:../src/lib/lpc177x_8x/Drivers/source/lpc177x_8x_rtc.c **** {
  80              		.loc 1 79 0
  81              		.cfi_startproc
  82              		@ args = 0, pretend = 0, frame = 8
  83              		@ frame_needed = 1, uses_anonymous_args = 0
  84 0044 80B5     		push	{r7, lr}
  85              	.LCFI3:
  86              		.cfi_def_cfa_offset 8
  87              		.cfi_offset 7, -8
  88              		.cfi_offset 14, -4
  89 0046 82B0     		sub	sp, sp, #8
  90              	.LCFI4:
  91              		.cfi_def_cfa_offset 16
  92 0048 00AF     		add	r7, sp, #0
  93              	.LCFI5:
  94              		.cfi_def_cfa_register 7
  95 004a 7860     		str	r0, [r7, #4]
  80:../src/lib/lpc177x_8x/Drivers/source/lpc177x_8x_rtc.c ****     RTCx->CCR = 0x00;
  96              		.loc 1 80 0
  97 004c 7B68     		ldr	r3, [r7, #4]
  98 004e 4FF00002 		mov	r2, #0
  99 0052 1A72     		strb	r2, [r3, #8]
  81:../src/lib/lpc177x_8x/Drivers/source/lpc177x_8x_rtc.c ****     // Disable power and clock for RTC module
  82:../src/lib/lpc177x_8x/Drivers/source/lpc177x_8x_rtc.c ****     CLKPWR_ConfigPPWR (CLKPWR_PCONP_PCRTC, DISABLE);
 100              		.loc 1 82 0
 101 0054 4FF40070 		mov	r0, #512
 102 0058 4FF00001 		mov	r1, #0
 103 005c FFF7FEFF 		bl	CLKPWR_ConfigPPWR
  83:../src/lib/lpc177x_8x/Drivers/source/lpc177x_8x_rtc.c **** }
 104              		.loc 1 83 0
 105 0060 07F10807 		add	r7, r7, #8
 106 0064 BD46     		mov	sp, r7
 107 0066 80BD     		pop	{r7, pc}
 108              		.cfi_endproc
 109              	.LFE56:
 111              		.align	2
 112              		.global	RTC_ResetClockTickCounter
 113              		.thumb
 114              		.thumb_func
 116              	RTC_ResetClockTickCounter:
 117              	.LFB57:
  84:../src/lib/lpc177x_8x/Drivers/source/lpc177x_8x_rtc.c **** 
  85:../src/lib/lpc177x_8x/Drivers/source/lpc177x_8x_rtc.c **** /*********************************************************************//**
  86:../src/lib/lpc177x_8x/Drivers/source/lpc177x_8x_rtc.c ****  * @brief       Reset clock tick counter in RTC peripheral
  87:../src/lib/lpc177x_8x/Drivers/source/lpc177x_8x_rtc.c ****  * @param[in]   RTCx    RTC peripheral selected, should be LPC_RTC
  88:../src/lib/lpc177x_8x/Drivers/source/lpc177x_8x_rtc.c ****  * @return      None
  89:../src/lib/lpc177x_8x/Drivers/source/lpc177x_8x_rtc.c ****  **********************************************************************/
  90:../src/lib/lpc177x_8x/Drivers/source/lpc177x_8x_rtc.c **** void RTC_ResetClockTickCounter(LPC_RTC_TypeDef *RTCx)
  91:../src/lib/lpc177x_8x/Drivers/source/lpc177x_8x_rtc.c **** {
 118              		.loc 1 91 0
 119              		.cfi_startproc
 120              		@ args = 0, pretend = 0, frame = 8
 121              		@ frame_needed = 1, uses_anonymous_args = 0
 122              		@ link register save eliminated.
 123 0068 80B4     		push	{r7}
 124              	.LCFI6:
 125              		.cfi_def_cfa_offset 4
 126              		.cfi_offset 7, -4
 127 006a 83B0     		sub	sp, sp, #12
 128              	.LCFI7:
 129              		.cfi_def_cfa_offset 16
 130 006c 00AF     		add	r7, sp, #0
 131              	.LCFI8:
 132              		.cfi_def_cfa_register 7
 133 006e 7860     		str	r0, [r7, #4]
  92:../src/lib/lpc177x_8x/Drivers/source/lpc177x_8x_rtc.c ****     RTCx->CCR |= RTC_CCR_CTCRST;
 134              		.loc 1 92 0
 135 0070 7B68     		ldr	r3, [r7, #4]
 136 0072 1B7A     		ldrb	r3, [r3, #8]
 137 0074 DBB2     		uxtb	r3, r3
 138 0076 43F00203 		orr	r3, r3, #2
 139 007a DAB2     		uxtb	r2, r3
 140 007c 7B68     		ldr	r3, [r7, #4]
 141 007e 1A72     		strb	r2, [r3, #8]
  93:../src/lib/lpc177x_8x/Drivers/source/lpc177x_8x_rtc.c ****     RTCx->CCR &= (~RTC_CCR_CTCRST) & RTC_CCR_BITMASK;
 142              		.loc 1 93 0
 143 0080 7B68     		ldr	r3, [r7, #4]
 144 0082 1B7A     		ldrb	r3, [r3, #8]
 145 0084 DBB2     		uxtb	r3, r3
 146 0086 03F01103 		and	r3, r3, #17
 147 008a DAB2     		uxtb	r2, r3
 148 008c 7B68     		ldr	r3, [r7, #4]
 149 008e 1A72     		strb	r2, [r3, #8]
  94:../src/lib/lpc177x_8x/Drivers/source/lpc177x_8x_rtc.c **** }
 150              		.loc 1 94 0
 151 0090 07F10C07 		add	r7, r7, #12
 152 0094 BD46     		mov	sp, r7
 153 0096 80BC     		pop	{r7}
 154 0098 7047     		bx	lr
 155              		.cfi_endproc
 156              	.LFE57:
 158 009a 00BF     		.align	2
 159              		.global	RTC_Cmd
 160              		.thumb
 161              		.thumb_func
 163              	RTC_Cmd:
 164              	.LFB58:
  95:../src/lib/lpc177x_8x/Drivers/source/lpc177x_8x_rtc.c **** 
  96:../src/lib/lpc177x_8x/Drivers/source/lpc177x_8x_rtc.c **** /*********************************************************************//**
  97:../src/lib/lpc177x_8x/Drivers/source/lpc177x_8x_rtc.c ****  * @brief       Start/Stop RTC peripheral
  98:../src/lib/lpc177x_8x/Drivers/source/lpc177x_8x_rtc.c ****  * @param[in]   RTCx    RTC peripheral selected, should be LPC_RTC
  99:../src/lib/lpc177x_8x/Drivers/source/lpc177x_8x_rtc.c ****  * @param[in]   NewState New State of this function, should be:
 100:../src/lib/lpc177x_8x/Drivers/source/lpc177x_8x_rtc.c ****  *              - ENABLE: The time counters are enabled
 101:../src/lib/lpc177x_8x/Drivers/source/lpc177x_8x_rtc.c ****  *              - DISABLE: The time counters are disabled
 102:../src/lib/lpc177x_8x/Drivers/source/lpc177x_8x_rtc.c ****  * @return      None
 103:../src/lib/lpc177x_8x/Drivers/source/lpc177x_8x_rtc.c ****  **********************************************************************/
 104:../src/lib/lpc177x_8x/Drivers/source/lpc177x_8x_rtc.c **** void RTC_Cmd (LPC_RTC_TypeDef *RTCx, FunctionalState NewState)
 105:../src/lib/lpc177x_8x/Drivers/source/lpc177x_8x_rtc.c **** {
 165              		.loc 1 105 0
 166              		.cfi_startproc
 167              		@ args = 0, pretend = 0, frame = 8
 168              		@ frame_needed = 1, uses_anonymous_args = 0
 169              		@ link register save eliminated.
 170 009c 80B4     		push	{r7}
 171              	.LCFI9:
 172              		.cfi_def_cfa_offset 4
 173              		.cfi_offset 7, -4
 174 009e 83B0     		sub	sp, sp, #12
 175              	.LCFI10:
 176              		.cfi_def_cfa_offset 16
 177 00a0 00AF     		add	r7, sp, #0
 178              	.LCFI11:
 179              		.cfi_def_cfa_register 7
 180 00a2 7860     		str	r0, [r7, #4]
 181 00a4 0B46     		mov	r3, r1
 182 00a6 FB70     		strb	r3, [r7, #3]
 106:../src/lib/lpc177x_8x/Drivers/source/lpc177x_8x_rtc.c ****     if (NewState == ENABLE)
 183              		.loc 1 106 0
 184 00a8 FB78     		ldrb	r3, [r7, #3]	@ zero_extendqisi2
 185 00aa 012B     		cmp	r3, #1
 186 00ac 08D1     		bne	.L5
 107:../src/lib/lpc177x_8x/Drivers/source/lpc177x_8x_rtc.c ****     {
 108:../src/lib/lpc177x_8x/Drivers/source/lpc177x_8x_rtc.c ****         RTCx->CCR |= RTC_CCR_CLKEN;
 187              		.loc 1 108 0
 188 00ae 7B68     		ldr	r3, [r7, #4]
 189 00b0 1B7A     		ldrb	r3, [r3, #8]
 190 00b2 DBB2     		uxtb	r3, r3
 191 00b4 43F00103 		orr	r3, r3, #1
 192 00b8 DAB2     		uxtb	r2, r3
 193 00ba 7B68     		ldr	r3, [r7, #4]
 194 00bc 1A72     		strb	r2, [r3, #8]
 195 00be 07E0     		b	.L4
 196              	.L5:
 109:../src/lib/lpc177x_8x/Drivers/source/lpc177x_8x_rtc.c ****     }
 110:../src/lib/lpc177x_8x/Drivers/source/lpc177x_8x_rtc.c ****     else
 111:../src/lib/lpc177x_8x/Drivers/source/lpc177x_8x_rtc.c ****     {
 112:../src/lib/lpc177x_8x/Drivers/source/lpc177x_8x_rtc.c ****         RTCx->CCR &= (~RTC_CCR_CLKEN) & RTC_CCR_BITMASK;
 197              		.loc 1 112 0
 198 00c0 7B68     		ldr	r3, [r7, #4]
 199 00c2 1B7A     		ldrb	r3, [r3, #8]
 200 00c4 DBB2     		uxtb	r3, r3
 201 00c6 03F01203 		and	r3, r3, #18
 202 00ca DAB2     		uxtb	r2, r3
 203 00cc 7B68     		ldr	r3, [r7, #4]
 204 00ce 1A72     		strb	r2, [r3, #8]
 205              	.L4:
 113:../src/lib/lpc177x_8x/Drivers/source/lpc177x_8x_rtc.c ****     }
 114:../src/lib/lpc177x_8x/Drivers/source/lpc177x_8x_rtc.c **** }
 206              		.loc 1 114 0
 207 00d0 07F10C07 		add	r7, r7, #12
 208 00d4 BD46     		mov	sp, r7
 209 00d6 80BC     		pop	{r7}
 210 00d8 7047     		bx	lr
 211              		.cfi_endproc
 212              	.LFE58:
 214 00da 00BF     		.align	2
 215              		.global	RTC_CntIncrIntConfig
 216              		.thumb
 217              		.thumb_func
 219              	RTC_CntIncrIntConfig:
 220              	.LFB59:
 115:../src/lib/lpc177x_8x/Drivers/source/lpc177x_8x_rtc.c **** 
 116:../src/lib/lpc177x_8x/Drivers/source/lpc177x_8x_rtc.c **** 
 117:../src/lib/lpc177x_8x/Drivers/source/lpc177x_8x_rtc.c **** /*********************************************************************//**
 118:../src/lib/lpc177x_8x/Drivers/source/lpc177x_8x_rtc.c ****  * @brief       Enable/Disable Counter increment interrupt for each time type
 119:../src/lib/lpc177x_8x/Drivers/source/lpc177x_8x_rtc.c ****  *              in RTC peripheral
 120:../src/lib/lpc177x_8x/Drivers/source/lpc177x_8x_rtc.c ****  * @param[in]   RTCx    RTC peripheral selected, should be LPC_RTC
 121:../src/lib/lpc177x_8x/Drivers/source/lpc177x_8x_rtc.c ****  * @param[in]   CntIncrIntType: Counter Increment Interrupt type,
 122:../src/lib/lpc177x_8x/Drivers/source/lpc177x_8x_rtc.c ****  *              an increment of this type value below will generates
 123:../src/lib/lpc177x_8x/Drivers/source/lpc177x_8x_rtc.c ****  *              an interrupt, should be:
 124:../src/lib/lpc177x_8x/Drivers/source/lpc177x_8x_rtc.c ****  *              - RTC_TIMETYPE_SECOND
 125:../src/lib/lpc177x_8x/Drivers/source/lpc177x_8x_rtc.c ****  *              - RTC_TIMETYPE_MINUTE
 126:../src/lib/lpc177x_8x/Drivers/source/lpc177x_8x_rtc.c ****  *              - RTC_TIMETYPE_HOUR
 127:../src/lib/lpc177x_8x/Drivers/source/lpc177x_8x_rtc.c ****  *              - RTC_TIMETYPE_DAYOFWEEK
 128:../src/lib/lpc177x_8x/Drivers/source/lpc177x_8x_rtc.c ****  *              - RTC_TIMETYPE_DAYOFMONTH
 129:../src/lib/lpc177x_8x/Drivers/source/lpc177x_8x_rtc.c ****  *              - RTC_TIMETYPE_DAYOFYEAR
 130:../src/lib/lpc177x_8x/Drivers/source/lpc177x_8x_rtc.c ****  *              - RTC_TIMETYPE_MONTH
 131:../src/lib/lpc177x_8x/Drivers/source/lpc177x_8x_rtc.c ****  *              - RTC_TIMETYPE_YEAR
 132:../src/lib/lpc177x_8x/Drivers/source/lpc177x_8x_rtc.c ****  * @param[in]   NewState New State of this function, should be:
 133:../src/lib/lpc177x_8x/Drivers/source/lpc177x_8x_rtc.c ****  *              - ENABLE: Counter Increment interrupt for this
 134:../src/lib/lpc177x_8x/Drivers/source/lpc177x_8x_rtc.c ****  *                  time type are enabled
 135:../src/lib/lpc177x_8x/Drivers/source/lpc177x_8x_rtc.c ****  *              - DISABLE: Counter Increment interrupt for this
 136:../src/lib/lpc177x_8x/Drivers/source/lpc177x_8x_rtc.c ****  *                  time type are disabled
 137:../src/lib/lpc177x_8x/Drivers/source/lpc177x_8x_rtc.c ****  * @return      None
 138:../src/lib/lpc177x_8x/Drivers/source/lpc177x_8x_rtc.c ****  **********************************************************************/
 139:../src/lib/lpc177x_8x/Drivers/source/lpc177x_8x_rtc.c **** void RTC_CntIncrIntConfig (LPC_RTC_TypeDef *RTCx, uint32_t CntIncrIntType, \
 140:../src/lib/lpc177x_8x/Drivers/source/lpc177x_8x_rtc.c ****                                 FunctionalState NewState)
 141:../src/lib/lpc177x_8x/Drivers/source/lpc177x_8x_rtc.c **** {
 221              		.loc 1 141 0
 222              		.cfi_startproc
 223              		@ args = 0, pretend = 0, frame = 16
 224              		@ frame_needed = 1, uses_anonymous_args = 0
 225              		@ link register save eliminated.
 226 00dc 80B4     		push	{r7}
 227              	.LCFI12:
 228              		.cfi_def_cfa_offset 4
 229              		.cfi_offset 7, -4
 230 00de 85B0     		sub	sp, sp, #20
 231              	.LCFI13:
 232              		.cfi_def_cfa_offset 24
 233 00e0 00AF     		add	r7, sp, #0
 234              	.LCFI14:
 235              		.cfi_def_cfa_register 7
 236 00e2 F860     		str	r0, [r7, #12]
 237 00e4 B960     		str	r1, [r7, #8]
 238 00e6 1346     		mov	r3, r2
 239 00e8 FB71     		strb	r3, [r7, #7]
 142:../src/lib/lpc177x_8x/Drivers/source/lpc177x_8x_rtc.c ****     if (NewState ==  ENABLE)
 240              		.loc 1 142 0
 241 00ea FB79     		ldrb	r3, [r7, #7]	@ zero_extendqisi2
 242 00ec 012B     		cmp	r3, #1
 243 00ee 60D1     		bne	.L8
 143:../src/lib/lpc177x_8x/Drivers/source/lpc177x_8x_rtc.c ****     {
 144:../src/lib/lpc177x_8x/Drivers/source/lpc177x_8x_rtc.c ****         switch (CntIncrIntType)
 244              		.loc 1 144 0
 245 00f0 BB68     		ldr	r3, [r7, #8]
 246 00f2 072B     		cmp	r3, #7
 247 00f4 00F2BC80 		bhi	.L7
 248 00f8 01A2     		adr	r2, .L18
 249 00fa 52F823F0 		ldr	pc, [r2, r3, lsl #2]
 250 00fe 00BF     		.align	2
 251              	.L18:
 252 0100 21010000 		.word	.L10+1
 253 0104 33010000 		.word	.L11+1
 254 0108 45010000 		.word	.L12+1
 255 010c 57010000 		.word	.L13+1
 256 0110 69010000 		.word	.L14+1
 257 0114 7B010000 		.word	.L15+1
 258 0118 8D010000 		.word	.L16+1
 259 011c 9F010000 		.word	.L17+1
 260              	.L10:
 145:../src/lib/lpc177x_8x/Drivers/source/lpc177x_8x_rtc.c ****         {
 146:../src/lib/lpc177x_8x/Drivers/source/lpc177x_8x_rtc.c ****         case RTC_TIMETYPE_SECOND:
 147:../src/lib/lpc177x_8x/Drivers/source/lpc177x_8x_rtc.c ****             RTCx->CIIR |= RTC_CIIR_IMSEC;
 261              		.loc 1 147 0
 262 0120 FB68     		ldr	r3, [r7, #12]
 263 0122 1B7B     		ldrb	r3, [r3, #12]
 264 0124 DBB2     		uxtb	r3, r3
 265 0126 43F00103 		orr	r3, r3, #1
 266 012a DAB2     		uxtb	r2, r3
 267 012c FB68     		ldr	r3, [r7, #12]
 268 012e 1A73     		strb	r2, [r3, #12]
 148:../src/lib/lpc177x_8x/Drivers/source/lpc177x_8x_rtc.c ****             break;
 269              		.loc 1 148 0
 270 0130 9EE0     		b	.L7
 271              	.L11:
 149:../src/lib/lpc177x_8x/Drivers/source/lpc177x_8x_rtc.c ****         case RTC_TIMETYPE_MINUTE:
 150:../src/lib/lpc177x_8x/Drivers/source/lpc177x_8x_rtc.c ****             RTCx->CIIR |= RTC_CIIR_IMMIN;
 272              		.loc 1 150 0
 273 0132 FB68     		ldr	r3, [r7, #12]
 274 0134 1B7B     		ldrb	r3, [r3, #12]
 275 0136 DBB2     		uxtb	r3, r3
 276 0138 43F00203 		orr	r3, r3, #2
 277 013c DAB2     		uxtb	r2, r3
 278 013e FB68     		ldr	r3, [r7, #12]
 279 0140 1A73     		strb	r2, [r3, #12]
 151:../src/lib/lpc177x_8x/Drivers/source/lpc177x_8x_rtc.c ****             break;
 280              		.loc 1 151 0
 281 0142 95E0     		b	.L7
 282              	.L12:
 152:../src/lib/lpc177x_8x/Drivers/source/lpc177x_8x_rtc.c ****         case RTC_TIMETYPE_HOUR:
 153:../src/lib/lpc177x_8x/Drivers/source/lpc177x_8x_rtc.c ****             RTCx->CIIR |= RTC_CIIR_IMHOUR;
 283              		.loc 1 153 0
 284 0144 FB68     		ldr	r3, [r7, #12]
 285 0146 1B7B     		ldrb	r3, [r3, #12]
 286 0148 DBB2     		uxtb	r3, r3
 287 014a 43F00403 		orr	r3, r3, #4
 288 014e DAB2     		uxtb	r2, r3
 289 0150 FB68     		ldr	r3, [r7, #12]
 290 0152 1A73     		strb	r2, [r3, #12]
 154:../src/lib/lpc177x_8x/Drivers/source/lpc177x_8x_rtc.c ****             break;
 291              		.loc 1 154 0
 292 0154 8CE0     		b	.L7
 293              	.L13:
 155:../src/lib/lpc177x_8x/Drivers/source/lpc177x_8x_rtc.c ****         case RTC_TIMETYPE_DAYOFWEEK:
 156:../src/lib/lpc177x_8x/Drivers/source/lpc177x_8x_rtc.c ****             RTCx->CIIR |= RTC_CIIR_IMDOW;
 294              		.loc 1 156 0
 295 0156 FB68     		ldr	r3, [r7, #12]
 296 0158 1B7B     		ldrb	r3, [r3, #12]
 297 015a DBB2     		uxtb	r3, r3
 298 015c 43F01003 		orr	r3, r3, #16
 299 0160 DAB2     		uxtb	r2, r3
 300 0162 FB68     		ldr	r3, [r7, #12]
 301 0164 1A73     		strb	r2, [r3, #12]
 157:../src/lib/lpc177x_8x/Drivers/source/lpc177x_8x_rtc.c ****             break;
 302              		.loc 1 157 0
 303 0166 83E0     		b	.L7
 304              	.L14:
 158:../src/lib/lpc177x_8x/Drivers/source/lpc177x_8x_rtc.c ****         case RTC_TIMETYPE_DAYOFMONTH:
 159:../src/lib/lpc177x_8x/Drivers/source/lpc177x_8x_rtc.c ****             RTCx->CIIR |= RTC_CIIR_IMDOM;
 305              		.loc 1 159 0
 306 0168 FB68     		ldr	r3, [r7, #12]
 307 016a 1B7B     		ldrb	r3, [r3, #12]
 308 016c DBB2     		uxtb	r3, r3
 309 016e 43F00803 		orr	r3, r3, #8
 310 0172 DAB2     		uxtb	r2, r3
 311 0174 FB68     		ldr	r3, [r7, #12]
 312 0176 1A73     		strb	r2, [r3, #12]
 160:../src/lib/lpc177x_8x/Drivers/source/lpc177x_8x_rtc.c ****             break;
 313              		.loc 1 160 0
 314 0178 7AE0     		b	.L7
 315              	.L15:
 161:../src/lib/lpc177x_8x/Drivers/source/lpc177x_8x_rtc.c ****         case RTC_TIMETYPE_DAYOFYEAR:
 162:../src/lib/lpc177x_8x/Drivers/source/lpc177x_8x_rtc.c ****             RTCx->CIIR |= RTC_CIIR_IMDOY;
 316              		.loc 1 162 0
 317 017a FB68     		ldr	r3, [r7, #12]
 318 017c 1B7B     		ldrb	r3, [r3, #12]
 319 017e DBB2     		uxtb	r3, r3
 320 0180 43F02003 		orr	r3, r3, #32
 321 0184 DAB2     		uxtb	r2, r3
 322 0186 FB68     		ldr	r3, [r7, #12]
 323 0188 1A73     		strb	r2, [r3, #12]
 163:../src/lib/lpc177x_8x/Drivers/source/lpc177x_8x_rtc.c ****             break;
 324              		.loc 1 163 0
 325 018a 71E0     		b	.L7
 326              	.L16:
 164:../src/lib/lpc177x_8x/Drivers/source/lpc177x_8x_rtc.c ****         case RTC_TIMETYPE_MONTH:
 165:../src/lib/lpc177x_8x/Drivers/source/lpc177x_8x_rtc.c ****             RTCx->CIIR |= RTC_CIIR_IMMON;
 327              		.loc 1 165 0
 328 018c FB68     		ldr	r3, [r7, #12]
 329 018e 1B7B     		ldrb	r3, [r3, #12]
 330 0190 DBB2     		uxtb	r3, r3
 331 0192 43F04003 		orr	r3, r3, #64
 332 0196 DAB2     		uxtb	r2, r3
 333 0198 FB68     		ldr	r3, [r7, #12]
 334 019a 1A73     		strb	r2, [r3, #12]
 166:../src/lib/lpc177x_8x/Drivers/source/lpc177x_8x_rtc.c ****             break;
 335              		.loc 1 166 0
 336 019c 68E0     		b	.L7
 337              	.L17:
 167:../src/lib/lpc177x_8x/Drivers/source/lpc177x_8x_rtc.c ****         case RTC_TIMETYPE_YEAR:
 168:../src/lib/lpc177x_8x/Drivers/source/lpc177x_8x_rtc.c ****             RTCx->CIIR |= RTC_CIIR_IMYEAR;
 338              		.loc 1 168 0
 339 019e FB68     		ldr	r3, [r7, #12]
 340 01a0 1B7B     		ldrb	r3, [r3, #12]
 341 01a2 DBB2     		uxtb	r3, r3
 342 01a4 63F07F03 		orn	r3, r3, #127
 343 01a8 DAB2     		uxtb	r2, r3
 344 01aa FB68     		ldr	r3, [r7, #12]
 345 01ac 1A73     		strb	r2, [r3, #12]
 169:../src/lib/lpc177x_8x/Drivers/source/lpc177x_8x_rtc.c ****             break;
 346              		.loc 1 169 0
 347 01ae 00BF     		nop
 348 01b0 5EE0     		b	.L7
 349              	.L8:
 170:../src/lib/lpc177x_8x/Drivers/source/lpc177x_8x_rtc.c ****         }
 171:../src/lib/lpc177x_8x/Drivers/source/lpc177x_8x_rtc.c ****     }
 172:../src/lib/lpc177x_8x/Drivers/source/lpc177x_8x_rtc.c ****     else
 173:../src/lib/lpc177x_8x/Drivers/source/lpc177x_8x_rtc.c ****     {
 174:../src/lib/lpc177x_8x/Drivers/source/lpc177x_8x_rtc.c ****         switch (CntIncrIntType)
 350              		.loc 1 174 0
 351 01b2 BB68     		ldr	r3, [r7, #8]
 352 01b4 072B     		cmp	r3, #7
 353 01b6 5BD8     		bhi	.L7
 354 01b8 01A2     		adr	r2, .L28
 355 01ba 52F823F0 		ldr	pc, [r2, r3, lsl #2]
 356 01be 00BF     		.align	2
 357              	.L28:
 358 01c0 E1010000 		.word	.L20+1
 359 01c4 F3010000 		.word	.L21+1
 360 01c8 05020000 		.word	.L22+1
 361 01cc 17020000 		.word	.L23+1
 362 01d0 29020000 		.word	.L24+1
 363 01d4 3B020000 		.word	.L25+1
 364 01d8 4D020000 		.word	.L26+1
 365 01dc 5F020000 		.word	.L27+1
 366              	.L20:
 175:../src/lib/lpc177x_8x/Drivers/source/lpc177x_8x_rtc.c ****         {
 176:../src/lib/lpc177x_8x/Drivers/source/lpc177x_8x_rtc.c ****         case RTC_TIMETYPE_SECOND:
 177:../src/lib/lpc177x_8x/Drivers/source/lpc177x_8x_rtc.c ****             RTCx->CIIR &= (~RTC_CIIR_IMSEC) & RTC_CIIR_BITMASK;
 367              		.loc 1 177 0
 368 01e0 FB68     		ldr	r3, [r7, #12]
 369 01e2 1B7B     		ldrb	r3, [r3, #12]
 370 01e4 DBB2     		uxtb	r3, r3
 371 01e6 23F00103 		bic	r3, r3, #1
 372 01ea DAB2     		uxtb	r2, r3
 373 01ec FB68     		ldr	r3, [r7, #12]
 374 01ee 1A73     		strb	r2, [r3, #12]
 178:../src/lib/lpc177x_8x/Drivers/source/lpc177x_8x_rtc.c ****             break;
 375              		.loc 1 178 0
 376 01f0 3EE0     		b	.L7
 377              	.L21:
 179:../src/lib/lpc177x_8x/Drivers/source/lpc177x_8x_rtc.c ****         case RTC_TIMETYPE_MINUTE:
 180:../src/lib/lpc177x_8x/Drivers/source/lpc177x_8x_rtc.c ****             RTCx->CIIR &= (~RTC_CIIR_IMMIN) & RTC_CIIR_BITMASK;
 378              		.loc 1 180 0
 379 01f2 FB68     		ldr	r3, [r7, #12]
 380 01f4 1B7B     		ldrb	r3, [r3, #12]
 381 01f6 DBB2     		uxtb	r3, r3
 382 01f8 23F00203 		bic	r3, r3, #2
 383 01fc DAB2     		uxtb	r2, r3
 384 01fe FB68     		ldr	r3, [r7, #12]
 385 0200 1A73     		strb	r2, [r3, #12]
 181:../src/lib/lpc177x_8x/Drivers/source/lpc177x_8x_rtc.c ****             break;
 386              		.loc 1 181 0
 387 0202 35E0     		b	.L7
 388              	.L22:
 182:../src/lib/lpc177x_8x/Drivers/source/lpc177x_8x_rtc.c ****         case RTC_TIMETYPE_HOUR:
 183:../src/lib/lpc177x_8x/Drivers/source/lpc177x_8x_rtc.c ****             RTCx->CIIR &= (~RTC_CIIR_IMHOUR) & RTC_CIIR_BITMASK;
 389              		.loc 1 183 0
 390 0204 FB68     		ldr	r3, [r7, #12]
 391 0206 1B7B     		ldrb	r3, [r3, #12]
 392 0208 DBB2     		uxtb	r3, r3
 393 020a 23F00403 		bic	r3, r3, #4
 394 020e DAB2     		uxtb	r2, r3
 395 0210 FB68     		ldr	r3, [r7, #12]
 396 0212 1A73     		strb	r2, [r3, #12]
 184:../src/lib/lpc177x_8x/Drivers/source/lpc177x_8x_rtc.c ****             break;
 397              		.loc 1 184 0
 398 0214 2CE0     		b	.L7
 399              	.L23:
 185:../src/lib/lpc177x_8x/Drivers/source/lpc177x_8x_rtc.c ****         case RTC_TIMETYPE_DAYOFWEEK:
 186:../src/lib/lpc177x_8x/Drivers/source/lpc177x_8x_rtc.c ****             RTCx->CIIR &= (~RTC_CIIR_IMDOW) & RTC_CIIR_BITMASK;
 400              		.loc 1 186 0
 401 0216 FB68     		ldr	r3, [r7, #12]
 402 0218 1B7B     		ldrb	r3, [r3, #12]
 403 021a DBB2     		uxtb	r3, r3
 404 021c 23F01003 		bic	r3, r3, #16
 405 0220 DAB2     		uxtb	r2, r3
 406 0222 FB68     		ldr	r3, [r7, #12]
 407 0224 1A73     		strb	r2, [r3, #12]
 187:../src/lib/lpc177x_8x/Drivers/source/lpc177x_8x_rtc.c ****             break;
 408              		.loc 1 187 0
 409 0226 23E0     		b	.L7
 410              	.L24:
 188:../src/lib/lpc177x_8x/Drivers/source/lpc177x_8x_rtc.c ****         case RTC_TIMETYPE_DAYOFMONTH:
 189:../src/lib/lpc177x_8x/Drivers/source/lpc177x_8x_rtc.c ****             RTCx->CIIR &= (~RTC_CIIR_IMDOM) & RTC_CIIR_BITMASK;
 411              		.loc 1 189 0
 412 0228 FB68     		ldr	r3, [r7, #12]
 413 022a 1B7B     		ldrb	r3, [r3, #12]
 414 022c DBB2     		uxtb	r3, r3
 415 022e 23F00803 		bic	r3, r3, #8
 416 0232 DAB2     		uxtb	r2, r3
 417 0234 FB68     		ldr	r3, [r7, #12]
 418 0236 1A73     		strb	r2, [r3, #12]
 190:../src/lib/lpc177x_8x/Drivers/source/lpc177x_8x_rtc.c ****             break;
 419              		.loc 1 190 0
 420 0238 1AE0     		b	.L7
 421              	.L25:
 191:../src/lib/lpc177x_8x/Drivers/source/lpc177x_8x_rtc.c ****         case RTC_TIMETYPE_DAYOFYEAR:
 192:../src/lib/lpc177x_8x/Drivers/source/lpc177x_8x_rtc.c ****             RTCx->CIIR &= (~RTC_CIIR_IMDOY) & RTC_CIIR_BITMASK;
 422              		.loc 1 192 0
 423 023a FB68     		ldr	r3, [r7, #12]
 424 023c 1B7B     		ldrb	r3, [r3, #12]
 425 023e DBB2     		uxtb	r3, r3
 426 0240 23F02003 		bic	r3, r3, #32
 427 0244 DAB2     		uxtb	r2, r3
 428 0246 FB68     		ldr	r3, [r7, #12]
 429 0248 1A73     		strb	r2, [r3, #12]
 193:../src/lib/lpc177x_8x/Drivers/source/lpc177x_8x_rtc.c ****             break;
 430              		.loc 1 193 0
 431 024a 11E0     		b	.L7
 432              	.L26:
 194:../src/lib/lpc177x_8x/Drivers/source/lpc177x_8x_rtc.c ****         case RTC_TIMETYPE_MONTH:
 195:../src/lib/lpc177x_8x/Drivers/source/lpc177x_8x_rtc.c ****             RTCx->CIIR &= (~RTC_CIIR_IMMON) & RTC_CIIR_BITMASK;
 433              		.loc 1 195 0
 434 024c FB68     		ldr	r3, [r7, #12]
 435 024e 1B7B     		ldrb	r3, [r3, #12]
 436 0250 DBB2     		uxtb	r3, r3
 437 0252 23F04003 		bic	r3, r3, #64
 438 0256 DAB2     		uxtb	r2, r3
 439 0258 FB68     		ldr	r3, [r7, #12]
 440 025a 1A73     		strb	r2, [r3, #12]
 196:../src/lib/lpc177x_8x/Drivers/source/lpc177x_8x_rtc.c ****             break;
 441              		.loc 1 196 0
 442 025c 08E0     		b	.L7
 443              	.L27:
 197:../src/lib/lpc177x_8x/Drivers/source/lpc177x_8x_rtc.c ****         case RTC_TIMETYPE_YEAR:
 198:../src/lib/lpc177x_8x/Drivers/source/lpc177x_8x_rtc.c ****             RTCx->CIIR &= (~RTC_CIIR_IMYEAR) & RTC_CIIR_BITMASK;
 444              		.loc 1 198 0
 445 025e FB68     		ldr	r3, [r7, #12]
 446 0260 1B7B     		ldrb	r3, [r3, #12]
 447 0262 DBB2     		uxtb	r3, r3
 448 0264 03F07F03 		and	r3, r3, #127
 449 0268 DAB2     		uxtb	r2, r3
 450 026a FB68     		ldr	r3, [r7, #12]
 451 026c 1A73     		strb	r2, [r3, #12]
 199:../src/lib/lpc177x_8x/Drivers/source/lpc177x_8x_rtc.c ****             break;
 452              		.loc 1 199 0
 453 026e 00BF     		nop
 454              	.L7:
 200:../src/lib/lpc177x_8x/Drivers/source/lpc177x_8x_rtc.c ****         }
 201:../src/lib/lpc177x_8x/Drivers/source/lpc177x_8x_rtc.c ****     }
 202:../src/lib/lpc177x_8x/Drivers/source/lpc177x_8x_rtc.c **** }
 455              		.loc 1 202 0
 456 0270 07F11407 		add	r7, r7, #20
 457 0274 BD46     		mov	sp, r7
 458 0276 80BC     		pop	{r7}
 459 0278 7047     		bx	lr
 460              		.cfi_endproc
 461              	.LFE59:
 463 027a 00BF     		.align	2
 464              		.global	RTC_AlarmIntConfig
 465              		.thumb
 466              		.thumb_func
 468              	RTC_AlarmIntConfig:
 469              	.LFB60:
 203:../src/lib/lpc177x_8x/Drivers/source/lpc177x_8x_rtc.c **** 
 204:../src/lib/lpc177x_8x/Drivers/source/lpc177x_8x_rtc.c **** 
 205:../src/lib/lpc177x_8x/Drivers/source/lpc177x_8x_rtc.c **** /*********************************************************************//**
 206:../src/lib/lpc177x_8x/Drivers/source/lpc177x_8x_rtc.c ****  * @brief       Enable/Disable Alarm interrupt for each time type
 207:../src/lib/lpc177x_8x/Drivers/source/lpc177x_8x_rtc.c ****  *              in RTC peripheral
 208:../src/lib/lpc177x_8x/Drivers/source/lpc177x_8x_rtc.c ****  * @param[in]   RTCx    RTC peripheral selected, should be LPC_RTC
 209:../src/lib/lpc177x_8x/Drivers/source/lpc177x_8x_rtc.c ****  * @param[in]   AlarmTimeType: Alarm Time Interrupt type,
 210:../src/lib/lpc177x_8x/Drivers/source/lpc177x_8x_rtc.c ****  *              an matching of this type value below with current time
 211:../src/lib/lpc177x_8x/Drivers/source/lpc177x_8x_rtc.c ****  *              in RTC will generates an interrupt, should be:
 212:../src/lib/lpc177x_8x/Drivers/source/lpc177x_8x_rtc.c ****  *              - RTC_TIMETYPE_SECOND
 213:../src/lib/lpc177x_8x/Drivers/source/lpc177x_8x_rtc.c ****  *              - RTC_TIMETYPE_MINUTE
 214:../src/lib/lpc177x_8x/Drivers/source/lpc177x_8x_rtc.c ****  *              - RTC_TIMETYPE_HOUR
 215:../src/lib/lpc177x_8x/Drivers/source/lpc177x_8x_rtc.c ****  *              - RTC_TIMETYPE_DAYOFWEEK
 216:../src/lib/lpc177x_8x/Drivers/source/lpc177x_8x_rtc.c ****  *              - RTC_TIMETYPE_DAYOFMONTH
 217:../src/lib/lpc177x_8x/Drivers/source/lpc177x_8x_rtc.c ****  *              - RTC_TIMETYPE_DAYOFYEAR
 218:../src/lib/lpc177x_8x/Drivers/source/lpc177x_8x_rtc.c ****  *              - RTC_TIMETYPE_MONTH
 219:../src/lib/lpc177x_8x/Drivers/source/lpc177x_8x_rtc.c ****  *              - RTC_TIMETYPE_YEAR
 220:../src/lib/lpc177x_8x/Drivers/source/lpc177x_8x_rtc.c ****  * @param[in]   NewState New State of this function, should be:
 221:../src/lib/lpc177x_8x/Drivers/source/lpc177x_8x_rtc.c ****  *              - ENABLE: Alarm interrupt for this
 222:../src/lib/lpc177x_8x/Drivers/source/lpc177x_8x_rtc.c ****  *                  time type are enabled
 223:../src/lib/lpc177x_8x/Drivers/source/lpc177x_8x_rtc.c ****  *              - DISABLE: Alarm interrupt for this
 224:../src/lib/lpc177x_8x/Drivers/source/lpc177x_8x_rtc.c ****  *                  time type are disabled
 225:../src/lib/lpc177x_8x/Drivers/source/lpc177x_8x_rtc.c ****  * @return      None
 226:../src/lib/lpc177x_8x/Drivers/source/lpc177x_8x_rtc.c ****  **********************************************************************/
 227:../src/lib/lpc177x_8x/Drivers/source/lpc177x_8x_rtc.c **** void RTC_AlarmIntConfig (LPC_RTC_TypeDef *RTCx, uint32_t AlarmTimeType, \
 228:../src/lib/lpc177x_8x/Drivers/source/lpc177x_8x_rtc.c ****                                 FunctionalState NewState)
 229:../src/lib/lpc177x_8x/Drivers/source/lpc177x_8x_rtc.c **** {
 470              		.loc 1 229 0
 471              		.cfi_startproc
 472              		@ args = 0, pretend = 0, frame = 16
 473              		@ frame_needed = 1, uses_anonymous_args = 0
 474              		@ link register save eliminated.
 475 027c 80B4     		push	{r7}
 476              	.LCFI15:
 477              		.cfi_def_cfa_offset 4
 478              		.cfi_offset 7, -4
 479 027e 85B0     		sub	sp, sp, #20
 480              	.LCFI16:
 481              		.cfi_def_cfa_offset 24
 482 0280 00AF     		add	r7, sp, #0
 483              	.LCFI17:
 484              		.cfi_def_cfa_register 7
 485 0282 F860     		str	r0, [r7, #12]
 486 0284 B960     		str	r1, [r7, #8]
 487 0286 1346     		mov	r3, r2
 488 0288 FB71     		strb	r3, [r7, #7]
 230:../src/lib/lpc177x_8x/Drivers/source/lpc177x_8x_rtc.c ****     if (NewState == ENABLE)
 489              		.loc 1 230 0
 490 028a FB79     		ldrb	r3, [r7, #7]	@ zero_extendqisi2
 491 028c 012B     		cmp	r3, #1
 492 028e 60D1     		bne	.L30
 231:../src/lib/lpc177x_8x/Drivers/source/lpc177x_8x_rtc.c ****     {
 232:../src/lib/lpc177x_8x/Drivers/source/lpc177x_8x_rtc.c ****         switch (AlarmTimeType)
 493              		.loc 1 232 0
 494 0290 BB68     		ldr	r3, [r7, #8]
 495 0292 072B     		cmp	r3, #7
 496 0294 00F2BC80 		bhi	.L29
 497 0298 01A2     		adr	r2, .L40
 498 029a 52F823F0 		ldr	pc, [r2, r3, lsl #2]
 499 029e 00BF     		.align	2
 500              	.L40:
 501 02a0 C1020000 		.word	.L32+1
 502 02a4 D3020000 		.word	.L33+1
 503 02a8 E5020000 		.word	.L34+1
 504 02ac F7020000 		.word	.L35+1
 505 02b0 09030000 		.word	.L36+1
 506 02b4 1B030000 		.word	.L37+1
 507 02b8 2D030000 		.word	.L38+1
 508 02bc 3F030000 		.word	.L39+1
 509              	.L32:
 233:../src/lib/lpc177x_8x/Drivers/source/lpc177x_8x_rtc.c ****         {
 234:../src/lib/lpc177x_8x/Drivers/source/lpc177x_8x_rtc.c ****         case RTC_TIMETYPE_SECOND:
 235:../src/lib/lpc177x_8x/Drivers/source/lpc177x_8x_rtc.c ****             RTCx->AMR &= (~RTC_AMR_AMRSEC) & RTC_AMR_BITMASK;
 510              		.loc 1 235 0
 511 02c0 FB68     		ldr	r3, [r7, #12]
 512 02c2 1B7C     		ldrb	r3, [r3, #16]
 513 02c4 DBB2     		uxtb	r3, r3
 514 02c6 23F00103 		bic	r3, r3, #1
 515 02ca DAB2     		uxtb	r2, r3
 516 02cc FB68     		ldr	r3, [r7, #12]
 517 02ce 1A74     		strb	r2, [r3, #16]
 236:../src/lib/lpc177x_8x/Drivers/source/lpc177x_8x_rtc.c ****             break;
 518              		.loc 1 236 0
 519 02d0 9EE0     		b	.L29
 520              	.L33:
 237:../src/lib/lpc177x_8x/Drivers/source/lpc177x_8x_rtc.c ****         case RTC_TIMETYPE_MINUTE:
 238:../src/lib/lpc177x_8x/Drivers/source/lpc177x_8x_rtc.c ****             RTCx->AMR &= (~RTC_AMR_AMRMIN) & RTC_AMR_BITMASK;
 521              		.loc 1 238 0
 522 02d2 FB68     		ldr	r3, [r7, #12]
 523 02d4 1B7C     		ldrb	r3, [r3, #16]
 524 02d6 DBB2     		uxtb	r3, r3
 525 02d8 23F00203 		bic	r3, r3, #2
 526 02dc DAB2     		uxtb	r2, r3
 527 02de FB68     		ldr	r3, [r7, #12]
 528 02e0 1A74     		strb	r2, [r3, #16]
 239:../src/lib/lpc177x_8x/Drivers/source/lpc177x_8x_rtc.c ****             break;
 529              		.loc 1 239 0
 530 02e2 95E0     		b	.L29
 531              	.L34:
 240:../src/lib/lpc177x_8x/Drivers/source/lpc177x_8x_rtc.c ****         case RTC_TIMETYPE_HOUR:
 241:../src/lib/lpc177x_8x/Drivers/source/lpc177x_8x_rtc.c ****             RTCx->AMR &= (~RTC_AMR_AMRHOUR) & RTC_AMR_BITMASK;
 532              		.loc 1 241 0
 533 02e4 FB68     		ldr	r3, [r7, #12]
 534 02e6 1B7C     		ldrb	r3, [r3, #16]
 535 02e8 DBB2     		uxtb	r3, r3
 536 02ea 23F00403 		bic	r3, r3, #4
 537 02ee DAB2     		uxtb	r2, r3
 538 02f0 FB68     		ldr	r3, [r7, #12]
 539 02f2 1A74     		strb	r2, [r3, #16]
 242:../src/lib/lpc177x_8x/Drivers/source/lpc177x_8x_rtc.c ****             break;
 540              		.loc 1 242 0
 541 02f4 8CE0     		b	.L29
 542              	.L35:
 243:../src/lib/lpc177x_8x/Drivers/source/lpc177x_8x_rtc.c ****         case RTC_TIMETYPE_DAYOFWEEK:
 244:../src/lib/lpc177x_8x/Drivers/source/lpc177x_8x_rtc.c ****             RTCx->AMR &= (~RTC_AMR_AMRDOW) & RTC_AMR_BITMASK;
 543              		.loc 1 244 0
 544 02f6 FB68     		ldr	r3, [r7, #12]
 545 02f8 1B7C     		ldrb	r3, [r3, #16]
 546 02fa DBB2     		uxtb	r3, r3
 547 02fc 23F01003 		bic	r3, r3, #16
 548 0300 DAB2     		uxtb	r2, r3
 549 0302 FB68     		ldr	r3, [r7, #12]
 550 0304 1A74     		strb	r2, [r3, #16]
 245:../src/lib/lpc177x_8x/Drivers/source/lpc177x_8x_rtc.c ****             break;
 551              		.loc 1 245 0
 552 0306 83E0     		b	.L29
 553              	.L36:
 246:../src/lib/lpc177x_8x/Drivers/source/lpc177x_8x_rtc.c ****         case RTC_TIMETYPE_DAYOFMONTH:
 247:../src/lib/lpc177x_8x/Drivers/source/lpc177x_8x_rtc.c ****             RTCx->AMR &= (~RTC_AMR_AMRDOM) & RTC_AMR_BITMASK;
 554              		.loc 1 247 0
 555 0308 FB68     		ldr	r3, [r7, #12]
 556 030a 1B7C     		ldrb	r3, [r3, #16]
 557 030c DBB2     		uxtb	r3, r3
 558 030e 23F00803 		bic	r3, r3, #8
 559 0312 DAB2     		uxtb	r2, r3
 560 0314 FB68     		ldr	r3, [r7, #12]
 561 0316 1A74     		strb	r2, [r3, #16]
 248:../src/lib/lpc177x_8x/Drivers/source/lpc177x_8x_rtc.c ****             break;
 562              		.loc 1 248 0
 563 0318 7AE0     		b	.L29
 564              	.L37:
 249:../src/lib/lpc177x_8x/Drivers/source/lpc177x_8x_rtc.c ****         case RTC_TIMETYPE_DAYOFYEAR:
 250:../src/lib/lpc177x_8x/Drivers/source/lpc177x_8x_rtc.c ****             RTCx->AMR &= (~RTC_AMR_AMRDOY) & RTC_AMR_BITMASK;
 565              		.loc 1 250 0
 566 031a FB68     		ldr	r3, [r7, #12]
 567 031c 1B7C     		ldrb	r3, [r3, #16]
 568 031e DBB2     		uxtb	r3, r3
 569 0320 23F02003 		bic	r3, r3, #32
 570 0324 DAB2     		uxtb	r2, r3
 571 0326 FB68     		ldr	r3, [r7, #12]
 572 0328 1A74     		strb	r2, [r3, #16]
 251:../src/lib/lpc177x_8x/Drivers/source/lpc177x_8x_rtc.c ****             break;
 573              		.loc 1 251 0
 574 032a 71E0     		b	.L29
 575              	.L38:
 252:../src/lib/lpc177x_8x/Drivers/source/lpc177x_8x_rtc.c ****         case RTC_TIMETYPE_MONTH:
 253:../src/lib/lpc177x_8x/Drivers/source/lpc177x_8x_rtc.c ****             RTCx->AMR &= (~RTC_AMR_AMRMON) & RTC_AMR_BITMASK;
 576              		.loc 1 253 0
 577 032c FB68     		ldr	r3, [r7, #12]
 578 032e 1B7C     		ldrb	r3, [r3, #16]
 579 0330 DBB2     		uxtb	r3, r3
 580 0332 23F04003 		bic	r3, r3, #64
 581 0336 DAB2     		uxtb	r2, r3
 582 0338 FB68     		ldr	r3, [r7, #12]
 583 033a 1A74     		strb	r2, [r3, #16]
 254:../src/lib/lpc177x_8x/Drivers/source/lpc177x_8x_rtc.c ****             break;
 584              		.loc 1 254 0
 585 033c 68E0     		b	.L29
 586              	.L39:
 255:../src/lib/lpc177x_8x/Drivers/source/lpc177x_8x_rtc.c ****         case RTC_TIMETYPE_YEAR:
 256:../src/lib/lpc177x_8x/Drivers/source/lpc177x_8x_rtc.c ****             RTCx->AMR &= (~RTC_AMR_AMRYEAR) & RTC_AMR_BITMASK;
 587              		.loc 1 256 0
 588 033e FB68     		ldr	r3, [r7, #12]
 589 0340 1B7C     		ldrb	r3, [r3, #16]
 590 0342 DBB2     		uxtb	r3, r3
 591 0344 03F07F03 		and	r3, r3, #127
 592 0348 DAB2     		uxtb	r2, r3
 593 034a FB68     		ldr	r3, [r7, #12]
 594 034c 1A74     		strb	r2, [r3, #16]
 257:../src/lib/lpc177x_8x/Drivers/source/lpc177x_8x_rtc.c ****             break;
 595              		.loc 1 257 0
 596 034e 00BF     		nop
 597 0350 5EE0     		b	.L29
 598              	.L30:
 258:../src/lib/lpc177x_8x/Drivers/source/lpc177x_8x_rtc.c ****         }
 259:../src/lib/lpc177x_8x/Drivers/source/lpc177x_8x_rtc.c ****     }
 260:../src/lib/lpc177x_8x/Drivers/source/lpc177x_8x_rtc.c ****     else
 261:../src/lib/lpc177x_8x/Drivers/source/lpc177x_8x_rtc.c ****     {
 262:../src/lib/lpc177x_8x/Drivers/source/lpc177x_8x_rtc.c ****         switch (AlarmTimeType)
 599              		.loc 1 262 0
 600 0352 BB68     		ldr	r3, [r7, #8]
 601 0354 072B     		cmp	r3, #7
 602 0356 5BD8     		bhi	.L29
 603 0358 01A2     		adr	r2, .L50
 604 035a 52F823F0 		ldr	pc, [r2, r3, lsl #2]
 605 035e 00BF     		.align	2
 606              	.L50:
 607 0360 81030000 		.word	.L42+1
 608 0364 93030000 		.word	.L43+1
 609 0368 A5030000 		.word	.L44+1
 610 036c B7030000 		.word	.L45+1
 611 0370 C9030000 		.word	.L46+1
 612 0374 DB030000 		.word	.L47+1
 613 0378 ED030000 		.word	.L48+1
 614 037c FF030000 		.word	.L49+1
 615              	.L42:
 263:../src/lib/lpc177x_8x/Drivers/source/lpc177x_8x_rtc.c ****         {
 264:../src/lib/lpc177x_8x/Drivers/source/lpc177x_8x_rtc.c ****         case RTC_TIMETYPE_SECOND:
 265:../src/lib/lpc177x_8x/Drivers/source/lpc177x_8x_rtc.c ****             RTCx->AMR |= (RTC_AMR_AMRSEC);
 616              		.loc 1 265 0
 617 0380 FB68     		ldr	r3, [r7, #12]
 618 0382 1B7C     		ldrb	r3, [r3, #16]
 619 0384 DBB2     		uxtb	r3, r3
 620 0386 43F00103 		orr	r3, r3, #1
 621 038a DAB2     		uxtb	r2, r3
 622 038c FB68     		ldr	r3, [r7, #12]
 623 038e 1A74     		strb	r2, [r3, #16]
 266:../src/lib/lpc177x_8x/Drivers/source/lpc177x_8x_rtc.c ****             break;
 624              		.loc 1 266 0
 625 0390 3EE0     		b	.L29
 626              	.L43:
 267:../src/lib/lpc177x_8x/Drivers/source/lpc177x_8x_rtc.c ****         case RTC_TIMETYPE_MINUTE:
 268:../src/lib/lpc177x_8x/Drivers/source/lpc177x_8x_rtc.c ****             RTCx->AMR |= (RTC_AMR_AMRMIN);
 627              		.loc 1 268 0
 628 0392 FB68     		ldr	r3, [r7, #12]
 629 0394 1B7C     		ldrb	r3, [r3, #16]
 630 0396 DBB2     		uxtb	r3, r3
 631 0398 43F00203 		orr	r3, r3, #2
 632 039c DAB2     		uxtb	r2, r3
 633 039e FB68     		ldr	r3, [r7, #12]
 634 03a0 1A74     		strb	r2, [r3, #16]
 269:../src/lib/lpc177x_8x/Drivers/source/lpc177x_8x_rtc.c ****             break;
 635              		.loc 1 269 0
 636 03a2 35E0     		b	.L29
 637              	.L44:
 270:../src/lib/lpc177x_8x/Drivers/source/lpc177x_8x_rtc.c ****         case RTC_TIMETYPE_HOUR:
 271:../src/lib/lpc177x_8x/Drivers/source/lpc177x_8x_rtc.c ****             RTCx->AMR |= (RTC_AMR_AMRHOUR);
 638              		.loc 1 271 0
 639 03a4 FB68     		ldr	r3, [r7, #12]
 640 03a6 1B7C     		ldrb	r3, [r3, #16]
 641 03a8 DBB2     		uxtb	r3, r3
 642 03aa 43F00403 		orr	r3, r3, #4
 643 03ae DAB2     		uxtb	r2, r3
 644 03b0 FB68     		ldr	r3, [r7, #12]
 645 03b2 1A74     		strb	r2, [r3, #16]
 272:../src/lib/lpc177x_8x/Drivers/source/lpc177x_8x_rtc.c ****             break;
 646              		.loc 1 272 0
 647 03b4 2CE0     		b	.L29
 648              	.L45:
 273:../src/lib/lpc177x_8x/Drivers/source/lpc177x_8x_rtc.c ****         case RTC_TIMETYPE_DAYOFWEEK:
 274:../src/lib/lpc177x_8x/Drivers/source/lpc177x_8x_rtc.c ****             RTCx->AMR |= (RTC_AMR_AMRDOW);
 649              		.loc 1 274 0
 650 03b6 FB68     		ldr	r3, [r7, #12]
 651 03b8 1B7C     		ldrb	r3, [r3, #16]
 652 03ba DBB2     		uxtb	r3, r3
 653 03bc 43F01003 		orr	r3, r3, #16
 654 03c0 DAB2     		uxtb	r2, r3
 655 03c2 FB68     		ldr	r3, [r7, #12]
 656 03c4 1A74     		strb	r2, [r3, #16]
 275:../src/lib/lpc177x_8x/Drivers/source/lpc177x_8x_rtc.c ****             break;
 657              		.loc 1 275 0
 658 03c6 23E0     		b	.L29
 659              	.L46:
 276:../src/lib/lpc177x_8x/Drivers/source/lpc177x_8x_rtc.c ****         case RTC_TIMETYPE_DAYOFMONTH:
 277:../src/lib/lpc177x_8x/Drivers/source/lpc177x_8x_rtc.c ****             RTCx->AMR |= (RTC_AMR_AMRDOM);
 660              		.loc 1 277 0
 661 03c8 FB68     		ldr	r3, [r7, #12]
 662 03ca 1B7C     		ldrb	r3, [r3, #16]
 663 03cc DBB2     		uxtb	r3, r3
 664 03ce 43F00803 		orr	r3, r3, #8
 665 03d2 DAB2     		uxtb	r2, r3
 666 03d4 FB68     		ldr	r3, [r7, #12]
 667 03d6 1A74     		strb	r2, [r3, #16]
 278:../src/lib/lpc177x_8x/Drivers/source/lpc177x_8x_rtc.c ****             break;
 668              		.loc 1 278 0
 669 03d8 1AE0     		b	.L29
 670              	.L47:
 279:../src/lib/lpc177x_8x/Drivers/source/lpc177x_8x_rtc.c ****         case RTC_TIMETYPE_DAYOFYEAR:
 280:../src/lib/lpc177x_8x/Drivers/source/lpc177x_8x_rtc.c ****             RTCx->AMR |= (RTC_AMR_AMRDOY);
 671              		.loc 1 280 0
 672 03da FB68     		ldr	r3, [r7, #12]
 673 03dc 1B7C     		ldrb	r3, [r3, #16]
 674 03de DBB2     		uxtb	r3, r3
 675 03e0 43F02003 		orr	r3, r3, #32
 676 03e4 DAB2     		uxtb	r2, r3
 677 03e6 FB68     		ldr	r3, [r7, #12]
 678 03e8 1A74     		strb	r2, [r3, #16]
 281:../src/lib/lpc177x_8x/Drivers/source/lpc177x_8x_rtc.c ****             break;
 679              		.loc 1 281 0
 680 03ea 11E0     		b	.L29
 681              	.L48:
 282:../src/lib/lpc177x_8x/Drivers/source/lpc177x_8x_rtc.c ****         case RTC_TIMETYPE_MONTH:
 283:../src/lib/lpc177x_8x/Drivers/source/lpc177x_8x_rtc.c ****             RTCx->AMR |= (RTC_AMR_AMRMON);
 682              		.loc 1 283 0
 683 03ec FB68     		ldr	r3, [r7, #12]
 684 03ee 1B7C     		ldrb	r3, [r3, #16]
 685 03f0 DBB2     		uxtb	r3, r3
 686 03f2 43F04003 		orr	r3, r3, #64
 687 03f6 DAB2     		uxtb	r2, r3
 688 03f8 FB68     		ldr	r3, [r7, #12]
 689 03fa 1A74     		strb	r2, [r3, #16]
 284:../src/lib/lpc177x_8x/Drivers/source/lpc177x_8x_rtc.c ****             break;
 690              		.loc 1 284 0
 691 03fc 08E0     		b	.L29
 692              	.L49:
 285:../src/lib/lpc177x_8x/Drivers/source/lpc177x_8x_rtc.c ****         case RTC_TIMETYPE_YEAR:
 286:../src/lib/lpc177x_8x/Drivers/source/lpc177x_8x_rtc.c ****             RTCx->AMR |= (RTC_AMR_AMRYEAR);
 693              		.loc 1 286 0
 694 03fe FB68     		ldr	r3, [r7, #12]
 695 0400 1B7C     		ldrb	r3, [r3, #16]
 696 0402 DBB2     		uxtb	r3, r3
 697 0404 63F07F03 		orn	r3, r3, #127
 698 0408 DAB2     		uxtb	r2, r3
 699 040a FB68     		ldr	r3, [r7, #12]
 700 040c 1A74     		strb	r2, [r3, #16]
 287:../src/lib/lpc177x_8x/Drivers/source/lpc177x_8x_rtc.c ****             break;
 701              		.loc 1 287 0
 702 040e 00BF     		nop
 703              	.L29:
 288:../src/lib/lpc177x_8x/Drivers/source/lpc177x_8x_rtc.c ****         }
 289:../src/lib/lpc177x_8x/Drivers/source/lpc177x_8x_rtc.c ****     }
 290:../src/lib/lpc177x_8x/Drivers/source/lpc177x_8x_rtc.c **** }
 704              		.loc 1 290 0
 705 0410 07F11407 		add	r7, r7, #20
 706 0414 BD46     		mov	sp, r7
 707 0416 80BC     		pop	{r7}
 708 0418 7047     		bx	lr
 709              		.cfi_endproc
 710              	.LFE60:
 712 041a 00BF     		.align	2
 713              		.global	RTC_SetTime
 714              		.thumb
 715              		.thumb_func
 717              	RTC_SetTime:
 718              	.LFB61:
 291:../src/lib/lpc177x_8x/Drivers/source/lpc177x_8x_rtc.c **** 
 292:../src/lib/lpc177x_8x/Drivers/source/lpc177x_8x_rtc.c **** 
 293:../src/lib/lpc177x_8x/Drivers/source/lpc177x_8x_rtc.c **** /*********************************************************************//**
 294:../src/lib/lpc177x_8x/Drivers/source/lpc177x_8x_rtc.c ****  * @brief       Set current time value for each time type in RTC peripheral
 295:../src/lib/lpc177x_8x/Drivers/source/lpc177x_8x_rtc.c ****  * @param[in]   RTCx    RTC peripheral selected, should be LPC_RTC
 296:../src/lib/lpc177x_8x/Drivers/source/lpc177x_8x_rtc.c ****  * @param[in]   Timetype: Time Type, should be:
 297:../src/lib/lpc177x_8x/Drivers/source/lpc177x_8x_rtc.c ****  *              - RTC_TIMETYPE_SECOND
 298:../src/lib/lpc177x_8x/Drivers/source/lpc177x_8x_rtc.c ****  *              - RTC_TIMETYPE_MINUTE
 299:../src/lib/lpc177x_8x/Drivers/source/lpc177x_8x_rtc.c ****  *              - RTC_TIMETYPE_HOUR
 300:../src/lib/lpc177x_8x/Drivers/source/lpc177x_8x_rtc.c ****  *              - RTC_TIMETYPE_DAYOFWEEK
 301:../src/lib/lpc177x_8x/Drivers/source/lpc177x_8x_rtc.c ****  *              - RTC_TIMETYPE_DAYOFMONTH
 302:../src/lib/lpc177x_8x/Drivers/source/lpc177x_8x_rtc.c ****  *              - RTC_TIMETYPE_DAYOFYEAR
 303:../src/lib/lpc177x_8x/Drivers/source/lpc177x_8x_rtc.c ****  *              - RTC_TIMETYPE_MONTH
 304:../src/lib/lpc177x_8x/Drivers/source/lpc177x_8x_rtc.c ****  *              - RTC_TIMETYPE_YEAR
 305:../src/lib/lpc177x_8x/Drivers/source/lpc177x_8x_rtc.c ****  * @param[in]   TimeValue Time value to set
 306:../src/lib/lpc177x_8x/Drivers/source/lpc177x_8x_rtc.c ****  * @return      None
 307:../src/lib/lpc177x_8x/Drivers/source/lpc177x_8x_rtc.c ****  **********************************************************************/
 308:../src/lib/lpc177x_8x/Drivers/source/lpc177x_8x_rtc.c **** void RTC_SetTime (LPC_RTC_TypeDef *RTCx, uint32_t Timetype, uint32_t TimeValue)
 309:../src/lib/lpc177x_8x/Drivers/source/lpc177x_8x_rtc.c **** {
 719              		.loc 1 309 0
 720              		.cfi_startproc
 721              		@ args = 0, pretend = 0, frame = 16
 722              		@ frame_needed = 1, uses_anonymous_args = 0
 723              		@ link register save eliminated.
 724 041c 80B4     		push	{r7}
 725              	.LCFI18:
 726              		.cfi_def_cfa_offset 4
 727              		.cfi_offset 7, -4
 728 041e 85B0     		sub	sp, sp, #20
 729              	.LCFI19:
 730              		.cfi_def_cfa_offset 24
 731 0420 00AF     		add	r7, sp, #0
 732              	.LCFI20:
 733              		.cfi_def_cfa_register 7
 734 0422 F860     		str	r0, [r7, #12]
 735 0424 B960     		str	r1, [r7, #8]
 736 0426 7A60     		str	r2, [r7, #4]
 310:../src/lib/lpc177x_8x/Drivers/source/lpc177x_8x_rtc.c ****     switch ( Timetype)
 737              		.loc 1 310 0
 738 0428 BB68     		ldr	r3, [r7, #8]
 739 042a 072B     		cmp	r3, #7
 740 042c 00F29180 		bhi	.L51
 741 0430 01A2     		adr	r2, .L61
 742 0432 52F823F0 		ldr	pc, [r2, r3, lsl #2]
 743 0436 00BF     		.align	2
 744              	.L61:
 745 0438 59040000 		.word	.L53+1
 746 043c 71040000 		.word	.L54+1
 747 0440 89040000 		.word	.L55+1
 748 0444 A1040000 		.word	.L56+1
 749 0448 B9040000 		.word	.L57+1
 750 044c D7040000 		.word	.L58+1
 751 0450 F9040000 		.word	.L59+1
 752 0454 17050000 		.word	.L60+1
 753              	.L53:
 311:../src/lib/lpc177x_8x/Drivers/source/lpc177x_8x_rtc.c ****     {
 312:../src/lib/lpc177x_8x/Drivers/source/lpc177x_8x_rtc.c ****     case RTC_TIMETYPE_SECOND:
 313:../src/lib/lpc177x_8x/Drivers/source/lpc177x_8x_rtc.c ****         if(TimeValue <= RTC_SECOND_MAX) 
 754              		.loc 1 313 0
 755 0458 7B68     		ldr	r3, [r7, #4]
 756 045a 3B2B     		cmp	r3, #59
 757 045c 6AD8     		bhi	.L70
 314:../src/lib/lpc177x_8x/Drivers/source/lpc177x_8x_rtc.c ****             RTCx->SEC = TimeValue & RTC_SEC_MASK;
 758              		.loc 1 314 0
 759 045e 7B68     		ldr	r3, [r7, #4]
 760 0460 DBB2     		uxtb	r3, r3
 761 0462 03F03F03 		and	r3, r3, #63
 762 0466 DAB2     		uxtb	r2, r3
 763 0468 FB68     		ldr	r3, [r7, #12]
 764 046a 83F82020 		strb	r2, [r3, #32]
 315:../src/lib/lpc177x_8x/Drivers/source/lpc177x_8x_rtc.c ****         break;
 765              		.loc 1 315 0
 766 046e 61E0     		b	.L70
 767              	.L54:
 316:../src/lib/lpc177x_8x/Drivers/source/lpc177x_8x_rtc.c **** 
 317:../src/lib/lpc177x_8x/Drivers/source/lpc177x_8x_rtc.c ****     case RTC_TIMETYPE_MINUTE:
 318:../src/lib/lpc177x_8x/Drivers/source/lpc177x_8x_rtc.c ****         if(TimeValue <= RTC_MINUTE_MAX)
 768              		.loc 1 318 0
 769 0470 7B68     		ldr	r3, [r7, #4]
 770 0472 3B2B     		cmp	r3, #59
 771 0474 60D8     		bhi	.L71
 319:../src/lib/lpc177x_8x/Drivers/source/lpc177x_8x_rtc.c ****             RTCx->MIN = TimeValue & RTC_MIN_MASK;
 772              		.loc 1 319 0
 773 0476 7B68     		ldr	r3, [r7, #4]
 774 0478 DBB2     		uxtb	r3, r3
 775 047a 03F03F03 		and	r3, r3, #63
 776 047e DAB2     		uxtb	r2, r3
 777 0480 FB68     		ldr	r3, [r7, #12]
 778 0482 83F82420 		strb	r2, [r3, #36]
 320:../src/lib/lpc177x_8x/Drivers/source/lpc177x_8x_rtc.c ****         break;
 779              		.loc 1 320 0
 780 0486 57E0     		b	.L71
 781              	.L55:
 321:../src/lib/lpc177x_8x/Drivers/source/lpc177x_8x_rtc.c **** 
 322:../src/lib/lpc177x_8x/Drivers/source/lpc177x_8x_rtc.c ****     case RTC_TIMETYPE_HOUR:
 323:../src/lib/lpc177x_8x/Drivers/source/lpc177x_8x_rtc.c ****         if(TimeValue <= RTC_HOUR_MAX)
 782              		.loc 1 323 0
 783 0488 7B68     		ldr	r3, [r7, #4]
 784 048a 172B     		cmp	r3, #23
 785 048c 56D8     		bhi	.L72
 324:../src/lib/lpc177x_8x/Drivers/source/lpc177x_8x_rtc.c ****             RTCx->HOUR = TimeValue & RTC_HOUR_MASK;
 786              		.loc 1 324 0
 787 048e 7B68     		ldr	r3, [r7, #4]
 788 0490 DBB2     		uxtb	r3, r3
 789 0492 03F01F03 		and	r3, r3, #31
 790 0496 DAB2     		uxtb	r2, r3
 791 0498 FB68     		ldr	r3, [r7, #12]
 792 049a 83F82820 		strb	r2, [r3, #40]
 325:../src/lib/lpc177x_8x/Drivers/source/lpc177x_8x_rtc.c ****         break;
 793              		.loc 1 325 0
 794 049e 4DE0     		b	.L72
 795              	.L56:
 326:../src/lib/lpc177x_8x/Drivers/source/lpc177x_8x_rtc.c **** 
 327:../src/lib/lpc177x_8x/Drivers/source/lpc177x_8x_rtc.c ****     case RTC_TIMETYPE_DAYOFWEEK:
 328:../src/lib/lpc177x_8x/Drivers/source/lpc177x_8x_rtc.c ****         if(TimeValue <= RTC_DAYOFWEEK_MAX)
 796              		.loc 1 328 0
 797 04a0 7B68     		ldr	r3, [r7, #4]
 798 04a2 062B     		cmp	r3, #6
 799 04a4 4CD8     		bhi	.L73
 329:../src/lib/lpc177x_8x/Drivers/source/lpc177x_8x_rtc.c ****             RTCx->DOW = TimeValue & RTC_DOW_MASK;
 800              		.loc 1 329 0
 801 04a6 7B68     		ldr	r3, [r7, #4]
 802 04a8 DBB2     		uxtb	r3, r3
 803 04aa 03F00703 		and	r3, r3, #7
 804 04ae DAB2     		uxtb	r2, r3
 805 04b0 FB68     		ldr	r3, [r7, #12]
 806 04b2 83F83020 		strb	r2, [r3, #48]
 330:../src/lib/lpc177x_8x/Drivers/source/lpc177x_8x_rtc.c ****         break;
 807              		.loc 1 330 0
 808 04b6 43E0     		b	.L73
 809              	.L57:
 331:../src/lib/lpc177x_8x/Drivers/source/lpc177x_8x_rtc.c **** 
 332:../src/lib/lpc177x_8x/Drivers/source/lpc177x_8x_rtc.c ****     case RTC_TIMETYPE_DAYOFMONTH:
 333:../src/lib/lpc177x_8x/Drivers/source/lpc177x_8x_rtc.c ****         if((TimeValue >= RTC_DAYOFMONTH_MIN)&&(TimeValue <= RTC_DAYOFMONTH_MAX))
 810              		.loc 1 333 0
 811 04b8 7B68     		ldr	r3, [r7, #4]
 812 04ba 002B     		cmp	r3, #0
 813 04bc 42D0     		beq	.L74
 814              		.loc 1 333 0 is_stmt 0 discriminator 1
 815 04be 7B68     		ldr	r3, [r7, #4]
 816 04c0 1F2B     		cmp	r3, #31
 817 04c2 3FD8     		bhi	.L74
 334:../src/lib/lpc177x_8x/Drivers/source/lpc177x_8x_rtc.c ****             RTCx->DOM = TimeValue & RTC_DOM_MASK;
 818              		.loc 1 334 0 is_stmt 1
 819 04c4 7B68     		ldr	r3, [r7, #4]
 820 04c6 DBB2     		uxtb	r3, r3
 821 04c8 03F01F03 		and	r3, r3, #31
 822 04cc DAB2     		uxtb	r2, r3
 823 04ce FB68     		ldr	r3, [r7, #12]
 824 04d0 83F82C20 		strb	r2, [r3, #44]
 335:../src/lib/lpc177x_8x/Drivers/source/lpc177x_8x_rtc.c ****         break;
 825              		.loc 1 335 0
 826 04d4 36E0     		b	.L74
 827              	.L58:
 336:../src/lib/lpc177x_8x/Drivers/source/lpc177x_8x_rtc.c **** 
 337:../src/lib/lpc177x_8x/Drivers/source/lpc177x_8x_rtc.c ****     case RTC_TIMETYPE_DAYOFYEAR:
 338:../src/lib/lpc177x_8x/Drivers/source/lpc177x_8x_rtc.c ****         if((TimeValue >= RTC_DAYOFYEAR_MIN)&&(TimeValue <= RTC_DAYOFYEAR_MAX))
 828              		.loc 1 338 0
 829 04d6 7B68     		ldr	r3, [r7, #4]
 830 04d8 002B     		cmp	r3, #0
 831 04da 35D0     		beq	.L75
 832              		.loc 1 338 0 is_stmt 0 discriminator 1
 833 04dc 7B68     		ldr	r3, [r7, #4]
 834 04de B3F5B77F 		cmp	r3, #366
 835 04e2 31D8     		bhi	.L75
 339:../src/lib/lpc177x_8x/Drivers/source/lpc177x_8x_rtc.c ****             RTCx->DOY = TimeValue & RTC_DOY_MASK;
 836              		.loc 1 339 0 is_stmt 1
 837 04e4 7B68     		ldr	r3, [r7, #4]
 838 04e6 9BB2     		uxth	r3, r3
 839 04e8 4FEAC353 		lsl	r3, r3, #23
 840 04ec 4FEAD353 		lsr	r3, r3, #23
 841 04f0 9AB2     		uxth	r2, r3
 842 04f2 FB68     		ldr	r3, [r7, #12]
 843 04f4 9A86     		strh	r2, [r3, #52]	@ movhi
 340:../src/lib/lpc177x_8x/Drivers/source/lpc177x_8x_rtc.c ****         break;
 844              		.loc 1 340 0
 845 04f6 27E0     		b	.L75
 846              	.L59:
 341:../src/lib/lpc177x_8x/Drivers/source/lpc177x_8x_rtc.c **** 
 342:../src/lib/lpc177x_8x/Drivers/source/lpc177x_8x_rtc.c ****     case RTC_TIMETYPE_MONTH:
 343:../src/lib/lpc177x_8x/Drivers/source/lpc177x_8x_rtc.c ****         if((TimeValue >= RTC_MONTH_MIN)&&(TimeValue <= RTC_MONTH_MAX))
 847              		.loc 1 343 0
 848 04f8 7B68     		ldr	r3, [r7, #4]
 849 04fa 002B     		cmp	r3, #0
 850 04fc 26D0     		beq	.L76
 851              		.loc 1 343 0 is_stmt 0 discriminator 1
 852 04fe 7B68     		ldr	r3, [r7, #4]
 853 0500 0C2B     		cmp	r3, #12
 854 0502 23D8     		bhi	.L76
 344:../src/lib/lpc177x_8x/Drivers/source/lpc177x_8x_rtc.c ****             RTCx->MONTH = TimeValue & RTC_MONTH_MASK;
 855              		.loc 1 344 0 is_stmt 1
 856 0504 7B68     		ldr	r3, [r7, #4]
 857 0506 DBB2     		uxtb	r3, r3
 858 0508 03F00F03 		and	r3, r3, #15
 859 050c DAB2     		uxtb	r2, r3
 860 050e FB68     		ldr	r3, [r7, #12]
 861 0510 83F83820 		strb	r2, [r3, #56]
 345:../src/lib/lpc177x_8x/Drivers/source/lpc177x_8x_rtc.c ****         break;
 862              		.loc 1 345 0
 863 0514 1AE0     		b	.L76
 864              	.L60:
 346:../src/lib/lpc177x_8x/Drivers/source/lpc177x_8x_rtc.c **** 
 347:../src/lib/lpc177x_8x/Drivers/source/lpc177x_8x_rtc.c ****     case RTC_TIMETYPE_YEAR:
 348:../src/lib/lpc177x_8x/Drivers/source/lpc177x_8x_rtc.c ****         if(TimeValue <= RTC_YEAR_MAX)
 865              		.loc 1 348 0
 866 0516 7A68     		ldr	r2, [r7, #4]
 867 0518 40F6FF73 		movw	r3, #4095
 868 051c 9A42     		cmp	r2, r3
 869 051e 17D8     		bhi	.L77
 349:../src/lib/lpc177x_8x/Drivers/source/lpc177x_8x_rtc.c ****             RTCx->YEAR = TimeValue & RTC_YEAR_MASK;
 870              		.loc 1 349 0
 871 0520 7B68     		ldr	r3, [r7, #4]
 872 0522 9BB2     		uxth	r3, r3
 873 0524 4FEA0353 		lsl	r3, r3, #20
 874 0528 4FEA1353 		lsr	r3, r3, #20
 875 052c 9AB2     		uxth	r2, r3
 876 052e FB68     		ldr	r3, [r7, #12]
 877 0530 9A87     		strh	r2, [r3, #60]	@ movhi
 350:../src/lib/lpc177x_8x/Drivers/source/lpc177x_8x_rtc.c ****         break;
 878              		.loc 1 350 0
 879 0532 0DE0     		b	.L77
 880              	.L70:
 315:../src/lib/lpc177x_8x/Drivers/source/lpc177x_8x_rtc.c ****         break;
 881              		.loc 1 315 0
 882 0534 00BF     		nop
 883 0536 0CE0     		b	.L51
 884              	.L71:
 320:../src/lib/lpc177x_8x/Drivers/source/lpc177x_8x_rtc.c ****         break;
 885              		.loc 1 320 0
 886 0538 00BF     		nop
 887 053a 0AE0     		b	.L51
 888              	.L72:
 325:../src/lib/lpc177x_8x/Drivers/source/lpc177x_8x_rtc.c ****         break;
 889              		.loc 1 325 0
 890 053c 00BF     		nop
 891 053e 08E0     		b	.L51
 892              	.L73:
 330:../src/lib/lpc177x_8x/Drivers/source/lpc177x_8x_rtc.c ****         break;
 893              		.loc 1 330 0
 894 0540 00BF     		nop
 895 0542 06E0     		b	.L51
 896              	.L74:
 335:../src/lib/lpc177x_8x/Drivers/source/lpc177x_8x_rtc.c ****         break;
 897              		.loc 1 335 0
 898 0544 00BF     		nop
 899 0546 04E0     		b	.L51
 900              	.L75:
 340:../src/lib/lpc177x_8x/Drivers/source/lpc177x_8x_rtc.c ****         break;
 901              		.loc 1 340 0
 902 0548 00BF     		nop
 903 054a 02E0     		b	.L51
 904              	.L76:
 345:../src/lib/lpc177x_8x/Drivers/source/lpc177x_8x_rtc.c ****         break;
 905              		.loc 1 345 0
 906 054c 00BF     		nop
 907 054e 00E0     		b	.L51
 908              	.L77:
 909              		.loc 1 350 0
 910 0550 00BF     		nop
 911              	.L51:
 351:../src/lib/lpc177x_8x/Drivers/source/lpc177x_8x_rtc.c ****     }
 352:../src/lib/lpc177x_8x/Drivers/source/lpc177x_8x_rtc.c **** }
 912              		.loc 1 352 0
 913 0552 07F11407 		add	r7, r7, #20
 914 0556 BD46     		mov	sp, r7
 915 0558 80BC     		pop	{r7}
 916 055a 7047     		bx	lr
 917              		.cfi_endproc
 918              	.LFE61:
 920              		.align	2
 921              		.global	RTC_GetTime
 922              		.thumb
 923              		.thumb_func
 925              	RTC_GetTime:
 926              	.LFB62:
 353:../src/lib/lpc177x_8x/Drivers/source/lpc177x_8x_rtc.c **** 
 354:../src/lib/lpc177x_8x/Drivers/source/lpc177x_8x_rtc.c **** /*********************************************************************//**
 355:../src/lib/lpc177x_8x/Drivers/source/lpc177x_8x_rtc.c ****  * @brief       Get current time value for each type time type
 356:../src/lib/lpc177x_8x/Drivers/source/lpc177x_8x_rtc.c ****  * @param[in]   RTCx    RTC peripheral selected, should be LPC_RTC
 357:../src/lib/lpc177x_8x/Drivers/source/lpc177x_8x_rtc.c ****  * @param[in]   Timetype: Time Type, should be:
 358:../src/lib/lpc177x_8x/Drivers/source/lpc177x_8x_rtc.c ****  *              - RTC_TIMETYPE_SECOND
 359:../src/lib/lpc177x_8x/Drivers/source/lpc177x_8x_rtc.c ****  *              - RTC_TIMETYPE_MINUTE
 360:../src/lib/lpc177x_8x/Drivers/source/lpc177x_8x_rtc.c ****  *              - RTC_TIMETYPE_HOUR
 361:../src/lib/lpc177x_8x/Drivers/source/lpc177x_8x_rtc.c ****  *              - RTC_TIMETYPE_DAYOFWEEK
 362:../src/lib/lpc177x_8x/Drivers/source/lpc177x_8x_rtc.c ****  *              - RTC_TIMETYPE_DAYOFMONTH
 363:../src/lib/lpc177x_8x/Drivers/source/lpc177x_8x_rtc.c ****  *              - RTC_TIMETYPE_DAYOFYEAR
 364:../src/lib/lpc177x_8x/Drivers/source/lpc177x_8x_rtc.c ****  *              - RTC_TIMETYPE_MONTH
 365:../src/lib/lpc177x_8x/Drivers/source/lpc177x_8x_rtc.c ****  *              - RTC_TIMETYPE_YEAR
 366:../src/lib/lpc177x_8x/Drivers/source/lpc177x_8x_rtc.c ****  * @return      Value of time according to specified time type
 367:../src/lib/lpc177x_8x/Drivers/source/lpc177x_8x_rtc.c ****  **********************************************************************/
 368:../src/lib/lpc177x_8x/Drivers/source/lpc177x_8x_rtc.c **** uint32_t RTC_GetTime(LPC_RTC_TypeDef *RTCx, uint32_t Timetype)
 369:../src/lib/lpc177x_8x/Drivers/source/lpc177x_8x_rtc.c **** {
 927              		.loc 1 369 0
 928              		.cfi_startproc
 929              		@ args = 0, pretend = 0, frame = 8
 930              		@ frame_needed = 1, uses_anonymous_args = 0
 931              		@ link register save eliminated.
 932 055c 80B4     		push	{r7}
 933              	.LCFI21:
 934              		.cfi_def_cfa_offset 4
 935              		.cfi_offset 7, -4
 936 055e 83B0     		sub	sp, sp, #12
 937              	.LCFI22:
 938              		.cfi_def_cfa_offset 16
 939 0560 00AF     		add	r7, sp, #0
 940              	.LCFI23:
 941              		.cfi_def_cfa_register 7
 942 0562 7860     		str	r0, [r7, #4]
 943 0564 3960     		str	r1, [r7, #0]
 370:../src/lib/lpc177x_8x/Drivers/source/lpc177x_8x_rtc.c ****     switch (Timetype)
 944              		.loc 1 370 0
 945 0566 3B68     		ldr	r3, [r7, #0]
 946 0568 072B     		cmp	r3, #7
 947 056a 4DD8     		bhi	.L79
 948 056c 01A2     		adr	r2, .L88
 949 056e 52F823F0 		ldr	pc, [r2, r3, lsl #2]
 950 0572 00BF     		.align	2
 951              	.L88:
 952 0574 95050000 		.word	.L80+1
 953 0578 A3050000 		.word	.L81+1
 954 057c B1050000 		.word	.L82+1
 955 0580 BF050000 		.word	.L83+1
 956 0584 CD050000 		.word	.L84+1
 957 0588 DB050000 		.word	.L85+1
 958 058c EB050000 		.word	.L86+1
 959 0590 F9050000 		.word	.L87+1
 960              	.L80:
 371:../src/lib/lpc177x_8x/Drivers/source/lpc177x_8x_rtc.c ****     {
 372:../src/lib/lpc177x_8x/Drivers/source/lpc177x_8x_rtc.c ****     case RTC_TIMETYPE_SECOND:
 373:../src/lib/lpc177x_8x/Drivers/source/lpc177x_8x_rtc.c ****         return (RTCx->SEC & RTC_SEC_MASK);
 961              		.loc 1 373 0
 962 0594 7B68     		ldr	r3, [r7, #4]
 963 0596 93F82030 		ldrb	r3, [r3, #32]
 964 059a DBB2     		uxtb	r3, r3
 965 059c 03F03F03 		and	r3, r3, #63
 966 05a0 34E0     		b	.L89
 967              	.L81:
 374:../src/lib/lpc177x_8x/Drivers/source/lpc177x_8x_rtc.c ****     case RTC_TIMETYPE_MINUTE:
 375:../src/lib/lpc177x_8x/Drivers/source/lpc177x_8x_rtc.c ****         return (RTCx->MIN & RTC_MIN_MASK);
 968              		.loc 1 375 0
 969 05a2 7B68     		ldr	r3, [r7, #4]
 970 05a4 93F82430 		ldrb	r3, [r3, #36]
 971 05a8 DBB2     		uxtb	r3, r3
 972 05aa 03F03F03 		and	r3, r3, #63
 973 05ae 2DE0     		b	.L89
 974              	.L82:
 376:../src/lib/lpc177x_8x/Drivers/source/lpc177x_8x_rtc.c ****     case RTC_TIMETYPE_HOUR:
 377:../src/lib/lpc177x_8x/Drivers/source/lpc177x_8x_rtc.c ****         return (RTCx->HOUR & RTC_HOUR_MASK);
 975              		.loc 1 377 0
 976 05b0 7B68     		ldr	r3, [r7, #4]
 977 05b2 93F82830 		ldrb	r3, [r3, #40]
 978 05b6 DBB2     		uxtb	r3, r3
 979 05b8 03F01F03 		and	r3, r3, #31
 980 05bc 26E0     		b	.L89
 981              	.L83:
 378:../src/lib/lpc177x_8x/Drivers/source/lpc177x_8x_rtc.c ****     case RTC_TIMETYPE_DAYOFWEEK:
 379:../src/lib/lpc177x_8x/Drivers/source/lpc177x_8x_rtc.c ****         return (RTCx->DOW & RTC_DOW_MASK);
 982              		.loc 1 379 0
 983 05be 7B68     		ldr	r3, [r7, #4]
 984 05c0 93F83030 		ldrb	r3, [r3, #48]
 985 05c4 DBB2     		uxtb	r3, r3
 986 05c6 03F00703 		and	r3, r3, #7
 987 05ca 1FE0     		b	.L89
 988              	.L84:
 380:../src/lib/lpc177x_8x/Drivers/source/lpc177x_8x_rtc.c ****     case RTC_TIMETYPE_DAYOFMONTH:
 381:../src/lib/lpc177x_8x/Drivers/source/lpc177x_8x_rtc.c ****         return (RTCx->DOM & RTC_DOM_MASK);
 989              		.loc 1 381 0
 990 05cc 7B68     		ldr	r3, [r7, #4]
 991 05ce 93F82C30 		ldrb	r3, [r3, #44]
 992 05d2 DBB2     		uxtb	r3, r3
 993 05d4 03F01F03 		and	r3, r3, #31
 994 05d8 18E0     		b	.L89
 995              	.L85:
 382:../src/lib/lpc177x_8x/Drivers/source/lpc177x_8x_rtc.c ****     case RTC_TIMETYPE_DAYOFYEAR:
 383:../src/lib/lpc177x_8x/Drivers/source/lpc177x_8x_rtc.c ****         return (RTCx->DOY & RTC_DOY_MASK);
 996              		.loc 1 383 0
 997 05da 7B68     		ldr	r3, [r7, #4]
 998 05dc 9B8E     		ldrh	r3, [r3, #52]	@ movhi
 999 05de 9BB2     		uxth	r3, r3
 1000 05e0 4FEAC353 		lsl	r3, r3, #23
 1001 05e4 4FEAD353 		lsr	r3, r3, #23
 1002 05e8 10E0     		b	.L89
 1003              	.L86:
 384:../src/lib/lpc177x_8x/Drivers/source/lpc177x_8x_rtc.c ****     case RTC_TIMETYPE_MONTH:
 385:../src/lib/lpc177x_8x/Drivers/source/lpc177x_8x_rtc.c ****         return (RTCx->MONTH & RTC_MONTH_MASK);
 1004              		.loc 1 385 0
 1005 05ea 7B68     		ldr	r3, [r7, #4]
 1006 05ec 93F83830 		ldrb	r3, [r3, #56]
 1007 05f0 DBB2     		uxtb	r3, r3
 1008 05f2 03F00F03 		and	r3, r3, #15
 1009 05f6 09E0     		b	.L89
 1010              	.L87:
 386:../src/lib/lpc177x_8x/Drivers/source/lpc177x_8x_rtc.c ****     case RTC_TIMETYPE_YEAR:
 387:../src/lib/lpc177x_8x/Drivers/source/lpc177x_8x_rtc.c ****         return (RTCx->YEAR & RTC_YEAR_MASK);
 1011              		.loc 1 387 0
 1012 05f8 7B68     		ldr	r3, [r7, #4]
 1013 05fa 9B8F     		ldrh	r3, [r3, #60]	@ movhi
 1014 05fc 9BB2     		uxth	r3, r3
 1015 05fe 4FEA0353 		lsl	r3, r3, #20
 1016 0602 4FEA1353 		lsr	r3, r3, #20
 1017 0606 01E0     		b	.L89
 1018              	.L79:
 388:../src/lib/lpc177x_8x/Drivers/source/lpc177x_8x_rtc.c ****     default:
 389:../src/lib/lpc177x_8x/Drivers/source/lpc177x_8x_rtc.c ****         return (0);
 1019              		.loc 1 389 0
 1020 0608 4FF00003 		mov	r3, #0
 1021              	.L89:
 390:../src/lib/lpc177x_8x/Drivers/source/lpc177x_8x_rtc.c ****     }
 391:../src/lib/lpc177x_8x/Drivers/source/lpc177x_8x_rtc.c **** }
 1022              		.loc 1 391 0
 1023 060c 1846     		mov	r0, r3
 1024 060e 07F10C07 		add	r7, r7, #12
 1025 0612 BD46     		mov	sp, r7
 1026 0614 80BC     		pop	{r7}
 1027 0616 7047     		bx	lr
 1028              		.cfi_endproc
 1029              	.LFE62:
 1031              		.align	2
 1032              		.global	RTC_SetFullTime
 1033              		.thumb
 1034              		.thumb_func
 1036              	RTC_SetFullTime:
 1037              	.LFB63:
 392:../src/lib/lpc177x_8x/Drivers/source/lpc177x_8x_rtc.c **** 
 393:../src/lib/lpc177x_8x/Drivers/source/lpc177x_8x_rtc.c **** 
 394:../src/lib/lpc177x_8x/Drivers/source/lpc177x_8x_rtc.c **** /*********************************************************************//**
 395:../src/lib/lpc177x_8x/Drivers/source/lpc177x_8x_rtc.c ****  * @brief       Set full of time in RTC peripheral
 396:../src/lib/lpc177x_8x/Drivers/source/lpc177x_8x_rtc.c ****  * @param[in]   RTCx    RTC peripheral selected, should be LPC_RTC
 397:../src/lib/lpc177x_8x/Drivers/source/lpc177x_8x_rtc.c ****  * @param[in]   pFullTime Pointer to a RTC_TIME_Type structure that
 398:../src/lib/lpc177x_8x/Drivers/source/lpc177x_8x_rtc.c ****  *              contains time value in full.
 399:../src/lib/lpc177x_8x/Drivers/source/lpc177x_8x_rtc.c ****  * @return      None
 400:../src/lib/lpc177x_8x/Drivers/source/lpc177x_8x_rtc.c ****  **********************************************************************/
 401:../src/lib/lpc177x_8x/Drivers/source/lpc177x_8x_rtc.c **** void RTC_SetFullTime (LPC_RTC_TypeDef *RTCx, RTC_TIME_Type *pFullTime)
 402:../src/lib/lpc177x_8x/Drivers/source/lpc177x_8x_rtc.c **** {
 1038              		.loc 1 402 0
 1039              		.cfi_startproc
 1040              		@ args = 0, pretend = 0, frame = 8
 1041              		@ frame_needed = 1, uses_anonymous_args = 0
 1042              		@ link register save eliminated.
 1043 0618 80B4     		push	{r7}
 1044              	.LCFI24:
 1045              		.cfi_def_cfa_offset 4
 1046              		.cfi_offset 7, -4
 1047 061a 83B0     		sub	sp, sp, #12
 1048              	.LCFI25:
 1049              		.cfi_def_cfa_offset 16
 1050 061c 00AF     		add	r7, sp, #0
 1051              	.LCFI26:
 1052              		.cfi_def_cfa_register 7
 1053 061e 7860     		str	r0, [r7, #4]
 1054 0620 3960     		str	r1, [r7, #0]
 403:../src/lib/lpc177x_8x/Drivers/source/lpc177x_8x_rtc.c ****     RTCx->DOM = pFullTime->DOM & RTC_DOM_MASK;
 1055              		.loc 1 403 0
 1056 0622 3B68     		ldr	r3, [r7, #0]
 1057 0624 DB68     		ldr	r3, [r3, #12]
 1058 0626 DBB2     		uxtb	r3, r3
 1059 0628 03F01F03 		and	r3, r3, #31
 1060 062c DAB2     		uxtb	r2, r3
 1061 062e 7B68     		ldr	r3, [r7, #4]
 1062 0630 83F82C20 		strb	r2, [r3, #44]
 404:../src/lib/lpc177x_8x/Drivers/source/lpc177x_8x_rtc.c ****     RTCx->DOW = pFullTime->DOW & RTC_DOW_MASK;
 1063              		.loc 1 404 0
 1064 0634 3B68     		ldr	r3, [r7, #0]
 1065 0636 1B69     		ldr	r3, [r3, #16]
 1066 0638 DBB2     		uxtb	r3, r3
 1067 063a 03F00703 		and	r3, r3, #7
 1068 063e DAB2     		uxtb	r2, r3
 1069 0640 7B68     		ldr	r3, [r7, #4]
 1070 0642 83F83020 		strb	r2, [r3, #48]
 405:../src/lib/lpc177x_8x/Drivers/source/lpc177x_8x_rtc.c ****     RTCx->DOY = pFullTime->DOY & RTC_DOY_MASK;
 1071              		.loc 1 405 0
 1072 0646 3B68     		ldr	r3, [r7, #0]
 1073 0648 5B69     		ldr	r3, [r3, #20]
 1074 064a 9BB2     		uxth	r3, r3
 1075 064c 4FEAC353 		lsl	r3, r3, #23
 1076 0650 4FEAD353 		lsr	r3, r3, #23
 1077 0654 9AB2     		uxth	r2, r3
 1078 0656 7B68     		ldr	r3, [r7, #4]
 1079 0658 9A86     		strh	r2, [r3, #52]	@ movhi
 406:../src/lib/lpc177x_8x/Drivers/source/lpc177x_8x_rtc.c ****     RTCx->HOUR = pFullTime->HOUR & RTC_HOUR_MASK;
 1080              		.loc 1 406 0
 1081 065a 3B68     		ldr	r3, [r7, #0]
 1082 065c 9B68     		ldr	r3, [r3, #8]
 1083 065e DBB2     		uxtb	r3, r3
 1084 0660 03F01F03 		and	r3, r3, #31
 1085 0664 DAB2     		uxtb	r2, r3
 1086 0666 7B68     		ldr	r3, [r7, #4]
 1087 0668 83F82820 		strb	r2, [r3, #40]
 407:../src/lib/lpc177x_8x/Drivers/source/lpc177x_8x_rtc.c ****     RTCx->MIN = pFullTime->MIN & RTC_MIN_MASK;
 1088              		.loc 1 407 0
 1089 066c 3B68     		ldr	r3, [r7, #0]
 1090 066e 5B68     		ldr	r3, [r3, #4]
 1091 0670 DBB2     		uxtb	r3, r3
 1092 0672 03F03F03 		and	r3, r3, #63
 1093 0676 DAB2     		uxtb	r2, r3
 1094 0678 7B68     		ldr	r3, [r7, #4]
 1095 067a 83F82420 		strb	r2, [r3, #36]
 408:../src/lib/lpc177x_8x/Drivers/source/lpc177x_8x_rtc.c ****     RTCx->SEC = pFullTime->SEC & RTC_SEC_MASK;
 1096              		.loc 1 408 0
 1097 067e 3B68     		ldr	r3, [r7, #0]
 1098 0680 1B68     		ldr	r3, [r3, #0]
 1099 0682 DBB2     		uxtb	r3, r3
 1100 0684 03F03F03 		and	r3, r3, #63
 1101 0688 DAB2     		uxtb	r2, r3
 1102 068a 7B68     		ldr	r3, [r7, #4]
 1103 068c 83F82020 		strb	r2, [r3, #32]
 409:../src/lib/lpc177x_8x/Drivers/source/lpc177x_8x_rtc.c ****     RTCx->MONTH = pFullTime->MONTH & RTC_MONTH_MASK;
 1104              		.loc 1 409 0
 1105 0690 3B68     		ldr	r3, [r7, #0]
 1106 0692 9B69     		ldr	r3, [r3, #24]
 1107 0694 DBB2     		uxtb	r3, r3
 1108 0696 03F00F03 		and	r3, r3, #15
 1109 069a DAB2     		uxtb	r2, r3
 1110 069c 7B68     		ldr	r3, [r7, #4]
 1111 069e 83F83820 		strb	r2, [r3, #56]
 410:../src/lib/lpc177x_8x/Drivers/source/lpc177x_8x_rtc.c ****     RTCx->YEAR = pFullTime->YEAR & RTC_YEAR_MASK;
 1112              		.loc 1 410 0
 1113 06a2 3B68     		ldr	r3, [r7, #0]
 1114 06a4 DB69     		ldr	r3, [r3, #28]
 1115 06a6 9BB2     		uxth	r3, r3
 1116 06a8 4FEA0353 		lsl	r3, r3, #20
 1117 06ac 4FEA1353 		lsr	r3, r3, #20
 1118 06b0 9AB2     		uxth	r2, r3
 1119 06b2 7B68     		ldr	r3, [r7, #4]
 1120 06b4 9A87     		strh	r2, [r3, #60]	@ movhi
 411:../src/lib/lpc177x_8x/Drivers/source/lpc177x_8x_rtc.c **** }
 1121              		.loc 1 411 0
 1122 06b6 07F10C07 		add	r7, r7, #12
 1123 06ba BD46     		mov	sp, r7
 1124 06bc 80BC     		pop	{r7}
 1125 06be 7047     		bx	lr
 1126              		.cfi_endproc
 1127              	.LFE63:
 1129              		.align	2
 1130              		.global	RTC_GetFullTime
 1131              		.thumb
 1132              		.thumb_func
 1134              	RTC_GetFullTime:
 1135              	.LFB64:
 412:../src/lib/lpc177x_8x/Drivers/source/lpc177x_8x_rtc.c **** 
 413:../src/lib/lpc177x_8x/Drivers/source/lpc177x_8x_rtc.c **** 
 414:../src/lib/lpc177x_8x/Drivers/source/lpc177x_8x_rtc.c **** /*********************************************************************//**
 415:../src/lib/lpc177x_8x/Drivers/source/lpc177x_8x_rtc.c ****  * @brief       Get full of time in RTC peripheral
 416:../src/lib/lpc177x_8x/Drivers/source/lpc177x_8x_rtc.c ****  * @param[in]   RTCx    RTC peripheral selected, should be LPC_RTC
 417:../src/lib/lpc177x_8x/Drivers/source/lpc177x_8x_rtc.c ****  * @param[in]   pFullTime Pointer to a RTC_TIME_Type structure that
 418:../src/lib/lpc177x_8x/Drivers/source/lpc177x_8x_rtc.c ****  *              will be stored time in full.
 419:../src/lib/lpc177x_8x/Drivers/source/lpc177x_8x_rtc.c ****  * @return      None
 420:../src/lib/lpc177x_8x/Drivers/source/lpc177x_8x_rtc.c ****  **********************************************************************/
 421:../src/lib/lpc177x_8x/Drivers/source/lpc177x_8x_rtc.c **** void RTC_GetFullTime (LPC_RTC_TypeDef *RTCx, RTC_TIME_Type *pFullTime)
 422:../src/lib/lpc177x_8x/Drivers/source/lpc177x_8x_rtc.c **** {
 1136              		.loc 1 422 0
 1137              		.cfi_startproc
 1138              		@ args = 0, pretend = 0, frame = 8
 1139              		@ frame_needed = 1, uses_anonymous_args = 0
 1140              		@ link register save eliminated.
 1141 06c0 80B4     		push	{r7}
 1142              	.LCFI27:
 1143              		.cfi_def_cfa_offset 4
 1144              		.cfi_offset 7, -4
 1145 06c2 83B0     		sub	sp, sp, #12
 1146              	.LCFI28:
 1147              		.cfi_def_cfa_offset 16
 1148 06c4 00AF     		add	r7, sp, #0
 1149              	.LCFI29:
 1150              		.cfi_def_cfa_register 7
 1151 06c6 7860     		str	r0, [r7, #4]
 1152 06c8 3960     		str	r1, [r7, #0]
 423:../src/lib/lpc177x_8x/Drivers/source/lpc177x_8x_rtc.c ****     pFullTime->DOM = RTCx->DOM & RTC_DOM_MASK;
 1153              		.loc 1 423 0
 1154 06ca 7B68     		ldr	r3, [r7, #4]
 1155 06cc 93F82C30 		ldrb	r3, [r3, #44]
 1156 06d0 DBB2     		uxtb	r3, r3
 1157 06d2 03F01F02 		and	r2, r3, #31
 1158 06d6 3B68     		ldr	r3, [r7, #0]
 1159 06d8 DA60     		str	r2, [r3, #12]
 424:../src/lib/lpc177x_8x/Drivers/source/lpc177x_8x_rtc.c ****     pFullTime->DOW = RTCx->DOW & RTC_DOW_MASK;
 1160              		.loc 1 424 0
 1161 06da 7B68     		ldr	r3, [r7, #4]
 1162 06dc 93F83030 		ldrb	r3, [r3, #48]
 1163 06e0 DBB2     		uxtb	r3, r3
 1164 06e2 03F00702 		and	r2, r3, #7
 1165 06e6 3B68     		ldr	r3, [r7, #0]
 1166 06e8 1A61     		str	r2, [r3, #16]
 425:../src/lib/lpc177x_8x/Drivers/source/lpc177x_8x_rtc.c ****     pFullTime->DOY = RTCx->DOY & RTC_DOY_MASK;
 1167              		.loc 1 425 0
 1168 06ea 7B68     		ldr	r3, [r7, #4]
 1169 06ec 9B8E     		ldrh	r3, [r3, #52]	@ movhi
 1170 06ee 9BB2     		uxth	r3, r3
 1171 06f0 4FEAC353 		lsl	r3, r3, #23
 1172 06f4 4FEAD353 		lsr	r3, r3, #23
 1173 06f8 3A68     		ldr	r2, [r7, #0]
 1174 06fa 5361     		str	r3, [r2, #20]
 426:../src/lib/lpc177x_8x/Drivers/source/lpc177x_8x_rtc.c ****     pFullTime->HOUR = RTCx->HOUR & RTC_HOUR_MASK;
 1175              		.loc 1 426 0
 1176 06fc 7B68     		ldr	r3, [r7, #4]
 1177 06fe 93F82830 		ldrb	r3, [r3, #40]
 1178 0702 DBB2     		uxtb	r3, r3
 1179 0704 03F01F02 		and	r2, r3, #31
 1180 0708 3B68     		ldr	r3, [r7, #0]
 1181 070a 9A60     		str	r2, [r3, #8]
 427:../src/lib/lpc177x_8x/Drivers/source/lpc177x_8x_rtc.c ****     pFullTime->MIN = RTCx->MIN & RTC_MIN_MASK;
 1182              		.loc 1 427 0
 1183 070c 7B68     		ldr	r3, [r7, #4]
 1184 070e 93F82430 		ldrb	r3, [r3, #36]
 1185 0712 DBB2     		uxtb	r3, r3
 1186 0714 03F03F02 		and	r2, r3, #63
 1187 0718 3B68     		ldr	r3, [r7, #0]
 1188 071a 5A60     		str	r2, [r3, #4]
 428:../src/lib/lpc177x_8x/Drivers/source/lpc177x_8x_rtc.c ****     pFullTime->SEC = RTCx->SEC & RTC_SEC_MASK;
 1189              		.loc 1 428 0
 1190 071c 7B68     		ldr	r3, [r7, #4]
 1191 071e 93F82030 		ldrb	r3, [r3, #32]
 1192 0722 DBB2     		uxtb	r3, r3
 1193 0724 03F03F02 		and	r2, r3, #63
 1194 0728 3B68     		ldr	r3, [r7, #0]
 1195 072a 1A60     		str	r2, [r3, #0]
 429:../src/lib/lpc177x_8x/Drivers/source/lpc177x_8x_rtc.c ****     pFullTime->MONTH = RTCx->MONTH & RTC_MONTH_MASK;
 1196              		.loc 1 429 0
 1197 072c 7B68     		ldr	r3, [r7, #4]
 1198 072e 93F83830 		ldrb	r3, [r3, #56]
 1199 0732 DBB2     		uxtb	r3, r3
 1200 0734 03F00F02 		and	r2, r3, #15
 1201 0738 3B68     		ldr	r3, [r7, #0]
 1202 073a 9A61     		str	r2, [r3, #24]
 430:../src/lib/lpc177x_8x/Drivers/source/lpc177x_8x_rtc.c ****     pFullTime->YEAR = RTCx->YEAR & RTC_YEAR_MASK;
 1203              		.loc 1 430 0
 1204 073c 7B68     		ldr	r3, [r7, #4]
 1205 073e 9B8F     		ldrh	r3, [r3, #60]	@ movhi
 1206 0740 9BB2     		uxth	r3, r3
 1207 0742 4FEA0353 		lsl	r3, r3, #20
 1208 0746 4FEA1353 		lsr	r3, r3, #20
 1209 074a 3A68     		ldr	r2, [r7, #0]
 1210 074c D361     		str	r3, [r2, #28]
 431:../src/lib/lpc177x_8x/Drivers/source/lpc177x_8x_rtc.c **** }
 1211              		.loc 1 431 0
 1212 074e 07F10C07 		add	r7, r7, #12
 1213 0752 BD46     		mov	sp, r7
 1214 0754 80BC     		pop	{r7}
 1215 0756 7047     		bx	lr
 1216              		.cfi_endproc
 1217              	.LFE64:
 1219              		.align	2
 1220              		.global	RTC_SetAlarmTime
 1221              		.thumb
 1222              		.thumb_func
 1224              	RTC_SetAlarmTime:
 1225              	.LFB65:
 432:../src/lib/lpc177x_8x/Drivers/source/lpc177x_8x_rtc.c **** 
 433:../src/lib/lpc177x_8x/Drivers/source/lpc177x_8x_rtc.c **** 
 434:../src/lib/lpc177x_8x/Drivers/source/lpc177x_8x_rtc.c **** /*********************************************************************//**
 435:../src/lib/lpc177x_8x/Drivers/source/lpc177x_8x_rtc.c ****  * @brief       Set alarm time value for each time type
 436:../src/lib/lpc177x_8x/Drivers/source/lpc177x_8x_rtc.c ****  * @param[in]   RTCx    RTC peripheral selected, should be LPC_RTC
 437:../src/lib/lpc177x_8x/Drivers/source/lpc177x_8x_rtc.c ****  * @param[in]   Timetype: Time Type, should be:
 438:../src/lib/lpc177x_8x/Drivers/source/lpc177x_8x_rtc.c ****  *              - RTC_TIMETYPE_SECOND
 439:../src/lib/lpc177x_8x/Drivers/source/lpc177x_8x_rtc.c ****  *              - RTC_TIMETYPE_MINUTE
 440:../src/lib/lpc177x_8x/Drivers/source/lpc177x_8x_rtc.c ****  *              - RTC_TIMETYPE_HOUR
 441:../src/lib/lpc177x_8x/Drivers/source/lpc177x_8x_rtc.c ****  *              - RTC_TIMETYPE_DAYOFWEEK
 442:../src/lib/lpc177x_8x/Drivers/source/lpc177x_8x_rtc.c ****  *              - RTC_TIMETYPE_DAYOFMONTH
 443:../src/lib/lpc177x_8x/Drivers/source/lpc177x_8x_rtc.c ****  *              - RTC_TIMETYPE_DAYOFYEAR
 444:../src/lib/lpc177x_8x/Drivers/source/lpc177x_8x_rtc.c ****  *              - RTC_TIMETYPE_MONTH
 445:../src/lib/lpc177x_8x/Drivers/source/lpc177x_8x_rtc.c ****  *              - RTC_TIMETYPE_YEAR
 446:../src/lib/lpc177x_8x/Drivers/source/lpc177x_8x_rtc.c ****  * @param[in]   ALValue Alarm time value to set
 447:../src/lib/lpc177x_8x/Drivers/source/lpc177x_8x_rtc.c ****  * @return      None
 448:../src/lib/lpc177x_8x/Drivers/source/lpc177x_8x_rtc.c ****  **********************************************************************/
 449:../src/lib/lpc177x_8x/Drivers/source/lpc177x_8x_rtc.c **** void RTC_SetAlarmTime (LPC_RTC_TypeDef *RTCx, uint32_t Timetype, uint32_t ALValue)
 450:../src/lib/lpc177x_8x/Drivers/source/lpc177x_8x_rtc.c **** {
 1226              		.loc 1 450 0
 1227              		.cfi_startproc
 1228              		@ args = 0, pretend = 0, frame = 16
 1229              		@ frame_needed = 1, uses_anonymous_args = 0
 1230              		@ link register save eliminated.
 1231 0758 80B4     		push	{r7}
 1232              	.LCFI30:
 1233              		.cfi_def_cfa_offset 4
 1234              		.cfi_offset 7, -4
 1235 075a 85B0     		sub	sp, sp, #20
 1236              	.LCFI31:
 1237              		.cfi_def_cfa_offset 24
 1238 075c 00AF     		add	r7, sp, #0
 1239              	.LCFI32:
 1240              		.cfi_def_cfa_register 7
 1241 075e F860     		str	r0, [r7, #12]
 1242 0760 B960     		str	r1, [r7, #8]
 1243 0762 7A60     		str	r2, [r7, #4]
 451:../src/lib/lpc177x_8x/Drivers/source/lpc177x_8x_rtc.c ****     switch (Timetype)
 1244              		.loc 1 451 0
 1245 0764 BB68     		ldr	r3, [r7, #8]
 1246 0766 072B     		cmp	r3, #7
 1247 0768 00F29380 		bhi	.L92
 1248 076c 01A2     		adr	r2, .L102
 1249 076e 52F823F0 		ldr	pc, [r2, r3, lsl #2]
 1250 0772 00BF     		.align	2
 1251              	.L102:
 1252 0774 95070000 		.word	.L94+1
 1253 0778 AD070000 		.word	.L95+1
 1254 077c C5070000 		.word	.L96+1
 1255 0780 DD070000 		.word	.L97+1
 1256 0784 F5070000 		.word	.L98+1
 1257 0788 13080000 		.word	.L99+1
 1258 078c 37080000 		.word	.L100+1
 1259 0790 55080000 		.word	.L101+1
 1260              	.L94:
 452:../src/lib/lpc177x_8x/Drivers/source/lpc177x_8x_rtc.c ****     {
 453:../src/lib/lpc177x_8x/Drivers/source/lpc177x_8x_rtc.c ****     case RTC_TIMETYPE_SECOND:
 454:../src/lib/lpc177x_8x/Drivers/source/lpc177x_8x_rtc.c ****         if(ALValue <= RTC_SECOND_MAX)
 1261              		.loc 1 454 0
 1262 0794 7B68     		ldr	r3, [r7, #4]
 1263 0796 3B2B     		cmp	r3, #59
 1264 0798 6CD8     		bhi	.L111
 455:../src/lib/lpc177x_8x/Drivers/source/lpc177x_8x_rtc.c ****             RTCx->ALSEC = ALValue & RTC_SEC_MASK;
 1265              		.loc 1 455 0
 1266 079a 7B68     		ldr	r3, [r7, #4]
 1267 079c DBB2     		uxtb	r3, r3
 1268 079e 03F03F03 		and	r3, r3, #63
 1269 07a2 DAB2     		uxtb	r2, r3
 1270 07a4 FB68     		ldr	r3, [r7, #12]
 1271 07a6 83F86020 		strb	r2, [r3, #96]
 456:../src/lib/lpc177x_8x/Drivers/source/lpc177x_8x_rtc.c ****         break;
 1272              		.loc 1 456 0
 1273 07aa 63E0     		b	.L111
 1274              	.L95:
 457:../src/lib/lpc177x_8x/Drivers/source/lpc177x_8x_rtc.c **** 
 458:../src/lib/lpc177x_8x/Drivers/source/lpc177x_8x_rtc.c ****     case RTC_TIMETYPE_MINUTE:
 459:../src/lib/lpc177x_8x/Drivers/source/lpc177x_8x_rtc.c ****         if(ALValue <= RTC_MINUTE_MAX)
 1275              		.loc 1 459 0
 1276 07ac 7B68     		ldr	r3, [r7, #4]
 1277 07ae 3B2B     		cmp	r3, #59
 1278 07b0 62D8     		bhi	.L112
 460:../src/lib/lpc177x_8x/Drivers/source/lpc177x_8x_rtc.c ****             RTCx->ALMIN = ALValue & RTC_MIN_MASK;
 1279              		.loc 1 460 0
 1280 07b2 7B68     		ldr	r3, [r7, #4]
 1281 07b4 DBB2     		uxtb	r3, r3
 1282 07b6 03F03F03 		and	r3, r3, #63
 1283 07ba DAB2     		uxtb	r2, r3
 1284 07bc FB68     		ldr	r3, [r7, #12]
 1285 07be 83F86420 		strb	r2, [r3, #100]
 461:../src/lib/lpc177x_8x/Drivers/source/lpc177x_8x_rtc.c ****         break;
 1286              		.loc 1 461 0
 1287 07c2 59E0     		b	.L112
 1288              	.L96:
 462:../src/lib/lpc177x_8x/Drivers/source/lpc177x_8x_rtc.c **** 
 463:../src/lib/lpc177x_8x/Drivers/source/lpc177x_8x_rtc.c ****     case RTC_TIMETYPE_HOUR:
 464:../src/lib/lpc177x_8x/Drivers/source/lpc177x_8x_rtc.c ****         if(ALValue <= RTC_HOUR_MAX)
 1289              		.loc 1 464 0
 1290 07c4 7B68     		ldr	r3, [r7, #4]
 1291 07c6 172B     		cmp	r3, #23
 1292 07c8 58D8     		bhi	.L113
 465:../src/lib/lpc177x_8x/Drivers/source/lpc177x_8x_rtc.c ****             RTCx->ALHOUR = ALValue & RTC_HOUR_MASK;
 1293              		.loc 1 465 0
 1294 07ca 7B68     		ldr	r3, [r7, #4]
 1295 07cc DBB2     		uxtb	r3, r3
 1296 07ce 03F01F03 		and	r3, r3, #31
 1297 07d2 DAB2     		uxtb	r2, r3
 1298 07d4 FB68     		ldr	r3, [r7, #12]
 1299 07d6 83F86820 		strb	r2, [r3, #104]
 466:../src/lib/lpc177x_8x/Drivers/source/lpc177x_8x_rtc.c ****         break;
 1300              		.loc 1 466 0
 1301 07da 4FE0     		b	.L113
 1302              	.L97:
 467:../src/lib/lpc177x_8x/Drivers/source/lpc177x_8x_rtc.c **** 
 468:../src/lib/lpc177x_8x/Drivers/source/lpc177x_8x_rtc.c ****     case RTC_TIMETYPE_DAYOFWEEK:
 469:../src/lib/lpc177x_8x/Drivers/source/lpc177x_8x_rtc.c ****         if(ALValue <= RTC_DAYOFWEEK_MAX)
 1303              		.loc 1 469 0
 1304 07dc 7B68     		ldr	r3, [r7, #4]
 1305 07de 062B     		cmp	r3, #6
 1306 07e0 4ED8     		bhi	.L114
 470:../src/lib/lpc177x_8x/Drivers/source/lpc177x_8x_rtc.c ****             RTCx->ALDOW = ALValue & RTC_DOW_MASK;
 1307              		.loc 1 470 0
 1308 07e2 7B68     		ldr	r3, [r7, #4]
 1309 07e4 DBB2     		uxtb	r3, r3
 1310 07e6 03F00703 		and	r3, r3, #7
 1311 07ea DAB2     		uxtb	r2, r3
 1312 07ec FB68     		ldr	r3, [r7, #12]
 1313 07ee 83F87020 		strb	r2, [r3, #112]
 471:../src/lib/lpc177x_8x/Drivers/source/lpc177x_8x_rtc.c ****         break;
 1314              		.loc 1 471 0
 1315 07f2 45E0     		b	.L114
 1316              	.L98:
 472:../src/lib/lpc177x_8x/Drivers/source/lpc177x_8x_rtc.c **** 
 473:../src/lib/lpc177x_8x/Drivers/source/lpc177x_8x_rtc.c ****     case RTC_TIMETYPE_DAYOFMONTH:
 474:../src/lib/lpc177x_8x/Drivers/source/lpc177x_8x_rtc.c ****         if((ALValue >= RTC_DAYOFMONTH_MIN)&&(ALValue <= RTC_DAYOFMONTH_MAX))
 1317              		.loc 1 474 0
 1318 07f4 7B68     		ldr	r3, [r7, #4]
 1319 07f6 002B     		cmp	r3, #0
 1320 07f8 44D0     		beq	.L115
 1321              		.loc 1 474 0 is_stmt 0 discriminator 1
 1322 07fa 7B68     		ldr	r3, [r7, #4]
 1323 07fc 1F2B     		cmp	r3, #31
 1324 07fe 41D8     		bhi	.L115
 475:../src/lib/lpc177x_8x/Drivers/source/lpc177x_8x_rtc.c ****             RTCx->ALDOM = ALValue & RTC_DOM_MASK;
 1325              		.loc 1 475 0 is_stmt 1
 1326 0800 7B68     		ldr	r3, [r7, #4]
 1327 0802 DBB2     		uxtb	r3, r3
 1328 0804 03F01F03 		and	r3, r3, #31
 1329 0808 DAB2     		uxtb	r2, r3
 1330 080a FB68     		ldr	r3, [r7, #12]
 1331 080c 83F86C20 		strb	r2, [r3, #108]
 476:../src/lib/lpc177x_8x/Drivers/source/lpc177x_8x_rtc.c ****         break;
 1332              		.loc 1 476 0
 1333 0810 38E0     		b	.L115
 1334              	.L99:
 477:../src/lib/lpc177x_8x/Drivers/source/lpc177x_8x_rtc.c **** 
 478:../src/lib/lpc177x_8x/Drivers/source/lpc177x_8x_rtc.c ****     case RTC_TIMETYPE_DAYOFYEAR:
 479:../src/lib/lpc177x_8x/Drivers/source/lpc177x_8x_rtc.c ****         if((ALValue >= RTC_DAYOFYEAR_MIN)&&(ALValue <= RTC_DAYOFYEAR_MAX))
 1335              		.loc 1 479 0
 1336 0812 7B68     		ldr	r3, [r7, #4]
 1337 0814 002B     		cmp	r3, #0
 1338 0816 37D0     		beq	.L116
 1339              		.loc 1 479 0 is_stmt 0 discriminator 1
 1340 0818 7B68     		ldr	r3, [r7, #4]
 1341 081a B3F5B77F 		cmp	r3, #366
 1342 081e 33D8     		bhi	.L116
 480:../src/lib/lpc177x_8x/Drivers/source/lpc177x_8x_rtc.c ****             RTCx->ALDOY = ALValue & RTC_DOY_MASK;
 1343              		.loc 1 480 0 is_stmt 1
 1344 0820 7B68     		ldr	r3, [r7, #4]
 1345 0822 9BB2     		uxth	r3, r3
 1346 0824 4FEAC353 		lsl	r3, r3, #23
 1347 0828 4FEAD353 		lsr	r3, r3, #23
 1348 082c 9AB2     		uxth	r2, r3
 1349 082e FB68     		ldr	r3, [r7, #12]
 1350 0830 A3F87420 		strh	r2, [r3, #116]	@ movhi
 481:../src/lib/lpc177x_8x/Drivers/source/lpc177x_8x_rtc.c ****         break;
 1351              		.loc 1 481 0
 1352 0834 28E0     		b	.L116
 1353              	.L100:
 482:../src/lib/lpc177x_8x/Drivers/source/lpc177x_8x_rtc.c **** 
 483:../src/lib/lpc177x_8x/Drivers/source/lpc177x_8x_rtc.c ****     case RTC_TIMETYPE_MONTH:
 484:../src/lib/lpc177x_8x/Drivers/source/lpc177x_8x_rtc.c ****         if((ALValue >= RTC_MONTH_MIN)&&(ALValue <= RTC_MONTH_MAX))
 1354              		.loc 1 484 0
 1355 0836 7B68     		ldr	r3, [r7, #4]
 1356 0838 002B     		cmp	r3, #0
 1357 083a 27D0     		beq	.L117
 1358              		.loc 1 484 0 is_stmt 0 discriminator 1
 1359 083c 7B68     		ldr	r3, [r7, #4]
 1360 083e 0C2B     		cmp	r3, #12
 1361 0840 24D8     		bhi	.L117
 485:../src/lib/lpc177x_8x/Drivers/source/lpc177x_8x_rtc.c ****             RTCx->ALMON = ALValue & RTC_MONTH_MASK;
 1362              		.loc 1 485 0 is_stmt 1
 1363 0842 7B68     		ldr	r3, [r7, #4]
 1364 0844 DBB2     		uxtb	r3, r3
 1365 0846 03F00F03 		and	r3, r3, #15
 1366 084a DAB2     		uxtb	r2, r3
 1367 084c FB68     		ldr	r3, [r7, #12]
 1368 084e 83F87820 		strb	r2, [r3, #120]
 486:../src/lib/lpc177x_8x/Drivers/source/lpc177x_8x_rtc.c ****         break;
 1369              		.loc 1 486 0
 1370 0852 1BE0     		b	.L117
 1371              	.L101:
 487:../src/lib/lpc177x_8x/Drivers/source/lpc177x_8x_rtc.c **** 
 488:../src/lib/lpc177x_8x/Drivers/source/lpc177x_8x_rtc.c ****     case RTC_TIMETYPE_YEAR:
 489:../src/lib/lpc177x_8x/Drivers/source/lpc177x_8x_rtc.c ****         if(ALValue <= RTC_YEAR_MAX)
 1372              		.loc 1 489 0
 1373 0854 7A68     		ldr	r2, [r7, #4]
 1374 0856 40F6FF73 		movw	r3, #4095
 1375 085a 9A42     		cmp	r2, r3
 1376 085c 18D8     		bhi	.L118
 490:../src/lib/lpc177x_8x/Drivers/source/lpc177x_8x_rtc.c ****             RTCx->ALYEAR = ALValue & RTC_YEAR_MASK;
 1377              		.loc 1 490 0
 1378 085e 7B68     		ldr	r3, [r7, #4]
 1379 0860 9BB2     		uxth	r3, r3
 1380 0862 4FEA0353 		lsl	r3, r3, #20
 1381 0866 4FEA1353 		lsr	r3, r3, #20
 1382 086a 9AB2     		uxth	r2, r3
 1383 086c FB68     		ldr	r3, [r7, #12]
 1384 086e A3F87C20 		strh	r2, [r3, #124]	@ movhi
 491:../src/lib/lpc177x_8x/Drivers/source/lpc177x_8x_rtc.c ****         break;
 1385              		.loc 1 491 0
 1386 0872 0DE0     		b	.L118
 1387              	.L111:
 456:../src/lib/lpc177x_8x/Drivers/source/lpc177x_8x_rtc.c ****         break;
 1388              		.loc 1 456 0
 1389 0874 00BF     		nop
 1390 0876 0CE0     		b	.L92
 1391              	.L112:
 461:../src/lib/lpc177x_8x/Drivers/source/lpc177x_8x_rtc.c ****         break;
 1392              		.loc 1 461 0
 1393 0878 00BF     		nop
 1394 087a 0AE0     		b	.L92
 1395              	.L113:
 466:../src/lib/lpc177x_8x/Drivers/source/lpc177x_8x_rtc.c ****         break;
 1396              		.loc 1 466 0
 1397 087c 00BF     		nop
 1398 087e 08E0     		b	.L92
 1399              	.L114:
 471:../src/lib/lpc177x_8x/Drivers/source/lpc177x_8x_rtc.c ****         break;
 1400              		.loc 1 471 0
 1401 0880 00BF     		nop
 1402 0882 06E0     		b	.L92
 1403              	.L115:
 476:../src/lib/lpc177x_8x/Drivers/source/lpc177x_8x_rtc.c ****         break;
 1404              		.loc 1 476 0
 1405 0884 00BF     		nop
 1406 0886 04E0     		b	.L92
 1407              	.L116:
 481:../src/lib/lpc177x_8x/Drivers/source/lpc177x_8x_rtc.c ****         break;
 1408              		.loc 1 481 0
 1409 0888 00BF     		nop
 1410 088a 02E0     		b	.L92
 1411              	.L117:
 486:../src/lib/lpc177x_8x/Drivers/source/lpc177x_8x_rtc.c ****         break;
 1412              		.loc 1 486 0
 1413 088c 00BF     		nop
 1414 088e 00E0     		b	.L92
 1415              	.L118:
 1416              		.loc 1 491 0
 1417 0890 00BF     		nop
 1418              	.L92:
 492:../src/lib/lpc177x_8x/Drivers/source/lpc177x_8x_rtc.c ****     }
 493:../src/lib/lpc177x_8x/Drivers/source/lpc177x_8x_rtc.c **** }
 1419              		.loc 1 493 0
 1420 0892 07F11407 		add	r7, r7, #20
 1421 0896 BD46     		mov	sp, r7
 1422 0898 80BC     		pop	{r7}
 1423 089a 7047     		bx	lr
 1424              		.cfi_endproc
 1425              	.LFE65:
 1427              		.align	2
 1428              		.global	RTC_GetAlarmTime
 1429              		.thumb
 1430              		.thumb_func
 1432              	RTC_GetAlarmTime:
 1433              	.LFB66:
 494:../src/lib/lpc177x_8x/Drivers/source/lpc177x_8x_rtc.c **** 
 495:../src/lib/lpc177x_8x/Drivers/source/lpc177x_8x_rtc.c **** 
 496:../src/lib/lpc177x_8x/Drivers/source/lpc177x_8x_rtc.c **** 
 497:../src/lib/lpc177x_8x/Drivers/source/lpc177x_8x_rtc.c **** /*********************************************************************//**
 498:../src/lib/lpc177x_8x/Drivers/source/lpc177x_8x_rtc.c ****  * @brief       Get alarm time value for each time type
 499:../src/lib/lpc177x_8x/Drivers/source/lpc177x_8x_rtc.c ****  * @param[in]   RTCx    RTC peripheral selected, should be LPC_RTC
 500:../src/lib/lpc177x_8x/Drivers/source/lpc177x_8x_rtc.c ****  * @param[in]   Timetype: Time Type, should be:
 501:../src/lib/lpc177x_8x/Drivers/source/lpc177x_8x_rtc.c ****  *              - RTC_TIMETYPE_SECOND
 502:../src/lib/lpc177x_8x/Drivers/source/lpc177x_8x_rtc.c ****  *              - RTC_TIMETYPE_MINUTE
 503:../src/lib/lpc177x_8x/Drivers/source/lpc177x_8x_rtc.c ****  *              - RTC_TIMETYPE_HOUR
 504:../src/lib/lpc177x_8x/Drivers/source/lpc177x_8x_rtc.c ****  *              - RTC_TIMETYPE_DAYOFWEEK
 505:../src/lib/lpc177x_8x/Drivers/source/lpc177x_8x_rtc.c ****  *              - RTC_TIMETYPE_DAYOFMONTH
 506:../src/lib/lpc177x_8x/Drivers/source/lpc177x_8x_rtc.c ****  *              - RTC_TIMETYPE_DAYOFYEAR
 507:../src/lib/lpc177x_8x/Drivers/source/lpc177x_8x_rtc.c ****  *              - RTC_TIMETYPE_MONTH
 508:../src/lib/lpc177x_8x/Drivers/source/lpc177x_8x_rtc.c ****  *              - RTC_TIMETYPE_YEAR
 509:../src/lib/lpc177x_8x/Drivers/source/lpc177x_8x_rtc.c ****   * @return     Value of Alarm time according to specified time type
 510:../src/lib/lpc177x_8x/Drivers/source/lpc177x_8x_rtc.c ****  **********************************************************************/
 511:../src/lib/lpc177x_8x/Drivers/source/lpc177x_8x_rtc.c **** uint32_t RTC_GetAlarmTime (LPC_RTC_TypeDef *RTCx, uint32_t Timetype)
 512:../src/lib/lpc177x_8x/Drivers/source/lpc177x_8x_rtc.c **** {
 1434              		.loc 1 512 0
 1435              		.cfi_startproc
 1436              		@ args = 0, pretend = 0, frame = 8
 1437              		@ frame_needed = 1, uses_anonymous_args = 0
 1438              		@ link register save eliminated.
 1439 089c 80B4     		push	{r7}
 1440              	.LCFI33:
 1441              		.cfi_def_cfa_offset 4
 1442              		.cfi_offset 7, -4
 1443 089e 83B0     		sub	sp, sp, #12
 1444              	.LCFI34:
 1445              		.cfi_def_cfa_offset 16
 1446 08a0 00AF     		add	r7, sp, #0
 1447              	.LCFI35:
 1448              		.cfi_def_cfa_register 7
 1449 08a2 7860     		str	r0, [r7, #4]
 1450 08a4 3960     		str	r1, [r7, #0]
 513:../src/lib/lpc177x_8x/Drivers/source/lpc177x_8x_rtc.c ****     switch (Timetype)
 1451              		.loc 1 513 0
 1452 08a6 3B68     		ldr	r3, [r7, #0]
 1453 08a8 072B     		cmp	r3, #7
 1454 08aa 4FD8     		bhi	.L120
 1455 08ac 01A2     		adr	r2, .L129
 1456 08ae 52F823F0 		ldr	pc, [r2, r3, lsl #2]
 1457 08b2 00BF     		.align	2
 1458              	.L129:
 1459 08b4 D5080000 		.word	.L121+1
 1460 08b8 E3080000 		.word	.L122+1
 1461 08bc F1080000 		.word	.L123+1
 1462 08c0 FF080000 		.word	.L124+1
 1463 08c4 0D090000 		.word	.L125+1
 1464 08c8 1B090000 		.word	.L126+1
 1465 08cc 2D090000 		.word	.L127+1
 1466 08d0 3B090000 		.word	.L128+1
 1467              	.L121:
 514:../src/lib/lpc177x_8x/Drivers/source/lpc177x_8x_rtc.c ****     {
 515:../src/lib/lpc177x_8x/Drivers/source/lpc177x_8x_rtc.c ****     case RTC_TIMETYPE_SECOND:
 516:../src/lib/lpc177x_8x/Drivers/source/lpc177x_8x_rtc.c ****         return (RTCx->ALSEC & RTC_SEC_MASK);
 1468              		.loc 1 516 0
 1469 08d4 7B68     		ldr	r3, [r7, #4]
 1470 08d6 93F86030 		ldrb	r3, [r3, #96]
 1471 08da DBB2     		uxtb	r3, r3
 1472 08dc 03F03F03 		and	r3, r3, #63
 1473 08e0 36E0     		b	.L130
 1474              	.L122:
 517:../src/lib/lpc177x_8x/Drivers/source/lpc177x_8x_rtc.c ****     case RTC_TIMETYPE_MINUTE:
 518:../src/lib/lpc177x_8x/Drivers/source/lpc177x_8x_rtc.c ****         return (RTCx->ALMIN & RTC_MIN_MASK);
 1475              		.loc 1 518 0
 1476 08e2 7B68     		ldr	r3, [r7, #4]
 1477 08e4 93F86430 		ldrb	r3, [r3, #100]
 1478 08e8 DBB2     		uxtb	r3, r3
 1479 08ea 03F03F03 		and	r3, r3, #63
 1480 08ee 2FE0     		b	.L130
 1481              	.L123:
 519:../src/lib/lpc177x_8x/Drivers/source/lpc177x_8x_rtc.c ****     case RTC_TIMETYPE_HOUR:
 520:../src/lib/lpc177x_8x/Drivers/source/lpc177x_8x_rtc.c ****         return (RTCx->ALHOUR & RTC_HOUR_MASK);
 1482              		.loc 1 520 0
 1483 08f0 7B68     		ldr	r3, [r7, #4]
 1484 08f2 93F86830 		ldrb	r3, [r3, #104]
 1485 08f6 DBB2     		uxtb	r3, r3
 1486 08f8 03F01F03 		and	r3, r3, #31
 1487 08fc 28E0     		b	.L130
 1488              	.L124:
 521:../src/lib/lpc177x_8x/Drivers/source/lpc177x_8x_rtc.c ****     case RTC_TIMETYPE_DAYOFWEEK:
 522:../src/lib/lpc177x_8x/Drivers/source/lpc177x_8x_rtc.c ****         return (RTCx->ALDOW & RTC_DOW_MASK);
 1489              		.loc 1 522 0
 1490 08fe 7B68     		ldr	r3, [r7, #4]
 1491 0900 93F87030 		ldrb	r3, [r3, #112]
 1492 0904 DBB2     		uxtb	r3, r3
 1493 0906 03F00703 		and	r3, r3, #7
 1494 090a 21E0     		b	.L130
 1495              	.L125:
 523:../src/lib/lpc177x_8x/Drivers/source/lpc177x_8x_rtc.c ****     case RTC_TIMETYPE_DAYOFMONTH:
 524:../src/lib/lpc177x_8x/Drivers/source/lpc177x_8x_rtc.c ****         return (RTCx->ALDOM & RTC_DOM_MASK);
 1496              		.loc 1 524 0
 1497 090c 7B68     		ldr	r3, [r7, #4]
 1498 090e 93F86C30 		ldrb	r3, [r3, #108]
 1499 0912 DBB2     		uxtb	r3, r3
 1500 0914 03F01F03 		and	r3, r3, #31
 1501 0918 1AE0     		b	.L130
 1502              	.L126:
 525:../src/lib/lpc177x_8x/Drivers/source/lpc177x_8x_rtc.c ****     case RTC_TIMETYPE_DAYOFYEAR:
 526:../src/lib/lpc177x_8x/Drivers/source/lpc177x_8x_rtc.c ****         return (RTCx->ALDOY & RTC_DOY_MASK);
 1503              		.loc 1 526 0
 1504 091a 7B68     		ldr	r3, [r7, #4]
 1505 091c B3F87430 		ldrh	r3, [r3, #116]	@ movhi
 1506 0920 9BB2     		uxth	r3, r3
 1507 0922 4FEAC353 		lsl	r3, r3, #23
 1508 0926 4FEAD353 		lsr	r3, r3, #23
 1509 092a 11E0     		b	.L130
 1510              	.L127:
 527:../src/lib/lpc177x_8x/Drivers/source/lpc177x_8x_rtc.c ****     case RTC_TIMETYPE_MONTH:
 528:../src/lib/lpc177x_8x/Drivers/source/lpc177x_8x_rtc.c ****         return (RTCx->ALMON & RTC_MONTH_MASK);
 1511              		.loc 1 528 0
 1512 092c 7B68     		ldr	r3, [r7, #4]
 1513 092e 93F87830 		ldrb	r3, [r3, #120]
 1514 0932 DBB2     		uxtb	r3, r3
 1515 0934 03F00F03 		and	r3, r3, #15
 1516 0938 0AE0     		b	.L130
 1517              	.L128:
 529:../src/lib/lpc177x_8x/Drivers/source/lpc177x_8x_rtc.c ****     case RTC_TIMETYPE_YEAR:
 530:../src/lib/lpc177x_8x/Drivers/source/lpc177x_8x_rtc.c ****         return (RTCx->ALYEAR & RTC_YEAR_MASK);
 1518              		.loc 1 530 0
 1519 093a 7B68     		ldr	r3, [r7, #4]
 1520 093c B3F87C30 		ldrh	r3, [r3, #124]	@ movhi
 1521 0940 9BB2     		uxth	r3, r3
 1522 0942 4FEA0353 		lsl	r3, r3, #20
 1523 0946 4FEA1353 		lsr	r3, r3, #20
 1524 094a 01E0     		b	.L130
 1525              	.L120:
 531:../src/lib/lpc177x_8x/Drivers/source/lpc177x_8x_rtc.c ****     default:
 532:../src/lib/lpc177x_8x/Drivers/source/lpc177x_8x_rtc.c ****         return (0);
 1526              		.loc 1 532 0
 1527 094c 4FF00003 		mov	r3, #0
 1528              	.L130:
 533:../src/lib/lpc177x_8x/Drivers/source/lpc177x_8x_rtc.c ****     }
 534:../src/lib/lpc177x_8x/Drivers/source/lpc177x_8x_rtc.c **** }
 1529              		.loc 1 534 0
 1530 0950 1846     		mov	r0, r3
 1531 0952 07F10C07 		add	r7, r7, #12
 1532 0956 BD46     		mov	sp, r7
 1533 0958 80BC     		pop	{r7}
 1534 095a 7047     		bx	lr
 1535              		.cfi_endproc
 1536              	.LFE66:
 1538              		.align	2
 1539              		.global	RTC_SetFullAlarmTime
 1540              		.thumb
 1541              		.thumb_func
 1543              	RTC_SetFullAlarmTime:
 1544              	.LFB67:
 535:../src/lib/lpc177x_8x/Drivers/source/lpc177x_8x_rtc.c **** 
 536:../src/lib/lpc177x_8x/Drivers/source/lpc177x_8x_rtc.c **** 
 537:../src/lib/lpc177x_8x/Drivers/source/lpc177x_8x_rtc.c **** /*********************************************************************//**
 538:../src/lib/lpc177x_8x/Drivers/source/lpc177x_8x_rtc.c ****  * @brief       Set full of alarm time in RTC peripheral
 539:../src/lib/lpc177x_8x/Drivers/source/lpc177x_8x_rtc.c ****  * @param[in]   RTCx    RTC peripheral selected, should be LPC_RTC
 540:../src/lib/lpc177x_8x/Drivers/source/lpc177x_8x_rtc.c ****  * @param[in]   pFullTime Pointer to a RTC_TIME_Type structure that
 541:../src/lib/lpc177x_8x/Drivers/source/lpc177x_8x_rtc.c ****  *              contains alarm time value in full.
 542:../src/lib/lpc177x_8x/Drivers/source/lpc177x_8x_rtc.c ****  * @return      None
 543:../src/lib/lpc177x_8x/Drivers/source/lpc177x_8x_rtc.c ****  **********************************************************************/
 544:../src/lib/lpc177x_8x/Drivers/source/lpc177x_8x_rtc.c **** void RTC_SetFullAlarmTime (LPC_RTC_TypeDef *RTCx, RTC_TIME_Type *pFullTime)
 545:../src/lib/lpc177x_8x/Drivers/source/lpc177x_8x_rtc.c **** {
 1545              		.loc 1 545 0
 1546              		.cfi_startproc
 1547              		@ args = 0, pretend = 0, frame = 8
 1548              		@ frame_needed = 1, uses_anonymous_args = 0
 1549              		@ link register save eliminated.
 1550 095c 80B4     		push	{r7}
 1551              	.LCFI36:
 1552              		.cfi_def_cfa_offset 4
 1553              		.cfi_offset 7, -4
 1554 095e 83B0     		sub	sp, sp, #12
 1555              	.LCFI37:
 1556              		.cfi_def_cfa_offset 16
 1557 0960 00AF     		add	r7, sp, #0
 1558              	.LCFI38:
 1559              		.cfi_def_cfa_register 7
 1560 0962 7860     		str	r0, [r7, #4]
 1561 0964 3960     		str	r1, [r7, #0]
 546:../src/lib/lpc177x_8x/Drivers/source/lpc177x_8x_rtc.c ****     RTCx->ALDOM = pFullTime->DOM & RTC_DOM_MASK;
 1562              		.loc 1 546 0
 1563 0966 3B68     		ldr	r3, [r7, #0]
 1564 0968 DB68     		ldr	r3, [r3, #12]
 1565 096a DBB2     		uxtb	r3, r3
 1566 096c 03F01F03 		and	r3, r3, #31
 1567 0970 DAB2     		uxtb	r2, r3
 1568 0972 7B68     		ldr	r3, [r7, #4]
 1569 0974 83F86C20 		strb	r2, [r3, #108]
 547:../src/lib/lpc177x_8x/Drivers/source/lpc177x_8x_rtc.c ****     RTCx->ALDOW = pFullTime->DOW & RTC_DOW_MASK;
 1570              		.loc 1 547 0
 1571 0978 3B68     		ldr	r3, [r7, #0]
 1572 097a 1B69     		ldr	r3, [r3, #16]
 1573 097c DBB2     		uxtb	r3, r3
 1574 097e 03F00703 		and	r3, r3, #7
 1575 0982 DAB2     		uxtb	r2, r3
 1576 0984 7B68     		ldr	r3, [r7, #4]
 1577 0986 83F87020 		strb	r2, [r3, #112]
 548:../src/lib/lpc177x_8x/Drivers/source/lpc177x_8x_rtc.c ****     RTCx->ALDOY = pFullTime->DOY & RTC_DOY_MASK;
 1578              		.loc 1 548 0
 1579 098a 3B68     		ldr	r3, [r7, #0]
 1580 098c 5B69     		ldr	r3, [r3, #20]
 1581 098e 9BB2     		uxth	r3, r3
 1582 0990 4FEAC353 		lsl	r3, r3, #23
 1583 0994 4FEAD353 		lsr	r3, r3, #23
 1584 0998 9AB2     		uxth	r2, r3
 1585 099a 7B68     		ldr	r3, [r7, #4]
 1586 099c A3F87420 		strh	r2, [r3, #116]	@ movhi
 549:../src/lib/lpc177x_8x/Drivers/source/lpc177x_8x_rtc.c ****     RTCx->ALHOUR = pFullTime->HOUR & RTC_HOUR_MASK;
 1587              		.loc 1 549 0
 1588 09a0 3B68     		ldr	r3, [r7, #0]
 1589 09a2 9B68     		ldr	r3, [r3, #8]
 1590 09a4 DBB2     		uxtb	r3, r3
 1591 09a6 03F01F03 		and	r3, r3, #31
 1592 09aa DAB2     		uxtb	r2, r3
 1593 09ac 7B68     		ldr	r3, [r7, #4]
 1594 09ae 83F86820 		strb	r2, [r3, #104]
 550:../src/lib/lpc177x_8x/Drivers/source/lpc177x_8x_rtc.c ****     RTCx->ALMIN = pFullTime->MIN & RTC_MIN_MASK;
 1595              		.loc 1 550 0
 1596 09b2 3B68     		ldr	r3, [r7, #0]
 1597 09b4 5B68     		ldr	r3, [r3, #4]
 1598 09b6 DBB2     		uxtb	r3, r3
 1599 09b8 03F03F03 		and	r3, r3, #63
 1600 09bc DAB2     		uxtb	r2, r3
 1601 09be 7B68     		ldr	r3, [r7, #4]
 1602 09c0 83F86420 		strb	r2, [r3, #100]
 551:../src/lib/lpc177x_8x/Drivers/source/lpc177x_8x_rtc.c ****     RTCx->ALSEC = pFullTime->SEC & RTC_SEC_MASK;
 1603              		.loc 1 551 0
 1604 09c4 3B68     		ldr	r3, [r7, #0]
 1605 09c6 1B68     		ldr	r3, [r3, #0]
 1606 09c8 DBB2     		uxtb	r3, r3
 1607 09ca 03F03F03 		and	r3, r3, #63
 1608 09ce DAB2     		uxtb	r2, r3
 1609 09d0 7B68     		ldr	r3, [r7, #4]
 1610 09d2 83F86020 		strb	r2, [r3, #96]
 552:../src/lib/lpc177x_8x/Drivers/source/lpc177x_8x_rtc.c ****     RTCx->ALMON = pFullTime->MONTH & RTC_MONTH_MASK;
 1611              		.loc 1 552 0
 1612 09d6 3B68     		ldr	r3, [r7, #0]
 1613 09d8 9B69     		ldr	r3, [r3, #24]
 1614 09da DBB2     		uxtb	r3, r3
 1615 09dc 03F00F03 		and	r3, r3, #15
 1616 09e0 DAB2     		uxtb	r2, r3
 1617 09e2 7B68     		ldr	r3, [r7, #4]
 1618 09e4 83F87820 		strb	r2, [r3, #120]
 553:../src/lib/lpc177x_8x/Drivers/source/lpc177x_8x_rtc.c ****     RTCx->ALYEAR = pFullTime->YEAR & RTC_YEAR_MASK;
 1619              		.loc 1 553 0
 1620 09e8 3B68     		ldr	r3, [r7, #0]
 1621 09ea DB69     		ldr	r3, [r3, #28]
 1622 09ec 9BB2     		uxth	r3, r3
 1623 09ee 4FEA0353 		lsl	r3, r3, #20
 1624 09f2 4FEA1353 		lsr	r3, r3, #20
 1625 09f6 9AB2     		uxth	r2, r3
 1626 09f8 7B68     		ldr	r3, [r7, #4]
 1627 09fa A3F87C20 		strh	r2, [r3, #124]	@ movhi
 554:../src/lib/lpc177x_8x/Drivers/source/lpc177x_8x_rtc.c **** }
 1628              		.loc 1 554 0
 1629 09fe 07F10C07 		add	r7, r7, #12
 1630 0a02 BD46     		mov	sp, r7
 1631 0a04 80BC     		pop	{r7}
 1632 0a06 7047     		bx	lr
 1633              		.cfi_endproc
 1634              	.LFE67:
 1636              		.align	2
 1637              		.global	RTC_GetFullAlarmTime
 1638              		.thumb
 1639              		.thumb_func
 1641              	RTC_GetFullAlarmTime:
 1642              	.LFB68:
 555:../src/lib/lpc177x_8x/Drivers/source/lpc177x_8x_rtc.c **** 
 556:../src/lib/lpc177x_8x/Drivers/source/lpc177x_8x_rtc.c **** 
 557:../src/lib/lpc177x_8x/Drivers/source/lpc177x_8x_rtc.c **** /*********************************************************************//**
 558:../src/lib/lpc177x_8x/Drivers/source/lpc177x_8x_rtc.c ****  * @brief       Get full of alarm time in RTC peripheral
 559:../src/lib/lpc177x_8x/Drivers/source/lpc177x_8x_rtc.c ****  * @param[in]   RTCx    RTC peripheral selected, should be LPC_RTC
 560:../src/lib/lpc177x_8x/Drivers/source/lpc177x_8x_rtc.c ****  * @param[in]   pFullTime Pointer to a RTC_TIME_Type structure that
 561:../src/lib/lpc177x_8x/Drivers/source/lpc177x_8x_rtc.c ****  *              will be stored alarm time in full.
 562:../src/lib/lpc177x_8x/Drivers/source/lpc177x_8x_rtc.c ****  * @return      None
 563:../src/lib/lpc177x_8x/Drivers/source/lpc177x_8x_rtc.c ****  **********************************************************************/
 564:../src/lib/lpc177x_8x/Drivers/source/lpc177x_8x_rtc.c **** void RTC_GetFullAlarmTime (LPC_RTC_TypeDef *RTCx, RTC_TIME_Type *pFullTime)
 565:../src/lib/lpc177x_8x/Drivers/source/lpc177x_8x_rtc.c **** {
 1643              		.loc 1 565 0
 1644              		.cfi_startproc
 1645              		@ args = 0, pretend = 0, frame = 8
 1646              		@ frame_needed = 1, uses_anonymous_args = 0
 1647              		@ link register save eliminated.
 1648 0a08 80B4     		push	{r7}
 1649              	.LCFI39:
 1650              		.cfi_def_cfa_offset 4
 1651              		.cfi_offset 7, -4
 1652 0a0a 83B0     		sub	sp, sp, #12
 1653              	.LCFI40:
 1654              		.cfi_def_cfa_offset 16
 1655 0a0c 00AF     		add	r7, sp, #0
 1656              	.LCFI41:
 1657              		.cfi_def_cfa_register 7
 1658 0a0e 7860     		str	r0, [r7, #4]
 1659 0a10 3960     		str	r1, [r7, #0]
 566:../src/lib/lpc177x_8x/Drivers/source/lpc177x_8x_rtc.c ****     pFullTime->DOM = RTCx->ALDOM & RTC_DOM_MASK;
 1660              		.loc 1 566 0
 1661 0a12 7B68     		ldr	r3, [r7, #4]
 1662 0a14 93F86C30 		ldrb	r3, [r3, #108]
 1663 0a18 DBB2     		uxtb	r3, r3
 1664 0a1a 03F01F02 		and	r2, r3, #31
 1665 0a1e 3B68     		ldr	r3, [r7, #0]
 1666 0a20 DA60     		str	r2, [r3, #12]
 567:../src/lib/lpc177x_8x/Drivers/source/lpc177x_8x_rtc.c ****     pFullTime->DOW = RTCx->ALDOW & RTC_DOW_MASK;
 1667              		.loc 1 567 0
 1668 0a22 7B68     		ldr	r3, [r7, #4]
 1669 0a24 93F87030 		ldrb	r3, [r3, #112]
 1670 0a28 DBB2     		uxtb	r3, r3
 1671 0a2a 03F00702 		and	r2, r3, #7
 1672 0a2e 3B68     		ldr	r3, [r7, #0]
 1673 0a30 1A61     		str	r2, [r3, #16]
 568:../src/lib/lpc177x_8x/Drivers/source/lpc177x_8x_rtc.c ****     pFullTime->DOY = RTCx->ALDOY & RTC_DOY_MASK;
 1674              		.loc 1 568 0
 1675 0a32 7B68     		ldr	r3, [r7, #4]
 1676 0a34 B3F87430 		ldrh	r3, [r3, #116]	@ movhi
 1677 0a38 9BB2     		uxth	r3, r3
 1678 0a3a 4FEAC353 		lsl	r3, r3, #23
 1679 0a3e 4FEAD353 		lsr	r3, r3, #23
 1680 0a42 3A68     		ldr	r2, [r7, #0]
 1681 0a44 5361     		str	r3, [r2, #20]
 569:../src/lib/lpc177x_8x/Drivers/source/lpc177x_8x_rtc.c ****     pFullTime->HOUR = RTCx->ALHOUR & RTC_HOUR_MASK;
 1682              		.loc 1 569 0
 1683 0a46 7B68     		ldr	r3, [r7, #4]
 1684 0a48 93F86830 		ldrb	r3, [r3, #104]
 1685 0a4c DBB2     		uxtb	r3, r3
 1686 0a4e 03F01F02 		and	r2, r3, #31
 1687 0a52 3B68     		ldr	r3, [r7, #0]
 1688 0a54 9A60     		str	r2, [r3, #8]
 570:../src/lib/lpc177x_8x/Drivers/source/lpc177x_8x_rtc.c ****     pFullTime->MIN = RTCx->ALMIN & RTC_MIN_MASK;
 1689              		.loc 1 570 0
 1690 0a56 7B68     		ldr	r3, [r7, #4]
 1691 0a58 93F86430 		ldrb	r3, [r3, #100]
 1692 0a5c DBB2     		uxtb	r3, r3
 1693 0a5e 03F03F02 		and	r2, r3, #63
 1694 0a62 3B68     		ldr	r3, [r7, #0]
 1695 0a64 5A60     		str	r2, [r3, #4]
 571:../src/lib/lpc177x_8x/Drivers/source/lpc177x_8x_rtc.c ****     pFullTime->SEC = RTCx->ALSEC & RTC_SEC_MASK;
 1696              		.loc 1 571 0
 1697 0a66 7B68     		ldr	r3, [r7, #4]
 1698 0a68 93F86030 		ldrb	r3, [r3, #96]
 1699 0a6c DBB2     		uxtb	r3, r3
 1700 0a6e 03F03F02 		and	r2, r3, #63
 1701 0a72 3B68     		ldr	r3, [r7, #0]
 1702 0a74 1A60     		str	r2, [r3, #0]
 572:../src/lib/lpc177x_8x/Drivers/source/lpc177x_8x_rtc.c ****     pFullTime->MONTH = RTCx->ALMON & RTC_MONTH_MASK;
 1703              		.loc 1 572 0
 1704 0a76 7B68     		ldr	r3, [r7, #4]
 1705 0a78 93F87830 		ldrb	r3, [r3, #120]
 1706 0a7c DBB2     		uxtb	r3, r3
 1707 0a7e 03F00F02 		and	r2, r3, #15
 1708 0a82 3B68     		ldr	r3, [r7, #0]
 1709 0a84 9A61     		str	r2, [r3, #24]
 573:../src/lib/lpc177x_8x/Drivers/source/lpc177x_8x_rtc.c ****     pFullTime->YEAR = RTCx->ALYEAR & RTC_YEAR_MASK;
 1710              		.loc 1 573 0
 1711 0a86 7B68     		ldr	r3, [r7, #4]
 1712 0a88 B3F87C30 		ldrh	r3, [r3, #124]	@ movhi
 1713 0a8c 9BB2     		uxth	r3, r3
 1714 0a8e 4FEA0353 		lsl	r3, r3, #20
 1715 0a92 4FEA1353 		lsr	r3, r3, #20
 1716 0a96 3A68     		ldr	r2, [r7, #0]
 1717 0a98 D361     		str	r3, [r2, #28]
 574:../src/lib/lpc177x_8x/Drivers/source/lpc177x_8x_rtc.c **** }
 1718              		.loc 1 574 0
 1719 0a9a 07F10C07 		add	r7, r7, #12
 1720 0a9e BD46     		mov	sp, r7
 1721 0aa0 80BC     		pop	{r7}
 1722 0aa2 7047     		bx	lr
 1723              		.cfi_endproc
 1724              	.LFE68:
 1726              		.align	2
 1727              		.global	RTC_GetIntPending
 1728              		.thumb
 1729              		.thumb_func
 1731              	RTC_GetIntPending:
 1732              	.LFB69:
 575:../src/lib/lpc177x_8x/Drivers/source/lpc177x_8x_rtc.c **** 
 576:../src/lib/lpc177x_8x/Drivers/source/lpc177x_8x_rtc.c **** 
 577:../src/lib/lpc177x_8x/Drivers/source/lpc177x_8x_rtc.c **** /*********************************************************************//**
 578:../src/lib/lpc177x_8x/Drivers/source/lpc177x_8x_rtc.c ****  * @brief       Check whether if specified Location interrupt in
 579:../src/lib/lpc177x_8x/Drivers/source/lpc177x_8x_rtc.c ****  *              RTC peripheral is set or not
 580:../src/lib/lpc177x_8x/Drivers/source/lpc177x_8x_rtc.c ****  * @param[in]   RTCx    RTC peripheral selected, should be LPC_RTC
 581:../src/lib/lpc177x_8x/Drivers/source/lpc177x_8x_rtc.c ****  * @param[in]   IntType Interrupt location type, should be:
 582:../src/lib/lpc177x_8x/Drivers/source/lpc177x_8x_rtc.c ****  *                      - RTC_INT_COUNTER_INCREASE: Counter Increment Interrupt
 583:../src/lib/lpc177x_8x/Drivers/source/lpc177x_8x_rtc.c ****  *                          block generated an interrupt.
 584:../src/lib/lpc177x_8x/Drivers/source/lpc177x_8x_rtc.c ****  *                      - RTC_INT_ALARM: Alarm generated an
 585:../src/lib/lpc177x_8x/Drivers/source/lpc177x_8x_rtc.c ****  *                          interrupt.
 586:../src/lib/lpc177x_8x/Drivers/source/lpc177x_8x_rtc.c ****  * @return      New state of specified Location interrupt in RTC peripheral
 587:../src/lib/lpc177x_8x/Drivers/source/lpc177x_8x_rtc.c ****  *              (SET or RESET)
 588:../src/lib/lpc177x_8x/Drivers/source/lpc177x_8x_rtc.c ****  **********************************************************************/
 589:../src/lib/lpc177x_8x/Drivers/source/lpc177x_8x_rtc.c **** IntStatus RTC_GetIntPending (LPC_RTC_TypeDef *RTCx, uint32_t IntType)
 590:../src/lib/lpc177x_8x/Drivers/source/lpc177x_8x_rtc.c **** {
 1733              		.loc 1 590 0
 1734              		.cfi_startproc
 1735              		@ args = 0, pretend = 0, frame = 8
 1736              		@ frame_needed = 1, uses_anonymous_args = 0
 1737              		@ link register save eliminated.
 1738 0aa4 80B4     		push	{r7}
 1739              	.LCFI42:
 1740              		.cfi_def_cfa_offset 4
 1741              		.cfi_offset 7, -4
 1742 0aa6 83B0     		sub	sp, sp, #12
 1743              	.LCFI43:
 1744              		.cfi_def_cfa_offset 16
 1745 0aa8 00AF     		add	r7, sp, #0
 1746              	.LCFI44:
 1747              		.cfi_def_cfa_register 7
 1748 0aaa 7860     		str	r0, [r7, #4]
 1749 0aac 3960     		str	r1, [r7, #0]
 591:../src/lib/lpc177x_8x/Drivers/source/lpc177x_8x_rtc.c ****     return ((RTCx->ILR & IntType) ? SET : RESET);
 1750              		.loc 1 591 0
 1751 0aae 7B68     		ldr	r3, [r7, #4]
 1752 0ab0 1B78     		ldrb	r3, [r3, #0]
 1753 0ab2 DBB2     		uxtb	r3, r3
 1754 0ab4 1A46     		mov	r2, r3
 1755 0ab6 3B68     		ldr	r3, [r7, #0]
 1756 0ab8 1340     		ands	r3, r3, r2
 1757 0aba 002B     		cmp	r3, #0
 1758 0abc 0CBF     		ite	eq
 1759 0abe 0023     		moveq	r3, #0
 1760 0ac0 0123     		movne	r3, #1
 1761 0ac2 DBB2     		uxtb	r3, r3
 592:../src/lib/lpc177x_8x/Drivers/source/lpc177x_8x_rtc.c **** }
 1762              		.loc 1 592 0
 1763 0ac4 1846     		mov	r0, r3
 1764 0ac6 07F10C07 		add	r7, r7, #12
 1765 0aca BD46     		mov	sp, r7
 1766 0acc 80BC     		pop	{r7}
 1767 0ace 7047     		bx	lr
 1768              		.cfi_endproc
 1769              	.LFE69:
 1771              		.align	2
 1772              		.global	RTC_ClearIntPending
 1773              		.thumb
 1774              		.thumb_func
 1776              	RTC_ClearIntPending:
 1777              	.LFB70:
 593:../src/lib/lpc177x_8x/Drivers/source/lpc177x_8x_rtc.c **** 
 594:../src/lib/lpc177x_8x/Drivers/source/lpc177x_8x_rtc.c **** 
 595:../src/lib/lpc177x_8x/Drivers/source/lpc177x_8x_rtc.c **** /*********************************************************************//**
 596:../src/lib/lpc177x_8x/Drivers/source/lpc177x_8x_rtc.c ****  * @brief       Clear specified Location interrupt pending in
 597:../src/lib/lpc177x_8x/Drivers/source/lpc177x_8x_rtc.c ****  *              RTC peripheral
 598:../src/lib/lpc177x_8x/Drivers/source/lpc177x_8x_rtc.c ****  * @param[in]   RTCx    RTC peripheral selected, should be LPC_RTC
 599:../src/lib/lpc177x_8x/Drivers/source/lpc177x_8x_rtc.c ****  * @param[in]   IntType Interrupt location type, should be:
 600:../src/lib/lpc177x_8x/Drivers/source/lpc177x_8x_rtc.c ****  *                      - RTC_INT_COUNTER_INCREASE: Clear Counter Increment
 601:../src/lib/lpc177x_8x/Drivers/source/lpc177x_8x_rtc.c ****  *                      Interrupt pending.
 602:../src/lib/lpc177x_8x/Drivers/source/lpc177x_8x_rtc.c ****  *                      - RTC_INT_ALARM: Clear alarm interrupt pending
 603:../src/lib/lpc177x_8x/Drivers/source/lpc177x_8x_rtc.c ****  * @return      None
 604:../src/lib/lpc177x_8x/Drivers/source/lpc177x_8x_rtc.c ****  **********************************************************************/
 605:../src/lib/lpc177x_8x/Drivers/source/lpc177x_8x_rtc.c **** void RTC_ClearIntPending (LPC_RTC_TypeDef *RTCx, uint32_t IntType)
 606:../src/lib/lpc177x_8x/Drivers/source/lpc177x_8x_rtc.c **** {
 1778              		.loc 1 606 0
 1779              		.cfi_startproc
 1780              		@ args = 0, pretend = 0, frame = 8
 1781              		@ frame_needed = 1, uses_anonymous_args = 0
 1782              		@ link register save eliminated.
 1783 0ad0 80B4     		push	{r7}
 1784              	.LCFI45:
 1785              		.cfi_def_cfa_offset 4
 1786              		.cfi_offset 7, -4
 1787 0ad2 83B0     		sub	sp, sp, #12
 1788              	.LCFI46:
 1789              		.cfi_def_cfa_offset 16
 1790 0ad4 00AF     		add	r7, sp, #0
 1791              	.LCFI47:
 1792              		.cfi_def_cfa_register 7
 1793 0ad6 7860     		str	r0, [r7, #4]
 1794 0ad8 3960     		str	r1, [r7, #0]
 607:../src/lib/lpc177x_8x/Drivers/source/lpc177x_8x_rtc.c ****     RTCx->ILR |= IntType;
 1795              		.loc 1 607 0
 1796 0ada 7B68     		ldr	r3, [r7, #4]
 1797 0adc 1B78     		ldrb	r3, [r3, #0]
 1798 0ade DAB2     		uxtb	r2, r3
 1799 0ae0 3B68     		ldr	r3, [r7, #0]
 1800 0ae2 DBB2     		uxtb	r3, r3
 1801 0ae4 1343     		orrs	r3, r3, r2
 1802 0ae6 DAB2     		uxtb	r2, r3
 1803 0ae8 7B68     		ldr	r3, [r7, #4]
 1804 0aea 1A70     		strb	r2, [r3, #0]
 608:../src/lib/lpc177x_8x/Drivers/source/lpc177x_8x_rtc.c **** }
 1805              		.loc 1 608 0
 1806 0aec 07F10C07 		add	r7, r7, #12
 1807 0af0 BD46     		mov	sp, r7
 1808 0af2 80BC     		pop	{r7}
 1809 0af4 7047     		bx	lr
 1810              		.cfi_endproc
 1811              	.LFE70:
 1813 0af6 00BF     		.align	2
 1814              		.global	RTC_CalibCounterCmd
 1815              		.thumb
 1816              		.thumb_func
 1818              	RTC_CalibCounterCmd:
 1819              	.LFB71:
 609:../src/lib/lpc177x_8x/Drivers/source/lpc177x_8x_rtc.c **** 
 610:../src/lib/lpc177x_8x/Drivers/source/lpc177x_8x_rtc.c **** /*********************************************************************//**
 611:../src/lib/lpc177x_8x/Drivers/source/lpc177x_8x_rtc.c ****  * @brief       Enable/Disable calibration counter in RTC peripheral
 612:../src/lib/lpc177x_8x/Drivers/source/lpc177x_8x_rtc.c ****  * @param[in]   RTCx    RTC peripheral selected, should be LPC_RTC
 613:../src/lib/lpc177x_8x/Drivers/source/lpc177x_8x_rtc.c ****  * @param[in]   NewState New State of this function, should be:
 614:../src/lib/lpc177x_8x/Drivers/source/lpc177x_8x_rtc.c ****  *              - ENABLE: The calibration counter is enabled and counting
 615:../src/lib/lpc177x_8x/Drivers/source/lpc177x_8x_rtc.c ****  *              - DISABLE: The calibration counter is disabled and reset to zero
 616:../src/lib/lpc177x_8x/Drivers/source/lpc177x_8x_rtc.c ****  * @return      None
 617:../src/lib/lpc177x_8x/Drivers/source/lpc177x_8x_rtc.c ****  **********************************************************************/
 618:../src/lib/lpc177x_8x/Drivers/source/lpc177x_8x_rtc.c **** void RTC_CalibCounterCmd(LPC_RTC_TypeDef *RTCx, FunctionalState NewState)
 619:../src/lib/lpc177x_8x/Drivers/source/lpc177x_8x_rtc.c **** {
 1820              		.loc 1 619 0
 1821              		.cfi_startproc
 1822              		@ args = 0, pretend = 0, frame = 8
 1823              		@ frame_needed = 1, uses_anonymous_args = 0
 1824              		@ link register save eliminated.
 1825 0af8 80B4     		push	{r7}
 1826              	.LCFI48:
 1827              		.cfi_def_cfa_offset 4
 1828              		.cfi_offset 7, -4
 1829 0afa 83B0     		sub	sp, sp, #12
 1830              	.LCFI49:
 1831              		.cfi_def_cfa_offset 16
 1832 0afc 00AF     		add	r7, sp, #0
 1833              	.LCFI50:
 1834              		.cfi_def_cfa_register 7
 1835 0afe 7860     		str	r0, [r7, #4]
 1836 0b00 0B46     		mov	r3, r1
 1837 0b02 FB70     		strb	r3, [r7, #3]
 620:../src/lib/lpc177x_8x/Drivers/source/lpc177x_8x_rtc.c ****     if (NewState == ENABLE)
 1838              		.loc 1 620 0
 1839 0b04 FB78     		ldrb	r3, [r7, #3]	@ zero_extendqisi2
 1840 0b06 012B     		cmp	r3, #1
 1841 0b08 08D1     		bne	.L137
 621:../src/lib/lpc177x_8x/Drivers/source/lpc177x_8x_rtc.c ****     {
 622:../src/lib/lpc177x_8x/Drivers/source/lpc177x_8x_rtc.c ****         RTCx->CCR &= (~RTC_CCR_CCALEN) & RTC_CCR_BITMASK;
 1842              		.loc 1 622 0
 1843 0b0a 7B68     		ldr	r3, [r7, #4]
 1844 0b0c 1B7A     		ldrb	r3, [r3, #8]
 1845 0b0e DBB2     		uxtb	r3, r3
 1846 0b10 03F00303 		and	r3, r3, #3
 1847 0b14 DAB2     		uxtb	r2, r3
 1848 0b16 7B68     		ldr	r3, [r7, #4]
 1849 0b18 1A72     		strb	r2, [r3, #8]
 1850 0b1a 07E0     		b	.L136
 1851              	.L137:
 623:../src/lib/lpc177x_8x/Drivers/source/lpc177x_8x_rtc.c ****     }
 624:../src/lib/lpc177x_8x/Drivers/source/lpc177x_8x_rtc.c ****     else
 625:../src/lib/lpc177x_8x/Drivers/source/lpc177x_8x_rtc.c ****     {
 626:../src/lib/lpc177x_8x/Drivers/source/lpc177x_8x_rtc.c ****         RTCx->CCR |= RTC_CCR_CCALEN;
 1852              		.loc 1 626 0
 1853 0b1c 7B68     		ldr	r3, [r7, #4]
 1854 0b1e 1B7A     		ldrb	r3, [r3, #8]
 1855 0b20 DBB2     		uxtb	r3, r3
 1856 0b22 43F01003 		orr	r3, r3, #16
 1857 0b26 DAB2     		uxtb	r2, r3
 1858 0b28 7B68     		ldr	r3, [r7, #4]
 1859 0b2a 1A72     		strb	r2, [r3, #8]
 1860              	.L136:
 627:../src/lib/lpc177x_8x/Drivers/source/lpc177x_8x_rtc.c ****     }
 628:../src/lib/lpc177x_8x/Drivers/source/lpc177x_8x_rtc.c **** }
 1861              		.loc 1 628 0
 1862 0b2c 07F10C07 		add	r7, r7, #12
 1863 0b30 BD46     		mov	sp, r7
 1864 0b32 80BC     		pop	{r7}
 1865 0b34 7047     		bx	lr
 1866              		.cfi_endproc
 1867              	.LFE71:
 1869 0b36 00BF     		.align	2
 1870              		.global	RTC_CalibConfig
 1871              		.thumb
 1872              		.thumb_func
 1874              	RTC_CalibConfig:
 1875              	.LFB72:
 629:../src/lib/lpc177x_8x/Drivers/source/lpc177x_8x_rtc.c **** 
 630:../src/lib/lpc177x_8x/Drivers/source/lpc177x_8x_rtc.c **** 
 631:../src/lib/lpc177x_8x/Drivers/source/lpc177x_8x_rtc.c **** /*********************************************************************//**
 632:../src/lib/lpc177x_8x/Drivers/source/lpc177x_8x_rtc.c ****  * @brief       Configures Calibration in RTC peripheral
 633:../src/lib/lpc177x_8x/Drivers/source/lpc177x_8x_rtc.c ****  * @param[in]   RTCx    RTC peripheral selected, should be LPC_RTC
 634:../src/lib/lpc177x_8x/Drivers/source/lpc177x_8x_rtc.c ****  * @param[in]   CalibValue Calibration value, should be in range from
 635:../src/lib/lpc177x_8x/Drivers/source/lpc177x_8x_rtc.c ****  *                  0 to 131,072
 636:../src/lib/lpc177x_8x/Drivers/source/lpc177x_8x_rtc.c ****  * @param[in]   CalibDir Calibration Direction, should be:
 637:../src/lib/lpc177x_8x/Drivers/source/lpc177x_8x_rtc.c ****  *                  - RTC_CALIB_DIR_FORWARD: Forward calibration
 638:../src/lib/lpc177x_8x/Drivers/source/lpc177x_8x_rtc.c ****  *                  - RTC_CALIB_DIR_BACKWARD: Backward calibration
 639:../src/lib/lpc177x_8x/Drivers/source/lpc177x_8x_rtc.c ****  * @return      None
 640:../src/lib/lpc177x_8x/Drivers/source/lpc177x_8x_rtc.c ****  **********************************************************************/
 641:../src/lib/lpc177x_8x/Drivers/source/lpc177x_8x_rtc.c **** void RTC_CalibConfig(LPC_RTC_TypeDef *RTCx, uint32_t CalibValue, uint8_t CalibDir)
 642:../src/lib/lpc177x_8x/Drivers/source/lpc177x_8x_rtc.c **** {
 1876              		.loc 1 642 0
 1877              		.cfi_startproc
 1878              		@ args = 0, pretend = 0, frame = 16
 1879              		@ frame_needed = 1, uses_anonymous_args = 0
 1880              		@ link register save eliminated.
 1881 0b38 80B4     		push	{r7}
 1882              	.LCFI51:
 1883              		.cfi_def_cfa_offset 4
 1884              		.cfi_offset 7, -4
 1885 0b3a 85B0     		sub	sp, sp, #20
 1886              	.LCFI52:
 1887              		.cfi_def_cfa_offset 24
 1888 0b3c 00AF     		add	r7, sp, #0
 1889              	.LCFI53:
 1890              		.cfi_def_cfa_register 7
 1891 0b3e F860     		str	r0, [r7, #12]
 1892 0b40 B960     		str	r1, [r7, #8]
 1893 0b42 1346     		mov	r3, r2
 1894 0b44 FB71     		strb	r3, [r7, #7]
 643:../src/lib/lpc177x_8x/Drivers/source/lpc177x_8x_rtc.c ****     RTCx->CALIBRATION = ((CalibValue) & RTC_CALIBRATION_CALVAL_MASK) \
 1895              		.loc 1 643 0
 1896 0b46 BB68     		ldr	r3, [r7, #8]
 1897 0b48 23F07F43 		bic	r3, r3, #-16777216
 1898 0b4c 23F47E03 		bic	r3, r3, #16646144
 644:../src/lib/lpc177x_8x/Drivers/source/lpc177x_8x_rtc.c ****             | ((CalibDir == RTC_CALIB_DIR_BACKWARD) ? RTC_CALIBRATION_LIBDIR : 0);
 1899              		.loc 1 644 0
 1900 0b50 FA79     		ldrb	r2, [r7, #7]	@ zero_extendqisi2
 1901 0b52 012A     		cmp	r2, #1
 1902 0b54 02D1     		bne	.L140
 1903              		.loc 1 644 0 is_stmt 0 discriminator 1
 1904 0b56 4FF40032 		mov	r2, #131072
 1905 0b5a 01E0     		b	.L141
 1906              	.L140:
 1907              		.loc 1 644 0 discriminator 2
 1908 0b5c 4FF00002 		mov	r2, #0
 1909              	.L141:
 1910              		.loc 1 644 0 discriminator 3
 1911 0b60 1A43     		orrs	r2, r2, r3
 643:../src/lib/lpc177x_8x/Drivers/source/lpc177x_8x_rtc.c ****     RTCx->CALIBRATION = ((CalibValue) & RTC_CALIBRATION_CALVAL_MASK) \
 1912              		.loc 1 643 0 is_stmt 1 discriminator 3
 1913 0b62 FB68     		ldr	r3, [r7, #12]
 1914 0b64 1A64     		str	r2, [r3, #64]
 645:../src/lib/lpc177x_8x/Drivers/source/lpc177x_8x_rtc.c **** }
 1915              		.loc 1 645 0 discriminator 3
 1916 0b66 07F11407 		add	r7, r7, #20
 1917 0b6a BD46     		mov	sp, r7
 1918 0b6c 80BC     		pop	{r7}
 1919 0b6e 7047     		bx	lr
 1920              		.cfi_endproc
 1921              	.LFE72:
 1923              		.align	2
 1924              		.global	RTC_WriteGPREG
 1925              		.thumb
 1926              		.thumb_func
 1928              	RTC_WriteGPREG:
 1929              	.LFB73:
 646:../src/lib/lpc177x_8x/Drivers/source/lpc177x_8x_rtc.c **** 
 647:../src/lib/lpc177x_8x/Drivers/source/lpc177x_8x_rtc.c **** 
 648:../src/lib/lpc177x_8x/Drivers/source/lpc177x_8x_rtc.c **** /*********************************************************************//**
 649:../src/lib/lpc177x_8x/Drivers/source/lpc177x_8x_rtc.c ****  * @brief       Write value to General purpose registers
 650:../src/lib/lpc177x_8x/Drivers/source/lpc177x_8x_rtc.c ****  * @param[in]   RTCx    RTC peripheral selected, should be LPC_RTC
 651:../src/lib/lpc177x_8x/Drivers/source/lpc177x_8x_rtc.c ****  * @param[in]   Channel General purpose registers Channel number,
 652:../src/lib/lpc177x_8x/Drivers/source/lpc177x_8x_rtc.c ****  *              should be in range from 0 to 4.
 653:../src/lib/lpc177x_8x/Drivers/source/lpc177x_8x_rtc.c ****  * @param[in]   Value Value to write
 654:../src/lib/lpc177x_8x/Drivers/source/lpc177x_8x_rtc.c ****  * @return      None
 655:../src/lib/lpc177x_8x/Drivers/source/lpc177x_8x_rtc.c ****  * Note: These General purpose registers can be used to store important
 656:../src/lib/lpc177x_8x/Drivers/source/lpc177x_8x_rtc.c ****  * information when the main power supply is off. The value in these
 657:../src/lib/lpc177x_8x/Drivers/source/lpc177x_8x_rtc.c ****  * registers is not affected by chip reset.
 658:../src/lib/lpc177x_8x/Drivers/source/lpc177x_8x_rtc.c ****  **********************************************************************/
 659:../src/lib/lpc177x_8x/Drivers/source/lpc177x_8x_rtc.c **** void RTC_WriteGPREG (LPC_RTC_TypeDef *RTCx, uint8_t Channel, uint32_t Value)
 660:../src/lib/lpc177x_8x/Drivers/source/lpc177x_8x_rtc.c **** {
 1930              		.loc 1 660 0
 1931              		.cfi_startproc
 1932              		@ args = 0, pretend = 0, frame = 24
 1933              		@ frame_needed = 1, uses_anonymous_args = 0
 1934              		@ link register save eliminated.
 1935 0b70 80B4     		push	{r7}
 1936              	.LCFI54:
 1937              		.cfi_def_cfa_offset 4
 1938              		.cfi_offset 7, -4
 1939 0b72 87B0     		sub	sp, sp, #28
 1940              	.LCFI55:
 1941              		.cfi_def_cfa_offset 32
 1942 0b74 00AF     		add	r7, sp, #0
 1943              	.LCFI56:
 1944              		.cfi_def_cfa_register 7
 1945 0b76 F860     		str	r0, [r7, #12]
 1946 0b78 0B46     		mov	r3, r1
 1947 0b7a 7A60     		str	r2, [r7, #4]
 1948 0b7c FB72     		strb	r3, [r7, #11]
 661:../src/lib/lpc177x_8x/Drivers/source/lpc177x_8x_rtc.c ****     uint32_t *preg;
 662:../src/lib/lpc177x_8x/Drivers/source/lpc177x_8x_rtc.c **** 
 663:../src/lib/lpc177x_8x/Drivers/source/lpc177x_8x_rtc.c ****     preg = (uint32_t *)&RTCx->GPREG0;
 1949              		.loc 1 663 0
 1950 0b7e FB68     		ldr	r3, [r7, #12]
 1951 0b80 03F14403 		add	r3, r3, #68
 1952 0b84 7B61     		str	r3, [r7, #20]
 664:../src/lib/lpc177x_8x/Drivers/source/lpc177x_8x_rtc.c ****     preg += Channel;
 1953              		.loc 1 664 0
 1954 0b86 FB7A     		ldrb	r3, [r7, #11]	@ zero_extendqisi2
 1955 0b88 4FEA8303 		lsl	r3, r3, #2
 1956 0b8c 7A69     		ldr	r2, [r7, #20]
 1957 0b8e D318     		adds	r3, r2, r3
 1958 0b90 7B61     		str	r3, [r7, #20]
 665:../src/lib/lpc177x_8x/Drivers/source/lpc177x_8x_rtc.c ****     *preg = Value;
 1959              		.loc 1 665 0
 1960 0b92 7B69     		ldr	r3, [r7, #20]
 1961 0b94 7A68     		ldr	r2, [r7, #4]
 1962 0b96 1A60     		str	r2, [r3, #0]
 666:../src/lib/lpc177x_8x/Drivers/source/lpc177x_8x_rtc.c **** }
 1963              		.loc 1 666 0
 1964 0b98 07F11C07 		add	r7, r7, #28
 1965 0b9c BD46     		mov	sp, r7
 1966 0b9e 80BC     		pop	{r7}
 1967 0ba0 7047     		bx	lr
 1968              		.cfi_endproc
 1969              	.LFE73:
 1971 0ba2 00BF     		.align	2
 1972              		.global	RTC_ReadGPREG
 1973              		.thumb
 1974              		.thumb_func
 1976              	RTC_ReadGPREG:
 1977              	.LFB74:
 667:../src/lib/lpc177x_8x/Drivers/source/lpc177x_8x_rtc.c **** 
 668:../src/lib/lpc177x_8x/Drivers/source/lpc177x_8x_rtc.c **** 
 669:../src/lib/lpc177x_8x/Drivers/source/lpc177x_8x_rtc.c **** /*********************************************************************//**
 670:../src/lib/lpc177x_8x/Drivers/source/lpc177x_8x_rtc.c ****  * @brief       Read value from General purpose registers
 671:../src/lib/lpc177x_8x/Drivers/source/lpc177x_8x_rtc.c ****  * @param[in]   RTCx    RTC peripheral selected, should be LPC_RTC
 672:../src/lib/lpc177x_8x/Drivers/source/lpc177x_8x_rtc.c ****  * @param[in]   Channel General purpose registers Channel number,
 673:../src/lib/lpc177x_8x/Drivers/source/lpc177x_8x_rtc.c ****  *              should be in range from 0 to 4.
 674:../src/lib/lpc177x_8x/Drivers/source/lpc177x_8x_rtc.c ****  * @return      Read Value
 675:../src/lib/lpc177x_8x/Drivers/source/lpc177x_8x_rtc.c ****  * Note: These General purpose registers can be used to store important
 676:../src/lib/lpc177x_8x/Drivers/source/lpc177x_8x_rtc.c ****  * information when the main power supply is off. The value in these
 677:../src/lib/lpc177x_8x/Drivers/source/lpc177x_8x_rtc.c ****  * registers is not affected by chip reset.
 678:../src/lib/lpc177x_8x/Drivers/source/lpc177x_8x_rtc.c ****  **********************************************************************/
 679:../src/lib/lpc177x_8x/Drivers/source/lpc177x_8x_rtc.c **** uint32_t RTC_ReadGPREG (LPC_RTC_TypeDef *RTCx, uint8_t Channel)
 680:../src/lib/lpc177x_8x/Drivers/source/lpc177x_8x_rtc.c **** {
 1978              		.loc 1 680 0
 1979              		.cfi_startproc
 1980              		@ args = 0, pretend = 0, frame = 16
 1981              		@ frame_needed = 1, uses_anonymous_args = 0
 1982              		@ link register save eliminated.
 1983 0ba4 80B4     		push	{r7}
 1984              	.LCFI57:
 1985              		.cfi_def_cfa_offset 4
 1986              		.cfi_offset 7, -4
 1987 0ba6 85B0     		sub	sp, sp, #20
 1988              	.LCFI58:
 1989              		.cfi_def_cfa_offset 24
 1990 0ba8 00AF     		add	r7, sp, #0
 1991              	.LCFI59:
 1992              		.cfi_def_cfa_register 7
 1993 0baa 7860     		str	r0, [r7, #4]
 1994 0bac 0B46     		mov	r3, r1
 1995 0bae FB70     		strb	r3, [r7, #3]
 681:../src/lib/lpc177x_8x/Drivers/source/lpc177x_8x_rtc.c ****     uint32_t *preg;
 682:../src/lib/lpc177x_8x/Drivers/source/lpc177x_8x_rtc.c ****     uint32_t value;
 683:../src/lib/lpc177x_8x/Drivers/source/lpc177x_8x_rtc.c **** 
 684:../src/lib/lpc177x_8x/Drivers/source/lpc177x_8x_rtc.c ****     preg = (uint32_t *)&RTCx->GPREG0;
 1996              		.loc 1 684 0
 1997 0bb0 7B68     		ldr	r3, [r7, #4]
 1998 0bb2 03F14403 		add	r3, r3, #68
 1999 0bb6 FB60     		str	r3, [r7, #12]
 685:../src/lib/lpc177x_8x/Drivers/source/lpc177x_8x_rtc.c ****     preg += Channel;
 2000              		.loc 1 685 0
 2001 0bb8 FB78     		ldrb	r3, [r7, #3]	@ zero_extendqisi2
 2002 0bba 4FEA8303 		lsl	r3, r3, #2
 2003 0bbe FA68     		ldr	r2, [r7, #12]
 2004 0bc0 D318     		adds	r3, r2, r3
 2005 0bc2 FB60     		str	r3, [r7, #12]
 686:../src/lib/lpc177x_8x/Drivers/source/lpc177x_8x_rtc.c ****     value = *preg;
 2006              		.loc 1 686 0
 2007 0bc4 FB68     		ldr	r3, [r7, #12]
 2008 0bc6 1B68     		ldr	r3, [r3, #0]
 2009 0bc8 BB60     		str	r3, [r7, #8]
 687:../src/lib/lpc177x_8x/Drivers/source/lpc177x_8x_rtc.c ****     return (value);
 2010              		.loc 1 687 0
 2011 0bca BB68     		ldr	r3, [r7, #8]
 688:../src/lib/lpc177x_8x/Drivers/source/lpc177x_8x_rtc.c **** }
 2012              		.loc 1 688 0
 2013 0bcc 1846     		mov	r0, r3
 2014 0bce 07F11407 		add	r7, r7, #20
 2015 0bd2 BD46     		mov	sp, r7
 2016 0bd4 80BC     		pop	{r7}
 2017 0bd6 7047     		bx	lr
 2018              		.cfi_endproc
 2019              	.LFE74:
 2021              		.align	2
 2022              		.global	RTC_ER_InitConfigStruct
 2023              		.thumb
 2024              		.thumb_func
 2026              	RTC_ER_InitConfigStruct:
 2027              	.LFB75:
 689:../src/lib/lpc177x_8x/Drivers/source/lpc177x_8x_rtc.c **** /*********************************************************************//**
 690:../src/lib/lpc177x_8x/Drivers/source/lpc177x_8x_rtc.c ****  * @brief       Initialize an variable of type RTC_ER_CONFIG_Type.
 691:../src/lib/lpc177x_8x/Drivers/source/lpc177x_8x_rtc.c ****  * @param[in]   pConfig The address of input variable.
 692:../src/lib/lpc177x_8x/Drivers/source/lpc177x_8x_rtc.c ****  * @return      None
 693:../src/lib/lpc177x_8x/Drivers/source/lpc177x_8x_rtc.c ****  **********************************************************************/
 694:../src/lib/lpc177x_8x/Drivers/source/lpc177x_8x_rtc.c **** void RTC_ER_InitConfigStruct(RTC_ER_CONFIG_Type* pConfig)
 695:../src/lib/lpc177x_8x/Drivers/source/lpc177x_8x_rtc.c **** {
 2028              		.loc 1 695 0
 2029              		.cfi_startproc
 2030              		@ args = 0, pretend = 0, frame = 16
 2031              		@ frame_needed = 1, uses_anonymous_args = 0
 2032              		@ link register save eliminated.
 2033 0bd8 80B4     		push	{r7}
 2034              	.LCFI60:
 2035              		.cfi_def_cfa_offset 4
 2036              		.cfi_offset 7, -4
 2037 0bda 85B0     		sub	sp, sp, #20
 2038              	.LCFI61:
 2039              		.cfi_def_cfa_offset 24
 2040 0bdc 00AF     		add	r7, sp, #0
 2041              	.LCFI62:
 2042              		.cfi_def_cfa_register 7
 2043 0bde 7860     		str	r0, [r7, #4]
 696:../src/lib/lpc177x_8x/Drivers/source/lpc177x_8x_rtc.c ****     uint32_t tmp;
 697:../src/lib/lpc177x_8x/Drivers/source/lpc177x_8x_rtc.c ****     if(pConfig == NULL)
 2044              		.loc 1 697 0
 2045 0be0 7B68     		ldr	r3, [r7, #4]
 2046 0be2 002B     		cmp	r3, #0
 2047 0be4 2DD0     		beq	.L150
 2048              	.L146:
 698:../src/lib/lpc177x_8x/Drivers/source/lpc177x_8x_rtc.c ****         return;
 699:../src/lib/lpc177x_8x/Drivers/source/lpc177x_8x_rtc.c **** 
 700:../src/lib/lpc177x_8x/Drivers/source/lpc177x_8x_rtc.c ****     for(tmp = 0; tmp < RTC_ER_INPUT_CHANNEL_NUM; tmp++)
 2049              		.loc 1 700 0
 2050 0be6 4FF00003 		mov	r3, #0
 2051 0bea FB60     		str	r3, [r7, #12]
 2052 0bec 21E0     		b	.L148
 2053              	.L149:
 701:../src/lib/lpc177x_8x/Drivers/source/lpc177x_8x_rtc.c ****     {
 702:../src/lib/lpc177x_8x/Drivers/source/lpc177x_8x_rtc.c ****         pConfig->InputChannel[tmp].EventOnPosEdge = FALSE;
 2054              		.loc 1 702 0 discriminator 2
 2055 0bee 7968     		ldr	r1, [r7, #4]
 2056 0bf0 FA68     		ldr	r2, [r7, #12]
 2057 0bf2 1346     		mov	r3, r2
 2058 0bf4 4FEA4303 		lsl	r3, r3, #1
 2059 0bf8 9B18     		adds	r3, r3, r2
 2060 0bfa CB18     		adds	r3, r1, r3
 2061 0bfc 4FF00002 		mov	r2, #0
 2062 0c00 1A70     		strb	r2, [r3, #0]
 703:../src/lib/lpc177x_8x/Drivers/source/lpc177x_8x_rtc.c ****         pConfig->InputChannel[tmp].GPClear= FALSE;
 2063              		.loc 1 703 0 discriminator 2
 2064 0c02 7968     		ldr	r1, [r7, #4]
 2065 0c04 FA68     		ldr	r2, [r7, #12]
 2066 0c06 1346     		mov	r3, r2
 2067 0c08 4FEA4303 		lsl	r3, r3, #1
 2068 0c0c 9B18     		adds	r3, r3, r2
 2069 0c0e CB18     		adds	r3, r1, r3
 2070 0c10 4FF00002 		mov	r2, #0
 2071 0c14 9A70     		strb	r2, [r3, #2]
 704:../src/lib/lpc177x_8x/Drivers/source/lpc177x_8x_rtc.c ****         pConfig->InputChannel[tmp].IntWake= FALSE;
 2072              		.loc 1 704 0 discriminator 2
 2073 0c16 7968     		ldr	r1, [r7, #4]
 2074 0c18 FA68     		ldr	r2, [r7, #12]
 2075 0c1a 1346     		mov	r3, r2
 2076 0c1c 4FEA4303 		lsl	r3, r3, #1
 2077 0c20 9B18     		adds	r3, r3, r2
 2078 0c22 CB18     		adds	r3, r1, r3
 2079 0c24 4FF00002 		mov	r2, #0
 2080 0c28 5A70     		strb	r2, [r3, #1]
 700:../src/lib/lpc177x_8x/Drivers/source/lpc177x_8x_rtc.c ****     for(tmp = 0; tmp < RTC_ER_INPUT_CHANNEL_NUM; tmp++)
 2081              		.loc 1 700 0 discriminator 2
 2082 0c2a FB68     		ldr	r3, [r7, #12]
 2083 0c2c 03F10103 		add	r3, r3, #1
 2084 0c30 FB60     		str	r3, [r7, #12]
 2085              	.L148:
 700:../src/lib/lpc177x_8x/Drivers/source/lpc177x_8x_rtc.c ****     for(tmp = 0; tmp < RTC_ER_INPUT_CHANNEL_NUM; tmp++)
 2086              		.loc 1 700 0 is_stmt 0 discriminator 1
 2087 0c32 FB68     		ldr	r3, [r7, #12]
 2088 0c34 022B     		cmp	r3, #2
 2089 0c36 DAD9     		bls	.L149
 705:../src/lib/lpc177x_8x/Drivers/source/lpc177x_8x_rtc.c ****     }
 706:../src/lib/lpc177x_8x/Drivers/source/lpc177x_8x_rtc.c ****     pConfig->Clk = 64;
 2090              		.loc 1 706 0 is_stmt 1
 2091 0c38 7B68     		ldr	r3, [r7, #4]
 2092 0c3a 4FF04002 		mov	r2, #64
 2093 0c3e DA60     		str	r2, [r3, #12]
 2094 0c40 00E0     		b	.L145
 2095              	.L150:
 698:../src/lib/lpc177x_8x/Drivers/source/lpc177x_8x_rtc.c ****         return;
 2096              		.loc 1 698 0
 2097 0c42 00BF     		nop
 2098              	.L145:
 707:../src/lib/lpc177x_8x/Drivers/source/lpc177x_8x_rtc.c **** }
 2099              		.loc 1 707 0
 2100 0c44 07F11407 		add	r7, r7, #20
 2101 0c48 BD46     		mov	sp, r7
 2102 0c4a 80BC     		pop	{r7}
 2103 0c4c 7047     		bx	lr
 2104              		.cfi_endproc
 2105              	.LFE75:
 2107 0c4e 00BF     		.align	2
 2108              		.global	RTC_ER_Init
 2109              		.thumb
 2110              		.thumb_func
 2112              	RTC_ER_Init:
 2113              	.LFB76:
 708:../src/lib/lpc177x_8x/Drivers/source/lpc177x_8x_rtc.c **** 
 709:../src/lib/lpc177x_8x/Drivers/source/lpc177x_8x_rtc.c **** /*********************************************************************//**
 710:../src/lib/lpc177x_8x/Drivers/source/lpc177x_8x_rtc.c ****  * @brief       Initialize Event Monitor/Recorder
 711:../src/lib/lpc177x_8x/Drivers/source/lpc177x_8x_rtc.c ****  * @param[in]   pConfig Configuration
 712:../src/lib/lpc177x_8x/Drivers/source/lpc177x_8x_rtc.c ****  * @return      SUCCESS/ERROR
 713:../src/lib/lpc177x_8x/Drivers/source/lpc177x_8x_rtc.c ****  * Note: The RTC Module must be intialized before initializing this module.
 714:../src/lib/lpc177x_8x/Drivers/source/lpc177x_8x_rtc.c ****  **********************************************************************/
 715:../src/lib/lpc177x_8x/Drivers/source/lpc177x_8x_rtc.c **** Status RTC_ER_Init(RTC_ER_CONFIG_Type* pConfig)
 716:../src/lib/lpc177x_8x/Drivers/source/lpc177x_8x_rtc.c **** {
 2114              		.loc 1 716 0
 2115              		.cfi_startproc
 2116              		@ args = 0, pretend = 0, frame = 8
 2117              		@ frame_needed = 1, uses_anonymous_args = 0
 2118              		@ link register save eliminated.
 2119 0c50 80B4     		push	{r7}
 2120              	.LCFI63:
 2121              		.cfi_def_cfa_offset 4
 2122              		.cfi_offset 7, -4
 2123 0c52 83B0     		sub	sp, sp, #12
 2124              	.LCFI64:
 2125              		.cfi_def_cfa_offset 16
 2126 0c54 00AF     		add	r7, sp, #0
 2127              	.LCFI65:
 2128              		.cfi_def_cfa_register 7
 2129 0c56 7860     		str	r0, [r7, #4]
 717:../src/lib/lpc177x_8x/Drivers/source/lpc177x_8x_rtc.c ****     if(pConfig == NULL)
 2130              		.loc 1 717 0
 2131 0c58 7B68     		ldr	r3, [r7, #4]
 2132 0c5a 002B     		cmp	r3, #0
 2133 0c5c 02D1     		bne	.L152
 718:../src/lib/lpc177x_8x/Drivers/source/lpc177x_8x_rtc.c ****         return ERROR;
 2134              		.loc 1 718 0
 2135 0c5e 4FF00003 		mov	r3, #0
 2136 0c62 04E1     		b	.L153
 2137              	.L152:
 719:../src/lib/lpc177x_8x/Drivers/source/lpc177x_8x_rtc.c ****     if((LPC_RTC->CCR & RTC_CCR_CLKEN) == 0)
 2138              		.loc 1 719 0
 2139 0c64 854B     		ldr	r3, .L180
 2140 0c66 1B7A     		ldrb	r3, [r3, #8]
 2141 0c68 DBB2     		uxtb	r3, r3
 2142 0c6a 03F00103 		and	r3, r3, #1
 2143 0c6e 002B     		cmp	r3, #0
 2144 0c70 02D1     		bne	.L154
 720:../src/lib/lpc177x_8x/Drivers/source/lpc177x_8x_rtc.c ****         return ERROR;
 2145              		.loc 1 720 0
 2146 0c72 4FF00003 		mov	r3, #0
 2147 0c76 FAE0     		b	.L153
 2148              	.L154:
 721:../src/lib/lpc177x_8x/Drivers/source/lpc177x_8x_rtc.c **** 
 722:../src/lib/lpc177x_8x/Drivers/source/lpc177x_8x_rtc.c ****     /* EV0 */
 723:../src/lib/lpc177x_8x/Drivers/source/lpc177x_8x_rtc.c ****     if(pConfig->InputChannel[0].EventOnPosEdge)
 2149              		.loc 1 723 0
 2150 0c78 7B68     		ldr	r3, [r7, #4]
 2151 0c7a 1B78     		ldrb	r3, [r3, #0]	@ zero_extendqisi2
 2152 0c7c 002B     		cmp	r3, #0
 2153 0c7e 08D0     		beq	.L155
 724:../src/lib/lpc177x_8x/Drivers/source/lpc177x_8x_rtc.c ****         LPC_RTC->ERCONTROL |= RTC_ERCTRL_EV0_POS_EDGE;
 2154              		.loc 1 724 0
 2155 0c80 7E4B     		ldr	r3, .L180
 2156 0c82 7E4A     		ldr	r2, .L180
 2157 0c84 D2F88420 		ldr	r2, [r2, #132]
 2158 0c88 42F00402 		orr	r2, r2, #4
 2159 0c8c C3F88420 		str	r2, [r3, #132]
 2160 0c90 07E0     		b	.L156
 2161              	.L155:
 725:../src/lib/lpc177x_8x/Drivers/source/lpc177x_8x_rtc.c ****     else
 726:../src/lib/lpc177x_8x/Drivers/source/lpc177x_8x_rtc.c ****         LPC_RTC->ERCONTROL &= ~RTC_ERCTRL_EV0_POS_EDGE;
 2162              		.loc 1 726 0
 2163 0c92 7A4B     		ldr	r3, .L180
 2164 0c94 794A     		ldr	r2, .L180
 2165 0c96 D2F88420 		ldr	r2, [r2, #132]
 2166 0c9a 22F00402 		bic	r2, r2, #4
 2167 0c9e C3F88420 		str	r2, [r3, #132]
 2168              	.L156:
 727:../src/lib/lpc177x_8x/Drivers/source/lpc177x_8x_rtc.c ****     
 728:../src/lib/lpc177x_8x/Drivers/source/lpc177x_8x_rtc.c ****     if(pConfig->InputChannel[0].IntWake)
 2169              		.loc 1 728 0
 2170 0ca2 7B68     		ldr	r3, [r7, #4]
 2171 0ca4 5B78     		ldrb	r3, [r3, #1]	@ zero_extendqisi2
 2172 0ca6 002B     		cmp	r3, #0
 2173 0ca8 08D0     		beq	.L157
 729:../src/lib/lpc177x_8x/Drivers/source/lpc177x_8x_rtc.c ****         LPC_RTC->ERCONTROL |= RTC_ERCTRL_EV0_INTWAKE_ENABLE;
 2174              		.loc 1 729 0
 2175 0caa 744B     		ldr	r3, .L180
 2176 0cac 734A     		ldr	r2, .L180
 2177 0cae D2F88420 		ldr	r2, [r2, #132]
 2178 0cb2 42F00102 		orr	r2, r2, #1
 2179 0cb6 C3F88420 		str	r2, [r3, #132]
 2180 0cba 07E0     		b	.L158
 2181              	.L157:
 730:../src/lib/lpc177x_8x/Drivers/source/lpc177x_8x_rtc.c ****     else
 731:../src/lib/lpc177x_8x/Drivers/source/lpc177x_8x_rtc.c ****         LPC_RTC->ERCONTROL &= ~RTC_ERCTRL_EV0_INTWAKE_ENABLE;
 2182              		.loc 1 731 0
 2183 0cbc 6F4B     		ldr	r3, .L180
 2184 0cbe 6F4A     		ldr	r2, .L180
 2185 0cc0 D2F88420 		ldr	r2, [r2, #132]
 2186 0cc4 22F00102 		bic	r2, r2, #1
 2187 0cc8 C3F88420 		str	r2, [r3, #132]
 2188              	.L158:
 732:../src/lib/lpc177x_8x/Drivers/source/lpc177x_8x_rtc.c **** 
 733:../src/lib/lpc177x_8x/Drivers/source/lpc177x_8x_rtc.c ****     if(pConfig->InputChannel[0].GPClear)
 2189              		.loc 1 733 0
 2190 0ccc 7B68     		ldr	r3, [r7, #4]
 2191 0cce 9B78     		ldrb	r3, [r3, #2]	@ zero_extendqisi2
 2192 0cd0 002B     		cmp	r3, #0
 2193 0cd2 08D0     		beq	.L159
 734:../src/lib/lpc177x_8x/Drivers/source/lpc177x_8x_rtc.c ****         LPC_RTC->ERCONTROL |= RTC_ERCTRL_EV0_GPCLEAR_ENABLE;
 2194              		.loc 1 734 0
 2195 0cd4 694B     		ldr	r3, .L180
 2196 0cd6 694A     		ldr	r2, .L180
 2197 0cd8 D2F88420 		ldr	r2, [r2, #132]
 2198 0cdc 42F00202 		orr	r2, r2, #2
 2199 0ce0 C3F88420 		str	r2, [r3, #132]
 2200 0ce4 07E0     		b	.L160
 2201              	.L159:
 735:../src/lib/lpc177x_8x/Drivers/source/lpc177x_8x_rtc.c ****     else
 736:../src/lib/lpc177x_8x/Drivers/source/lpc177x_8x_rtc.c ****         LPC_RTC->ERCONTROL &= ~RTC_ERCTRL_EV0_GPCLEAR_ENABLE;
 2202              		.loc 1 736 0
 2203 0ce6 654B     		ldr	r3, .L180
 2204 0ce8 644A     		ldr	r2, .L180
 2205 0cea D2F88420 		ldr	r2, [r2, #132]
 2206 0cee 22F00202 		bic	r2, r2, #2
 2207 0cf2 C3F88420 		str	r2, [r3, #132]
 2208              	.L160:
 737:../src/lib/lpc177x_8x/Drivers/source/lpc177x_8x_rtc.c **** 
 738:../src/lib/lpc177x_8x/Drivers/source/lpc177x_8x_rtc.c ****     /* EV1 */
 739:../src/lib/lpc177x_8x/Drivers/source/lpc177x_8x_rtc.c ****     if(pConfig->InputChannel[1].EventOnPosEdge)
 2209              		.loc 1 739 0
 2210 0cf6 7B68     		ldr	r3, [r7, #4]
 2211 0cf8 DB78     		ldrb	r3, [r3, #3]	@ zero_extendqisi2
 2212 0cfa 002B     		cmp	r3, #0
 2213 0cfc 08D0     		beq	.L161
 740:../src/lib/lpc177x_8x/Drivers/source/lpc177x_8x_rtc.c ****         LPC_RTC->ERCONTROL |= RTC_ERCTRL_EV1_POS_EDGE;
 2214              		.loc 1 740 0
 2215 0cfe 5F4B     		ldr	r3, .L180
 2216 0d00 5E4A     		ldr	r2, .L180
 2217 0d02 D2F88420 		ldr	r2, [r2, #132]
 2218 0d06 42F48052 		orr	r2, r2, #4096
 2219 0d0a C3F88420 		str	r2, [r3, #132]
 2220 0d0e 07E0     		b	.L162
 2221              	.L161:
 741:../src/lib/lpc177x_8x/Drivers/source/lpc177x_8x_rtc.c ****     else
 742:../src/lib/lpc177x_8x/Drivers/source/lpc177x_8x_rtc.c ****         LPC_RTC->ERCONTROL &= ~RTC_ERCTRL_EV1_POS_EDGE;
 2222              		.loc 1 742 0
 2223 0d10 5A4B     		ldr	r3, .L180
 2224 0d12 5A4A     		ldr	r2, .L180
 2225 0d14 D2F88420 		ldr	r2, [r2, #132]
 2226 0d18 22F48052 		bic	r2, r2, #4096
 2227 0d1c C3F88420 		str	r2, [r3, #132]
 2228              	.L162:
 743:../src/lib/lpc177x_8x/Drivers/source/lpc177x_8x_rtc.c ****     
 744:../src/lib/lpc177x_8x/Drivers/source/lpc177x_8x_rtc.c ****     if(pConfig->InputChannel[1].IntWake)
 2229              		.loc 1 744 0
 2230 0d20 7B68     		ldr	r3, [r7, #4]
 2231 0d22 1B79     		ldrb	r3, [r3, #4]	@ zero_extendqisi2
 2232 0d24 002B     		cmp	r3, #0
 2233 0d26 08D0     		beq	.L163
 745:../src/lib/lpc177x_8x/Drivers/source/lpc177x_8x_rtc.c ****         LPC_RTC->ERCONTROL |= RTC_ERCTRL_EV1_INTWAKE_ENABLE;
 2234              		.loc 1 745 0
 2235 0d28 544B     		ldr	r3, .L180
 2236 0d2a 544A     		ldr	r2, .L180
 2237 0d2c D2F88420 		ldr	r2, [r2, #132]
 2238 0d30 42F48062 		orr	r2, r2, #1024
 2239 0d34 C3F88420 		str	r2, [r3, #132]
 2240 0d38 07E0     		b	.L164
 2241              	.L163:
 746:../src/lib/lpc177x_8x/Drivers/source/lpc177x_8x_rtc.c ****     else
 747:../src/lib/lpc177x_8x/Drivers/source/lpc177x_8x_rtc.c ****         LPC_RTC->ERCONTROL &= ~RTC_ERCTRL_EV1_INTWAKE_ENABLE;
 2242              		.loc 1 747 0
 2243 0d3a 504B     		ldr	r3, .L180
 2244 0d3c 4F4A     		ldr	r2, .L180
 2245 0d3e D2F88420 		ldr	r2, [r2, #132]
 2246 0d42 22F48062 		bic	r2, r2, #1024
 2247 0d46 C3F88420 		str	r2, [r3, #132]
 2248              	.L164:
 748:../src/lib/lpc177x_8x/Drivers/source/lpc177x_8x_rtc.c **** 
 749:../src/lib/lpc177x_8x/Drivers/source/lpc177x_8x_rtc.c ****     if(pConfig->InputChannel[1].GPClear)
 2249              		.loc 1 749 0
 2250 0d4a 7B68     		ldr	r3, [r7, #4]
 2251 0d4c 5B79     		ldrb	r3, [r3, #5]	@ zero_extendqisi2
 2252 0d4e 002B     		cmp	r3, #0
 2253 0d50 08D0     		beq	.L165
 750:../src/lib/lpc177x_8x/Drivers/source/lpc177x_8x_rtc.c ****         LPC_RTC->ERCONTROL |= RTC_ERCTRL_EV1_GPCLEAR_ENABLE;
 2254              		.loc 1 750 0
 2255 0d52 4A4B     		ldr	r3, .L180
 2256 0d54 494A     		ldr	r2, .L180
 2257 0d56 D2F88420 		ldr	r2, [r2, #132]
 2258 0d5a 42F40062 		orr	r2, r2, #2048
 2259 0d5e C3F88420 		str	r2, [r3, #132]
 2260 0d62 07E0     		b	.L166
 2261              	.L165:
 751:../src/lib/lpc177x_8x/Drivers/source/lpc177x_8x_rtc.c ****     else
 752:../src/lib/lpc177x_8x/Drivers/source/lpc177x_8x_rtc.c ****         LPC_RTC->ERCONTROL &= ~RTC_ERCTRL_EV1_GPCLEAR_ENABLE;
 2262              		.loc 1 752 0
 2263 0d64 454B     		ldr	r3, .L180
 2264 0d66 454A     		ldr	r2, .L180
 2265 0d68 D2F88420 		ldr	r2, [r2, #132]
 2266 0d6c 22F40062 		bic	r2, r2, #2048
 2267 0d70 C3F88420 		str	r2, [r3, #132]
 2268              	.L166:
 753:../src/lib/lpc177x_8x/Drivers/source/lpc177x_8x_rtc.c **** 
 754:../src/lib/lpc177x_8x/Drivers/source/lpc177x_8x_rtc.c ****     /* EV2 */
 755:../src/lib/lpc177x_8x/Drivers/source/lpc177x_8x_rtc.c ****     if(pConfig->InputChannel[2].EventOnPosEdge)
 2269              		.loc 1 755 0
 2270 0d74 7B68     		ldr	r3, [r7, #4]
 2271 0d76 9B79     		ldrb	r3, [r3, #6]	@ zero_extendqisi2
 2272 0d78 002B     		cmp	r3, #0
 2273 0d7a 08D0     		beq	.L167
 756:../src/lib/lpc177x_8x/Drivers/source/lpc177x_8x_rtc.c ****         LPC_RTC->ERCONTROL |= RTC_ERCTRL_EV2_POS_EDGE;
 2274              		.loc 1 756 0
 2275 0d7c 3F4B     		ldr	r3, .L180
 2276 0d7e 3F4A     		ldr	r2, .L180
 2277 0d80 D2F88420 		ldr	r2, [r2, #132]
 2278 0d84 42F48002 		orr	r2, r2, #4194304
 2279 0d88 C3F88420 		str	r2, [r3, #132]
 2280 0d8c 07E0     		b	.L168
 2281              	.L167:
 757:../src/lib/lpc177x_8x/Drivers/source/lpc177x_8x_rtc.c ****     else
 758:../src/lib/lpc177x_8x/Drivers/source/lpc177x_8x_rtc.c ****         LPC_RTC->ERCONTROL &= ~RTC_ERCTRL_EV2_POS_EDGE;
 2282              		.loc 1 758 0
 2283 0d8e 3B4B     		ldr	r3, .L180
 2284 0d90 3A4A     		ldr	r2, .L180
 2285 0d92 D2F88420 		ldr	r2, [r2, #132]
 2286 0d96 22F48002 		bic	r2, r2, #4194304
 2287 0d9a C3F88420 		str	r2, [r3, #132]
 2288              	.L168:
 759:../src/lib/lpc177x_8x/Drivers/source/lpc177x_8x_rtc.c ****     
 760:../src/lib/lpc177x_8x/Drivers/source/lpc177x_8x_rtc.c ****     if(pConfig->InputChannel[2].IntWake)
 2289              		.loc 1 760 0
 2290 0d9e 7B68     		ldr	r3, [r7, #4]
 2291 0da0 DB79     		ldrb	r3, [r3, #7]	@ zero_extendqisi2
 2292 0da2 002B     		cmp	r3, #0
 2293 0da4 08D0     		beq	.L169
 761:../src/lib/lpc177x_8x/Drivers/source/lpc177x_8x_rtc.c ****         LPC_RTC->ERCONTROL |= RTC_ERCTRL_EV2_INTWAKE_ENABLE;
 2294              		.loc 1 761 0
 2295 0da6 354B     		ldr	r3, .L180
 2296 0da8 344A     		ldr	r2, .L180
 2297 0daa D2F88420 		ldr	r2, [r2, #132]
 2298 0dae 42F48012 		orr	r2, r2, #1048576
 2299 0db2 C3F88420 		str	r2, [r3, #132]
 2300 0db6 07E0     		b	.L170
 2301              	.L169:
 762:../src/lib/lpc177x_8x/Drivers/source/lpc177x_8x_rtc.c ****     else
 763:../src/lib/lpc177x_8x/Drivers/source/lpc177x_8x_rtc.c ****         LPC_RTC->ERCONTROL &= ~RTC_ERCTRL_EV2_INTWAKE_ENABLE;
 2302              		.loc 1 763 0
 2303 0db8 304B     		ldr	r3, .L180
 2304 0dba 304A     		ldr	r2, .L180
 2305 0dbc D2F88420 		ldr	r2, [r2, #132]
 2306 0dc0 22F48012 		bic	r2, r2, #1048576
 2307 0dc4 C3F88420 		str	r2, [r3, #132]
 2308              	.L170:
 764:../src/lib/lpc177x_8x/Drivers/source/lpc177x_8x_rtc.c **** 
 765:../src/lib/lpc177x_8x/Drivers/source/lpc177x_8x_rtc.c ****     if(pConfig->InputChannel[2].GPClear)
 2309              		.loc 1 765 0
 2310 0dc8 7B68     		ldr	r3, [r7, #4]
 2311 0dca 1B7A     		ldrb	r3, [r3, #8]	@ zero_extendqisi2
 2312 0dcc 002B     		cmp	r3, #0
 2313 0dce 08D0     		beq	.L171
 766:../src/lib/lpc177x_8x/Drivers/source/lpc177x_8x_rtc.c ****         LPC_RTC->ERCONTROL |= RTC_ERCTRL_EV2_GPCLEAR_ENABLE;
 2314              		.loc 1 766 0
 2315 0dd0 2A4B     		ldr	r3, .L180
 2316 0dd2 2A4A     		ldr	r2, .L180
 2317 0dd4 D2F88420 		ldr	r2, [r2, #132]
 2318 0dd8 42F40012 		orr	r2, r2, #2097152
 2319 0ddc C3F88420 		str	r2, [r3, #132]
 2320 0de0 07E0     		b	.L172
 2321              	.L171:
 767:../src/lib/lpc177x_8x/Drivers/source/lpc177x_8x_rtc.c ****     else
 768:../src/lib/lpc177x_8x/Drivers/source/lpc177x_8x_rtc.c ****         LPC_RTC->ERCONTROL &= ~RTC_ERCTRL_EV2_GPCLEAR_ENABLE;
 2322              		.loc 1 768 0
 2323 0de2 264B     		ldr	r3, .L180
 2324 0de4 254A     		ldr	r2, .L180
 2325 0de6 D2F88420 		ldr	r2, [r2, #132]
 2326 0dea 22F40012 		bic	r2, r2, #2097152
 2327 0dee C3F88420 		str	r2, [r3, #132]
 2328              	.L172:
 769:../src/lib/lpc177x_8x/Drivers/source/lpc177x_8x_rtc.c **** 
 770:../src/lib/lpc177x_8x/Drivers/source/lpc177x_8x_rtc.c ****     /* Sample Clock */
 771:../src/lib/lpc177x_8x/Drivers/source/lpc177x_8x_rtc.c ****     LPC_RTC->ERCONTROL &= ~RTC_ERCTRL_MODE_MASK;
 2329              		.loc 1 771 0
 2330 0df2 224B     		ldr	r3, .L180
 2331 0df4 214A     		ldr	r2, .L180
 2332 0df6 D2F88420 		ldr	r2, [r2, #132]
 2333 0dfa 22F04042 		bic	r2, r2, #-1073741824
 2334 0dfe C3F88420 		str	r2, [r3, #132]
 772:../src/lib/lpc177x_8x/Drivers/source/lpc177x_8x_rtc.c ****     switch(pConfig->Clk)
 2335              		.loc 1 772 0
 2336 0e02 7B68     		ldr	r3, [r7, #4]
 2337 0e04 DB68     		ldr	r3, [r3, #12]
 2338 0e06 102B     		cmp	r3, #16
 2339 0e08 11D0     		beq	.L175
 2340 0e0a 102B     		cmp	r3, #16
 2341 0e0c 02D8     		bhi	.L178
 2342 0e0e 002B     		cmp	r3, #0
 2343 0e10 06D0     		beq	.L174
 2344 0e12 27E0     		b	.L173
 2345              	.L178:
 2346 0e14 402B     		cmp	r3, #64
 2347 0e16 13D0     		beq	.L176
 2348 0e18 B3F57A7F 		cmp	r3, #1000
 2349 0e1c 19D0     		beq	.L177
 2350 0e1e 21E0     		b	.L173
 2351              	.L174:
 773:../src/lib/lpc177x_8x/Drivers/source/lpc177x_8x_rtc.c ****     {
 774:../src/lib/lpc177x_8x/Drivers/source/lpc177x_8x_rtc.c ****         case 0:
 775:../src/lib/lpc177x_8x/Drivers/source/lpc177x_8x_rtc.c ****             LPC_RTC->ERCONTROL |= RTC_ERCTRL_MODE_CLK_DISABLE;
 2352              		.loc 1 775 0
 2353 0e20 164B     		ldr	r3, .L180
 2354 0e22 164A     		ldr	r2, .L180
 2355 0e24 D2F88420 		ldr	r2, [r2, #132]
 2356 0e28 C3F88420 		str	r2, [r3, #132]
 776:../src/lib/lpc177x_8x/Drivers/source/lpc177x_8x_rtc.c ****             break;
 2357              		.loc 1 776 0
 2358 0e2c 1DE0     		b	.L179
 2359              	.L175:
 777:../src/lib/lpc177x_8x/Drivers/source/lpc177x_8x_rtc.c ****         case 16:
 778:../src/lib/lpc177x_8x/Drivers/source/lpc177x_8x_rtc.c ****             LPC_RTC->ERCONTROL |= RTC_ERCTRL_MODE_16HZ;
 2360              		.loc 1 778 0
 2361 0e2e 134B     		ldr	r3, .L180
 2362 0e30 124A     		ldr	r2, .L180
 2363 0e32 D2F88420 		ldr	r2, [r2, #132]
 2364 0e36 42F08042 		orr	r2, r2, #1073741824
 2365 0e3a C3F88420 		str	r2, [r3, #132]
 779:../src/lib/lpc177x_8x/Drivers/source/lpc177x_8x_rtc.c ****             break;
 2366              		.loc 1 779 0
 2367 0e3e 14E0     		b	.L179
 2368              	.L176:
 780:../src/lib/lpc177x_8x/Drivers/source/lpc177x_8x_rtc.c ****         case 64:
 781:../src/lib/lpc177x_8x/Drivers/source/lpc177x_8x_rtc.c ****             LPC_RTC->ERCONTROL |= RTC_ERCTRL_MODE_64HZ;
 2369              		.loc 1 781 0
 2370 0e40 0E4B     		ldr	r3, .L180
 2371 0e42 0E4A     		ldr	r2, .L180
 2372 0e44 D2F88420 		ldr	r2, [r2, #132]
 2373 0e48 42F00042 		orr	r2, r2, #-2147483648
 2374 0e4c C3F88420 		str	r2, [r3, #132]
 782:../src/lib/lpc177x_8x/Drivers/source/lpc177x_8x_rtc.c ****             break;
 2375              		.loc 1 782 0
 2376 0e50 0BE0     		b	.L179
 2377              	.L177:
 783:../src/lib/lpc177x_8x/Drivers/source/lpc177x_8x_rtc.c ****         case 1000:
 784:../src/lib/lpc177x_8x/Drivers/source/lpc177x_8x_rtc.c ****             LPC_RTC->ERCONTROL |= RTC_ERCTRL_MODE_1KHZ;
 2378              		.loc 1 784 0
 2379 0e52 0A4B     		ldr	r3, .L180
 2380 0e54 094A     		ldr	r2, .L180
 2381 0e56 D2F88420 		ldr	r2, [r2, #132]
 2382 0e5a 42F04042 		orr	r2, r2, #-1073741824
 2383 0e5e C3F88420 		str	r2, [r3, #132]
 785:../src/lib/lpc177x_8x/Drivers/source/lpc177x_8x_rtc.c ****             break;
 2384              		.loc 1 785 0
 2385 0e62 02E0     		b	.L179
 2386              	.L173:
 786:../src/lib/lpc177x_8x/Drivers/source/lpc177x_8x_rtc.c ****         default:
 787:../src/lib/lpc177x_8x/Drivers/source/lpc177x_8x_rtc.c ****             return ERROR;
 2387              		.loc 1 787 0
 2388 0e64 4FF00003 		mov	r3, #0
 2389 0e68 01E0     		b	.L153
 2390              	.L179:
 788:../src/lib/lpc177x_8x/Drivers/source/lpc177x_8x_rtc.c ****     }
 789:../src/lib/lpc177x_8x/Drivers/source/lpc177x_8x_rtc.c ****     return SUCCESS;
 2391              		.loc 1 789 0
 2392 0e6a 4FF00103 		mov	r3, #1
 2393              	.L153:
 790:../src/lib/lpc177x_8x/Drivers/source/lpc177x_8x_rtc.c **** }
 2394              		.loc 1 790 0
 2395 0e6e 1846     		mov	r0, r3
 2396 0e70 07F10C07 		add	r7, r7, #12
 2397 0e74 BD46     		mov	sp, r7
 2398 0e76 80BC     		pop	{r7}
 2399 0e78 7047     		bx	lr
 2400              	.L181:
 2401 0e7a 00BF     		.align	2
 2402              	.L180:
 2403 0e7c 00400240 		.word	1073889280
 2404              		.cfi_endproc
 2405              	.LFE76:
 2407              		.align	2
 2408              		.global	RTC_ER_Cmd
 2409              		.thumb
 2410              		.thumb_func
 2412              	RTC_ER_Cmd:
 2413              	.LFB77:
 791:../src/lib/lpc177x_8x/Drivers/source/lpc177x_8x_rtc.c **** /*********************************************************************//**
 792:../src/lib/lpc177x_8x/Drivers/source/lpc177x_8x_rtc.c ****  * @brief       Enable/Disable a input channel for Event Monitor/Recorder
 793:../src/lib/lpc177x_8x/Drivers/source/lpc177x_8x_rtc.c ****  * @param[in]   channel Channel Number. It should be 0~2
 794:../src/lib/lpc177x_8x/Drivers/source/lpc177x_8x_rtc.c ****   * @param[in]state ENABLE/DISABLE
 795:../src/lib/lpc177x_8x/Drivers/source/lpc177x_8x_rtc.c ****  * @return      SUCCESS/ERROR
 796:../src/lib/lpc177x_8x/Drivers/source/lpc177x_8x_rtc.c ****  **********************************************************************/
 797:../src/lib/lpc177x_8x/Drivers/source/lpc177x_8x_rtc.c **** Status RTC_ER_Cmd(uint8_t channel, FunctionalState state)
 798:../src/lib/lpc177x_8x/Drivers/source/lpc177x_8x_rtc.c **** {
 2414              		.loc 1 798 0
 2415              		.cfi_startproc
 2416              		@ args = 0, pretend = 0, frame = 8
 2417              		@ frame_needed = 1, uses_anonymous_args = 0
 2418              		@ link register save eliminated.
 2419 0e80 80B4     		push	{r7}
 2420              	.LCFI66:
 2421              		.cfi_def_cfa_offset 4
 2422              		.cfi_offset 7, -4
 2423 0e82 83B0     		sub	sp, sp, #12
 2424              	.LCFI67:
 2425              		.cfi_def_cfa_offset 16
 2426 0e84 00AF     		add	r7, sp, #0
 2427              	.LCFI68:
 2428              		.cfi_def_cfa_register 7
 2429 0e86 0246     		mov	r2, r0
 2430 0e88 0B46     		mov	r3, r1
 2431 0e8a FA71     		strb	r2, [r7, #7]
 2432 0e8c BB71     		strb	r3, [r7, #6]
 799:../src/lib/lpc177x_8x/Drivers/source/lpc177x_8x_rtc.c ****     switch(channel)
 2433              		.loc 1 799 0
 2434 0e8e FB79     		ldrb	r3, [r7, #7]	@ zero_extendqisi2
 2435 0e90 012B     		cmp	r3, #1
 2436 0e92 18D0     		beq	.L185
 2437 0e94 022B     		cmp	r3, #2
 2438 0e96 2BD0     		beq	.L186
 2439 0e98 002B     		cmp	r3, #0
 2440 0e9a 3ED1     		bne	.L195
 2441              	.L184:
 800:../src/lib/lpc177x_8x/Drivers/source/lpc177x_8x_rtc.c ****     {
 801:../src/lib/lpc177x_8x/Drivers/source/lpc177x_8x_rtc.c ****         case 0:
 802:../src/lib/lpc177x_8x/Drivers/source/lpc177x_8x_rtc.c ****             if(state)
 2442              		.loc 1 802 0
 2443 0e9c BB79     		ldrb	r3, [r7, #6]	@ zero_extendqisi2
 2444 0e9e 002B     		cmp	r3, #0
 2445 0ea0 08D0     		beq	.L187
 803:../src/lib/lpc177x_8x/Drivers/source/lpc177x_8x_rtc.c ****                 LPC_RTC->ERCONTROL |= RTC_ERCTRL_EV0_INPUT_ENABLE;
 2446              		.loc 1 803 0
 2447 0ea2 234B     		ldr	r3, .L196
 2448 0ea4 224A     		ldr	r2, .L196
 2449 0ea6 D2F88420 		ldr	r2, [r2, #132]
 2450 0eaa 42F00802 		orr	r2, r2, #8
 2451 0eae C3F88420 		str	r2, [r3, #132]
 804:../src/lib/lpc177x_8x/Drivers/source/lpc177x_8x_rtc.c ****             else
 805:../src/lib/lpc177x_8x/Drivers/source/lpc177x_8x_rtc.c ****                 LPC_RTC->ERCONTROL &= ~RTC_ERCTRL_EV0_INPUT_ENABLE;
 806:../src/lib/lpc177x_8x/Drivers/source/lpc177x_8x_rtc.c ****             break;
 2452              		.loc 1 806 0
 2453 0eb2 35E0     		b	.L189
 2454              	.L187:
 805:../src/lib/lpc177x_8x/Drivers/source/lpc177x_8x_rtc.c ****                 LPC_RTC->ERCONTROL &= ~RTC_ERCTRL_EV0_INPUT_ENABLE;
 2455              		.loc 1 805 0
 2456 0eb4 1E4B     		ldr	r3, .L196
 2457 0eb6 1E4A     		ldr	r2, .L196
 2458 0eb8 D2F88420 		ldr	r2, [r2, #132]
 2459 0ebc 22F00802 		bic	r2, r2, #8
 2460 0ec0 C3F88420 		str	r2, [r3, #132]
 2461              		.loc 1 806 0
 2462 0ec4 2CE0     		b	.L189
 2463              	.L185:
 807:../src/lib/lpc177x_8x/Drivers/source/lpc177x_8x_rtc.c ****         case 1:
 808:../src/lib/lpc177x_8x/Drivers/source/lpc177x_8x_rtc.c ****             if(state)
 2464              		.loc 1 808 0
 2465 0ec6 BB79     		ldrb	r3, [r7, #6]	@ zero_extendqisi2
 2466 0ec8 002B     		cmp	r3, #0
 2467 0eca 08D0     		beq	.L190
 809:../src/lib/lpc177x_8x/Drivers/source/lpc177x_8x_rtc.c ****                 LPC_RTC->ERCONTROL |= RTC_ERCTRL_EV1_INPUT_ENABLE;
 2468              		.loc 1 809 0
 2469 0ecc 184B     		ldr	r3, .L196
 2470 0ece 184A     		ldr	r2, .L196
 2471 0ed0 D2F88420 		ldr	r2, [r2, #132]
 2472 0ed4 42F40052 		orr	r2, r2, #8192
 2473 0ed8 C3F88420 		str	r2, [r3, #132]
 810:../src/lib/lpc177x_8x/Drivers/source/lpc177x_8x_rtc.c ****             else
 811:../src/lib/lpc177x_8x/Drivers/source/lpc177x_8x_rtc.c ****                 LPC_RTC->ERCONTROL &= ~RTC_ERCTRL_EV1_INPUT_ENABLE;
 812:../src/lib/lpc177x_8x/Drivers/source/lpc177x_8x_rtc.c ****             break;
 2474              		.loc 1 812 0
 2475 0edc 20E0     		b	.L189
 2476              	.L190:
 811:../src/lib/lpc177x_8x/Drivers/source/lpc177x_8x_rtc.c ****                 LPC_RTC->ERCONTROL &= ~RTC_ERCTRL_EV1_INPUT_ENABLE;
 2477              		.loc 1 811 0
 2478 0ede 144B     		ldr	r3, .L196
 2479 0ee0 134A     		ldr	r2, .L196
 2480 0ee2 D2F88420 		ldr	r2, [r2, #132]
 2481 0ee6 22F40052 		bic	r2, r2, #8192
 2482 0eea C3F88420 		str	r2, [r3, #132]
 2483              		.loc 1 812 0
 2484 0eee 17E0     		b	.L189
 2485              	.L186:
 813:../src/lib/lpc177x_8x/Drivers/source/lpc177x_8x_rtc.c ****         case 2:
 814:../src/lib/lpc177x_8x/Drivers/source/lpc177x_8x_rtc.c ****             if(state)
 2486              		.loc 1 814 0
 2487 0ef0 BB79     		ldrb	r3, [r7, #6]	@ zero_extendqisi2
 2488 0ef2 002B     		cmp	r3, #0
 2489 0ef4 08D0     		beq	.L192
 815:../src/lib/lpc177x_8x/Drivers/source/lpc177x_8x_rtc.c ****                 LPC_RTC->ERCONTROL |= RTC_ERCTRL_EV2_INPUT_ENABLE;
 2490              		.loc 1 815 0
 2491 0ef6 0E4B     		ldr	r3, .L196
 2492 0ef8 0D4A     		ldr	r2, .L196
 2493 0efa D2F88420 		ldr	r2, [r2, #132]
 2494 0efe 42F40002 		orr	r2, r2, #8388608
 2495 0f02 C3F88420 		str	r2, [r3, #132]
 816:../src/lib/lpc177x_8x/Drivers/source/lpc177x_8x_rtc.c ****             else
 817:../src/lib/lpc177x_8x/Drivers/source/lpc177x_8x_rtc.c ****                 LPC_RTC->ERCONTROL &= ~RTC_ERCTRL_EV2_INPUT_ENABLE;
 818:../src/lib/lpc177x_8x/Drivers/source/lpc177x_8x_rtc.c ****             break;
 2496              		.loc 1 818 0
 2497 0f06 0BE0     		b	.L189
 2498              	.L192:
 817:../src/lib/lpc177x_8x/Drivers/source/lpc177x_8x_rtc.c ****                 LPC_RTC->ERCONTROL &= ~RTC_ERCTRL_EV2_INPUT_ENABLE;
 2499              		.loc 1 817 0
 2500 0f08 094B     		ldr	r3, .L196
 2501 0f0a 094A     		ldr	r2, .L196
 2502 0f0c D2F88420 		ldr	r2, [r2, #132]
 2503 0f10 22F40002 		bic	r2, r2, #8388608
 2504 0f14 C3F88420 		str	r2, [r3, #132]
 2505              		.loc 1 818 0
 2506 0f18 02E0     		b	.L189
 2507              	.L195:
 819:../src/lib/lpc177x_8x/Drivers/source/lpc177x_8x_rtc.c ****         default:
 820:../src/lib/lpc177x_8x/Drivers/source/lpc177x_8x_rtc.c ****             return ERROR;
 2508              		.loc 1 820 0
 2509 0f1a 4FF00003 		mov	r3, #0
 2510 0f1e 01E0     		b	.L194
 2511              	.L189:
 821:../src/lib/lpc177x_8x/Drivers/source/lpc177x_8x_rtc.c ****     }
 822:../src/lib/lpc177x_8x/Drivers/source/lpc177x_8x_rtc.c ****     return SUCCESS;
 2512              		.loc 1 822 0
 2513 0f20 4FF00103 		mov	r3, #1
 2514              	.L194:
 823:../src/lib/lpc177x_8x/Drivers/source/lpc177x_8x_rtc.c **** }
 2515              		.loc 1 823 0
 2516 0f24 1846     		mov	r0, r3
 2517 0f26 07F10C07 		add	r7, r7, #12
 2518 0f2a BD46     		mov	sp, r7
 2519 0f2c 80BC     		pop	{r7}
 2520 0f2e 7047     		bx	lr
 2521              	.L197:
 2522              		.align	2
 2523              	.L196:
 2524 0f30 00400240 		.word	1073889280
 2525              		.cfi_endproc
 2526              	.LFE77:
 2528              		.align	2
 2529              		.global	RTC_ER_GetEventCount
 2530              		.thumb
 2531              		.thumb_func
 2533              	RTC_ER_GetEventCount:
 2534              	.LFB78:
 824:../src/lib/lpc177x_8x/Drivers/source/lpc177x_8x_rtc.c **** /*********************************************************************//**
 825:../src/lib/lpc177x_8x/Drivers/source/lpc177x_8x_rtc.c ****  * @brief       Get event count on a given channel.
 826:../src/lib/lpc177x_8x/Drivers/source/lpc177x_8x_rtc.c ****  * @param[in]   channel Channel Number. It should be 0~2
 827:../src/lib/lpc177x_8x/Drivers/source/lpc177x_8x_rtc.c ****  * @return  counter
 828:../src/lib/lpc177x_8x/Drivers/source/lpc177x_8x_rtc.c ****  **********************************************************************/
 829:../src/lib/lpc177x_8x/Drivers/source/lpc177x_8x_rtc.c **** uint8_t RTC_ER_GetEventCount(uint8_t channel)
 830:../src/lib/lpc177x_8x/Drivers/source/lpc177x_8x_rtc.c **** {
 2535              		.loc 1 830 0
 2536              		.cfi_startproc
 2537              		@ args = 0, pretend = 0, frame = 16
 2538              		@ frame_needed = 1, uses_anonymous_args = 0
 2539              		@ link register save eliminated.
 2540 0f34 80B4     		push	{r7}
 2541              	.LCFI69:
 2542              		.cfi_def_cfa_offset 4
 2543              		.cfi_offset 7, -4
 2544 0f36 85B0     		sub	sp, sp, #20
 2545              	.LCFI70:
 2546              		.cfi_def_cfa_offset 24
 2547 0f38 00AF     		add	r7, sp, #0
 2548              	.LCFI71:
 2549              		.cfi_def_cfa_register 7
 2550 0f3a 0346     		mov	r3, r0
 2551 0f3c FB71     		strb	r3, [r7, #7]
 831:../src/lib/lpc177x_8x/Drivers/source/lpc177x_8x_rtc.c ****     uint8_t count = 0;
 2552              		.loc 1 831 0
 2553 0f3e 4FF00003 		mov	r3, #0
 2554 0f42 FB73     		strb	r3, [r7, #15]
 832:../src/lib/lpc177x_8x/Drivers/source/lpc177x_8x_rtc.c ****     switch(channel)
 2555              		.loc 1 832 0
 2556 0f44 FB79     		ldrb	r3, [r7, #7]	@ zero_extendqisi2
 2557 0f46 012B     		cmp	r3, #1
 2558 0f48 0BD0     		beq	.L201
 2559 0f4a 022B     		cmp	r3, #2
 2560 0f4c 13D0     		beq	.L202
 2561 0f4e 002B     		cmp	r3, #0
 2562 0f50 1BD1     		bne	.L205
 2563              	.L200:
 833:../src/lib/lpc177x_8x/Drivers/source/lpc177x_8x_rtc.c ****     {
 834:../src/lib/lpc177x_8x/Drivers/source/lpc177x_8x_rtc.c ****         case 0:
 835:../src/lib/lpc177x_8x/Drivers/source/lpc177x_8x_rtc.c ****             count = RTC_ER_EV0_COUNTER(LPC_RTC->ERCOUNTERS);
 2564              		.loc 1 835 0
 2565 0f52 124B     		ldr	r3, .L206
 2566 0f54 D3F88830 		ldr	r3, [r3, #136]
 2567 0f58 DBB2     		uxtb	r3, r3
 2568 0f5a 03F00703 		and	r3, r3, #7
 2569 0f5e FB73     		strb	r3, [r7, #15]
 836:../src/lib/lpc177x_8x/Drivers/source/lpc177x_8x_rtc.c ****             break;
 2570              		.loc 1 836 0
 2571 0f60 14E0     		b	.L203
 2572              	.L201:
 837:../src/lib/lpc177x_8x/Drivers/source/lpc177x_8x_rtc.c ****         case 1:
 838:../src/lib/lpc177x_8x/Drivers/source/lpc177x_8x_rtc.c ****             count = RTC_ER_EV1_COUNTER(LPC_RTC->ERCOUNTERS);
 2573              		.loc 1 838 0
 2574 0f62 0E4B     		ldr	r3, .L206
 2575 0f64 D3F88830 		ldr	r3, [r3, #136]
 2576 0f68 4FEA1323 		lsr	r3, r3, #8
 2577 0f6c DBB2     		uxtb	r3, r3
 2578 0f6e 03F00703 		and	r3, r3, #7
 2579 0f72 FB73     		strb	r3, [r7, #15]
 839:../src/lib/lpc177x_8x/Drivers/source/lpc177x_8x_rtc.c ****             break;
 2580              		.loc 1 839 0
 2581 0f74 0AE0     		b	.L203
 2582              	.L202:
 840:../src/lib/lpc177x_8x/Drivers/source/lpc177x_8x_rtc.c ****         case 2:
 841:../src/lib/lpc177x_8x/Drivers/source/lpc177x_8x_rtc.c ****             count = RTC_ER_EV2_COUNTER(LPC_RTC->ERCOUNTERS);
 2583              		.loc 1 841 0
 2584 0f76 094B     		ldr	r3, .L206
 2585 0f78 D3F88830 		ldr	r3, [r3, #136]
 2586 0f7c 4FEA1343 		lsr	r3, r3, #16
 2587 0f80 DBB2     		uxtb	r3, r3
 2588 0f82 03F00703 		and	r3, r3, #7
 2589 0f86 FB73     		strb	r3, [r7, #15]
 842:../src/lib/lpc177x_8x/Drivers/source/lpc177x_8x_rtc.c ****             break;
 2590              		.loc 1 842 0
 2591 0f88 00E0     		b	.L203
 2592              	.L205:
 843:../src/lib/lpc177x_8x/Drivers/source/lpc177x_8x_rtc.c ****         default: 
 844:../src/lib/lpc177x_8x/Drivers/source/lpc177x_8x_rtc.c ****             break;      
 2593              		.loc 1 844 0
 2594 0f8a 00BF     		nop
 2595              	.L203:
 845:../src/lib/lpc177x_8x/Drivers/source/lpc177x_8x_rtc.c ****     }
 846:../src/lib/lpc177x_8x/Drivers/source/lpc177x_8x_rtc.c ****     return count;
 2596              		.loc 1 846 0
 2597 0f8c FB7B     		ldrb	r3, [r7, #15]	@ zero_extendqisi2
 847:../src/lib/lpc177x_8x/Drivers/source/lpc177x_8x_rtc.c **** }
 2598              		.loc 1 847 0
 2599 0f8e 1846     		mov	r0, r3
 2600 0f90 07F11407 		add	r7, r7, #20
 2601 0f94 BD46     		mov	sp, r7
 2602 0f96 80BC     		pop	{r7}
 2603 0f98 7047     		bx	lr
 2604              	.L207:
 2605 0f9a 00BF     		.align	2
 2606              	.L206:
 2607 0f9c 00400240 		.word	1073889280
 2608              		.cfi_endproc
 2609              	.LFE78:
 2611              		.align	2
 2612              		.global	RTC_ER_GetStatus
 2613              		.thumb
 2614              		.thumb_func
 2616              	RTC_ER_GetStatus:
 2617              	.LFB79:
 848:../src/lib/lpc177x_8x/Drivers/source/lpc177x_8x_rtc.c **** /*********************************************************************//**
 849:../src/lib/lpc177x_8x/Drivers/source/lpc177x_8x_rtc.c ****  * @brief       Get Event Monirot/Recorder Status.
 850:../src/lib/lpc177x_8x/Drivers/source/lpc177x_8x_rtc.c ****  * @param[in]   None
 851:../src/lib/lpc177x_8x/Drivers/source/lpc177x_8x_rtc.c ****  * @return      Status. It can includes:
 852:../src/lib/lpc177x_8x/Drivers/source/lpc177x_8x_rtc.c ****  *                  RTC_ER_EVENTS_ON_EV0_FLG
 853:../src/lib/lpc177x_8x/Drivers/source/lpc177x_8x_rtc.c ****  *                  RTC_ER_EVENTS_ON_EV1_FLG
 854:../src/lib/lpc177x_8x/Drivers/source/lpc177x_8x_rtc.c ****  *                  RTC_ER_EVENTS_ON_EV2_FLG
 855:../src/lib/lpc177x_8x/Drivers/source/lpc177x_8x_rtc.c ****  *                  RTC_ER_STATUS_GP_CLEARED_FLG
 856:../src/lib/lpc177x_8x/Drivers/source/lpc177x_8x_rtc.c ****  *                  RTC_ER_STATUS_WAKEUP_REQ_PENDING
 857:../src/lib/lpc177x_8x/Drivers/source/lpc177x_8x_rtc.c ****  **********************************************************************/
 858:../src/lib/lpc177x_8x/Drivers/source/lpc177x_8x_rtc.c **** uint32_t RTC_ER_GetStatus(void)
 859:../src/lib/lpc177x_8x/Drivers/source/lpc177x_8x_rtc.c **** {
 2618              		.loc 1 859 0
 2619              		.cfi_startproc
 2620              		@ args = 0, pretend = 0, frame = 0
 2621              		@ frame_needed = 1, uses_anonymous_args = 0
 2622              		@ link register save eliminated.
 2623 0fa0 80B4     		push	{r7}
 2624              	.LCFI72:
 2625              		.cfi_def_cfa_offset 4
 2626              		.cfi_offset 7, -4
 2627 0fa2 00AF     		add	r7, sp, #0
 2628              	.LCFI73:
 2629              		.cfi_def_cfa_register 7
 860:../src/lib/lpc177x_8x/Drivers/source/lpc177x_8x_rtc.c ****     return LPC_RTC->ERSTATUS;
 2630              		.loc 1 860 0
 2631 0fa4 034B     		ldr	r3, .L210
 2632 0fa6 D3F88030 		ldr	r3, [r3, #128]
 861:../src/lib/lpc177x_8x/Drivers/source/lpc177x_8x_rtc.c **** }
 2633              		.loc 1 861 0
 2634 0faa 1846     		mov	r0, r3
 2635 0fac BD46     		mov	sp, r7
 2636 0fae 80BC     		pop	{r7}
 2637 0fb0 7047     		bx	lr
 2638              	.L211:
 2639 0fb2 00BF     		.align	2
 2640              	.L210:
 2641 0fb4 00400240 		.word	1073889280
 2642              		.cfi_endproc
 2643              	.LFE79:
 2645              		.align	2
 2646              		.global	RTC_ER_ClearStatus
 2647              		.thumb
 2648              		.thumb_func
 2650              	RTC_ER_ClearStatus:
 2651              	.LFB80:
 862:../src/lib/lpc177x_8x/Drivers/source/lpc177x_8x_rtc.c **** /*********************************************************************//**
 863:../src/lib/lpc177x_8x/Drivers/source/lpc177x_8x_rtc.c ****  * @brief       Clear Event Monitor/recoder status register.
 864:../src/lib/lpc177x_8x/Drivers/source/lpc177x_8x_rtc.c ****  * @param[in] status    Status Flag. It should be:
 865:../src/lib/lpc177x_8x/Drivers/source/lpc177x_8x_rtc.c ****  *                  RTC_ER_EVENTS_ON_EV0_FLG
 866:../src/lib/lpc177x_8x/Drivers/source/lpc177x_8x_rtc.c ****  *                  RTC_ER_EVENTS_ON_EV1_FLG
 867:../src/lib/lpc177x_8x/Drivers/source/lpc177x_8x_rtc.c ****  *                  RTC_ER_EVENTS_ON_EV2_FLG
 868:../src/lib/lpc177x_8x/Drivers/source/lpc177x_8x_rtc.c ****  *                  RTC_ER_STATUS_GP_CLEARED_FLG
 869:../src/lib/lpc177x_8x/Drivers/source/lpc177x_8x_rtc.c ****  *                  RTC_ER_STATUS_WAKEUP_REQ_PENDING
 870:../src/lib/lpc177x_8x/Drivers/source/lpc177x_8x_rtc.c ****  * @return  None
 871:../src/lib/lpc177x_8x/Drivers/source/lpc177x_8x_rtc.c ****  **********************************************************************/
 872:../src/lib/lpc177x_8x/Drivers/source/lpc177x_8x_rtc.c **** void RTC_ER_ClearStatus(uint32_t status)
 873:../src/lib/lpc177x_8x/Drivers/source/lpc177x_8x_rtc.c **** {
 2652              		.loc 1 873 0
 2653              		.cfi_startproc
 2654              		@ args = 0, pretend = 0, frame = 8
 2655              		@ frame_needed = 1, uses_anonymous_args = 0
 2656              		@ link register save eliminated.
 2657 0fb8 80B4     		push	{r7}
 2658              	.LCFI74:
 2659              		.cfi_def_cfa_offset 4
 2660              		.cfi_offset 7, -4
 2661 0fba 83B0     		sub	sp, sp, #12
 2662              	.LCFI75:
 2663              		.cfi_def_cfa_offset 16
 2664 0fbc 00AF     		add	r7, sp, #0
 2665              	.LCFI76:
 2666              		.cfi_def_cfa_register 7
 2667 0fbe 7860     		str	r0, [r7, #4]
 874:../src/lib/lpc177x_8x/Drivers/source/lpc177x_8x_rtc.c ****     LPC_RTC->ERSTATUS |= status;
 2668              		.loc 1 874 0
 2669 0fc0 064B     		ldr	r3, .L213
 2670 0fc2 064A     		ldr	r2, .L213
 2671 0fc4 D2F88010 		ldr	r1, [r2, #128]
 2672 0fc8 7A68     		ldr	r2, [r7, #4]
 2673 0fca 0A43     		orrs	r2, r2, r1
 2674 0fcc C3F88020 		str	r2, [r3, #128]
 875:../src/lib/lpc177x_8x/Drivers/source/lpc177x_8x_rtc.c **** }
 2675              		.loc 1 875 0
 2676 0fd0 07F10C07 		add	r7, r7, #12
 2677 0fd4 BD46     		mov	sp, r7
 2678 0fd6 80BC     		pop	{r7}
 2679 0fd8 7047     		bx	lr
 2680              	.L214:
 2681 0fda 00BF     		.align	2
 2682              	.L213:
 2683 0fdc 00400240 		.word	1073889280
 2684              		.cfi_endproc
 2685              	.LFE80:
 2687              		.align	2
 2688              		.global	RTC_ER_WakupReqPending
 2689              		.thumb
 2690              		.thumb_func
 2692              	RTC_ER_WakupReqPending:
 2693              	.LFB81:
 876:../src/lib/lpc177x_8x/Drivers/source/lpc177x_8x_rtc.c **** /*********************************************************************//**
 877:../src/lib/lpc177x_8x/Drivers/source/lpc177x_8x_rtc.c ****  * @brief       Check whether a Wakup request is pending or not.
 878:../src/lib/lpc177x_8x/Drivers/source/lpc177x_8x_rtc.c ****  * @param[in] None
 879:../src/lib/lpc177x_8x/Drivers/source/lpc177x_8x_rtc.c ****  * @return  TRUE/FALSE
 880:../src/lib/lpc177x_8x/Drivers/source/lpc177x_8x_rtc.c ****  **********************************************************************/
 881:../src/lib/lpc177x_8x/Drivers/source/lpc177x_8x_rtc.c **** Bool RTC_ER_WakupReqPending(void)
 882:../src/lib/lpc177x_8x/Drivers/source/lpc177x_8x_rtc.c **** {
 2694              		.loc 1 882 0
 2695              		.cfi_startproc
 2696              		@ args = 0, pretend = 0, frame = 0
 2697              		@ frame_needed = 1, uses_anonymous_args = 0
 2698              		@ link register save eliminated.
 2699 0fe0 80B4     		push	{r7}
 2700              	.LCFI77:
 2701              		.cfi_def_cfa_offset 4
 2702              		.cfi_offset 7, -4
 2703 0fe2 00AF     		add	r7, sp, #0
 2704              	.LCFI78:
 2705              		.cfi_def_cfa_register 7
 883:../src/lib/lpc177x_8x/Drivers/source/lpc177x_8x_rtc.c ****     if(LPC_RTC->ERSTATUS & RTC_ER_STATUS_WAKEUP_REQ_PENDING)
 2706              		.loc 1 883 0
 2707 0fe4 064B     		ldr	r3, .L218
 2708 0fe6 D3F88030 		ldr	r3, [r3, #128]
 2709 0fea 002B     		cmp	r3, #0
 2710 0fec 02DA     		bge	.L216
 884:../src/lib/lpc177x_8x/Drivers/source/lpc177x_8x_rtc.c ****         return TRUE;
 2711              		.loc 1 884 0
 2712 0fee 4FF00103 		mov	r3, #1
 2713 0ff2 01E0     		b	.L217
 2714              	.L216:
 885:../src/lib/lpc177x_8x/Drivers/source/lpc177x_8x_rtc.c ****     else
 886:../src/lib/lpc177x_8x/Drivers/source/lpc177x_8x_rtc.c ****         return FALSE;
 2715              		.loc 1 886 0
 2716 0ff4 4FF00003 		mov	r3, #0
 2717              	.L217:
 887:../src/lib/lpc177x_8x/Drivers/source/lpc177x_8x_rtc.c **** }
 2718              		.loc 1 887 0
 2719 0ff8 1846     		mov	r0, r3
 2720 0ffa BD46     		mov	sp, r7
 2721 0ffc 80BC     		pop	{r7}
 2722 0ffe 7047     		bx	lr
 2723              	.L219:
 2724              		.align	2
 2725              	.L218:
 2726 1000 00400240 		.word	1073889280
 2727              		.cfi_endproc
 2728              	.LFE81:
 2730              		.align	2
 2731              		.global	RTC_ER_GPCleared
 2732              		.thumb
 2733              		.thumb_func
 2735              	RTC_ER_GPCleared:
 2736              	.LFB82:
 888:../src/lib/lpc177x_8x/Drivers/source/lpc177x_8x_rtc.c **** /*********************************************************************//**
 889:../src/lib/lpc177x_8x/Drivers/source/lpc177x_8x_rtc.c ****  * @brief       Check whether RTC General Purpose registed has been cleared or not.
 890:../src/lib/lpc177x_8x/Drivers/source/lpc177x_8x_rtc.c ****  * @param[in] None
 891:../src/lib/lpc177x_8x/Drivers/source/lpc177x_8x_rtc.c ****  * @return  TRUE/FALSE
 892:../src/lib/lpc177x_8x/Drivers/source/lpc177x_8x_rtc.c ****  **********************************************************************/
 893:../src/lib/lpc177x_8x/Drivers/source/lpc177x_8x_rtc.c **** Bool     RTC_ER_GPCleared(void)
 894:../src/lib/lpc177x_8x/Drivers/source/lpc177x_8x_rtc.c **** {
 2737              		.loc 1 894 0
 2738              		.cfi_startproc
 2739              		@ args = 0, pretend = 0, frame = 0
 2740              		@ frame_needed = 1, uses_anonymous_args = 0
 2741              		@ link register save eliminated.
 2742 1004 80B4     		push	{r7}
 2743              	.LCFI79:
 2744              		.cfi_def_cfa_offset 4
 2745              		.cfi_offset 7, -4
 2746 1006 00AF     		add	r7, sp, #0
 2747              	.LCFI80:
 2748              		.cfi_def_cfa_register 7
 895:../src/lib/lpc177x_8x/Drivers/source/lpc177x_8x_rtc.c ****     if(LPC_RTC->ERSTATUS & RTC_ER_STATUS_GP_CLEARED_FLG)
 2749              		.loc 1 895 0
 2750 1008 074B     		ldr	r3, .L223
 2751 100a D3F88030 		ldr	r3, [r3, #128]
 2752 100e 03F00803 		and	r3, r3, #8
 2753 1012 002B     		cmp	r3, #0
 2754 1014 02D0     		beq	.L221
 896:../src/lib/lpc177x_8x/Drivers/source/lpc177x_8x_rtc.c ****         return TRUE;
 2755              		.loc 1 896 0
 2756 1016 4FF00103 		mov	r3, #1
 2757 101a 01E0     		b	.L222
 2758              	.L221:
 897:../src/lib/lpc177x_8x/Drivers/source/lpc177x_8x_rtc.c ****     else
 898:../src/lib/lpc177x_8x/Drivers/source/lpc177x_8x_rtc.c ****         return FALSE;
 2759              		.loc 1 898 0
 2760 101c 4FF00003 		mov	r3, #0
 2761              	.L222:
 899:../src/lib/lpc177x_8x/Drivers/source/lpc177x_8x_rtc.c **** }
 2762              		.loc 1 899 0
 2763 1020 1846     		mov	r0, r3
 2764 1022 BD46     		mov	sp, r7
 2765 1024 80BC     		pop	{r7}
 2766 1026 7047     		bx	lr
 2767              	.L224:
 2768              		.align	2
 2769              	.L223:
 2770 1028 00400240 		.word	1073889280
 2771              		.cfi_endproc
 2772              	.LFE82:
 2774              		.align	2
 2775              		.global	RTC_ER_GetFirstTimeStamp
 2776              		.thumb
 2777              		.thumb_func
 2779              	RTC_ER_GetFirstTimeStamp:
 2780              	.LFB83:
 900:../src/lib/lpc177x_8x/Drivers/source/lpc177x_8x_rtc.c **** /*********************************************************************//**
 901:../src/lib/lpc177x_8x/Drivers/source/lpc177x_8x_rtc.c ****  * @brief       Get the timestamp of the fist event on a given channel.
 902:../src/lib/lpc177x_8x/Drivers/source/lpc177x_8x_rtc.c ****  * @param[in] channel   Channel number (It should be 0~2)
 903:../src/lib/lpc177x_8x/Drivers/source/lpc177x_8x_rtc.c ****  * @param[in] pTimeStamp    point to the buffer
 904:../src/lib/lpc177x_8x/Drivers/source/lpc177x_8x_rtc.c ****  * @return  SUCCESS/ERROR
 905:../src/lib/lpc177x_8x/Drivers/source/lpc177x_8x_rtc.c ****  **********************************************************************/
 906:../src/lib/lpc177x_8x/Drivers/source/lpc177x_8x_rtc.c **** Status RTC_ER_GetFirstTimeStamp(uint8_t channel, RTC_ER_TIMESTAMP_Type* pTimeStamp)
 907:../src/lib/lpc177x_8x/Drivers/source/lpc177x_8x_rtc.c **** {
 2781              		.loc 1 907 0
 2782              		.cfi_startproc
 2783              		@ args = 0, pretend = 0, frame = 8
 2784              		@ frame_needed = 1, uses_anonymous_args = 0
 2785              		@ link register save eliminated.
 2786 102c 80B4     		push	{r7}
 2787              	.LCFI81:
 2788              		.cfi_def_cfa_offset 4
 2789              		.cfi_offset 7, -4
 2790 102e 83B0     		sub	sp, sp, #12
 2791              	.LCFI82:
 2792              		.cfi_def_cfa_offset 16
 2793 1030 00AF     		add	r7, sp, #0
 2794              	.LCFI83:
 2795              		.cfi_def_cfa_register 7
 2796 1032 0346     		mov	r3, r0
 2797 1034 3960     		str	r1, [r7, #0]
 2798 1036 FB71     		strb	r3, [r7, #7]
 908:../src/lib/lpc177x_8x/Drivers/source/lpc177x_8x_rtc.c ****     if(pTimeStamp == NULL)
 2799              		.loc 1 908 0
 2800 1038 3B68     		ldr	r3, [r7, #0]
 2801 103a 002B     		cmp	r3, #0
 2802 103c 02D1     		bne	.L226
 909:../src/lib/lpc177x_8x/Drivers/source/lpc177x_8x_rtc.c ****         return ERROR;
 2803              		.loc 1 909 0
 2804 103e 4FF00003 		mov	r3, #0
 2805 1042 97E0     		b	.L227
 2806              	.L226:
 910:../src/lib/lpc177x_8x/Drivers/source/lpc177x_8x_rtc.c ****     
 911:../src/lib/lpc177x_8x/Drivers/source/lpc177x_8x_rtc.c ****     switch(channel)
 2807              		.loc 1 911 0
 2808 1044 FB79     		ldrb	r3, [r7, #7]	@ zero_extendqisi2
 2809 1046 012B     		cmp	r3, #1
 2810 1048 33D0     		beq	.L230
 2811 104a 022B     		cmp	r3, #2
 2812 104c 60D0     		beq	.L231
 2813 104e 002B     		cmp	r3, #0
 2814 1050 40F08D80 		bne	.L236
 2815              	.L229:
 912:../src/lib/lpc177x_8x/Drivers/source/lpc177x_8x_rtc.c ****     {
 913:../src/lib/lpc177x_8x/Drivers/source/lpc177x_8x_rtc.c ****         case 0:
 914:../src/lib/lpc177x_8x/Drivers/source/lpc177x_8x_rtc.c ****             if((LPC_RTC->ERSTATUS & (1<<RTC_ER_STATUS_EV0_BIT)) == 0)
 2816              		.loc 1 914 0
 2817 1054 4A4B     		ldr	r3, .L237
 2818 1056 D3F88030 		ldr	r3, [r3, #128]
 2819 105a 03F00103 		and	r3, r3, #1
 2820 105e 002B     		cmp	r3, #0
 2821 1060 02D1     		bne	.L232
 915:../src/lib/lpc177x_8x/Drivers/source/lpc177x_8x_rtc.c ****                 return ERROR;
 2822              		.loc 1 915 0
 2823 1062 4FF00003 		mov	r3, #0
 2824 1066 85E0     		b	.L227
 2825              	.L232:
 916:../src/lib/lpc177x_8x/Drivers/source/lpc177x_8x_rtc.c ****             pTimeStamp->SEC = RTC_ER_TIMESTAMP_SEC(LPC_RTC->ERFIRSTSTAMP0);
 2826              		.loc 1 916 0
 2827 1068 454B     		ldr	r3, .L237
 2828 106a D3F89030 		ldr	r3, [r3, #144]
 2829 106e 03F03F02 		and	r2, r3, #63
 2830 1072 3B68     		ldr	r3, [r7, #0]
 2831 1074 1A60     		str	r2, [r3, #0]
 917:../src/lib/lpc177x_8x/Drivers/source/lpc177x_8x_rtc.c ****             pTimeStamp->MIN= RTC_ER_TIMESTAMP_MIN(LPC_RTC->ERFIRSTSTAMP0);
 2832              		.loc 1 917 0
 2833 1076 424B     		ldr	r3, .L237
 2834 1078 D3F89030 		ldr	r3, [r3, #144]
 2835 107c 4FEA9313 		lsr	r3, r3, #6
 2836 1080 03F03F02 		and	r2, r3, #63
 2837 1084 3B68     		ldr	r3, [r7, #0]
 2838 1086 5A60     		str	r2, [r3, #4]
 918:../src/lib/lpc177x_8x/Drivers/source/lpc177x_8x_rtc.c ****             pTimeStamp->HOUR= RTC_ER_TIMESTAMP_HOUR(LPC_RTC->ERFIRSTSTAMP0);
 2839              		.loc 1 918 0
 2840 1088 3D4B     		ldr	r3, .L237
 2841 108a D3F89030 		ldr	r3, [r3, #144]
 2842 108e 4FEA1333 		lsr	r3, r3, #12
 2843 1092 03F01F02 		and	r2, r3, #31
 2844 1096 3B68     		ldr	r3, [r7, #0]
 2845 1098 9A60     		str	r2, [r3, #8]
 919:../src/lib/lpc177x_8x/Drivers/source/lpc177x_8x_rtc.c ****             pTimeStamp->DOY = RTC_ER_TIMESTAMP_DOY(LPC_RTC->ERFIRSTSTAMP0);
 2846              		.loc 1 919 0
 2847 109a 394B     		ldr	r3, .L237
 2848 109c D3F89030 		ldr	r3, [r3, #144]
 2849 10a0 4FEA5343 		lsr	r3, r3, #17
 2850 10a4 4FEAC353 		lsl	r3, r3, #23
 2851 10a8 4FEAD353 		lsr	r3, r3, #23
 2852 10ac 3A68     		ldr	r2, [r7, #0]
 2853 10ae D360     		str	r3, [r2, #12]
 920:../src/lib/lpc177x_8x/Drivers/source/lpc177x_8x_rtc.c ****             break;
 2854              		.loc 1 920 0
 2855 10b0 5EE0     		b	.L233
 2856              	.L230:
 921:../src/lib/lpc177x_8x/Drivers/source/lpc177x_8x_rtc.c ****         case 1:
 922:../src/lib/lpc177x_8x/Drivers/source/lpc177x_8x_rtc.c ****             if((LPC_RTC->ERSTATUS & (1<<RTC_ER_STATUS_EV1_BIT)) == 0)
 2857              		.loc 1 922 0
 2858 10b2 334B     		ldr	r3, .L237
 2859 10b4 D3F88030 		ldr	r3, [r3, #128]
 2860 10b8 03F00203 		and	r3, r3, #2
 2861 10bc 002B     		cmp	r3, #0
 2862 10be 02D1     		bne	.L234
 923:../src/lib/lpc177x_8x/Drivers/source/lpc177x_8x_rtc.c ****                 return ERROR;
 2863              		.loc 1 923 0
 2864 10c0 4FF00003 		mov	r3, #0
 2865 10c4 56E0     		b	.L227
 2866              	.L234:
 924:../src/lib/lpc177x_8x/Drivers/source/lpc177x_8x_rtc.c ****             pTimeStamp->SEC = RTC_ER_TIMESTAMP_SEC(LPC_RTC->ERFIRSTSTAMP1);
 2867              		.loc 1 924 0
 2868 10c6 2E4B     		ldr	r3, .L237
 2869 10c8 D3F89430 		ldr	r3, [r3, #148]
 2870 10cc 03F03F02 		and	r2, r3, #63
 2871 10d0 3B68     		ldr	r3, [r7, #0]
 2872 10d2 1A60     		str	r2, [r3, #0]
 925:../src/lib/lpc177x_8x/Drivers/source/lpc177x_8x_rtc.c ****             pTimeStamp->MIN= RTC_ER_TIMESTAMP_MIN(LPC_RTC->ERFIRSTSTAMP1);
 2873              		.loc 1 925 0
 2874 10d4 2A4B     		ldr	r3, .L237
 2875 10d6 D3F89430 		ldr	r3, [r3, #148]
 2876 10da 4FEA9313 		lsr	r3, r3, #6
 2877 10de 03F03F02 		and	r2, r3, #63
 2878 10e2 3B68     		ldr	r3, [r7, #0]
 2879 10e4 5A60     		str	r2, [r3, #4]
 926:../src/lib/lpc177x_8x/Drivers/source/lpc177x_8x_rtc.c ****             pTimeStamp->HOUR= RTC_ER_TIMESTAMP_HOUR(LPC_RTC->ERFIRSTSTAMP1);
 2880              		.loc 1 926 0
 2881 10e6 264B     		ldr	r3, .L237
 2882 10e8 D3F89430 		ldr	r3, [r3, #148]
 2883 10ec 4FEA1333 		lsr	r3, r3, #12
 2884 10f0 03F01F02 		and	r2, r3, #31
 2885 10f4 3B68     		ldr	r3, [r7, #0]
 2886 10f6 9A60     		str	r2, [r3, #8]
 927:../src/lib/lpc177x_8x/Drivers/source/lpc177x_8x_rtc.c ****             pTimeStamp->DOY = RTC_ER_TIMESTAMP_DOY(LPC_RTC->ERFIRSTSTAMP1);
 2887              		.loc 1 927 0
 2888 10f8 214B     		ldr	r3, .L237
 2889 10fa D3F89430 		ldr	r3, [r3, #148]
 2890 10fe 4FEA5343 		lsr	r3, r3, #17
 2891 1102 4FEAC353 		lsl	r3, r3, #23
 2892 1106 4FEAD353 		lsr	r3, r3, #23
 2893 110a 3A68     		ldr	r2, [r7, #0]
 2894 110c D360     		str	r3, [r2, #12]
 928:../src/lib/lpc177x_8x/Drivers/source/lpc177x_8x_rtc.c ****             break;
 2895              		.loc 1 928 0
 2896 110e 2FE0     		b	.L233
 2897              	.L231:
 929:../src/lib/lpc177x_8x/Drivers/source/lpc177x_8x_rtc.c ****         case 2:
 930:../src/lib/lpc177x_8x/Drivers/source/lpc177x_8x_rtc.c ****             if((LPC_RTC->ERSTATUS & (1<<RTC_ER_STATUS_EV2_BIT)) == 0)
 2898              		.loc 1 930 0
 2899 1110 1B4B     		ldr	r3, .L237
 2900 1112 D3F88030 		ldr	r3, [r3, #128]
 2901 1116 03F00403 		and	r3, r3, #4
 2902 111a 002B     		cmp	r3, #0
 2903 111c 02D1     		bne	.L235
 931:../src/lib/lpc177x_8x/Drivers/source/lpc177x_8x_rtc.c ****                 return ERROR;
 2904              		.loc 1 931 0
 2905 111e 4FF00003 		mov	r3, #0
 2906 1122 27E0     		b	.L227
 2907              	.L235:
 932:../src/lib/lpc177x_8x/Drivers/source/lpc177x_8x_rtc.c ****             pTimeStamp->SEC = RTC_ER_TIMESTAMP_SEC(LPC_RTC->ERFIRSTSTAMP2);
 2908              		.loc 1 932 0
 2909 1124 164B     		ldr	r3, .L237
 2910 1126 D3F89830 		ldr	r3, [r3, #152]
 2911 112a 03F03F02 		and	r2, r3, #63
 2912 112e 3B68     		ldr	r3, [r7, #0]
 2913 1130 1A60     		str	r2, [r3, #0]
 933:../src/lib/lpc177x_8x/Drivers/source/lpc177x_8x_rtc.c ****             pTimeStamp->MIN= RTC_ER_TIMESTAMP_MIN(LPC_RTC->ERFIRSTSTAMP2);
 2914              		.loc 1 933 0
 2915 1132 134B     		ldr	r3, .L237
 2916 1134 D3F89830 		ldr	r3, [r3, #152]
 2917 1138 4FEA9313 		lsr	r3, r3, #6
 2918 113c 03F03F02 		and	r2, r3, #63
 2919 1140 3B68     		ldr	r3, [r7, #0]
 2920 1142 5A60     		str	r2, [r3, #4]
 934:../src/lib/lpc177x_8x/Drivers/source/lpc177x_8x_rtc.c ****             pTimeStamp->HOUR= RTC_ER_TIMESTAMP_HOUR(LPC_RTC->ERFIRSTSTAMP2);
 2921              		.loc 1 934 0
 2922 1144 0E4B     		ldr	r3, .L237
 2923 1146 D3F89830 		ldr	r3, [r3, #152]
 2924 114a 4FEA1333 		lsr	r3, r3, #12
 2925 114e 03F01F02 		and	r2, r3, #31
 2926 1152 3B68     		ldr	r3, [r7, #0]
 2927 1154 9A60     		str	r2, [r3, #8]
 935:../src/lib/lpc177x_8x/Drivers/source/lpc177x_8x_rtc.c ****             pTimeStamp->DOY = RTC_ER_TIMESTAMP_DOY(LPC_RTC->ERFIRSTSTAMP2);
 2928              		.loc 1 935 0
 2929 1156 0A4B     		ldr	r3, .L237
 2930 1158 D3F89830 		ldr	r3, [r3, #152]
 2931 115c 4FEA5343 		lsr	r3, r3, #17
 2932 1160 4FEAC353 		lsl	r3, r3, #23
 2933 1164 4FEAD353 		lsr	r3, r3, #23
 2934 1168 3A68     		ldr	r2, [r7, #0]
 2935 116a D360     		str	r3, [r2, #12]
 936:../src/lib/lpc177x_8x/Drivers/source/lpc177x_8x_rtc.c ****             break;
 2936              		.loc 1 936 0
 2937 116c 00E0     		b	.L233
 2938              	.L236:
 937:../src/lib/lpc177x_8x/Drivers/source/lpc177x_8x_rtc.c ****         default: 
 938:../src/lib/lpc177x_8x/Drivers/source/lpc177x_8x_rtc.c ****             break;      
 2939              		.loc 1 938 0
 2940 116e 00BF     		nop
 2941              	.L233:
 939:../src/lib/lpc177x_8x/Drivers/source/lpc177x_8x_rtc.c ****     }
 940:../src/lib/lpc177x_8x/Drivers/source/lpc177x_8x_rtc.c ****     return SUCCESS;
 2942              		.loc 1 940 0
 2943 1170 4FF00103 		mov	r3, #1
 2944              	.L227:
 941:../src/lib/lpc177x_8x/Drivers/source/lpc177x_8x_rtc.c **** 
 942:../src/lib/lpc177x_8x/Drivers/source/lpc177x_8x_rtc.c **** }
 2945              		.loc 1 942 0
 2946 1174 1846     		mov	r0, r3
 2947 1176 07F10C07 		add	r7, r7, #12
 2948 117a BD46     		mov	sp, r7
 2949 117c 80BC     		pop	{r7}
 2950 117e 7047     		bx	lr
 2951              	.L238:
 2952              		.align	2
 2953              	.L237:
 2954 1180 00400240 		.word	1073889280
 2955              		.cfi_endproc
 2956              	.LFE83:
 2958              		.align	2
 2959              		.global	RTC_ER_GetLastTimeStamp
 2960              		.thumb
 2961              		.thumb_func
 2963              	RTC_ER_GetLastTimeStamp:
 2964              	.LFB84:
 943:../src/lib/lpc177x_8x/Drivers/source/lpc177x_8x_rtc.c **** /*********************************************************************//**
 944:../src/lib/lpc177x_8x/Drivers/source/lpc177x_8x_rtc.c ****  * @brief       Get the timestamp of the last event on a given channel.
 945:../src/lib/lpc177x_8x/Drivers/source/lpc177x_8x_rtc.c ****  * @param[in] channel   Channel number (It should be 0~2)
 946:../src/lib/lpc177x_8x/Drivers/source/lpc177x_8x_rtc.c ****  * @param[in] pTimeStamp    point to the buffer
 947:../src/lib/lpc177x_8x/Drivers/source/lpc177x_8x_rtc.c ****  * @return  SUCCESS/ERROR
 948:../src/lib/lpc177x_8x/Drivers/source/lpc177x_8x_rtc.c ****  **********************************************************************/
 949:../src/lib/lpc177x_8x/Drivers/source/lpc177x_8x_rtc.c **** Status RTC_ER_GetLastTimeStamp(uint8_t channel, RTC_ER_TIMESTAMP_Type* pTimeStamp)
 950:../src/lib/lpc177x_8x/Drivers/source/lpc177x_8x_rtc.c **** {
 2965              		.loc 1 950 0
 2966              		.cfi_startproc
 2967              		@ args = 0, pretend = 0, frame = 8
 2968              		@ frame_needed = 1, uses_anonymous_args = 0
 2969              		@ link register save eliminated.
 2970 1184 80B4     		push	{r7}
 2971              	.LCFI84:
 2972              		.cfi_def_cfa_offset 4
 2973              		.cfi_offset 7, -4
 2974 1186 83B0     		sub	sp, sp, #12
 2975              	.LCFI85:
 2976              		.cfi_def_cfa_offset 16
 2977 1188 00AF     		add	r7, sp, #0
 2978              	.LCFI86:
 2979              		.cfi_def_cfa_register 7
 2980 118a 0346     		mov	r3, r0
 2981 118c 3960     		str	r1, [r7, #0]
 2982 118e FB71     		strb	r3, [r7, #7]
 951:../src/lib/lpc177x_8x/Drivers/source/lpc177x_8x_rtc.c ****     if(pTimeStamp == NULL)
 2983              		.loc 1 951 0
 2984 1190 3B68     		ldr	r3, [r7, #0]
 2985 1192 002B     		cmp	r3, #0
 2986 1194 02D1     		bne	.L240
 952:../src/lib/lpc177x_8x/Drivers/source/lpc177x_8x_rtc.c ****         return ERROR;
 2987              		.loc 1 952 0
 2988 1196 4FF00003 		mov	r3, #0
 2989 119a 97E0     		b	.L241
 2990              	.L240:
 953:../src/lib/lpc177x_8x/Drivers/source/lpc177x_8x_rtc.c ****     
 954:../src/lib/lpc177x_8x/Drivers/source/lpc177x_8x_rtc.c ****     switch(channel)
 2991              		.loc 1 954 0
 2992 119c FB79     		ldrb	r3, [r7, #7]	@ zero_extendqisi2
 2993 119e 012B     		cmp	r3, #1
 2994 11a0 33D0     		beq	.L244
 2995 11a2 022B     		cmp	r3, #2
 2996 11a4 60D0     		beq	.L245
 2997 11a6 002B     		cmp	r3, #0
 2998 11a8 40F08D80 		bne	.L250
 2999              	.L243:
 955:../src/lib/lpc177x_8x/Drivers/source/lpc177x_8x_rtc.c ****     {
 956:../src/lib/lpc177x_8x/Drivers/source/lpc177x_8x_rtc.c ****         case 0:
 957:../src/lib/lpc177x_8x/Drivers/source/lpc177x_8x_rtc.c ****             if((LPC_RTC->ERSTATUS & (1<<RTC_ER_STATUS_EV0_BIT)) == 0)
 3000              		.loc 1 957 0
 3001 11ac 4A4B     		ldr	r3, .L251
 3002 11ae D3F88030 		ldr	r3, [r3, #128]
 3003 11b2 03F00103 		and	r3, r3, #1
 3004 11b6 002B     		cmp	r3, #0
 3005 11b8 02D1     		bne	.L246
 958:../src/lib/lpc177x_8x/Drivers/source/lpc177x_8x_rtc.c ****                 return ERROR;
 3006              		.loc 1 958 0
 3007 11ba 4FF00003 		mov	r3, #0
 3008 11be 85E0     		b	.L241
 3009              	.L246:
 959:../src/lib/lpc177x_8x/Drivers/source/lpc177x_8x_rtc.c ****             pTimeStamp->SEC = RTC_ER_TIMESTAMP_SEC(LPC_RTC->ERLASTSTAMP0);
 3010              		.loc 1 959 0
 3011 11c0 454B     		ldr	r3, .L251
 3012 11c2 D3F8A030 		ldr	r3, [r3, #160]
 3013 11c6 03F03F02 		and	r2, r3, #63
 3014 11ca 3B68     		ldr	r3, [r7, #0]
 3015 11cc 1A60     		str	r2, [r3, #0]
 960:../src/lib/lpc177x_8x/Drivers/source/lpc177x_8x_rtc.c ****             pTimeStamp->MIN= RTC_ER_TIMESTAMP_MIN(LPC_RTC->ERLASTSTAMP0);
 3016              		.loc 1 960 0
 3017 11ce 424B     		ldr	r3, .L251
 3018 11d0 D3F8A030 		ldr	r3, [r3, #160]
 3019 11d4 4FEA9313 		lsr	r3, r3, #6
 3020 11d8 03F03F02 		and	r2, r3, #63
 3021 11dc 3B68     		ldr	r3, [r7, #0]
 3022 11de 5A60     		str	r2, [r3, #4]
 961:../src/lib/lpc177x_8x/Drivers/source/lpc177x_8x_rtc.c ****             pTimeStamp->HOUR= RTC_ER_TIMESTAMP_HOUR(LPC_RTC->ERLASTSTAMP0);
 3023              		.loc 1 961 0
 3024 11e0 3D4B     		ldr	r3, .L251
 3025 11e2 D3F8A030 		ldr	r3, [r3, #160]
 3026 11e6 4FEA1333 		lsr	r3, r3, #12
 3027 11ea 03F01F02 		and	r2, r3, #31
 3028 11ee 3B68     		ldr	r3, [r7, #0]
 3029 11f0 9A60     		str	r2, [r3, #8]
 962:../src/lib/lpc177x_8x/Drivers/source/lpc177x_8x_rtc.c ****             pTimeStamp->DOY = RTC_ER_TIMESTAMP_DOY(LPC_RTC->ERLASTSTAMP0);
 3030              		.loc 1 962 0
 3031 11f2 394B     		ldr	r3, .L251
 3032 11f4 D3F8A030 		ldr	r3, [r3, #160]
 3033 11f8 4FEA5343 		lsr	r3, r3, #17
 3034 11fc 4FEAC353 		lsl	r3, r3, #23
 3035 1200 4FEAD353 		lsr	r3, r3, #23
 3036 1204 3A68     		ldr	r2, [r7, #0]
 3037 1206 D360     		str	r3, [r2, #12]
 963:../src/lib/lpc177x_8x/Drivers/source/lpc177x_8x_rtc.c ****             break;
 3038              		.loc 1 963 0
 3039 1208 5EE0     		b	.L247
 3040              	.L244:
 964:../src/lib/lpc177x_8x/Drivers/source/lpc177x_8x_rtc.c ****         case 1:
 965:../src/lib/lpc177x_8x/Drivers/source/lpc177x_8x_rtc.c ****             if((LPC_RTC->ERSTATUS & (1<<RTC_ER_STATUS_EV1_BIT)) == 0)
 3041              		.loc 1 965 0
 3042 120a 334B     		ldr	r3, .L251
 3043 120c D3F88030 		ldr	r3, [r3, #128]
 3044 1210 03F00203 		and	r3, r3, #2
 3045 1214 002B     		cmp	r3, #0
 3046 1216 02D1     		bne	.L248
 966:../src/lib/lpc177x_8x/Drivers/source/lpc177x_8x_rtc.c ****                 return ERROR;
 3047              		.loc 1 966 0
 3048 1218 4FF00003 		mov	r3, #0
 3049 121c 56E0     		b	.L241
 3050              	.L248:
 967:../src/lib/lpc177x_8x/Drivers/source/lpc177x_8x_rtc.c ****             pTimeStamp->SEC = RTC_ER_TIMESTAMP_SEC(LPC_RTC->ERLASTSTAMP1);
 3051              		.loc 1 967 0
 3052 121e 2E4B     		ldr	r3, .L251
 3053 1220 D3F8A430 		ldr	r3, [r3, #164]
 3054 1224 03F03F02 		and	r2, r3, #63
 3055 1228 3B68     		ldr	r3, [r7, #0]
 3056 122a 1A60     		str	r2, [r3, #0]
 968:../src/lib/lpc177x_8x/Drivers/source/lpc177x_8x_rtc.c ****             pTimeStamp->MIN= RTC_ER_TIMESTAMP_MIN(LPC_RTC->ERLASTSTAMP1);
 3057              		.loc 1 968 0
 3058 122c 2A4B     		ldr	r3, .L251
 3059 122e D3F8A430 		ldr	r3, [r3, #164]
 3060 1232 4FEA9313 		lsr	r3, r3, #6
 3061 1236 03F03F02 		and	r2, r3, #63
 3062 123a 3B68     		ldr	r3, [r7, #0]
 3063 123c 5A60     		str	r2, [r3, #4]
 969:../src/lib/lpc177x_8x/Drivers/source/lpc177x_8x_rtc.c ****             pTimeStamp->HOUR= RTC_ER_TIMESTAMP_HOUR(LPC_RTC->ERLASTSTAMP1);
 3064              		.loc 1 969 0
 3065 123e 264B     		ldr	r3, .L251
 3066 1240 D3F8A430 		ldr	r3, [r3, #164]
 3067 1244 4FEA1333 		lsr	r3, r3, #12
 3068 1248 03F01F02 		and	r2, r3, #31
 3069 124c 3B68     		ldr	r3, [r7, #0]
 3070 124e 9A60     		str	r2, [r3, #8]
 970:../src/lib/lpc177x_8x/Drivers/source/lpc177x_8x_rtc.c ****             pTimeStamp->DOY = RTC_ER_TIMESTAMP_DOY(LPC_RTC->ERLASTSTAMP1);
 3071              		.loc 1 970 0
 3072 1250 214B     		ldr	r3, .L251
 3073 1252 D3F8A430 		ldr	r3, [r3, #164]
 3074 1256 4FEA5343 		lsr	r3, r3, #17
 3075 125a 4FEAC353 		lsl	r3, r3, #23
 3076 125e 4FEAD353 		lsr	r3, r3, #23
 3077 1262 3A68     		ldr	r2, [r7, #0]
 3078 1264 D360     		str	r3, [r2, #12]
 971:../src/lib/lpc177x_8x/Drivers/source/lpc177x_8x_rtc.c ****             break;
 3079              		.loc 1 971 0
 3080 1266 2FE0     		b	.L247
 3081              	.L245:
 972:../src/lib/lpc177x_8x/Drivers/source/lpc177x_8x_rtc.c ****         case 2:
 973:../src/lib/lpc177x_8x/Drivers/source/lpc177x_8x_rtc.c ****             if((LPC_RTC->ERSTATUS & (1<<RTC_ER_STATUS_EV2_BIT)) == 0)
 3082              		.loc 1 973 0
 3083 1268 1B4B     		ldr	r3, .L251
 3084 126a D3F88030 		ldr	r3, [r3, #128]
 3085 126e 03F00403 		and	r3, r3, #4
 3086 1272 002B     		cmp	r3, #0
 3087 1274 02D1     		bne	.L249
 974:../src/lib/lpc177x_8x/Drivers/source/lpc177x_8x_rtc.c ****                 return ERROR;
 3088              		.loc 1 974 0
 3089 1276 4FF00003 		mov	r3, #0
 3090 127a 27E0     		b	.L241
 3091              	.L249:
 975:../src/lib/lpc177x_8x/Drivers/source/lpc177x_8x_rtc.c ****             pTimeStamp->SEC = RTC_ER_TIMESTAMP_SEC(LPC_RTC->ERLASTSTAMP2);
 3092              		.loc 1 975 0
 3093 127c 164B     		ldr	r3, .L251
 3094 127e D3F8A830 		ldr	r3, [r3, #168]
 3095 1282 03F03F02 		and	r2, r3, #63
 3096 1286 3B68     		ldr	r3, [r7, #0]
 3097 1288 1A60     		str	r2, [r3, #0]
 976:../src/lib/lpc177x_8x/Drivers/source/lpc177x_8x_rtc.c ****             pTimeStamp->MIN= RTC_ER_TIMESTAMP_MIN(LPC_RTC->ERLASTSTAMP2);
 3098              		.loc 1 976 0
 3099 128a 134B     		ldr	r3, .L251
 3100 128c D3F8A830 		ldr	r3, [r3, #168]
 3101 1290 4FEA9313 		lsr	r3, r3, #6
 3102 1294 03F03F02 		and	r2, r3, #63
 3103 1298 3B68     		ldr	r3, [r7, #0]
 3104 129a 5A60     		str	r2, [r3, #4]
 977:../src/lib/lpc177x_8x/Drivers/source/lpc177x_8x_rtc.c ****             pTimeStamp->HOUR= RTC_ER_TIMESTAMP_HOUR(LPC_RTC->ERLASTSTAMP2);
 3105              		.loc 1 977 0
 3106 129c 0E4B     		ldr	r3, .L251
 3107 129e D3F8A830 		ldr	r3, [r3, #168]
 3108 12a2 4FEA1333 		lsr	r3, r3, #12
 3109 12a6 03F01F02 		and	r2, r3, #31
 3110 12aa 3B68     		ldr	r3, [r7, #0]
 3111 12ac 9A60     		str	r2, [r3, #8]
 978:../src/lib/lpc177x_8x/Drivers/source/lpc177x_8x_rtc.c ****             pTimeStamp->DOY = RTC_ER_TIMESTAMP_DOY(LPC_RTC->ERLASTSTAMP2);
 3112              		.loc 1 978 0
 3113 12ae 0A4B     		ldr	r3, .L251
 3114 12b0 D3F8A830 		ldr	r3, [r3, #168]
 3115 12b4 4FEA5343 		lsr	r3, r3, #17
 3116 12b8 4FEAC353 		lsl	r3, r3, #23
 3117 12bc 4FEAD353 		lsr	r3, r3, #23
 3118 12c0 3A68     		ldr	r2, [r7, #0]
 3119 12c2 D360     		str	r3, [r2, #12]
 979:../src/lib/lpc177x_8x/Drivers/source/lpc177x_8x_rtc.c ****             break;
 3120              		.loc 1 979 0
 3121 12c4 00E0     		b	.L247
 3122              	.L250:
 980:../src/lib/lpc177x_8x/Drivers/source/lpc177x_8x_rtc.c ****         default: 
 981:../src/lib/lpc177x_8x/Drivers/source/lpc177x_8x_rtc.c ****             break;      
 3123              		.loc 1 981 0
 3124 12c6 00BF     		nop
 3125              	.L247:
 982:../src/lib/lpc177x_8x/Drivers/source/lpc177x_8x_rtc.c ****     }
 983:../src/lib/lpc177x_8x/Drivers/source/lpc177x_8x_rtc.c ****     return SUCCESS;
 3126              		.loc 1 983 0
 3127 12c8 4FF00103 		mov	r3, #1
 3128              	.L241:
 984:../src/lib/lpc177x_8x/Drivers/source/lpc177x_8x_rtc.c **** 
 985:../src/lib/lpc177x_8x/Drivers/source/lpc177x_8x_rtc.c **** }
 3129              		.loc 1 985 0
 3130 12cc 1846     		mov	r0, r3
 3131 12ce 07F10C07 		add	r7, r7, #12
 3132 12d2 BD46     		mov	sp, r7
 3133 12d4 80BC     		pop	{r7}
 3134 12d6 7047     		bx	lr
 3135              	.L252:
 3136              		.align	2
 3137              	.L251:
 3138 12d8 00400240 		.word	1073889280
 3139              		.cfi_endproc
 3140              	.LFE84:
 3142              	.Letext0:
 3143              		.file 2 "g:\\program files\\codesourcery\\sourcery_codebench_lite_for_arm_eabi\\bin\\../lib/gcc/ar
 3144              		.file 3 "D:\\workspace_gnu\\RTT_Demo0\\src\\lib\\lpc177x_8x\\Drivers\\include/lpc_types.h"
 3145              		.file 4 "D:\\workspace_gnu\\RTT_Demo0\\src\\lib\\lpc177x_8x\\Core\\Device\\NXP\\LPC177x_8x\\Includ
 3146              		.file 5 "D:\\workspace_gnu\\RTT_Demo0\\src\\lib\\lpc177x_8x\\Drivers\\include/lpc177x_8x_rtc.h"
 3147              		.file 6 "D:\\workspace_gnu\\RTT_Demo0\\src\\lib\\lpc177x_8x\\Core\\CMSIS\\Include/core_cm3.h"