   1              		.syntax unified
   2              		.cpu cortex-m4
   3              		.fpu softvfp
   4              		.eabi_attribute 20, 1
   5              		.eabi_attribute 21, 1
   6              		.eabi_attribute 23, 3
   7              		.eabi_attribute 24, 1
   8              		.eabi_attribute 25, 1
   9              		.eabi_attribute 26, 1
  10              		.eabi_attribute 30, 6
  11              		.eabi_attribute 34, 1
  12              		.eabi_attribute 18, 4
  13              		.thumb
  14              		.file	"lpc177x_8x_emac.c"
  15              		.text
  16              	.Ltext0:
  17              		.cfi_sections	.debug_frame
  18              		.global	EMAC_clkdiv
  19              		.section	.rodata
  20              		.align	2
  23              	EMAC_clkdiv:
  24 0000 04       		.byte	4
  25 0001 06       		.byte	6
  26 0002 08       		.byte	8
  27 0003 0A       		.byte	10
  28 0004 0E       		.byte	14
  29 0005 14       		.byte	20
  30 0006 1C       		.byte	28
  31 0007 24       		.byte	36
  32 0008 28       		.byte	40
  33 0009 2C       		.byte	44
  34 000a 30       		.byte	48
  35 000b 34       		.byte	52
  36 000c 38       		.byte	56
  37 000d 3C       		.byte	60
  38 000e 40       		.byte	64
  39 000f 00       		.bss
  40              		.align	2
  41              	EMAC_Configs:
  42 0000 00000000 		.space	44
  42      00000000 
  42      00000000 
  42      00000000 
  42      00000000 
  43              		.align	2
  44              	saFrameBuffers:
  45 002c 00000000 		.space	6144
  45      00000000 
  45      00000000 
  45      00000000 
  45      00000000 
  46              		.align	2
  47              	sulCurrFrameSz:
  48 182c 00000000 		.space	4
  49              	sbCurrFrameID:
  50 1830 00       		.space	1
  51 1831 000000   		.text
  52              		.align	2
  53              		.global	rx_descr_init
  54              		.thumb
  55              		.thumb_func
  57              	rx_descr_init:
  58              	.LFB55:
  59              		.file 1 "../src/lib/lpc177x_8x/Drivers/source/lpc177x_8x_emac.c"
   1:../src/lib/lpc177x_8x/Drivers/source/lpc177x_8x_emac.c **** /**********************************************************************
   2:../src/lib/lpc177x_8x/Drivers/source/lpc177x_8x_emac.c **** * $Id$      lpc177x_8x_emac.c           2011-06-02
   3:../src/lib/lpc177x_8x/Drivers/source/lpc177x_8x_emac.c **** *//**
   4:../src/lib/lpc177x_8x/Drivers/source/lpc177x_8x_emac.c **** * @file     lpc177x_8x_emac.c
   5:../src/lib/lpc177x_8x/Drivers/source/lpc177x_8x_emac.c **** * @brief    Contains all functions support for Ethernet MAC firmware
   6:../src/lib/lpc177x_8x/Drivers/source/lpc177x_8x_emac.c **** *           library on LPC177x_8x
   7:../src/lib/lpc177x_8x/Drivers/source/lpc177x_8x_emac.c **** * @version  1.0
   8:../src/lib/lpc177x_8x/Drivers/source/lpc177x_8x_emac.c **** * @date     02. June. 2011
   9:../src/lib/lpc177x_8x/Drivers/source/lpc177x_8x_emac.c **** * @author   NXP MCU SW Application Team
  10:../src/lib/lpc177x_8x/Drivers/source/lpc177x_8x_emac.c **** * 
  11:../src/lib/lpc177x_8x/Drivers/source/lpc177x_8x_emac.c **** * Copyright(C) 2011, NXP Semiconductor
  12:../src/lib/lpc177x_8x/Drivers/source/lpc177x_8x_emac.c **** * All rights reserved.
  13:../src/lib/lpc177x_8x/Drivers/source/lpc177x_8x_emac.c **** *
  14:../src/lib/lpc177x_8x/Drivers/source/lpc177x_8x_emac.c **** ***********************************************************************
  15:../src/lib/lpc177x_8x/Drivers/source/lpc177x_8x_emac.c **** * Software that is described herein is for illustrative purposes only
  16:../src/lib/lpc177x_8x/Drivers/source/lpc177x_8x_emac.c **** * which provides customers with programming information regarding the
  17:../src/lib/lpc177x_8x/Drivers/source/lpc177x_8x_emac.c **** * products. This software is supplied "AS IS" without any warranties.
  18:../src/lib/lpc177x_8x/Drivers/source/lpc177x_8x_emac.c **** * NXP Semiconductors assumes no responsibility or liability for the
  19:../src/lib/lpc177x_8x/Drivers/source/lpc177x_8x_emac.c **** * use of the software, conveys no license or title under any patent,
  20:../src/lib/lpc177x_8x/Drivers/source/lpc177x_8x_emac.c **** * copyright, or mask work right to the product. NXP Semiconductors
  21:../src/lib/lpc177x_8x/Drivers/source/lpc177x_8x_emac.c **** * reserves the right to make changes in the software without
  22:../src/lib/lpc177x_8x/Drivers/source/lpc177x_8x_emac.c **** * notification. NXP Semiconductors also make no representation or
  23:../src/lib/lpc177x_8x/Drivers/source/lpc177x_8x_emac.c **** * warranty that such application will be suitable for the specified
  24:../src/lib/lpc177x_8x/Drivers/source/lpc177x_8x_emac.c **** * use without further testing or modification.
  25:../src/lib/lpc177x_8x/Drivers/source/lpc177x_8x_emac.c **** * Permission to use, copy, modify, and distribute this software and its
  26:../src/lib/lpc177x_8x/Drivers/source/lpc177x_8x_emac.c **** * documentation is hereby granted, under NXP Semiconductors'
  27:../src/lib/lpc177x_8x/Drivers/source/lpc177x_8x_emac.c **** * relevant copyright in the software, without fee, provided that it
  28:../src/lib/lpc177x_8x/Drivers/source/lpc177x_8x_emac.c **** * is used in conjunction with NXP Semiconductors microcontrollers.  This
  29:../src/lib/lpc177x_8x/Drivers/source/lpc177x_8x_emac.c **** * copyright, permission, and disclaimer notice must appear in all copies of
  30:../src/lib/lpc177x_8x/Drivers/source/lpc177x_8x_emac.c **** * this code.
  31:../src/lib/lpc177x_8x/Drivers/source/lpc177x_8x_emac.c **** **********************************************************************/
  32:../src/lib/lpc177x_8x/Drivers/source/lpc177x_8x_emac.c **** #ifdef __BUILD_WITH_EXAMPLE__
  33:../src/lib/lpc177x_8x/Drivers/source/lpc177x_8x_emac.c **** #include "lpc177x_8x_libcfg.h"
  34:../src/lib/lpc177x_8x/Drivers/source/lpc177x_8x_emac.c **** #else
  35:../src/lib/lpc177x_8x/Drivers/source/lpc177x_8x_emac.c **** #include "lpc177x_8x_libcfg_default.h"
  36:../src/lib/lpc177x_8x/Drivers/source/lpc177x_8x_emac.c **** #endif /* __BUILD_WITH_EXAMPLE__ */
  37:../src/lib/lpc177x_8x/Drivers/source/lpc177x_8x_emac.c **** #ifdef _EMAC
  38:../src/lib/lpc177x_8x/Drivers/source/lpc177x_8x_emac.c **** 
  39:../src/lib/lpc177x_8x/Drivers/source/lpc177x_8x_emac.c **** #include "lpc177x_8x_emac.h"
  40:../src/lib/lpc177x_8x/Drivers/source/lpc177x_8x_emac.c **** #include "lpc177x_8x_clkpwr.h"
  41:../src/lib/lpc177x_8x/Drivers/source/lpc177x_8x_emac.c **** #include "lpc177x_8x_pinsel.h"
  42:../src/lib/lpc177x_8x/Drivers/source/lpc177x_8x_emac.c **** 
  43:../src/lib/lpc177x_8x/Drivers/source/lpc177x_8x_emac.c **** /* Peripheral group ----------------------------------------------------------- */
  44:../src/lib/lpc177x_8x/Drivers/source/lpc177x_8x_emac.c **** /** @addtogroup EMAC
  45:../src/lib/lpc177x_8x/Drivers/source/lpc177x_8x_emac.c ****  * @{
  46:../src/lib/lpc177x_8x/Drivers/source/lpc177x_8x_emac.c ****  */
  47:../src/lib/lpc177x_8x/Drivers/source/lpc177x_8x_emac.c ****  
  48:../src/lib/lpc177x_8x/Drivers/source/lpc177x_8x_emac.c **** /************************** PRIVATE VARIABLES *************************/
  49:../src/lib/lpc177x_8x/Drivers/source/lpc177x_8x_emac.c **** 
  50:../src/lib/lpc177x_8x/Drivers/source/lpc177x_8x_emac.c **** 
  51:../src/lib/lpc177x_8x/Drivers/source/lpc177x_8x_emac.c **** /* MII Mgmt Configuration register - Clock divider setting */
  52:../src/lib/lpc177x_8x/Drivers/source/lpc177x_8x_emac.c **** const uint8_t EMAC_clkdiv[] = { 4, 6, 8, 10, 14, 20, 28, 36, 40, 44, 48, 52, 56, 60, 64 };
  53:../src/lib/lpc177x_8x/Drivers/source/lpc177x_8x_emac.c **** 
  54:../src/lib/lpc177x_8x/Drivers/source/lpc177x_8x_emac.c **** /* EMAC Config data */
  55:../src/lib/lpc177x_8x/Drivers/source/lpc177x_8x_emac.c **** static EMAC_CFG_Type EMAC_Configs;
  56:../src/lib/lpc177x_8x/Drivers/source/lpc177x_8x_emac.c **** 
  57:../src/lib/lpc177x_8x/Drivers/source/lpc177x_8x_emac.c **** #if EMAC_INT_ENABLE
  58:../src/lib/lpc177x_8x/Drivers/source/lpc177x_8x_emac.c **** /* EMAC local DMA Descriptors */
  59:../src/lib/lpc177x_8x/Drivers/source/lpc177x_8x_emac.c **** 
  60:../src/lib/lpc177x_8x/Drivers/source/lpc177x_8x_emac.c **** 
  61:../src/lib/lpc177x_8x/Drivers/source/lpc177x_8x_emac.c **** #ifdef __IAR_SYSTEMS_ICC__
  62:../src/lib/lpc177x_8x/Drivers/source/lpc177x_8x_emac.c **** /* Global Tx Buffer data */
  63:../src/lib/lpc177x_8x/Drivers/source/lpc177x_8x_emac.c **** #pragma data_alignment=4
  64:../src/lib/lpc177x_8x/Drivers/source/lpc177x_8x_emac.c **** static uint16_t saFrameBuffers[EMAC_MAX_FRAME_NUM][EMAC_MAX_FRAME_SIZE];
  65:../src/lib/lpc177x_8x/Drivers/source/lpc177x_8x_emac.c **** #else
  66:../src/lib/lpc177x_8x/Drivers/source/lpc177x_8x_emac.c **** /* Global Rx Buffer data */
  67:../src/lib/lpc177x_8x/Drivers/source/lpc177x_8x_emac.c **** static uint16_t __attribute__ ((aligned (4))) saFrameBuffers[EMAC_MAX_FRAME_NUM][EMAC_MAX_FRAME_SIZ
  68:../src/lib/lpc177x_8x/Drivers/source/lpc177x_8x_emac.c **** #endif
  69:../src/lib/lpc177x_8x/Drivers/source/lpc177x_8x_emac.c **** static uint32_t sulCurrFrameSz = 0;
  70:../src/lib/lpc177x_8x/Drivers/source/lpc177x_8x_emac.c **** static uint8_t  sbCurrFrameID = 0;
  71:../src/lib/lpc177x_8x/Drivers/source/lpc177x_8x_emac.c **** 
  72:../src/lib/lpc177x_8x/Drivers/source/lpc177x_8x_emac.c **** 
  73:../src/lib/lpc177x_8x/Drivers/source/lpc177x_8x_emac.c **** #endif /*EMAC_INT_ENABLE*/
  74:../src/lib/lpc177x_8x/Drivers/source/lpc177x_8x_emac.c **** 
  75:../src/lib/lpc177x_8x/Drivers/source/lpc177x_8x_emac.c **** /*********************************************************************//**
  76:../src/lib/lpc177x_8x/Drivers/source/lpc177x_8x_emac.c ****  * @brief
  77:../src/lib/lpc177x_8x/Drivers/source/lpc177x_8x_emac.c ****  * @param[in]
  78:../src/lib/lpc177x_8x/Drivers/source/lpc177x_8x_emac.c ****  * @return
  79:../src/lib/lpc177x_8x/Drivers/source/lpc177x_8x_emac.c ****  **********************************************************************/
  80:../src/lib/lpc177x_8x/Drivers/source/lpc177x_8x_emac.c **** void rx_descr_init (void)
  81:../src/lib/lpc177x_8x/Drivers/source/lpc177x_8x_emac.c **** {
  60              		.loc 1 81 0
  61              		.cfi_startproc
  62              		@ args = 0, pretend = 0, frame = 8
  63              		@ frame_needed = 1, uses_anonymous_args = 0
  64              		@ link register save eliminated.
  65 0000 80B4     		push	{r7}
  66              	.LCFI0:
  67              		.cfi_def_cfa_offset 4
  68              		.cfi_offset 7, -4
  69 0002 83B0     		sub	sp, sp, #12
  70              	.LCFI1:
  71              		.cfi_def_cfa_offset 16
  72 0004 00AF     		add	r7, sp, #0
  73              	.LCFI2:
  74              		.cfi_def_cfa_register 7
  82:../src/lib/lpc177x_8x/Drivers/source/lpc177x_8x_emac.c ****     unsigned int i;
  83:../src/lib/lpc177x_8x/Drivers/source/lpc177x_8x_emac.c **** 
  84:../src/lib/lpc177x_8x/Drivers/source/lpc177x_8x_emac.c ****     for (i = 0; i < EMAC_NUM_RX_FRAG; i++)
  75              		.loc 1 84 0
  76 0006 4FF00003 		mov	r3, #0
  77 000a 7B60     		str	r3, [r7, #4]
  78 000c 32E0     		b	.L2
  79              	.L3:
  85:../src/lib/lpc177x_8x/Drivers/source/lpc177x_8x_emac.c ****     {
  86:../src/lib/lpc177x_8x/Drivers/source/lpc177x_8x_emac.c ****         RX_DESC_PACKET(i)  = RX_BUF(i);
  80              		.loc 1 86 0 discriminator 2
  81 000e 7B68     		ldr	r3, [r7, #4]
  82 0010 03F18063 		add	r3, r3, #67108864
  83 0014 4FEAC303 		lsl	r3, r3, #3
  84 0018 1946     		mov	r1, r3
  85 001a 7A68     		ldr	r2, [r7, #4]
  86 001c 1346     		mov	r3, r2
  87 001e 4FEA4303 		lsl	r3, r3, #1
  88 0022 9B18     		adds	r3, r3, r2
  89 0024 4FEA4323 		lsl	r3, r3, #9
  90 0028 03F10053 		add	r3, r3, #536870912
  91 002c 03F16403 		add	r3, r3, #100
  92 0030 0B60     		str	r3, [r1, #0]
  87:../src/lib/lpc177x_8x/Drivers/source/lpc177x_8x_emac.c ****         RX_DESC_CTRL(i)    = EMAC_RCTRL_INT | (EMAC_ETH_MAX_FLEN-1);
  93              		.loc 1 87 0 discriminator 2
  94 0032 7B68     		ldr	r3, [r7, #4]
  95 0034 4FEAC303 		lsl	r3, r3, #3
  96 0038 03F10053 		add	r3, r3, #536870912
  97 003c 03F10403 		add	r3, r3, #4
  98 0040 1A4A     		ldr	r2, .L4
  99 0042 1A60     		str	r2, [r3, #0]
  88:../src/lib/lpc177x_8x/Drivers/source/lpc177x_8x_emac.c ****         RX_STAT_INFO(i)    = 0;
 100              		.loc 1 88 0 discriminator 2
 101 0044 7B68     		ldr	r3, [r7, #4]
 102 0046 03F18063 		add	r3, r3, #67108864
 103 004a 03F10403 		add	r3, r3, #4
 104 004e 4FEAC303 		lsl	r3, r3, #3
 105 0052 4FF00002 		mov	r2, #0
 106 0056 1A60     		str	r2, [r3, #0]
  89:../src/lib/lpc177x_8x/Drivers/source/lpc177x_8x_emac.c ****         RX_STAT_HASHCRC(i) = 0;
 107              		.loc 1 89 0 discriminator 2
 108 0058 7B68     		ldr	r3, [r7, #4]
 109 005a 4FEAC303 		lsl	r3, r3, #3
 110 005e 03F10053 		add	r3, r3, #536870912
 111 0062 03F12403 		add	r3, r3, #36
 112 0066 4FF00002 		mov	r2, #0
 113 006a 1A60     		str	r2, [r3, #0]
  84:../src/lib/lpc177x_8x/Drivers/source/lpc177x_8x_emac.c ****     for (i = 0; i < EMAC_NUM_RX_FRAG; i++)
 114              		.loc 1 84 0 discriminator 2
 115 006c 7B68     		ldr	r3, [r7, #4]
 116 006e 03F10103 		add	r3, r3, #1
 117 0072 7B60     		str	r3, [r7, #4]
 118              	.L2:
  84:../src/lib/lpc177x_8x/Drivers/source/lpc177x_8x_emac.c ****     for (i = 0; i < EMAC_NUM_RX_FRAG; i++)
 119              		.loc 1 84 0 is_stmt 0 discriminator 1
 120 0074 7B68     		ldr	r3, [r7, #4]
 121 0076 032B     		cmp	r3, #3
 122 0078 C9D9     		bls	.L3
  90:../src/lib/lpc177x_8x/Drivers/source/lpc177x_8x_emac.c ****     }
  91:../src/lib/lpc177x_8x/Drivers/source/lpc177x_8x_emac.c **** 
  92:../src/lib/lpc177x_8x/Drivers/source/lpc177x_8x_emac.c ****     /* Set EMAC Receive Descriptor Registers. */
  93:../src/lib/lpc177x_8x/Drivers/source/lpc177x_8x_emac.c ****     LPC_EMAC->RxDescriptor    = RX_DESC_BASE;
 123              		.loc 1 93 0 is_stmt 1
 124 007a 0D4B     		ldr	r3, .L4+4
 125 007c 4FF00052 		mov	r2, #536870912
 126 0080 C3F80821 		str	r2, [r3, #264]
  94:../src/lib/lpc177x_8x/Drivers/source/lpc177x_8x_emac.c ****     LPC_EMAC->RxStatus        = RX_STAT_BASE;
 127              		.loc 1 94 0
 128 0084 0A4B     		ldr	r3, .L4+4
 129 0086 0B4A     		ldr	r2, .L4+8
 130 0088 C3F80C21 		str	r2, [r3, #268]
  95:../src/lib/lpc177x_8x/Drivers/source/lpc177x_8x_emac.c ****     LPC_EMAC->RxDescriptorNumber = EMAC_NUM_RX_FRAG-1;
 131              		.loc 1 95 0
 132 008c 084B     		ldr	r3, .L4+4
 133 008e 4FF00302 		mov	r2, #3
 134 0092 C3F81021 		str	r2, [r3, #272]
  96:../src/lib/lpc177x_8x/Drivers/source/lpc177x_8x_emac.c **** 
  97:../src/lib/lpc177x_8x/Drivers/source/lpc177x_8x_emac.c ****     /* Rx Descriptors Point to 0 */
  98:../src/lib/lpc177x_8x/Drivers/source/lpc177x_8x_emac.c ****     LPC_EMAC->RxConsumeIndex  = 0;
 135              		.loc 1 98 0
 136 0096 064B     		ldr	r3, .L4+4
 137 0098 4FF00002 		mov	r2, #0
 138 009c C3F81821 		str	r2, [r3, #280]
  99:../src/lib/lpc177x_8x/Drivers/source/lpc177x_8x_emac.c **** }
 139              		.loc 1 99 0
 140 00a0 07F10C07 		add	r7, r7, #12
 141 00a4 BD46     		mov	sp, r7
 142 00a6 80BC     		pop	{r7}
 143 00a8 7047     		bx	lr
 144              	.L5:
 145 00aa 00BF     		.align	2
 146              	.L4:
 147 00ac FF050080 		.word	-2147482113
 148 00b0 00400820 		.word	537411584
 149 00b4 20000020 		.word	536870944
 150              		.cfi_endproc
 151              	.LFE55:
 153              		.align	2
 154              		.global	tx_descr_init
 155              		.thumb
 156              		.thumb_func
 158              	tx_descr_init:
 159              	.LFB56:
 100:../src/lib/lpc177x_8x/Drivers/source/lpc177x_8x_emac.c **** 
 101:../src/lib/lpc177x_8x/Drivers/source/lpc177x_8x_emac.c **** /*********************************************************************//**
 102:../src/lib/lpc177x_8x/Drivers/source/lpc177x_8x_emac.c ****  * @brief
 103:../src/lib/lpc177x_8x/Drivers/source/lpc177x_8x_emac.c ****  * @param[in]
 104:../src/lib/lpc177x_8x/Drivers/source/lpc177x_8x_emac.c ****  * @return
 105:../src/lib/lpc177x_8x/Drivers/source/lpc177x_8x_emac.c ****  **********************************************************************/
 106:../src/lib/lpc177x_8x/Drivers/source/lpc177x_8x_emac.c **** void tx_descr_init (void)
 107:../src/lib/lpc177x_8x/Drivers/source/lpc177x_8x_emac.c **** {
 160              		.loc 1 107 0
 161              		.cfi_startproc
 162              		@ args = 0, pretend = 0, frame = 8
 163              		@ frame_needed = 1, uses_anonymous_args = 0
 164              		@ link register save eliminated.
 165 00b8 80B4     		push	{r7}
 166              	.LCFI3:
 167              		.cfi_def_cfa_offset 4
 168              		.cfi_offset 7, -4
 169 00ba 83B0     		sub	sp, sp, #12
 170              	.LCFI4:
 171              		.cfi_def_cfa_offset 16
 172 00bc 00AF     		add	r7, sp, #0
 173              	.LCFI5:
 174              		.cfi_def_cfa_register 7
 108:../src/lib/lpc177x_8x/Drivers/source/lpc177x_8x_emac.c ****     unsigned int i;
 109:../src/lib/lpc177x_8x/Drivers/source/lpc177x_8x_emac.c **** 
 110:../src/lib/lpc177x_8x/Drivers/source/lpc177x_8x_emac.c ****     for (i = 0; i < EMAC_NUM_TX_FRAG; i++)
 175              		.loc 1 110 0
 176 00be 4FF00003 		mov	r3, #0
 177 00c2 7B60     		str	r3, [r7, #4]
 178 00c4 2AE0     		b	.L7
 179              	.L8:
 111:../src/lib/lpc177x_8x/Drivers/source/lpc177x_8x_emac.c ****     {
 112:../src/lib/lpc177x_8x/Drivers/source/lpc177x_8x_emac.c ****         TX_DESC_PACKET(i) = TX_BUF(i);
 180              		.loc 1 112 0 discriminator 2
 181 00c6 7B68     		ldr	r3, [r7, #4]
 182 00c8 03F18063 		add	r3, r3, #67108864
 183 00cc 03F10803 		add	r3, r3, #8
 184 00d0 4FEAC303 		lsl	r3, r3, #3
 185 00d4 1946     		mov	r1, r3
 186 00d6 7A68     		ldr	r2, [r7, #4]
 187 00d8 1346     		mov	r3, r2
 188 00da 4FEA4303 		lsl	r3, r3, #1
 189 00de 9B18     		adds	r3, r3, r2
 190 00e0 4FEA4323 		lsl	r3, r3, #9
 191 00e4 1A46     		mov	r2, r3
 192 00e6 1A4B     		ldr	r3, .L9
 193 00e8 D318     		adds	r3, r2, r3
 194 00ea 0B60     		str	r3, [r1, #0]
 113:../src/lib/lpc177x_8x/Drivers/source/lpc177x_8x_emac.c ****         TX_DESC_CTRL(i)   = 0;
 195              		.loc 1 113 0 discriminator 2
 196 00ec 7B68     		ldr	r3, [r7, #4]
 197 00ee 4FEAC303 		lsl	r3, r3, #3
 198 00f2 03F10053 		add	r3, r3, #536870912
 199 00f6 03F14403 		add	r3, r3, #68
 200 00fa 4FF00002 		mov	r2, #0
 201 00fe 1A60     		str	r2, [r3, #0]
 114:../src/lib/lpc177x_8x/Drivers/source/lpc177x_8x_emac.c ****         TX_STAT_INFO(i)   = 0;
 202              		.loc 1 114 0 discriminator 2
 203 0100 7B68     		ldr	r3, [r7, #4]
 204 0102 03F10063 		add	r3, r3, #134217728
 205 0106 03F11603 		add	r3, r3, #22
 206 010a 4FEA8303 		lsl	r3, r3, #2
 207 010e 4FF00002 		mov	r2, #0
 208 0112 1A60     		str	r2, [r3, #0]
 110:../src/lib/lpc177x_8x/Drivers/source/lpc177x_8x_emac.c ****     for (i = 0; i < EMAC_NUM_TX_FRAG; i++)
 209              		.loc 1 110 0 discriminator 2
 210 0114 7B68     		ldr	r3, [r7, #4]
 211 0116 03F10103 		add	r3, r3, #1
 212 011a 7B60     		str	r3, [r7, #4]
 213              	.L7:
 110:../src/lib/lpc177x_8x/Drivers/source/lpc177x_8x_emac.c ****     for (i = 0; i < EMAC_NUM_TX_FRAG; i++)
 214              		.loc 1 110 0 is_stmt 0 discriminator 1
 215 011c 7B68     		ldr	r3, [r7, #4]
 216 011e 022B     		cmp	r3, #2
 217 0120 D1D9     		bls	.L8
 115:../src/lib/lpc177x_8x/Drivers/source/lpc177x_8x_emac.c ****     }
 116:../src/lib/lpc177x_8x/Drivers/source/lpc177x_8x_emac.c **** 
 117:../src/lib/lpc177x_8x/Drivers/source/lpc177x_8x_emac.c ****     /* Set EMAC Transmit Descriptor Registers. */
 118:../src/lib/lpc177x_8x/Drivers/source/lpc177x_8x_emac.c ****     LPC_EMAC->TxDescriptor    = TX_DESC_BASE;
 218              		.loc 1 118 0 is_stmt 1
 219 0122 0C4B     		ldr	r3, .L9+4
 220 0124 0C4A     		ldr	r2, .L9+8
 221 0126 C3F81C21 		str	r2, [r3, #284]
 119:../src/lib/lpc177x_8x/Drivers/source/lpc177x_8x_emac.c ****     LPC_EMAC->TxStatus        = TX_STAT_BASE;
 222              		.loc 1 119 0
 223 012a 0A4B     		ldr	r3, .L9+4
 224 012c 0B4A     		ldr	r2, .L9+12
 225 012e C3F82021 		str	r2, [r3, #288]
 120:../src/lib/lpc177x_8x/Drivers/source/lpc177x_8x_emac.c ****     LPC_EMAC->TxDescriptorNumber = EMAC_NUM_TX_FRAG-1;
 226              		.loc 1 120 0
 227 0132 084B     		ldr	r3, .L9+4
 228 0134 4FF00202 		mov	r2, #2
 229 0138 C3F82421 		str	r2, [r3, #292]
 121:../src/lib/lpc177x_8x/Drivers/source/lpc177x_8x_emac.c **** 
 122:../src/lib/lpc177x_8x/Drivers/source/lpc177x_8x_emac.c ****     /* Tx Descriptors Point to 0 */
 123:../src/lib/lpc177x_8x/Drivers/source/lpc177x_8x_emac.c ****     LPC_EMAC->TxProduceIndex  = 0;
 230              		.loc 1 123 0
 231 013c 054B     		ldr	r3, .L9+4
 232 013e 4FF00002 		mov	r2, #0
 233 0142 C3F82821 		str	r2, [r3, #296]
 124:../src/lib/lpc177x_8x/Drivers/source/lpc177x_8x_emac.c **** }
 234              		.loc 1 124 0
 235 0146 07F10C07 		add	r7, r7, #12
 236 014a BD46     		mov	sp, r7
 237 014c 80BC     		pop	{r7}
 238 014e 7047     		bx	lr
 239              	.L10:
 240              		.align	2
 241              	.L9:
 242 0150 64180020 		.word	536877156
 243 0154 00400820 		.word	537411584
 244 0158 40000020 		.word	536870976
 245 015c 58000020 		.word	536871000
 246              		.cfi_endproc
 247              	.LFE56:
 249              		.align	2
 250              		.global	setEmacAddr
 251              		.thumb
 252              		.thumb_func
 254              	setEmacAddr:
 255              	.LFB57:
 125:../src/lib/lpc177x_8x/Drivers/source/lpc177x_8x_emac.c **** 
 126:../src/lib/lpc177x_8x/Drivers/source/lpc177x_8x_emac.c **** /*********************************************************************//**
 127:../src/lib/lpc177x_8x/Drivers/source/lpc177x_8x_emac.c ****  * @brief       Set Station MAC address for EMAC module
 128:../src/lib/lpc177x_8x/Drivers/source/lpc177x_8x_emac.c ****  * @param[in]   abStationAddr Pointer to Station address that contains 6-bytes
 129:../src/lib/lpc177x_8x/Drivers/source/lpc177x_8x_emac.c ****  *              of MAC address.
 130:../src/lib/lpc177x_8x/Drivers/source/lpc177x_8x_emac.c ****  * @return      None
 131:../src/lib/lpc177x_8x/Drivers/source/lpc177x_8x_emac.c ****  **********************************************************************/
 132:../src/lib/lpc177x_8x/Drivers/source/lpc177x_8x_emac.c **** void setEmacAddr(uint8_t abStationAddr[])
 133:../src/lib/lpc177x_8x/Drivers/source/lpc177x_8x_emac.c **** {
 256              		.loc 1 133 0
 257              		.cfi_startproc
 258              		@ args = 0, pretend = 0, frame = 8
 259              		@ frame_needed = 1, uses_anonymous_args = 0
 260              		@ link register save eliminated.
 261 0160 80B4     		push	{r7}
 262              	.LCFI6:
 263              		.cfi_def_cfa_offset 4
 264              		.cfi_offset 7, -4
 265 0162 83B0     		sub	sp, sp, #12
 266              	.LCFI7:
 267              		.cfi_def_cfa_offset 16
 268 0164 00AF     		add	r7, sp, #0
 269              	.LCFI8:
 270              		.cfi_def_cfa_register 7
 271 0166 7860     		str	r0, [r7, #4]
 134:../src/lib/lpc177x_8x/Drivers/source/lpc177x_8x_emac.c ****     /* Set the Ethernet MAC Address registers */
 135:../src/lib/lpc177x_8x/Drivers/source/lpc177x_8x_emac.c ****     LPC_EMAC->SA0 = ((uint32_t)abStationAddr[5] << 8) | (uint32_t)abStationAddr[4];
 272              		.loc 1 135 0
 273 0168 144B     		ldr	r3, .L12
 274 016a 7A68     		ldr	r2, [r7, #4]
 275 016c 02F10502 		add	r2, r2, #5
 276 0170 1278     		ldrb	r2, [r2, #0]	@ zero_extendqisi2
 277 0172 4FEA0221 		lsl	r1, r2, #8
 278 0176 7A68     		ldr	r2, [r7, #4]
 279 0178 02F10402 		add	r2, r2, #4
 280 017c 1278     		ldrb	r2, [r2, #0]	@ zero_extendqisi2
 281 017e 0A43     		orrs	r2, r2, r1
 282 0180 1A64     		str	r2, [r3, #64]
 136:../src/lib/lpc177x_8x/Drivers/source/lpc177x_8x_emac.c ****     LPC_EMAC->SA1 = ((uint32_t)abStationAddr[3] << 8) | (uint32_t)abStationAddr[2];
 283              		.loc 1 136 0
 284 0182 0E4B     		ldr	r3, .L12
 285 0184 7A68     		ldr	r2, [r7, #4]
 286 0186 02F10302 		add	r2, r2, #3
 287 018a 1278     		ldrb	r2, [r2, #0]	@ zero_extendqisi2
 288 018c 4FEA0221 		lsl	r1, r2, #8
 289 0190 7A68     		ldr	r2, [r7, #4]
 290 0192 02F10202 		add	r2, r2, #2
 291 0196 1278     		ldrb	r2, [r2, #0]	@ zero_extendqisi2
 292 0198 0A43     		orrs	r2, r2, r1
 293 019a 5A64     		str	r2, [r3, #68]
 137:../src/lib/lpc177x_8x/Drivers/source/lpc177x_8x_emac.c ****     LPC_EMAC->SA2 = ((uint32_t)abStationAddr[1] << 8) | (uint32_t)abStationAddr[0];
 294              		.loc 1 137 0
 295 019c 074B     		ldr	r3, .L12
 296 019e 7A68     		ldr	r2, [r7, #4]
 297 01a0 02F10102 		add	r2, r2, #1
 298 01a4 1278     		ldrb	r2, [r2, #0]	@ zero_extendqisi2
 299 01a6 4FEA0221 		lsl	r1, r2, #8
 300 01aa 7A68     		ldr	r2, [r7, #4]
 301 01ac 1278     		ldrb	r2, [r2, #0]	@ zero_extendqisi2
 302 01ae 0A43     		orrs	r2, r2, r1
 303 01b0 9A64     		str	r2, [r3, #72]
 138:../src/lib/lpc177x_8x/Drivers/source/lpc177x_8x_emac.c **** }
 304              		.loc 1 138 0
 305 01b2 07F10C07 		add	r7, r7, #12
 306 01b6 BD46     		mov	sp, r7
 307 01b8 80BC     		pop	{r7}
 308 01ba 7047     		bx	lr
 309              	.L13:
 310              		.align	2
 311              	.L12:
 312 01bc 00400820 		.word	537411584
 313              		.cfi_endproc
 314              	.LFE57:
 316              		.align	2
 317              		.global	EMAC_Write_PHY
 318              		.thumb
 319              		.thumb_func
 321              	EMAC_Write_PHY:
 322              	.LFB58:
 139:../src/lib/lpc177x_8x/Drivers/source/lpc177x_8x_emac.c **** 
 140:../src/lib/lpc177x_8x/Drivers/source/lpc177x_8x_emac.c **** 
 141:../src/lib/lpc177x_8x/Drivers/source/lpc177x_8x_emac.c **** /************************** GLOBAL/PUBLIC FUNCTIONS *************************/
 142:../src/lib/lpc177x_8x/Drivers/source/lpc177x_8x_emac.c **** 
 143:../src/lib/lpc177x_8x/Drivers/source/lpc177x_8x_emac.c **** /** @defgroup EMAC_Public_Functions
 144:../src/lib/lpc177x_8x/Drivers/source/lpc177x_8x_emac.c ****  * @{
 145:../src/lib/lpc177x_8x/Drivers/source/lpc177x_8x_emac.c ****  */
 146:../src/lib/lpc177x_8x/Drivers/source/lpc177x_8x_emac.c **** 
 147:../src/lib/lpc177x_8x/Drivers/source/lpc177x_8x_emac.c **** /*********************************************************************//**
 148:../src/lib/lpc177x_8x/Drivers/source/lpc177x_8x_emac.c ****  * @brief          Write data to PHY
 149:../src/lib/lpc177x_8x/Drivers/source/lpc177x_8x_emac.c ****  * @param[in]  PhyReg    PHY register address
 150:../src/lib/lpc177x_8x/Drivers/source/lpc177x_8x_emac.c ****  * @param[in]  Value       Register Value
 151:../src/lib/lpc177x_8x/Drivers/source/lpc177x_8x_emac.c ****  * @return        None
 152:../src/lib/lpc177x_8x/Drivers/source/lpc177x_8x_emac.c ****  **********************************************************************/
 153:../src/lib/lpc177x_8x/Drivers/source/lpc177x_8x_emac.c **** void EMAC_Write_PHY (uint8_t PhyReg, uint16_t Value)
 154:../src/lib/lpc177x_8x/Drivers/source/lpc177x_8x_emac.c **** {
 323              		.loc 1 154 0
 324              		.cfi_startproc
 325              		@ args = 0, pretend = 0, frame = 16
 326              		@ frame_needed = 1, uses_anonymous_args = 0
 327              		@ link register save eliminated.
 328 01c0 80B4     		push	{r7}
 329              	.LCFI9:
 330              		.cfi_def_cfa_offset 4
 331              		.cfi_offset 7, -4
 332 01c2 85B0     		sub	sp, sp, #20
 333              	.LCFI10:
 334              		.cfi_def_cfa_offset 24
 335 01c4 00AF     		add	r7, sp, #0
 336              	.LCFI11:
 337              		.cfi_def_cfa_register 7
 338 01c6 0246     		mov	r2, r0
 339 01c8 0B46     		mov	r3, r1
 340 01ca FA71     		strb	r2, [r7, #7]
 341 01cc BB80     		strh	r3, [r7, #4]	@ movhi
 155:../src/lib/lpc177x_8x/Drivers/source/lpc177x_8x_emac.c ****     unsigned int tout;
 156:../src/lib/lpc177x_8x/Drivers/source/lpc177x_8x_emac.c **** 
 157:../src/lib/lpc177x_8x/Drivers/source/lpc177x_8x_emac.c ****     LPC_EMAC->MADR = ((EMAC_Configs.bPhyAddr & 0x1F) << 8 )| (PhyReg & 0x1F);
 342              		.loc 1 157 0
 343 01ce 154B     		ldr	r3, .L20
 344 01d0 154A     		ldr	r2, .L20+4
 345 01d2 1279     		ldrb	r2, [r2, #4]	@ zero_extendqisi2
 346 01d4 02F01F02 		and	r2, r2, #31
 347 01d8 4FEA0221 		lsl	r1, r2, #8
 348 01dc FA79     		ldrb	r2, [r7, #7]	@ zero_extendqisi2
 349 01de 02F01F02 		and	r2, r2, #31
 350 01e2 0A43     		orrs	r2, r2, r1
 351 01e4 9A62     		str	r2, [r3, #40]
 158:../src/lib/lpc177x_8x/Drivers/source/lpc177x_8x_emac.c ****     LPC_EMAC->MWTD = Value;
 352              		.loc 1 158 0
 353 01e6 0F4B     		ldr	r3, .L20
 354 01e8 BA88     		ldrh	r2, [r7, #4]
 355 01ea DA62     		str	r2, [r3, #44]
 159:../src/lib/lpc177x_8x/Drivers/source/lpc177x_8x_emac.c **** 
 160:../src/lib/lpc177x_8x/Drivers/source/lpc177x_8x_emac.c ****     /* Wait utill operation completed */
 161:../src/lib/lpc177x_8x/Drivers/source/lpc177x_8x_emac.c ****     tout = 0;
 356              		.loc 1 161 0
 357 01ec 4FF00003 		mov	r3, #0
 358 01f0 FB60     		str	r3, [r7, #12]
 162:../src/lib/lpc177x_8x/Drivers/source/lpc177x_8x_emac.c **** 
 163:../src/lib/lpc177x_8x/Drivers/source/lpc177x_8x_emac.c ****     for (tout = 0; tout < EMAC_MII_WR_TOUT; tout++)
 359              		.loc 1 163 0
 360 01f2 4FF00003 		mov	r3, #0
 361 01f6 FB60     		str	r3, [r7, #12]
 362 01f8 09E0     		b	.L15
 363              	.L18:
 164:../src/lib/lpc177x_8x/Drivers/source/lpc177x_8x_emac.c ****     {
 165:../src/lib/lpc177x_8x/Drivers/source/lpc177x_8x_emac.c ****         if ((LPC_EMAC->MIND & EMAC_MIND_BUSY) == 0)
 364              		.loc 1 165 0
 365 01fa 0A4B     		ldr	r3, .L20
 366 01fc 5B6B     		ldr	r3, [r3, #52]
 367 01fe 03F00103 		and	r3, r3, #1
 368 0202 002B     		cmp	r3, #0
 369 0204 08D0     		beq	.L19
 370              	.L16:
 163:../src/lib/lpc177x_8x/Drivers/source/lpc177x_8x_emac.c ****     for (tout = 0; tout < EMAC_MII_WR_TOUT; tout++)
 371              		.loc 1 163 0
 372 0206 FB68     		ldr	r3, [r7, #12]
 373 0208 03F10103 		add	r3, r3, #1
 374 020c FB60     		str	r3, [r7, #12]
 375              	.L15:
 163:../src/lib/lpc177x_8x/Drivers/source/lpc177x_8x_emac.c ****     for (tout = 0; tout < EMAC_MII_WR_TOUT; tout++)
 376              		.loc 1 163 0 is_stmt 0 discriminator 1
 377 020e FA68     		ldr	r2, [r7, #12]
 378 0210 064B     		ldr	r3, .L20+8
 379 0212 9A42     		cmp	r2, r3
 380 0214 F1D9     		bls	.L18
 381 0216 00E0     		b	.L14
 382              	.L19:
 166:../src/lib/lpc177x_8x/Drivers/source/lpc177x_8x_emac.c ****         {
 167:../src/lib/lpc177x_8x/Drivers/source/lpc177x_8x_emac.c ****             break;
 383              		.loc 1 167 0 is_stmt 1
 384 0218 00BF     		nop
 385              	.L14:
 168:../src/lib/lpc177x_8x/Drivers/source/lpc177x_8x_emac.c ****         }
 169:../src/lib/lpc177x_8x/Drivers/source/lpc177x_8x_emac.c ****     }
 170:../src/lib/lpc177x_8x/Drivers/source/lpc177x_8x_emac.c **** }
 386              		.loc 1 170 0
 387 021a 07F11407 		add	r7, r7, #20
 388 021e BD46     		mov	sp, r7
 389 0220 80BC     		pop	{r7}
 390 0222 7047     		bx	lr
 391              	.L21:
 392              		.align	2
 393              	.L20:
 394 0224 00400820 		.word	537411584
 395 0228 00000000 		.word	EMAC_Configs
 396 022c FFFF0400 		.word	327679
 397              		.cfi_endproc
 398              	.LFE58:
 400              		.align	2
 401              		.global	EMAC_Read_PHY
 402              		.thumb
 403              		.thumb_func
 405              	EMAC_Read_PHY:
 406              	.LFB59:
 171:../src/lib/lpc177x_8x/Drivers/source/lpc177x_8x_emac.c **** 
 172:../src/lib/lpc177x_8x/Drivers/source/lpc177x_8x_emac.c **** /*********************************************************************//**
 173:../src/lib/lpc177x_8x/Drivers/source/lpc177x_8x_emac.c ****  * @brief          Read data from PHY register
 174:../src/lib/lpc177x_8x/Drivers/source/lpc177x_8x_emac.c ****  * @param[in]  PhyReg    PHY register address
 175:../src/lib/lpc177x_8x/Drivers/source/lpc177x_8x_emac.c ****  * @return        Register value
 176:../src/lib/lpc177x_8x/Drivers/source/lpc177x_8x_emac.c ****  **********************************************************************/
 177:../src/lib/lpc177x_8x/Drivers/source/lpc177x_8x_emac.c **** uint16_t EMAC_Read_PHY (uint8_t PhyReg)
 178:../src/lib/lpc177x_8x/Drivers/source/lpc177x_8x_emac.c **** {
 407              		.loc 1 178 0
 408              		.cfi_startproc
 409              		@ args = 0, pretend = 0, frame = 16
 410              		@ frame_needed = 1, uses_anonymous_args = 0
 411              		@ link register save eliminated.
 412 0230 80B4     		push	{r7}
 413              	.LCFI12:
 414              		.cfi_def_cfa_offset 4
 415              		.cfi_offset 7, -4
 416 0232 85B0     		sub	sp, sp, #20
 417              	.LCFI13:
 418              		.cfi_def_cfa_offset 24
 419 0234 00AF     		add	r7, sp, #0
 420              	.LCFI14:
 421              		.cfi_def_cfa_register 7
 422 0236 0346     		mov	r3, r0
 423 0238 FB71     		strb	r3, [r7, #7]
 179:../src/lib/lpc177x_8x/Drivers/source/lpc177x_8x_emac.c ****     unsigned int tout;
 180:../src/lib/lpc177x_8x/Drivers/source/lpc177x_8x_emac.c **** 
 181:../src/lib/lpc177x_8x/Drivers/source/lpc177x_8x_emac.c ****     LPC_EMAC->MADR = ((EMAC_Configs.bPhyAddr & 0x1F) << 8 )| (PhyReg & 0x1F);
 424              		.loc 1 181 0
 425 023a 1A4B     		ldr	r3, .L29
 426 023c 1A4A     		ldr	r2, .L29+4
 427 023e 1279     		ldrb	r2, [r2, #4]	@ zero_extendqisi2
 428 0240 02F01F02 		and	r2, r2, #31
 429 0244 4FEA0221 		lsl	r1, r2, #8
 430 0248 FA79     		ldrb	r2, [r7, #7]	@ zero_extendqisi2
 431 024a 02F01F02 		and	r2, r2, #31
 432 024e 0A43     		orrs	r2, r2, r1
 433 0250 9A62     		str	r2, [r3, #40]
 182:../src/lib/lpc177x_8x/Drivers/source/lpc177x_8x_emac.c ****     LPC_EMAC->MCMD = EMAC_MCMD_READ;
 434              		.loc 1 182 0
 435 0252 144B     		ldr	r3, .L29
 436 0254 4FF00102 		mov	r2, #1
 437 0258 5A62     		str	r2, [r3, #36]
 183:../src/lib/lpc177x_8x/Drivers/source/lpc177x_8x_emac.c **** 
 184:../src/lib/lpc177x_8x/Drivers/source/lpc177x_8x_emac.c ****     /* Wait until operation completed */
 185:../src/lib/lpc177x_8x/Drivers/source/lpc177x_8x_emac.c ****     tout = 0;
 438              		.loc 1 185 0
 439 025a 4FF00003 		mov	r3, #0
 440 025e FB60     		str	r3, [r7, #12]
 186:../src/lib/lpc177x_8x/Drivers/source/lpc177x_8x_emac.c ****     for (tout = 0; tout < EMAC_MII_RD_TOUT; tout++)
 441              		.loc 1 186 0
 442 0260 4FF00003 		mov	r3, #0
 443 0264 FB60     		str	r3, [r7, #12]
 444 0266 09E0     		b	.L23
 445              	.L26:
 187:../src/lib/lpc177x_8x/Drivers/source/lpc177x_8x_emac.c ****     {
 188:../src/lib/lpc177x_8x/Drivers/source/lpc177x_8x_emac.c ****         if ((LPC_EMAC->MIND & EMAC_MIND_BUSY) == 0)
 446              		.loc 1 188 0
 447 0268 0E4B     		ldr	r3, .L29
 448 026a 5B6B     		ldr	r3, [r3, #52]
 449 026c 03F00103 		and	r3, r3, #1
 450 0270 002B     		cmp	r3, #0
 451 0272 08D0     		beq	.L28
 452              	.L24:
 186:../src/lib/lpc177x_8x/Drivers/source/lpc177x_8x_emac.c ****     for (tout = 0; tout < EMAC_MII_RD_TOUT; tout++)
 453              		.loc 1 186 0
 454 0274 FB68     		ldr	r3, [r7, #12]
 455 0276 03F10103 		add	r3, r3, #1
 456 027a FB60     		str	r3, [r7, #12]
 457              	.L23:
 186:../src/lib/lpc177x_8x/Drivers/source/lpc177x_8x_emac.c ****     for (tout = 0; tout < EMAC_MII_RD_TOUT; tout++)
 458              		.loc 1 186 0 is_stmt 0 discriminator 1
 459 027c FA68     		ldr	r2, [r7, #12]
 460 027e 0B4B     		ldr	r3, .L29+8
 461 0280 9A42     		cmp	r2, r3
 462 0282 F1D9     		bls	.L26
 463 0284 00E0     		b	.L25
 464              	.L28:
 189:../src/lib/lpc177x_8x/Drivers/source/lpc177x_8x_emac.c ****         {
 190:../src/lib/lpc177x_8x/Drivers/source/lpc177x_8x_emac.c ****             break;
 465              		.loc 1 190 0 is_stmt 1
 466 0286 00BF     		nop
 467              	.L25:
 191:../src/lib/lpc177x_8x/Drivers/source/lpc177x_8x_emac.c ****         }
 192:../src/lib/lpc177x_8x/Drivers/source/lpc177x_8x_emac.c ****     }
 193:../src/lib/lpc177x_8x/Drivers/source/lpc177x_8x_emac.c **** 
 194:../src/lib/lpc177x_8x/Drivers/source/lpc177x_8x_emac.c ****     LPC_EMAC->MCMD = 0;
 468              		.loc 1 194 0
 469 0288 064B     		ldr	r3, .L29
 470 028a 4FF00002 		mov	r2, #0
 471 028e 5A62     		str	r2, [r3, #36]
 195:../src/lib/lpc177x_8x/Drivers/source/lpc177x_8x_emac.c ****     return (LPC_EMAC->MRDD);
 472              		.loc 1 195 0
 473 0290 044B     		ldr	r3, .L29
 474 0292 1B6B     		ldr	r3, [r3, #48]
 475 0294 9BB2     		uxth	r3, r3
 196:../src/lib/lpc177x_8x/Drivers/source/lpc177x_8x_emac.c **** }
 476              		.loc 1 196 0
 477 0296 1846     		mov	r0, r3
 478 0298 07F11407 		add	r7, r7, #20
 479 029c BD46     		mov	sp, r7
 480 029e 80BC     		pop	{r7}
 481 02a0 7047     		bx	lr
 482              	.L30:
 483 02a2 00BF     		.align	2
 484              	.L29:
 485 02a4 00400820 		.word	537411584
 486 02a8 00000000 		.word	EMAC_Configs
 487 02ac FFFF0400 		.word	327679
 488              		.cfi_endproc
 489              	.LFE59:
 491              		.align	2
 492              		.global	EMAC_SetFullDuplexMode
 493              		.thumb
 494              		.thumb_func
 496              	EMAC_SetFullDuplexMode:
 497              	.LFB60:
 197:../src/lib/lpc177x_8x/Drivers/source/lpc177x_8x_emac.c **** 
 198:../src/lib/lpc177x_8x/Drivers/source/lpc177x_8x_emac.c **** /*********************************************************************//**
 199:../src/lib/lpc177x_8x/Drivers/source/lpc177x_8x_emac.c ****  * @brief         Set Full/Half Duplex Mode
 200:../src/lib/lpc177x_8x/Drivers/source/lpc177x_8x_emac.c ****  * @param[in]  full_duplex    0: Half-duplex, 1: Full-duplex
 201:../src/lib/lpc177x_8x/Drivers/source/lpc177x_8x_emac.c ****  * @return        None
 202:../src/lib/lpc177x_8x/Drivers/source/lpc177x_8x_emac.c ****  **********************************************************************/
 203:../src/lib/lpc177x_8x/Drivers/source/lpc177x_8x_emac.c **** void EMAC_SetFullDuplexMode(uint8_t full_duplex)
 204:../src/lib/lpc177x_8x/Drivers/source/lpc177x_8x_emac.c **** {
 498              		.loc 1 204 0
 499              		.cfi_startproc
 500              		@ args = 0, pretend = 0, frame = 8
 501              		@ frame_needed = 1, uses_anonymous_args = 0
 502              		@ link register save eliminated.
 503 02b0 80B4     		push	{r7}
 504              	.LCFI15:
 505              		.cfi_def_cfa_offset 4
 506              		.cfi_offset 7, -4
 507 02b2 83B0     		sub	sp, sp, #12
 508              	.LCFI16:
 509              		.cfi_def_cfa_offset 16
 510 02b4 00AF     		add	r7, sp, #0
 511              	.LCFI17:
 512              		.cfi_def_cfa_register 7
 513 02b6 0346     		mov	r3, r0
 514 02b8 FB71     		strb	r3, [r7, #7]
 205:../src/lib/lpc177x_8x/Drivers/source/lpc177x_8x_emac.c ****   if(full_duplex)
 515              		.loc 1 205 0
 516 02ba FB79     		ldrb	r3, [r7, #7]	@ zero_extendqisi2
 517 02bc 002B     		cmp	r3, #0
 518 02be 12D0     		beq	.L32
 206:../src/lib/lpc177x_8x/Drivers/source/lpc177x_8x_emac.c ****   {
 207:../src/lib/lpc177x_8x/Drivers/source/lpc177x_8x_emac.c ****         LPC_EMAC->MAC2    |= EMAC_MAC2_FULL_DUP;
 519              		.loc 1 207 0
 520 02c0 0D4B     		ldr	r3, .L34
 521 02c2 0D4A     		ldr	r2, .L34
 522 02c4 5268     		ldr	r2, [r2, #4]
 523 02c6 42F00102 		orr	r2, r2, #1
 524 02ca 5A60     		str	r2, [r3, #4]
 208:../src/lib/lpc177x_8x/Drivers/source/lpc177x_8x_emac.c ****         LPC_EMAC->Command |= EMAC_CR_FULL_DUP;
 525              		.loc 1 208 0
 526 02cc 0A4B     		ldr	r3, .L34
 527 02ce 0A4A     		ldr	r2, .L34
 528 02d0 D2F80021 		ldr	r2, [r2, #256]
 529 02d4 42F48062 		orr	r2, r2, #1024
 530 02d8 C3F80021 		str	r2, [r3, #256]
 209:../src/lib/lpc177x_8x/Drivers/source/lpc177x_8x_emac.c ****         LPC_EMAC->IPGT     = EMAC_IPGT_FULL_DUP;
 531              		.loc 1 209 0
 532 02dc 064B     		ldr	r3, .L34
 533 02de 4FF01502 		mov	r2, #21
 534 02e2 9A60     		str	r2, [r3, #8]
 535 02e4 03E0     		b	.L31
 536              	.L32:
 210:../src/lib/lpc177x_8x/Drivers/source/lpc177x_8x_emac.c ****   }
 211:../src/lib/lpc177x_8x/Drivers/source/lpc177x_8x_emac.c ****   else
 212:../src/lib/lpc177x_8x/Drivers/source/lpc177x_8x_emac.c ****   {
 213:../src/lib/lpc177x_8x/Drivers/source/lpc177x_8x_emac.c ****         LPC_EMAC->IPGT = EMAC_IPGT_HALF_DUP;
 537              		.loc 1 213 0
 538 02e6 044B     		ldr	r3, .L34
 539 02e8 4FF01202 		mov	r2, #18
 540 02ec 9A60     		str	r2, [r3, #8]
 541              	.L31:
 214:../src/lib/lpc177x_8x/Drivers/source/lpc177x_8x_emac.c ****   }
 215:../src/lib/lpc177x_8x/Drivers/source/lpc177x_8x_emac.c **** }
 542              		.loc 1 215 0
 543 02ee 07F10C07 		add	r7, r7, #12
 544 02f2 BD46     		mov	sp, r7
 545 02f4 80BC     		pop	{r7}
 546 02f6 7047     		bx	lr
 547              	.L35:
 548              		.align	2
 549              	.L34:
 550 02f8 00400820 		.word	537411584
 551              		.cfi_endproc
 552              	.LFE60:
 554              		.align	2
 555              		.global	EMAC_SetPHYSpeed
 556              		.thumb
 557              		.thumb_func
 559              	EMAC_SetPHYSpeed:
 560              	.LFB61:
 216:../src/lib/lpc177x_8x/Drivers/source/lpc177x_8x_emac.c **** /*********************************************************************//**
 217:../src/lib/lpc177x_8x/Drivers/source/lpc177x_8x_emac.c ****  * @brief         Set PHY Speed
 218:../src/lib/lpc177x_8x/Drivers/source/lpc177x_8x_emac.c ****  * @param[in]  mode_100Mbps    0: 10Mbps, 1: 100Mbps
 219:../src/lib/lpc177x_8x/Drivers/source/lpc177x_8x_emac.c ****  * @return        None
 220:../src/lib/lpc177x_8x/Drivers/source/lpc177x_8x_emac.c ****  **********************************************************************/
 221:../src/lib/lpc177x_8x/Drivers/source/lpc177x_8x_emac.c **** void EMAC_SetPHYSpeed(uint8_t mode_100Mbps)
 222:../src/lib/lpc177x_8x/Drivers/source/lpc177x_8x_emac.c **** {
 561              		.loc 1 222 0
 562              		.cfi_startproc
 563              		@ args = 0, pretend = 0, frame = 8
 564              		@ frame_needed = 1, uses_anonymous_args = 0
 565              		@ link register save eliminated.
 566 02fc 80B4     		push	{r7}
 567              	.LCFI18:
 568              		.cfi_def_cfa_offset 4
 569              		.cfi_offset 7, -4
 570 02fe 83B0     		sub	sp, sp, #12
 571              	.LCFI19:
 572              		.cfi_def_cfa_offset 16
 573 0300 00AF     		add	r7, sp, #0
 574              	.LCFI20:
 575              		.cfi_def_cfa_register 7
 576 0302 0346     		mov	r3, r0
 577 0304 FB71     		strb	r3, [r7, #7]
 223:../src/lib/lpc177x_8x/Drivers/source/lpc177x_8x_emac.c ****   if(mode_100Mbps)
 578              		.loc 1 223 0
 579 0306 FB79     		ldrb	r3, [r7, #7]	@ zero_extendqisi2
 580 0308 002B     		cmp	r3, #0
 581 030a 04D0     		beq	.L37
 224:../src/lib/lpc177x_8x/Drivers/source/lpc177x_8x_emac.c ****   {
 225:../src/lib/lpc177x_8x/Drivers/source/lpc177x_8x_emac.c ****      LPC_EMAC->SUPP = EMAC_SUPP_SPEED;
 582              		.loc 1 225 0
 583 030c 064B     		ldr	r3, .L39
 584 030e 4FF48072 		mov	r2, #256
 585 0312 9A61     		str	r2, [r3, #24]
 586 0314 03E0     		b	.L36
 587              	.L37:
 226:../src/lib/lpc177x_8x/Drivers/source/lpc177x_8x_emac.c ****   }
 227:../src/lib/lpc177x_8x/Drivers/source/lpc177x_8x_emac.c ****   else
 228:../src/lib/lpc177x_8x/Drivers/source/lpc177x_8x_emac.c ****   {
 229:../src/lib/lpc177x_8x/Drivers/source/lpc177x_8x_emac.c ****      LPC_EMAC->SUPP = 0;
 588              		.loc 1 229 0
 589 0316 044B     		ldr	r3, .L39
 590 0318 4FF00002 		mov	r2, #0
 591 031c 9A61     		str	r2, [r3, #24]
 592              	.L36:
 230:../src/lib/lpc177x_8x/Drivers/source/lpc177x_8x_emac.c ****   }
 231:../src/lib/lpc177x_8x/Drivers/source/lpc177x_8x_emac.c **** }
 593              		.loc 1 231 0
 594 031e 07F10C07 		add	r7, r7, #12
 595 0322 BD46     		mov	sp, r7
 596 0324 80BC     		pop	{r7}
 597 0326 7047     		bx	lr
 598              	.L40:
 599              		.align	2
 600              	.L39:
 601 0328 00400820 		.word	537411584
 602              		.cfi_endproc
 603              	.LFE61:
 605              		.align	2
 606              		.global	EMAC_Init
 607              		.thumb
 608              		.thumb_func
 610              	EMAC_Init:
 611              	.LFB62:
 232:../src/lib/lpc177x_8x/Drivers/source/lpc177x_8x_emac.c **** 
 233:../src/lib/lpc177x_8x/Drivers/source/lpc177x_8x_emac.c **** 
 234:../src/lib/lpc177x_8x/Drivers/source/lpc177x_8x_emac.c **** /*********************************************************************//**
 235:../src/lib/lpc177x_8x/Drivers/source/lpc177x_8x_emac.c ****  * @brief       Initializes the EMAC peripheral according to the specified
 236:../src/lib/lpc177x_8x/Drivers/source/lpc177x_8x_emac.c **** *               parameters in the EMAC_ConfigStruct.
 237:../src/lib/lpc177x_8x/Drivers/source/lpc177x_8x_emac.c ****  * @param[in]   EMAC_ConfigStruct Pointer to a EMAC_CFG_Type structure
 238:../src/lib/lpc177x_8x/Drivers/source/lpc177x_8x_emac.c **** *                    that contains the configuration information for the
 239:../src/lib/lpc177x_8x/Drivers/source/lpc177x_8x_emac.c **** *                    specified EMAC peripheral.
 240:../src/lib/lpc177x_8x/Drivers/source/lpc177x_8x_emac.c ****  * @return      None
 241:../src/lib/lpc177x_8x/Drivers/source/lpc177x_8x_emac.c ****  *
 242:../src/lib/lpc177x_8x/Drivers/source/lpc177x_8x_emac.c ****  * Note: This function will initialize EMAC module according to procedure below:
 243:../src/lib/lpc177x_8x/Drivers/source/lpc177x_8x_emac.c ****  *  - Remove the soft reset condition from the MAC
 244:../src/lib/lpc177x_8x/Drivers/source/lpc177x_8x_emac.c ****  *  - Configure the PHY via the MIIM interface of the MAC
 245:../src/lib/lpc177x_8x/Drivers/source/lpc177x_8x_emac.c ****  *  - Select RMII mode
 246:../src/lib/lpc177x_8x/Drivers/source/lpc177x_8x_emac.c ****  *  - Configure the transmit and receive DMA engines, including the descriptor arrays
 247:../src/lib/lpc177x_8x/Drivers/source/lpc177x_8x_emac.c ****  *  - Configure the host registers (MAC1,MAC2 etc.) in the MAC
 248:../src/lib/lpc177x_8x/Drivers/source/lpc177x_8x_emac.c ****  *  - Enable the receive and transmit data paths
 249:../src/lib/lpc177x_8x/Drivers/source/lpc177x_8x_emac.c ****  *  In default state after initializing,  Rx Done and Tx Done interrupt are enabled,
 250:../src/lib/lpc177x_8x/Drivers/source/lpc177x_8x_emac.c ****  *  nad all  interrupts are also enabled
 251:../src/lib/lpc177x_8x/Drivers/source/lpc177x_8x_emac.c ****  *  (Ref. from LPC17xx UM)
 252:../src/lib/lpc177x_8x/Drivers/source/lpc177x_8x_emac.c ****  **********************************************************************/
 253:../src/lib/lpc177x_8x/Drivers/source/lpc177x_8x_emac.c **** int32_t EMAC_Init(EMAC_CFG_Type *EMAC_ConfigStruct)
 254:../src/lib/lpc177x_8x/Drivers/source/lpc177x_8x_emac.c **** {
 612              		.loc 1 254 0
 613              		.cfi_startproc
 614              		@ args = 0, pretend = 0, frame = 16
 615              		@ frame_needed = 1, uses_anonymous_args = 0
 616 032c B0B5     		push	{r4, r5, r7, lr}
 617              	.LCFI21:
 618              		.cfi_def_cfa_offset 16
 619              		.cfi_offset 4, -16
 620              		.cfi_offset 5, -12
 621              		.cfi_offset 7, -8
 622              		.cfi_offset 14, -4
 623 032e 84B0     		sub	sp, sp, #16
 624              	.LCFI22:
 625              		.cfi_def_cfa_offset 32
 626 0330 00AF     		add	r7, sp, #0
 627              	.LCFI23:
 628              		.cfi_def_cfa_register 7
 629 0332 7860     		str	r0, [r7, #4]
 255:../src/lib/lpc177x_8x/Drivers/source/lpc177x_8x_emac.c ****     /* Initialize the EMAC Ethernet controller. */
 256:../src/lib/lpc177x_8x/Drivers/source/lpc177x_8x_emac.c ****     volatile int32_t tout, tmp;
 257:../src/lib/lpc177x_8x/Drivers/source/lpc177x_8x_emac.c **** 
 258:../src/lib/lpc177x_8x/Drivers/source/lpc177x_8x_emac.c ****     EMAC_Configs = *EMAC_ConfigStruct;
 630              		.loc 1 258 0
 631 0334 564A     		ldr	r2, .L52
 632 0336 7B68     		ldr	r3, [r7, #4]
 633 0338 1446     		mov	r4, r2
 634 033a 1D46     		mov	r5, r3
 635 033c 0FCD     		ldmia	r5!, {r0, r1, r2, r3}
 636 033e 0FC4     		stmia	r4!, {r0, r1, r2, r3}
 637 0340 0FCD     		ldmia	r5!, {r0, r1, r2, r3}
 638 0342 0FC4     		stmia	r4!, {r0, r1, r2, r3}
 639 0344 95E80700 		ldmia	r5, {r0, r1, r2}
 640 0348 84E80700 		stmia	r4, {r0, r1, r2}
 259:../src/lib/lpc177x_8x/Drivers/source/lpc177x_8x_emac.c **** 
 260:../src/lib/lpc177x_8x/Drivers/source/lpc177x_8x_emac.c ****     /* Set up power for Ethernet module */
 261:../src/lib/lpc177x_8x/Drivers/source/lpc177x_8x_emac.c ****     CLKPWR_ConfigPPWR (CLKPWR_PCONP_PCENET, ENABLE);
 641              		.loc 1 261 0
 642 034c 4FF08040 		mov	r0, #1073741824
 643 0350 4FF00101 		mov	r1, #1
 644 0354 FFF7FEFF 		bl	CLKPWR_ConfigPPWR
 262:../src/lib/lpc177x_8x/Drivers/source/lpc177x_8x_emac.c **** 
 263:../src/lib/lpc177x_8x/Drivers/source/lpc177x_8x_emac.c ****     /* Enable P1 Ethernet Pins. */
 264:../src/lib/lpc177x_8x/Drivers/source/lpc177x_8x_emac.c **** 
 265:../src/lib/lpc177x_8x/Drivers/source/lpc177x_8x_emac.c ****     /* Reset all EMAC internal modules */
 266:../src/lib/lpc177x_8x/Drivers/source/lpc177x_8x_emac.c ****     LPC_EMAC->MAC1    = EMAC_MAC1_RES_TX | EMAC_MAC1_RES_MCS_TX | EMAC_MAC1_RES_RX |
 645              		.loc 1 266 0
 646 0358 4E4B     		ldr	r3, .L52+4
 647 035a 4FF44F42 		mov	r2, #52992
 648 035e 1A60     		str	r2, [r3, #0]
 267:../src/lib/lpc177x_8x/Drivers/source/lpc177x_8x_emac.c ****                     EMAC_MAC1_RES_MCS_RX | EMAC_MAC1_SIM_RES | EMAC_MAC1_SOFT_RES;
 268:../src/lib/lpc177x_8x/Drivers/source/lpc177x_8x_emac.c **** 
 269:../src/lib/lpc177x_8x/Drivers/source/lpc177x_8x_emac.c ****     LPC_EMAC->Command = EMAC_CR_REG_RES | EMAC_CR_TX_RES | EMAC_CR_RX_RES | EMAC_CR_PASS_RUNT_FRM;
 649              		.loc 1 269 0
 650 0360 4C4B     		ldr	r3, .L52+4
 651 0362 4FF07802 		mov	r2, #120
 652 0366 C3F80021 		str	r2, [r3, #256]
 270:../src/lib/lpc177x_8x/Drivers/source/lpc177x_8x_emac.c **** 
 271:../src/lib/lpc177x_8x/Drivers/source/lpc177x_8x_emac.c ****     /* A short delay after reset. */
 272:../src/lib/lpc177x_8x/Drivers/source/lpc177x_8x_emac.c ****     for (tout = 100; tout; tout--);
 653              		.loc 1 272 0
 654 036a 4FF06403 		mov	r3, #100
 655 036e FB60     		str	r3, [r7, #12]
 656 0370 03E0     		b	.L42
 657              	.L43:
 658              		.loc 1 272 0 is_stmt 0 discriminator 2
 659 0372 FB68     		ldr	r3, [r7, #12]
 660 0374 03F1FF33 		add	r3, r3, #-1
 661 0378 FB60     		str	r3, [r7, #12]
 662              	.L42:
 663              		.loc 1 272 0 discriminator 1
 664 037a FB68     		ldr	r3, [r7, #12]
 665 037c 002B     		cmp	r3, #0
 666 037e F8D1     		bne	.L43
 273:../src/lib/lpc177x_8x/Drivers/source/lpc177x_8x_emac.c **** 
 274:../src/lib/lpc177x_8x/Drivers/source/lpc177x_8x_emac.c ****     /* Initialize MAC control registers. */
 275:../src/lib/lpc177x_8x/Drivers/source/lpc177x_8x_emac.c ****     LPC_EMAC->MAC1 = EMAC_MAC1_PASS_ALL;
 667              		.loc 1 275 0 is_stmt 1
 668 0380 444B     		ldr	r3, .L52+4
 669 0382 4FF00202 		mov	r2, #2
 670 0386 1A60     		str	r2, [r3, #0]
 276:../src/lib/lpc177x_8x/Drivers/source/lpc177x_8x_emac.c ****     LPC_EMAC->MAC2 = EMAC_MAC2_CRC_EN | EMAC_MAC2_PAD_EN;
 671              		.loc 1 276 0
 672 0388 424B     		ldr	r3, .L52+4
 673 038a 4FF03002 		mov	r2, #48
 674 038e 5A60     		str	r2, [r3, #4]
 277:../src/lib/lpc177x_8x/Drivers/source/lpc177x_8x_emac.c ****     LPC_EMAC->MAXF = EMAC_ETH_MAX_FLEN;
 675              		.loc 1 277 0
 676 0390 404B     		ldr	r3, .L52+4
 677 0392 4FF4C062 		mov	r2, #1536
 678 0396 5A61     		str	r2, [r3, #20]
 278:../src/lib/lpc177x_8x/Drivers/source/lpc177x_8x_emac.c ****     /*
 279:../src/lib/lpc177x_8x/Drivers/source/lpc177x_8x_emac.c ****      * Find the clock that close to desired target clock
 280:../src/lib/lpc177x_8x/Drivers/source/lpc177x_8x_emac.c ****      */
 281:../src/lib/lpc177x_8x/Drivers/source/lpc177x_8x_emac.c ****     tmp = CLKPWR_GetCLK(CLKPWR_CLKTYPE_CPU)/ EMAC_MCFG_MII_MAXCLK;
 679              		.loc 1 281 0
 680 0398 4FF00000 		mov	r0, #0
 681 039c FFF7FEFF 		bl	CLKPWR_GetCLK
 682 03a0 0246     		mov	r2, r0
 683 03a2 3D4B     		ldr	r3, .L52+8
 684 03a4 A3FB0213 		umull	r1, r3, r3, r2
 685 03a8 4FEA1353 		lsr	r3, r3, #20
 686 03ac BB60     		str	r3, [r7, #8]
 282:../src/lib/lpc177x_8x/Drivers/source/lpc177x_8x_emac.c ****     for (tout = 0; tout < sizeof (EMAC_clkdiv); tout++)
 687              		.loc 1 282 0
 688 03ae 4FF00003 		mov	r3, #0
 689 03b2 FB60     		str	r3, [r7, #12]
 690 03b4 0AE0     		b	.L44
 691              	.L47:
 283:../src/lib/lpc177x_8x/Drivers/source/lpc177x_8x_emac.c ****     {
 284:../src/lib/lpc177x_8x/Drivers/source/lpc177x_8x_emac.c ****         if (EMAC_clkdiv[tout] >= tmp)
 692              		.loc 1 284 0
 693 03b6 FB68     		ldr	r3, [r7, #12]
 694 03b8 384A     		ldr	r2, .L52+12
 695 03ba D35C     		ldrb	r3, [r2, r3]	@ zero_extendqisi2
 696 03bc 1A46     		mov	r2, r3
 697 03be BB68     		ldr	r3, [r7, #8]
 698 03c0 9A42     		cmp	r2, r3
 699 03c2 07DA     		bge	.L51
 700              	.L45:
 282:../src/lib/lpc177x_8x/Drivers/source/lpc177x_8x_emac.c ****     for (tout = 0; tout < sizeof (EMAC_clkdiv); tout++)
 701              		.loc 1 282 0
 702 03c4 FB68     		ldr	r3, [r7, #12]
 703 03c6 03F10103 		add	r3, r3, #1
 704 03ca FB60     		str	r3, [r7, #12]
 705              	.L44:
 282:../src/lib/lpc177x_8x/Drivers/source/lpc177x_8x_emac.c ****     for (tout = 0; tout < sizeof (EMAC_clkdiv); tout++)
 706              		.loc 1 282 0 is_stmt 0 discriminator 1
 707 03cc FB68     		ldr	r3, [r7, #12]
 708 03ce 0E2B     		cmp	r3, #14
 709 03d0 F1D9     		bls	.L47
 710 03d2 00E0     		b	.L46
 711              	.L51:
 285:../src/lib/lpc177x_8x/Drivers/source/lpc177x_8x_emac.c ****             break;
 712              		.loc 1 285 0 is_stmt 1
 713 03d4 00BF     		nop
 714              	.L46:
 286:../src/lib/lpc177x_8x/Drivers/source/lpc177x_8x_emac.c ****     }
 287:../src/lib/lpc177x_8x/Drivers/source/lpc177x_8x_emac.c **** 
 288:../src/lib/lpc177x_8x/Drivers/source/lpc177x_8x_emac.c ****     if(tout >= sizeof (EMAC_clkdiv))
 715              		.loc 1 288 0
 716 03d6 FB68     		ldr	r3, [r7, #12]
 717 03d8 0E2B     		cmp	r3, #14
 718 03da 02D9     		bls	.L48
 289:../src/lib/lpc177x_8x/Drivers/source/lpc177x_8x_emac.c ****         return ERROR;
 719              		.loc 1 289 0
 720 03dc 4FF00003 		mov	r3, #0
 721 03e0 51E0     		b	.L49
 722              	.L48:
 290:../src/lib/lpc177x_8x/Drivers/source/lpc177x_8x_emac.c ****     tout++;
 723              		.loc 1 290 0
 724 03e2 FB68     		ldr	r3, [r7, #12]
 725 03e4 03F10103 		add	r3, r3, #1
 726 03e8 FB60     		str	r3, [r7, #12]
 291:../src/lib/lpc177x_8x/Drivers/source/lpc177x_8x_emac.c **** 
 292:../src/lib/lpc177x_8x/Drivers/source/lpc177x_8x_emac.c ****     // Set Frame size
 293:../src/lib/lpc177x_8x/Drivers/source/lpc177x_8x_emac.c ****     LPC_EMAC->MAXF = EMAC_ConfigStruct->nMaxFrameSize;
 727              		.loc 1 293 0
 728 03ea 2A4B     		ldr	r3, .L52+4
 729 03ec 7A68     		ldr	r2, [r7, #4]
 730 03ee 9289     		ldrh	r2, [r2, #12]
 731 03f0 5A61     		str	r2, [r3, #20]
 294:../src/lib/lpc177x_8x/Drivers/source/lpc177x_8x_emac.c **** 
 295:../src/lib/lpc177x_8x/Drivers/source/lpc177x_8x_emac.c ****     // Write to MAC configuration register and reset
 296:../src/lib/lpc177x_8x/Drivers/source/lpc177x_8x_emac.c ****     LPC_EMAC->MCFG = EMAC_MCFG_CLK_SEL(tout) | EMAC_MCFG_RES_MII;
 732              		.loc 1 296 0
 733 03f2 284B     		ldr	r3, .L52+4
 734 03f4 FA68     		ldr	r2, [r7, #12]
 735 03f6 02F00F02 		and	r2, r2, #15
 736 03fa 4FEA8202 		lsl	r2, r2, #2
 737 03fe 42F40042 		orr	r2, r2, #32768
 738 0402 1A62     		str	r2, [r3, #32]
 297:../src/lib/lpc177x_8x/Drivers/source/lpc177x_8x_emac.c **** 
 298:../src/lib/lpc177x_8x/Drivers/source/lpc177x_8x_emac.c ****     // release reset
 299:../src/lib/lpc177x_8x/Drivers/source/lpc177x_8x_emac.c ****     LPC_EMAC->MCFG &= ~(EMAC_MCFG_RES_MII);
 739              		.loc 1 299 0
 740 0404 234B     		ldr	r3, .L52+4
 741 0406 234A     		ldr	r2, .L52+4
 742 0408 126A     		ldr	r2, [r2, #32]
 743 040a 22F40042 		bic	r2, r2, #32768
 744 040e 1A62     		str	r2, [r3, #32]
 300:../src/lib/lpc177x_8x/Drivers/source/lpc177x_8x_emac.c ****     LPC_EMAC->CLRT = EMAC_CLRT_DEF;
 745              		.loc 1 300 0
 746 0410 204B     		ldr	r3, .L52+4
 747 0412 43F20F72 		movw	r2, #14095
 748 0416 1A61     		str	r2, [r3, #16]
 301:../src/lib/lpc177x_8x/Drivers/source/lpc177x_8x_emac.c ****     LPC_EMAC->IPGR = EMAC_IPGR_P2_DEF;
 749              		.loc 1 301 0
 750 0418 1E4B     		ldr	r3, .L52+4
 751 041a 4FF01202 		mov	r2, #18
 752 041e DA60     		str	r2, [r3, #12]
 302:../src/lib/lpc177x_8x/Drivers/source/lpc177x_8x_emac.c **** 
 303:../src/lib/lpc177x_8x/Drivers/source/lpc177x_8x_emac.c ****     /* Enable Reduced MII interface. */
 304:../src/lib/lpc177x_8x/Drivers/source/lpc177x_8x_emac.c ****     LPC_EMAC->Command = EMAC_CR_RMII | EMAC_CR_PASS_RUNT_FRM;
 753              		.loc 1 304 0
 754 0420 1C4B     		ldr	r3, .L52+4
 755 0422 4FF41072 		mov	r2, #576
 756 0426 C3F80021 		str	r2, [r3, #256]
 305:../src/lib/lpc177x_8x/Drivers/source/lpc177x_8x_emac.c **** 
 306:../src/lib/lpc177x_8x/Drivers/source/lpc177x_8x_emac.c **** 
 307:../src/lib/lpc177x_8x/Drivers/source/lpc177x_8x_emac.c ****     // Initilialize PHY
 308:../src/lib/lpc177x_8x/Drivers/source/lpc177x_8x_emac.c ****     if(EMAC_ConfigStruct->pfnPHYInit != NULL)
 757              		.loc 1 308 0
 758 042a 7B68     		ldr	r3, [r7, #4]
 759 042c 1B69     		ldr	r3, [r3, #16]
 760 042e 002B     		cmp	r3, #0
 761 0430 0AD0     		beq	.L50
 309:../src/lib/lpc177x_8x/Drivers/source/lpc177x_8x_emac.c ****     {
 310:../src/lib/lpc177x_8x/Drivers/source/lpc177x_8x_emac.c ****         if(EMAC_ConfigStruct->pfnPHYInit(&EMAC_ConfigStruct->PhyCfg) != SUCCESS)
 762              		.loc 1 310 0
 763 0432 7B68     		ldr	r3, [r7, #4]
 764 0434 1B69     		ldr	r3, [r3, #16]
 765 0436 7A68     		ldr	r2, [r7, #4]
 766 0438 1046     		mov	r0, r2
 767 043a 9847     		blx	r3
 768 043c 0346     		mov	r3, r0
 769 043e 012B     		cmp	r3, #1
 770 0440 02D0     		beq	.L50
 311:../src/lib/lpc177x_8x/Drivers/source/lpc177x_8x_emac.c ****         {
 312:../src/lib/lpc177x_8x/Drivers/source/lpc177x_8x_emac.c ****         return ERROR;
 771              		.loc 1 312 0
 772 0442 4FF00003 		mov	r3, #0
 773 0446 1EE0     		b	.L49
 774              	.L50:
 313:../src/lib/lpc177x_8x/Drivers/source/lpc177x_8x_emac.c ****         }
 314:../src/lib/lpc177x_8x/Drivers/source/lpc177x_8x_emac.c ****     }
 315:../src/lib/lpc177x_8x/Drivers/source/lpc177x_8x_emac.c **** 
 316:../src/lib/lpc177x_8x/Drivers/source/lpc177x_8x_emac.c ****     // Set EMAC address
 317:../src/lib/lpc177x_8x/Drivers/source/lpc177x_8x_emac.c ****     setEmacAddr(EMAC_ConfigStruct->pbEMAC_Addr);
 775              		.loc 1 317 0
 776 0448 7B68     		ldr	r3, [r7, #4]
 777 044a 9B68     		ldr	r3, [r3, #8]
 778 044c 1846     		mov	r0, r3
 779 044e FFF7FEFF 		bl	setEmacAddr
 318:../src/lib/lpc177x_8x/Drivers/source/lpc177x_8x_emac.c **** 
 319:../src/lib/lpc177x_8x/Drivers/source/lpc177x_8x_emac.c ****     /* Initialize Tx and Rx DMA Descriptors */
 320:../src/lib/lpc177x_8x/Drivers/source/lpc177x_8x_emac.c ****     rx_descr_init ();
 780              		.loc 1 320 0
 781 0452 FFF7FEFF 		bl	rx_descr_init
 321:../src/lib/lpc177x_8x/Drivers/source/lpc177x_8x_emac.c ****     tx_descr_init ();
 782              		.loc 1 321 0
 783 0456 FFF7FEFF 		bl	tx_descr_init
 322:../src/lib/lpc177x_8x/Drivers/source/lpc177x_8x_emac.c **** 
 323:../src/lib/lpc177x_8x/Drivers/source/lpc177x_8x_emac.c ****     // Set Receive Filter register: enable broadcast and multicast
 324:../src/lib/lpc177x_8x/Drivers/source/lpc177x_8x_emac.c ****     LPC_EMAC->RxFilterCtrl = EMAC_RFC_MCAST_EN | EMAC_RFC_BCAST_EN | EMAC_RFC_PERFECT_EN;
 784              		.loc 1 324 0
 785 045a 0E4B     		ldr	r3, .L52+4
 786 045c 4FF02602 		mov	r2, #38
 787 0460 C3F80022 		str	r2, [r3, #512]
 325:../src/lib/lpc177x_8x/Drivers/source/lpc177x_8x_emac.c **** 
 326:../src/lib/lpc177x_8x/Drivers/source/lpc177x_8x_emac.c ****     /* Enable Rx Done and Tx Done interrupt for EMAC */
 327:../src/lib/lpc177x_8x/Drivers/source/lpc177x_8x_emac.c ****     EMAC_IntCmd((EMAC_INT_RX_OVERRUN | EMAC_INT_RX_ERR | EMAC_INT_RX_FIN \
 788              		.loc 1 327 0
 789 0464 4FF0FF00 		mov	r0, #255
 790 0468 4FF00101 		mov	r1, #1
 791 046c FFF7FEFF 		bl	EMAC_IntCmd
 328:../src/lib/lpc177x_8x/Drivers/source/lpc177x_8x_emac.c ****             | EMAC_INT_RX_DONE | EMAC_INT_TX_UNDERRUN | EMAC_INT_TX_ERR \
 329:../src/lib/lpc177x_8x/Drivers/source/lpc177x_8x_emac.c ****             | EMAC_INT_TX_FIN | EMAC_INT_TX_DONE), ENABLE);
 330:../src/lib/lpc177x_8x/Drivers/source/lpc177x_8x_emac.c **** 
 331:../src/lib/lpc177x_8x/Drivers/source/lpc177x_8x_emac.c ****     /* Reset all interrupts */
 332:../src/lib/lpc177x_8x/Drivers/source/lpc177x_8x_emac.c ****     LPC_EMAC->IntClear  = 0xFFFF;
 792              		.loc 1 332 0
 793 0470 084B     		ldr	r3, .L52+4
 794 0472 4FF6FF72 		movw	r2, #65535
 795 0476 C3F8E82F 		str	r2, [r3, #4072]
 333:../src/lib/lpc177x_8x/Drivers/source/lpc177x_8x_emac.c **** 
 334:../src/lib/lpc177x_8x/Drivers/source/lpc177x_8x_emac.c ****     /* Enable receive and transmit mode of MAC Ethernet core */
 335:../src/lib/lpc177x_8x/Drivers/source/lpc177x_8x_emac.c ****     EMAC_TxEnable();
 796              		.loc 1 335 0
 797 047a FFF7FEFF 		bl	EMAC_TxEnable
 336:../src/lib/lpc177x_8x/Drivers/source/lpc177x_8x_emac.c ****     EMAC_RxEnable();
 798              		.loc 1 336 0
 799 047e FFF7FEFF 		bl	EMAC_RxEnable
 337:../src/lib/lpc177x_8x/Drivers/source/lpc177x_8x_emac.c **** 
 338:../src/lib/lpc177x_8x/Drivers/source/lpc177x_8x_emac.c ****     return SUCCESS;
 800              		.loc 1 338 0
 801 0482 4FF00103 		mov	r3, #1
 802              	.L49:
 339:../src/lib/lpc177x_8x/Drivers/source/lpc177x_8x_emac.c **** }
 803              		.loc 1 339 0
 804 0486 1846     		mov	r0, r3
 805 0488 07F11007 		add	r7, r7, #16
 806 048c BD46     		mov	sp, r7
 807 048e B0BD     		pop	{r4, r5, r7, pc}
 808              	.L53:
 809              		.align	2
 810              	.L52:
 811 0490 00000000 		.word	EMAC_Configs
 812 0494 00400820 		.word	537411584
 813 0498 6BCA5F6B 		.word	1801439851
 814 049c 00000000 		.word	EMAC_clkdiv
 815              		.cfi_endproc
 816              	.LFE62:
 818              		.align	2
 819              		.global	EMAC_DeInit
 820              		.thumb
 821              		.thumb_func
 823              	EMAC_DeInit:
 824              	.LFB63:
 340:../src/lib/lpc177x_8x/Drivers/source/lpc177x_8x_emac.c **** 
 341:../src/lib/lpc177x_8x/Drivers/source/lpc177x_8x_emac.c **** 
 342:../src/lib/lpc177x_8x/Drivers/source/lpc177x_8x_emac.c **** /*********************************************************************//**
 343:../src/lib/lpc177x_8x/Drivers/source/lpc177x_8x_emac.c ****  * @brief       De-initializes the EMAC peripheral registers to their
 344:../src/lib/lpc177x_8x/Drivers/source/lpc177x_8x_emac.c **** *                  default reset values.
 345:../src/lib/lpc177x_8x/Drivers/source/lpc177x_8x_emac.c ****  * @param[in]   None
 346:../src/lib/lpc177x_8x/Drivers/source/lpc177x_8x_emac.c ****  * @return      None
 347:../src/lib/lpc177x_8x/Drivers/source/lpc177x_8x_emac.c ****  **********************************************************************/
 348:../src/lib/lpc177x_8x/Drivers/source/lpc177x_8x_emac.c **** void EMAC_DeInit(void)
 349:../src/lib/lpc177x_8x/Drivers/source/lpc177x_8x_emac.c **** {
 825              		.loc 1 349 0
 826              		.cfi_startproc
 827              		@ args = 0, pretend = 0, frame = 0
 828              		@ frame_needed = 1, uses_anonymous_args = 0
 829 04a0 80B5     		push	{r7, lr}
 830              	.LCFI24:
 831              		.cfi_def_cfa_offset 8
 832              		.cfi_offset 7, -8
 833              		.cfi_offset 14, -4
 834 04a2 00AF     		add	r7, sp, #0
 835              	.LCFI25:
 836              		.cfi_def_cfa_register 7
 350:../src/lib/lpc177x_8x/Drivers/source/lpc177x_8x_emac.c ****     // Disable all interrupt
 351:../src/lib/lpc177x_8x/Drivers/source/lpc177x_8x_emac.c ****     LPC_EMAC->IntEnable = 0x00;
 837              		.loc 1 351 0
 838 04a4 0A4B     		ldr	r3, .L55
 839 04a6 4FF00002 		mov	r2, #0
 840 04aa C3F8E42F 		str	r2, [r3, #4068]
 352:../src/lib/lpc177x_8x/Drivers/source/lpc177x_8x_emac.c **** 
 353:../src/lib/lpc177x_8x/Drivers/source/lpc177x_8x_emac.c ****     // Clear all pending interrupt
 354:../src/lib/lpc177x_8x/Drivers/source/lpc177x_8x_emac.c ****     LPC_EMAC->IntClear = (0xFF) | (EMAC_INT_SOFT_INT | EMAC_INT_WAKEUP);
 841              		.loc 1 354 0
 842 04ae 084B     		ldr	r3, .L55
 843 04b0 43F2FF02 		movw	r2, #12543
 844 04b4 C3F8E82F 		str	r2, [r3, #4072]
 355:../src/lib/lpc177x_8x/Drivers/source/lpc177x_8x_emac.c **** 
 356:../src/lib/lpc177x_8x/Drivers/source/lpc177x_8x_emac.c ****     LPC_EMAC->Command = 0;
 845              		.loc 1 356 0
 846 04b8 054B     		ldr	r3, .L55
 847 04ba 4FF00002 		mov	r2, #0
 848 04be C3F80021 		str	r2, [r3, #256]
 357:../src/lib/lpc177x_8x/Drivers/source/lpc177x_8x_emac.c **** 
 358:../src/lib/lpc177x_8x/Drivers/source/lpc177x_8x_emac.c ****     /* TurnOff power for Ethernet module */
 359:../src/lib/lpc177x_8x/Drivers/source/lpc177x_8x_emac.c ****     CLKPWR_ConfigPPWR (CLKPWR_PCONP_PCENET, DISABLE);
 849              		.loc 1 359 0
 850 04c2 4FF08040 		mov	r0, #1073741824
 851 04c6 4FF00001 		mov	r1, #0
 852 04ca FFF7FEFF 		bl	CLKPWR_ConfigPPWR
 360:../src/lib/lpc177x_8x/Drivers/source/lpc177x_8x_emac.c **** }
 853              		.loc 1 360 0
 854 04ce 80BD     		pop	{r7, pc}
 855              	.L56:
 856              		.align	2
 857              	.L55:
 858 04d0 00400820 		.word	537411584
 859              		.cfi_endproc
 860              	.LFE63:
 862              		.align	2
 863              		.global	EMAC_TxEnable
 864              		.thumb
 865              		.thumb_func
 867              	EMAC_TxEnable:
 868              	.LFB64:
 361:../src/lib/lpc177x_8x/Drivers/source/lpc177x_8x_emac.c **** 
 362:../src/lib/lpc177x_8x/Drivers/source/lpc177x_8x_emac.c **** /*********************************************************************//**
 363:../src/lib/lpc177x_8x/Drivers/source/lpc177x_8x_emac.c ****  * @brief       EMAC TX API modules
 364:../src/lib/lpc177x_8x/Drivers/source/lpc177x_8x_emac.c ****  * @param[in]   None
 365:../src/lib/lpc177x_8x/Drivers/source/lpc177x_8x_emac.c ****  * @return      None
 366:../src/lib/lpc177x_8x/Drivers/source/lpc177x_8x_emac.c ****  **********************************************************************/
 367:../src/lib/lpc177x_8x/Drivers/source/lpc177x_8x_emac.c **** void EMAC_TxEnable( void )
 368:../src/lib/lpc177x_8x/Drivers/source/lpc177x_8x_emac.c **** {
 869              		.loc 1 368 0
 870              		.cfi_startproc
 871              		@ args = 0, pretend = 0, frame = 0
 872              		@ frame_needed = 1, uses_anonymous_args = 0
 873              		@ link register save eliminated.
 874 04d4 80B4     		push	{r7}
 875              	.LCFI26:
 876              		.cfi_def_cfa_offset 4
 877              		.cfi_offset 7, -4
 878 04d6 00AF     		add	r7, sp, #0
 879              	.LCFI27:
 880              		.cfi_def_cfa_register 7
 369:../src/lib/lpc177x_8x/Drivers/source/lpc177x_8x_emac.c ****     LPC_EMAC->Command |= EMAC_CR_TX_EN;
 881              		.loc 1 369 0
 882 04d8 054B     		ldr	r3, .L59
 883 04da 054A     		ldr	r2, .L59
 884 04dc D2F80021 		ldr	r2, [r2, #256]
 885 04e0 42F00202 		orr	r2, r2, #2
 886 04e4 C3F80021 		str	r2, [r3, #256]
 370:../src/lib/lpc177x_8x/Drivers/source/lpc177x_8x_emac.c ****     return;
 887              		.loc 1 370 0
 888 04e8 00BF     		nop
 371:../src/lib/lpc177x_8x/Drivers/source/lpc177x_8x_emac.c **** }
 889              		.loc 1 371 0
 890 04ea BD46     		mov	sp, r7
 891 04ec 80BC     		pop	{r7}
 892 04ee 7047     		bx	lr
 893              	.L60:
 894              		.align	2
 895              	.L59:
 896 04f0 00400820 		.word	537411584
 897              		.cfi_endproc
 898              	.LFE64:
 900              		.align	2
 901              		.global	EMAC_TxDisable
 902              		.thumb
 903              		.thumb_func
 905              	EMAC_TxDisable:
 906              	.LFB65:
 372:../src/lib/lpc177x_8x/Drivers/source/lpc177x_8x_emac.c **** 
 373:../src/lib/lpc177x_8x/Drivers/source/lpc177x_8x_emac.c **** 
 374:../src/lib/lpc177x_8x/Drivers/source/lpc177x_8x_emac.c **** /*********************************************************************//**
 375:../src/lib/lpc177x_8x/Drivers/source/lpc177x_8x_emac.c ****  * @brief       EMAC RX API modules
 376:../src/lib/lpc177x_8x/Drivers/source/lpc177x_8x_emac.c ****  * @param[in]   None
 377:../src/lib/lpc177x_8x/Drivers/source/lpc177x_8x_emac.c ****  * @return      None
 378:../src/lib/lpc177x_8x/Drivers/source/lpc177x_8x_emac.c ****  **********************************************************************/
 379:../src/lib/lpc177x_8x/Drivers/source/lpc177x_8x_emac.c **** void EMAC_TxDisable( void )
 380:../src/lib/lpc177x_8x/Drivers/source/lpc177x_8x_emac.c **** {
 907              		.loc 1 380 0
 908              		.cfi_startproc
 909              		@ args = 0, pretend = 0, frame = 0
 910              		@ frame_needed = 1, uses_anonymous_args = 0
 911              		@ link register save eliminated.
 912 04f4 80B4     		push	{r7}
 913              	.LCFI28:
 914              		.cfi_def_cfa_offset 4
 915              		.cfi_offset 7, -4
 916 04f6 00AF     		add	r7, sp, #0
 917              	.LCFI29:
 918              		.cfi_def_cfa_register 7
 381:../src/lib/lpc177x_8x/Drivers/source/lpc177x_8x_emac.c ****     LPC_EMAC->Command &= ~EMAC_CR_TX_EN;
 919              		.loc 1 381 0
 920 04f8 054B     		ldr	r3, .L63
 921 04fa 054A     		ldr	r2, .L63
 922 04fc D2F80021 		ldr	r2, [r2, #256]
 923 0500 22F00202 		bic	r2, r2, #2
 924 0504 C3F80021 		str	r2, [r3, #256]
 382:../src/lib/lpc177x_8x/Drivers/source/lpc177x_8x_emac.c ****     return;
 925              		.loc 1 382 0
 926 0508 00BF     		nop
 383:../src/lib/lpc177x_8x/Drivers/source/lpc177x_8x_emac.c **** }
 927              		.loc 1 383 0
 928 050a BD46     		mov	sp, r7
 929 050c 80BC     		pop	{r7}
 930 050e 7047     		bx	lr
 931              	.L64:
 932              		.align	2
 933              	.L63:
 934 0510 00400820 		.word	537411584
 935              		.cfi_endproc
 936              	.LFE65:
 938              		.align	2
 939              		.global	EMAC_RxEnable
 940              		.thumb
 941              		.thumb_func
 943              	EMAC_RxEnable:
 944              	.LFB66:
 384:../src/lib/lpc177x_8x/Drivers/source/lpc177x_8x_emac.c **** 
 385:../src/lib/lpc177x_8x/Drivers/source/lpc177x_8x_emac.c **** /*********************************************************************//**
 386:../src/lib/lpc177x_8x/Drivers/source/lpc177x_8x_emac.c ****  * @brief       EMAC RX API modules
 387:../src/lib/lpc177x_8x/Drivers/source/lpc177x_8x_emac.c ****  * @param[in]   None
 388:../src/lib/lpc177x_8x/Drivers/source/lpc177x_8x_emac.c ****  * @return      None
 389:../src/lib/lpc177x_8x/Drivers/source/lpc177x_8x_emac.c ****  **********************************************************************/
 390:../src/lib/lpc177x_8x/Drivers/source/lpc177x_8x_emac.c **** void EMAC_RxEnable( void )
 391:../src/lib/lpc177x_8x/Drivers/source/lpc177x_8x_emac.c **** {
 945              		.loc 1 391 0
 946              		.cfi_startproc
 947              		@ args = 0, pretend = 0, frame = 0
 948              		@ frame_needed = 1, uses_anonymous_args = 0
 949              		@ link register save eliminated.
 950 0514 80B4     		push	{r7}
 951              	.LCFI30:
 952              		.cfi_def_cfa_offset 4
 953              		.cfi_offset 7, -4
 954 0516 00AF     		add	r7, sp, #0
 955              	.LCFI31:
 956              		.cfi_def_cfa_register 7
 392:../src/lib/lpc177x_8x/Drivers/source/lpc177x_8x_emac.c ****     LPC_EMAC->Command |= EMAC_CR_RX_EN;
 957              		.loc 1 392 0
 958 0518 084B     		ldr	r3, .L67
 959 051a 084A     		ldr	r2, .L67
 960 051c D2F80021 		ldr	r2, [r2, #256]
 961 0520 42F00102 		orr	r2, r2, #1
 962 0524 C3F80021 		str	r2, [r3, #256]
 393:../src/lib/lpc177x_8x/Drivers/source/lpc177x_8x_emac.c ****     LPC_EMAC->MAC1 |= EMAC_MAC1_REC_EN;
 963              		.loc 1 393 0
 964 0528 044B     		ldr	r3, .L67
 965 052a 044A     		ldr	r2, .L67
 966 052c 1268     		ldr	r2, [r2, #0]
 967 052e 42F00102 		orr	r2, r2, #1
 968 0532 1A60     		str	r2, [r3, #0]
 394:../src/lib/lpc177x_8x/Drivers/source/lpc177x_8x_emac.c ****     return;
 969              		.loc 1 394 0
 970 0534 00BF     		nop
 395:../src/lib/lpc177x_8x/Drivers/source/lpc177x_8x_emac.c **** }
 971              		.loc 1 395 0
 972 0536 BD46     		mov	sp, r7
 973 0538 80BC     		pop	{r7}
 974 053a 7047     		bx	lr
 975              	.L68:
 976              		.align	2
 977              	.L67:
 978 053c 00400820 		.word	537411584
 979              		.cfi_endproc
 980              	.LFE66:
 982              		.align	2
 983              		.global	EMAC_RxDisable
 984              		.thumb
 985              		.thumb_func
 987              	EMAC_RxDisable:
 988              	.LFB67:
 396:../src/lib/lpc177x_8x/Drivers/source/lpc177x_8x_emac.c **** 
 397:../src/lib/lpc177x_8x/Drivers/source/lpc177x_8x_emac.c **** /*********************************************************************//**
 398:../src/lib/lpc177x_8x/Drivers/source/lpc177x_8x_emac.c ****  * @brief       EMAC RX API modules
 399:../src/lib/lpc177x_8x/Drivers/source/lpc177x_8x_emac.c ****  * @param[in]   None
 400:../src/lib/lpc177x_8x/Drivers/source/lpc177x_8x_emac.c ****  * @return      None
 401:../src/lib/lpc177x_8x/Drivers/source/lpc177x_8x_emac.c ****  **********************************************************************/
 402:../src/lib/lpc177x_8x/Drivers/source/lpc177x_8x_emac.c **** void EMAC_RxDisable( void )
 403:../src/lib/lpc177x_8x/Drivers/source/lpc177x_8x_emac.c **** {
 989              		.loc 1 403 0
 990              		.cfi_startproc
 991              		@ args = 0, pretend = 0, frame = 0
 992              		@ frame_needed = 1, uses_anonymous_args = 0
 993              		@ link register save eliminated.
 994 0540 80B4     		push	{r7}
 995              	.LCFI32:
 996              		.cfi_def_cfa_offset 4
 997              		.cfi_offset 7, -4
 998 0542 00AF     		add	r7, sp, #0
 999              	.LCFI33:
 1000              		.cfi_def_cfa_register 7
 404:../src/lib/lpc177x_8x/Drivers/source/lpc177x_8x_emac.c ****     LPC_EMAC->Command &= ~EMAC_CR_RX_EN;
 1001              		.loc 1 404 0
 1002 0544 084B     		ldr	r3, .L71
 1003 0546 084A     		ldr	r2, .L71
 1004 0548 D2F80021 		ldr	r2, [r2, #256]
 1005 054c 22F00102 		bic	r2, r2, #1
 1006 0550 C3F80021 		str	r2, [r3, #256]
 405:../src/lib/lpc177x_8x/Drivers/source/lpc177x_8x_emac.c ****     LPC_EMAC->MAC1 &= ~EMAC_MAC1_REC_EN;
 1007              		.loc 1 405 0
 1008 0554 044B     		ldr	r3, .L71
 1009 0556 044A     		ldr	r2, .L71
 1010 0558 1268     		ldr	r2, [r2, #0]
 1011 055a 22F00102 		bic	r2, r2, #1
 1012 055e 1A60     		str	r2, [r3, #0]
 406:../src/lib/lpc177x_8x/Drivers/source/lpc177x_8x_emac.c ****     return;
 1013              		.loc 1 406 0
 1014 0560 00BF     		nop
 407:../src/lib/lpc177x_8x/Drivers/source/lpc177x_8x_emac.c **** }
 1015              		.loc 1 407 0
 1016 0562 BD46     		mov	sp, r7
 1017 0564 80BC     		pop	{r7}
 1018 0566 7047     		bx	lr
 1019              	.L72:
 1020              		.align	2
 1021              	.L71:
 1022 0568 00400820 		.word	537411584
 1023              		.cfi_endproc
 1024              	.LFE67:
 1026              		.align	2
 1027              		.global	EMAC_GetBufferSts
 1028              		.thumb
 1029              		.thumb_func
 1031              	EMAC_GetBufferSts:
 1032              	.LFB68:
 408:../src/lib/lpc177x_8x/Drivers/source/lpc177x_8x_emac.c **** 
 409:../src/lib/lpc177x_8x/Drivers/source/lpc177x_8x_emac.c **** /*********************************************************************//**
 410:../src/lib/lpc177x_8x/Drivers/source/lpc177x_8x_emac.c ****  * @brief       Get the status of  given buffer.
 411:../src/lib/lpc177x_8x/Drivers/source/lpc177x_8x_emac.c ****  * @param[in]   idx   Buffer index
 412:../src/lib/lpc177x_8x/Drivers/source/lpc177x_8x_emac.c ****  * @return      EMAC_BUFF_AVAILABLE/EMAC_BUFF_FULL/EMAC_BUFF_PARTIAL_FULL
 413:../src/lib/lpc177x_8x/Drivers/source/lpc177x_8x_emac.c ****  *
 414:../src/lib/lpc177x_8x/Drivers/source/lpc177x_8x_emac.c ****  **********************************************************************/
 415:../src/lib/lpc177x_8x/Drivers/source/lpc177x_8x_emac.c **** EMAC_BUFF_STATUS EMAC_GetBufferSts(EMAC_BUFF_IDX idx)
 416:../src/lib/lpc177x_8x/Drivers/source/lpc177x_8x_emac.c **** {
 1033              		.loc 1 416 0
 1034              		.cfi_startproc
 1035              		@ args = 0, pretend = 0, frame = 24
 1036              		@ frame_needed = 1, uses_anonymous_args = 0
 1037              		@ link register save eliminated.
 1038 056c 80B4     		push	{r7}
 1039              	.LCFI34:
 1040              		.cfi_def_cfa_offset 4
 1041              		.cfi_offset 7, -4
 1042 056e 87B0     		sub	sp, sp, #28
 1043              	.LCFI35:
 1044              		.cfi_def_cfa_offset 32
 1045 0570 00AF     		add	r7, sp, #0
 1046              	.LCFI36:
 1047              		.cfi_def_cfa_register 7
 1048 0572 0346     		mov	r3, r0
 1049 0574 FB71     		strb	r3, [r7, #7]
 417:../src/lib/lpc177x_8x/Drivers/source/lpc177x_8x_emac.c ****     uint32_t consume_idx, produce_idx;
 418:../src/lib/lpc177x_8x/Drivers/source/lpc177x_8x_emac.c ****     uint32_t max_frag_num;
 419:../src/lib/lpc177x_8x/Drivers/source/lpc177x_8x_emac.c **** 
 420:../src/lib/lpc177x_8x/Drivers/source/lpc177x_8x_emac.c ****     // Get the consume index, produce index and the buffer size
 421:../src/lib/lpc177x_8x/Drivers/source/lpc177x_8x_emac.c ****     if(idx == EMAC_TX_BUFF)
 1050              		.loc 1 421 0
 1051 0576 FB79     		ldrb	r3, [r7, #7]	@ zero_extendqisi2
 1052 0578 002B     		cmp	r3, #0
 1053 057a 0ED1     		bne	.L74
 422:../src/lib/lpc177x_8x/Drivers/source/lpc177x_8x_emac.c ****     {
 423:../src/lib/lpc177x_8x/Drivers/source/lpc177x_8x_emac.c ****         consume_idx = LPC_EMAC->TxConsumeIndex;
 1054              		.loc 1 423 0
 1055 057c 204B     		ldr	r3, .L80
 1056 057e D3F82C31 		ldr	r3, [r3, #300]
 1057 0582 7B61     		str	r3, [r7, #20]
 424:../src/lib/lpc177x_8x/Drivers/source/lpc177x_8x_emac.c ****         produce_idx = LPC_EMAC->TxProduceIndex;
 1058              		.loc 1 424 0
 1059 0584 1E4B     		ldr	r3, .L80
 1060 0586 D3F82831 		ldr	r3, [r3, #296]
 1061 058a 3B61     		str	r3, [r7, #16]
 425:../src/lib/lpc177x_8x/Drivers/source/lpc177x_8x_emac.c ****         max_frag_num = LPC_EMAC->TxDescriptorNumber + 1;
 1062              		.loc 1 425 0
 1063 058c 1C4B     		ldr	r3, .L80
 1064 058e D3F82431 		ldr	r3, [r3, #292]
 1065 0592 03F10103 		add	r3, r3, #1
 1066 0596 FB60     		str	r3, [r7, #12]
 1067 0598 0DE0     		b	.L75
 1068              	.L74:
 426:../src/lib/lpc177x_8x/Drivers/source/lpc177x_8x_emac.c ****     }
 427:../src/lib/lpc177x_8x/Drivers/source/lpc177x_8x_emac.c ****     else
 428:../src/lib/lpc177x_8x/Drivers/source/lpc177x_8x_emac.c ****     {
 429:../src/lib/lpc177x_8x/Drivers/source/lpc177x_8x_emac.c ****         consume_idx = LPC_EMAC->RxConsumeIndex;
 1069              		.loc 1 429 0
 1070 059a 194B     		ldr	r3, .L80
 1071 059c D3F81831 		ldr	r3, [r3, #280]
 1072 05a0 7B61     		str	r3, [r7, #20]
 430:../src/lib/lpc177x_8x/Drivers/source/lpc177x_8x_emac.c ****         produce_idx = LPC_EMAC->RxProduceIndex;
 1073              		.loc 1 430 0
 1074 05a2 174B     		ldr	r3, .L80
 1075 05a4 D3F81431 		ldr	r3, [r3, #276]
 1076 05a8 3B61     		str	r3, [r7, #16]
 431:../src/lib/lpc177x_8x/Drivers/source/lpc177x_8x_emac.c ****         max_frag_num = LPC_EMAC->RxDescriptorNumber + 1;
 1077              		.loc 1 431 0
 1078 05aa 154B     		ldr	r3, .L80
 1079 05ac D3F81031 		ldr	r3, [r3, #272]
 1080 05b0 03F10103 		add	r3, r3, #1
 1081 05b4 FB60     		str	r3, [r7, #12]
 1082              	.L75:
 432:../src/lib/lpc177x_8x/Drivers/source/lpc177x_8x_emac.c ****     }
 433:../src/lib/lpc177x_8x/Drivers/source/lpc177x_8x_emac.c **** 
 434:../src/lib/lpc177x_8x/Drivers/source/lpc177x_8x_emac.c ****     // empty
 435:../src/lib/lpc177x_8x/Drivers/source/lpc177x_8x_emac.c ****     if(consume_idx == produce_idx)
 1083              		.loc 1 435 0
 1084 05b6 7A69     		ldr	r2, [r7, #20]
 1085 05b8 3B69     		ldr	r3, [r7, #16]
 1086 05ba 9A42     		cmp	r2, r3
 1087 05bc 02D1     		bne	.L76
 436:../src/lib/lpc177x_8x/Drivers/source/lpc177x_8x_emac.c ****         return EMAC_BUFF_EMPTY;
 1088              		.loc 1 436 0
 1089 05be 4FF00003 		mov	r3, #0
 1090 05c2 16E0     		b	.L77
 1091              	.L76:
 437:../src/lib/lpc177x_8x/Drivers/source/lpc177x_8x_emac.c **** 
 438:../src/lib/lpc177x_8x/Drivers/source/lpc177x_8x_emac.c ****     // Full
 439:../src/lib/lpc177x_8x/Drivers/source/lpc177x_8x_emac.c ****     if(consume_idx == 0 &&
 1092              		.loc 1 439 0
 1093 05c4 7B69     		ldr	r3, [r7, #20]
 1094 05c6 002B     		cmp	r3, #0
 1095 05c8 08D1     		bne	.L78
 440:../src/lib/lpc177x_8x/Drivers/source/lpc177x_8x_emac.c ****         produce_idx == max_frag_num - 1)
 1096              		.loc 1 440 0 discriminator 1
 1097 05ca FB68     		ldr	r3, [r7, #12]
 1098 05cc 03F1FF32 		add	r2, r3, #-1
 439:../src/lib/lpc177x_8x/Drivers/source/lpc177x_8x_emac.c ****     if(consume_idx == 0 &&
 1099              		.loc 1 439 0 discriminator 1
 1100 05d0 3B69     		ldr	r3, [r7, #16]
 1101 05d2 9A42     		cmp	r2, r3
 1102 05d4 02D1     		bne	.L78
 441:../src/lib/lpc177x_8x/Drivers/source/lpc177x_8x_emac.c ****         return EMAC_BUFF_FULL;
 1103              		.loc 1 441 0
 1104 05d6 4FF00203 		mov	r3, #2
 1105 05da 0AE0     		b	.L77
 1106              	.L78:
 442:../src/lib/lpc177x_8x/Drivers/source/lpc177x_8x_emac.c ****     
 443:../src/lib/lpc177x_8x/Drivers/source/lpc177x_8x_emac.c ****     // Wrap-around
 444:../src/lib/lpc177x_8x/Drivers/source/lpc177x_8x_emac.c ****     if(consume_idx == produce_idx + 1)
 1107              		.loc 1 444 0
 1108 05dc 3B69     		ldr	r3, [r7, #16]
 1109 05de 03F10102 		add	r2, r3, #1
 1110 05e2 7B69     		ldr	r3, [r7, #20]
 1111 05e4 9A42     		cmp	r2, r3
 1112 05e6 02D1     		bne	.L79
 445:../src/lib/lpc177x_8x/Drivers/source/lpc177x_8x_emac.c ****         return EMAC_BUFF_FULL;  
 1113              		.loc 1 445 0
 1114 05e8 4FF00203 		mov	r3, #2
 1115 05ec 01E0     		b	.L77
 1116              	.L79:
 446:../src/lib/lpc177x_8x/Drivers/source/lpc177x_8x_emac.c **** 
 447:../src/lib/lpc177x_8x/Drivers/source/lpc177x_8x_emac.c ****     return EMAC_BUFF_PARTIAL_FULL;
 1117              		.loc 1 447 0
 1118 05ee 4FF00103 		mov	r3, #1
 1119              	.L77:
 448:../src/lib/lpc177x_8x/Drivers/source/lpc177x_8x_emac.c **** }
 1120              		.loc 1 448 0
 1121 05f2 1846     		mov	r0, r3
 1122 05f4 07F11C07 		add	r7, r7, #28
 1123 05f8 BD46     		mov	sp, r7
 1124 05fa 80BC     		pop	{r7}
 1125 05fc 7047     		bx	lr
 1126              	.L81:
 1127 05fe 00BF     		.align	2
 1128              	.L80:
 1129 0600 00400820 		.word	537411584
 1130              		.cfi_endproc
 1131              	.LFE68:
 1133              		.align	2
 1134              		.global	EMAC_AllocTxBuff
 1135              		.thumb
 1136              		.thumb_func
 1138              	EMAC_AllocTxBuff:
 1139              	.LFB69:
 449:../src/lib/lpc177x_8x/Drivers/source/lpc177x_8x_emac.c **** 
 450:../src/lib/lpc177x_8x/Drivers/source/lpc177x_8x_emac.c **** /*********************************************************************//**
 451:../src/lib/lpc177x_8x/Drivers/source/lpc177x_8x_emac.c ****  * @brief       Allocate a descriptor for sending frame and get the coressponding buffer address
 452:../src/lib/lpc177x_8x/Drivers/source/lpc177x_8x_emac.c ****  * @param[in]   FrameSize       The size of frame you want to send
 453:../src/lib/lpc177x_8x/Drivers/source/lpc177x_8x_emac.c ****  * @return  Address of the TX_DESC_PACKET buffer
 454:../src/lib/lpc177x_8x/Drivers/source/lpc177x_8x_emac.c ****  **********************************************************************/
 455:../src/lib/lpc177x_8x/Drivers/source/lpc177x_8x_emac.c ****  uint32_t EMAC_AllocTxBuff(uint16_t nFrameSize, uint8_t bLastFrame)
 456:../src/lib/lpc177x_8x/Drivers/source/lpc177x_8x_emac.c **** {
 1140              		.loc 1 456 0
 1141              		.cfi_startproc
 1142              		@ args = 0, pretend = 0, frame = 24
 1143              		@ frame_needed = 1, uses_anonymous_args = 0
 1144 0604 80B5     		push	{r7, lr}
 1145              	.LCFI37:
 1146              		.cfi_def_cfa_offset 8
 1147              		.cfi_offset 7, -8
 1148              		.cfi_offset 14, -4
 1149 0606 86B0     		sub	sp, sp, #24
 1150              	.LCFI38:
 1151              		.cfi_def_cfa_offset 32
 1152 0608 00AF     		add	r7, sp, #0
 1153              	.LCFI39:
 1154              		.cfi_def_cfa_register 7
 1155 060a 0246     		mov	r2, r0
 1156 060c 0B46     		mov	r3, r1
 1157 060e FA80     		strh	r2, [r7, #6]	@ movhi
 1158 0610 7B71     		strb	r3, [r7, #5]
 457:../src/lib/lpc177x_8x/Drivers/source/lpc177x_8x_emac.c ****     uint32_t idx;
 458:../src/lib/lpc177x_8x/Drivers/source/lpc177x_8x_emac.c ****     uint32_t  dp;
 459:../src/lib/lpc177x_8x/Drivers/source/lpc177x_8x_emac.c ****     volatile uint32_t i;
 460:../src/lib/lpc177x_8x/Drivers/source/lpc177x_8x_emac.c **** 
 461:../src/lib/lpc177x_8x/Drivers/source/lpc177x_8x_emac.c ****     idx = LPC_EMAC->TxProduceIndex;
 1159              		.loc 1 461 0
 1160 0612 274B     		ldr	r3, .L90
 1161 0614 D3F82831 		ldr	r3, [r3, #296]
 1162 0618 7B61     		str	r3, [r7, #20]
 462:../src/lib/lpc177x_8x/Drivers/source/lpc177x_8x_emac.c **** 
 463:../src/lib/lpc177x_8x/Drivers/source/lpc177x_8x_emac.c ****     while(EMAC_GetBufferSts(EMAC_TX_BUFF) == EMAC_BUFF_FULL)
 1163              		.loc 1 463 0
 1164 061a 0BE0     		b	.L83
 1165              	.L86:
 464:../src/lib/lpc177x_8x/Drivers/source/lpc177x_8x_emac.c ****     {
 465:../src/lib/lpc177x_8x/Drivers/source/lpc177x_8x_emac.c ****       for(i = 0; i < 1000000; i++) ; 
 1166              		.loc 1 465 0
 1167 061c 4FF00003 		mov	r3, #0
 1168 0620 FB60     		str	r3, [r7, #12]
 1169 0622 03E0     		b	.L84
 1170              	.L85:
 1171              		.loc 1 465 0 is_stmt 0 discriminator 2
 1172 0624 FB68     		ldr	r3, [r7, #12]
 1173 0626 03F10103 		add	r3, r3, #1
 1174 062a FB60     		str	r3, [r7, #12]
 1175              	.L84:
 1176              		.loc 1 465 0 discriminator 1
 1177 062c FA68     		ldr	r2, [r7, #12]
 1178 062e 214B     		ldr	r3, .L90+4
 1179 0630 9A42     		cmp	r2, r3
 1180 0632 F7D9     		bls	.L85
 1181              	.L83:
 463:../src/lib/lpc177x_8x/Drivers/source/lpc177x_8x_emac.c ****     while(EMAC_GetBufferSts(EMAC_TX_BUFF) == EMAC_BUFF_FULL)
 1182              		.loc 1 463 0 is_stmt 1 discriminator 1
 1183 0634 4FF00000 		mov	r0, #0
 1184 0638 FFF7FEFF 		bl	EMAC_GetBufferSts
 1185 063c 0346     		mov	r3, r0
 1186 063e 022B     		cmp	r3, #2
 1187 0640 ECD0     		beq	.L86
 466:../src/lib/lpc177x_8x/Drivers/source/lpc177x_8x_emac.c ****     }
 467:../src/lib/lpc177x_8x/Drivers/source/lpc177x_8x_emac.c **** 
 468:../src/lib/lpc177x_8x/Drivers/source/lpc177x_8x_emac.c ****     dp = TX_DESC_PACKET(idx);
 1188              		.loc 1 468 0
 1189 0642 7B69     		ldr	r3, [r7, #20]
 1190 0644 03F18063 		add	r3, r3, #67108864
 1191 0648 03F10803 		add	r3, r3, #8
 1192 064c 4FEAC303 		lsl	r3, r3, #3
 1193 0650 1B68     		ldr	r3, [r3, #0]
 1194 0652 3B61     		str	r3, [r7, #16]
 469:../src/lib/lpc177x_8x/Drivers/source/lpc177x_8x_emac.c **** 
 470:../src/lib/lpc177x_8x/Drivers/source/lpc177x_8x_emac.c ****     if(bLastFrame)
 1195              		.loc 1 470 0
 1196 0654 7B79     		ldrb	r3, [r7, #5]	@ zero_extendqisi2
 1197 0656 002B     		cmp	r3, #0
 1198 0658 12D0     		beq	.L87
 471:../src/lib/lpc177x_8x/Drivers/source/lpc177x_8x_emac.c ****       TX_DESC_CTRL(idx) = ((nFrameSize-1) & EMAC_TCTRL_SIZE) | (EMAC_TCTRL_INT | EMAC_TCTRL_LAST);
 1199              		.loc 1 471 0
 1200 065a 7B69     		ldr	r3, [r7, #20]
 1201 065c 4FEAC303 		lsl	r3, r3, #3
 1202 0660 03F10053 		add	r3, r3, #536870912
 1203 0664 03F14403 		add	r3, r3, #68
 1204 0668 1A46     		mov	r2, r3
 1205 066a FB88     		ldrh	r3, [r7, #6]
 1206 066c 03F1FF33 		add	r3, r3, #-1
 1207 0670 4FEA4353 		lsl	r3, r3, #21
 1208 0674 4FEA5353 		lsr	r3, r3, #21
 1209 0678 43F04043 		orr	r3, r3, #-1073741824
 1210 067c 1360     		str	r3, [r2, #0]
 1211 067e 11E0     		b	.L88
 1212              	.L87:
 472:../src/lib/lpc177x_8x/Drivers/source/lpc177x_8x_emac.c ****     else
 473:../src/lib/lpc177x_8x/Drivers/source/lpc177x_8x_emac.c ****       TX_DESC_CTRL(idx) = ((nFrameSize-1) & EMAC_TCTRL_SIZE) | (EMAC_TCTRL_INT);
 1213              		.loc 1 473 0
 1214 0680 7B69     		ldr	r3, [r7, #20]
 1215 0682 4FEAC303 		lsl	r3, r3, #3
 1216 0686 03F10053 		add	r3, r3, #536870912
 1217 068a 03F14403 		add	r3, r3, #68
 1218 068e 1A46     		mov	r2, r3
 1219 0690 FB88     		ldrh	r3, [r7, #6]
 1220 0692 03F1FF33 		add	r3, r3, #-1
 1221 0696 4FEA4353 		lsl	r3, r3, #21
 1222 069a 4FEA5353 		lsr	r3, r3, #21
 1223 069e 43F00043 		orr	r3, r3, #-2147483648
 1224 06a2 1360     		str	r3, [r2, #0]
 1225              	.L88:
 474:../src/lib/lpc177x_8x/Drivers/source/lpc177x_8x_emac.c **** 
 475:../src/lib/lpc177x_8x/Drivers/source/lpc177x_8x_emac.c ****     return dp;
 1226              		.loc 1 475 0
 1227 06a4 3B69     		ldr	r3, [r7, #16]
 476:../src/lib/lpc177x_8x/Drivers/source/lpc177x_8x_emac.c **** }
 1228              		.loc 1 476 0
 1229 06a6 1846     		mov	r0, r3
 1230 06a8 07F11807 		add	r7, r7, #24
 1231 06ac BD46     		mov	sp, r7
 1232 06ae 80BD     		pop	{r7, pc}
 1233              	.L91:
 1234              		.align	2
 1235              	.L90:
 1236 06b0 00400820 		.word	537411584
 1237 06b4 3F420F00 		.word	999999
 1238              		.cfi_endproc
 1239              	.LFE69:
 1241              		.align	2
 1242              		.global	EMAC_UpdateTxProduceIndex
 1243              		.thumb
 1244              		.thumb_func
 1246              	EMAC_UpdateTxProduceIndex:
 1247              	.LFB70:
 477:../src/lib/lpc177x_8x/Drivers/source/lpc177x_8x_emac.c **** 
 478:../src/lib/lpc177x_8x/Drivers/source/lpc177x_8x_emac.c **** /*********************************************************************//**
 479:../src/lib/lpc177x_8x/Drivers/source/lpc177x_8x_emac.c ****  * @brief   Increase the TxProduceIndex (after writting to the Transmit buffer
 480:../src/lib/lpc177x_8x/Drivers/source/lpc177x_8x_emac.c ****  *      to enable the Transmit buffer) and wrap-around the index if
 481:../src/lib/lpc177x_8x/Drivers/source/lpc177x_8x_emac.c ****  *          it reaches the maximum Transmit Number
 482:../src/lib/lpc177x_8x/Drivers/source/lpc177x_8x_emac.c ****  * @param[in]   None
 483:../src/lib/lpc177x_8x/Drivers/source/lpc177x_8x_emac.c ****  * @return      None
 484:../src/lib/lpc177x_8x/Drivers/source/lpc177x_8x_emac.c ****  **********************************************************************/
 485:../src/lib/lpc177x_8x/Drivers/source/lpc177x_8x_emac.c **** void EMAC_UpdateTxProduceIndex(void)
 486:../src/lib/lpc177x_8x/Drivers/source/lpc177x_8x_emac.c **** {
 1248              		.loc 1 486 0
 1249              		.cfi_startproc
 1250              		@ args = 0, pretend = 0, frame = 8
 1251              		@ frame_needed = 1, uses_anonymous_args = 0
 1252              		@ link register save eliminated.
 1253 06b8 80B4     		push	{r7}
 1254              	.LCFI40:
 1255              		.cfi_def_cfa_offset 4
 1256              		.cfi_offset 7, -4
 1257 06ba 83B0     		sub	sp, sp, #12
 1258              	.LCFI41:
 1259              		.cfi_def_cfa_offset 16
 1260 06bc 00AF     		add	r7, sp, #0
 1261              	.LCFI42:
 1262              		.cfi_def_cfa_register 7
 487:../src/lib/lpc177x_8x/Drivers/source/lpc177x_8x_emac.c ****     // Get current Tx produce index
 488:../src/lib/lpc177x_8x/Drivers/source/lpc177x_8x_emac.c ****     uint32_t idx = LPC_EMAC->TxProduceIndex;
 1263              		.loc 1 488 0
 1264 06be 0E4B     		ldr	r3, .L94
 1265 06c0 D3F82831 		ldr	r3, [r3, #296]
 1266 06c4 7B60     		str	r3, [r7, #4]
 489:../src/lib/lpc177x_8x/Drivers/source/lpc177x_8x_emac.c **** 
 490:../src/lib/lpc177x_8x/Drivers/source/lpc177x_8x_emac.c ****     /* Start frame transmission */
 491:../src/lib/lpc177x_8x/Drivers/source/lpc177x_8x_emac.c ****     if (++idx == LPC_EMAC->TxDescriptorNumber + 1) idx = 0;
 1267              		.loc 1 491 0
 1268 06c6 7B68     		ldr	r3, [r7, #4]
 1269 06c8 03F10103 		add	r3, r3, #1
 1270 06cc 7B60     		str	r3, [r7, #4]
 1271 06ce 0A4B     		ldr	r3, .L94
 1272 06d0 D3F82431 		ldr	r3, [r3, #292]
 1273 06d4 03F10103 		add	r3, r3, #1
 1274 06d8 7A68     		ldr	r2, [r7, #4]
 1275 06da 9A42     		cmp	r2, r3
 1276 06dc 02D1     		bne	.L93
 1277              		.loc 1 491 0 is_stmt 0 discriminator 1
 1278 06de 4FF00003 		mov	r3, #0
 1279 06e2 7B60     		str	r3, [r7, #4]
 1280              	.L93:
 492:../src/lib/lpc177x_8x/Drivers/source/lpc177x_8x_emac.c ****     LPC_EMAC->TxProduceIndex = idx;
 1281              		.loc 1 492 0 is_stmt 1
 1282 06e4 044B     		ldr	r3, .L94
 1283 06e6 7A68     		ldr	r2, [r7, #4]
 1284 06e8 C3F82821 		str	r2, [r3, #296]
 493:../src/lib/lpc177x_8x/Drivers/source/lpc177x_8x_emac.c **** }
 1285              		.loc 1 493 0
 1286 06ec 07F10C07 		add	r7, r7, #12
 1287 06f0 BD46     		mov	sp, r7
 1288 06f2 80BC     		pop	{r7}
 1289 06f4 7047     		bx	lr
 1290              	.L95:
 1291 06f6 00BF     		.align	2
 1292              	.L94:
 1293 06f8 00400820 		.word	537411584
 1294              		.cfi_endproc
 1295              	.LFE70:
 1297              		.align	2
 1298              		.global	EMAC_GetTxFrameStatus
 1299              		.thumb
 1300              		.thumb_func
 1302              	EMAC_GetTxFrameStatus:
 1303              	.LFB71:
 494:../src/lib/lpc177x_8x/Drivers/source/lpc177x_8x_emac.c **** 
 495:../src/lib/lpc177x_8x/Drivers/source/lpc177x_8x_emac.c **** /*********************************************************************//**
 496:../src/lib/lpc177x_8x/Drivers/source/lpc177x_8x_emac.c ****  * @brief   Get current status value of receive data (due to TxProduceIndex)
 497:../src/lib/lpc177x_8x/Drivers/source/lpc177x_8x_emac.c ****  * @param[in]   None    
 498:../src/lib/lpc177x_8x/Drivers/source/lpc177x_8x_emac.c ****  * @return  Current value of receive data (due to TxProduceIndex)
 499:../src/lib/lpc177x_8x/Drivers/source/lpc177x_8x_emac.c ****  **********************************************************************/
 500:../src/lib/lpc177x_8x/Drivers/source/lpc177x_8x_emac.c **** uint32_t EMAC_GetTxFrameStatus(void)
 501:../src/lib/lpc177x_8x/Drivers/source/lpc177x_8x_emac.c **** {
 1304              		.loc 1 501 0
 1305              		.cfi_startproc
 1306              		@ args = 0, pretend = 0, frame = 8
 1307              		@ frame_needed = 1, uses_anonymous_args = 0
 1308              		@ link register save eliminated.
 1309 06fc 80B4     		push	{r7}
 1310              	.LCFI43:
 1311              		.cfi_def_cfa_offset 4
 1312              		.cfi_offset 7, -4
 1313 06fe 83B0     		sub	sp, sp, #12
 1314              	.LCFI44:
 1315              		.cfi_def_cfa_offset 16
 1316 0700 00AF     		add	r7, sp, #0
 1317              	.LCFI45:
 1318              		.cfi_def_cfa_register 7
 502:../src/lib/lpc177x_8x/Drivers/source/lpc177x_8x_emac.c ****     uint32_t idx;
 503:../src/lib/lpc177x_8x/Drivers/source/lpc177x_8x_emac.c **** 
 504:../src/lib/lpc177x_8x/Drivers/source/lpc177x_8x_emac.c ****     idx = LPC_EMAC->TxProduceIndex;
 1319              		.loc 1 504 0
 1320 0702 094B     		ldr	r3, .L98
 1321 0704 D3F82831 		ldr	r3, [r3, #296]
 1322 0708 7B60     		str	r3, [r7, #4]
 505:../src/lib/lpc177x_8x/Drivers/source/lpc177x_8x_emac.c ****     return (TX_STAT_INFO(idx));
 1323              		.loc 1 505 0
 1324 070a 7B68     		ldr	r3, [r7, #4]
 1325 070c 03F10063 		add	r3, r3, #134217728
 1326 0710 03F11603 		add	r3, r3, #22
 1327 0714 4FEA8303 		lsl	r3, r3, #2
 1328 0718 1B68     		ldr	r3, [r3, #0]
 506:../src/lib/lpc177x_8x/Drivers/source/lpc177x_8x_emac.c **** }
 1329              		.loc 1 506 0
 1330 071a 1846     		mov	r0, r3
 1331 071c 07F10C07 		add	r7, r7, #12
 1332 0720 BD46     		mov	sp, r7
 1333 0722 80BC     		pop	{r7}
 1334 0724 7047     		bx	lr
 1335              	.L99:
 1336 0726 00BF     		.align	2
 1337              	.L98:
 1338 0728 00400820 		.word	537411584
 1339              		.cfi_endproc
 1340              	.LFE71:
 1342              		.align	2
 1343              		.global	EMAC_WritePacketBuffer
 1344              		.thumb
 1345              		.thumb_func
 1347              	EMAC_WritePacketBuffer:
 1348              	.LFB72:
 507:../src/lib/lpc177x_8x/Drivers/source/lpc177x_8x_emac.c **** 
 508:../src/lib/lpc177x_8x/Drivers/source/lpc177x_8x_emac.c **** /*********************************************************************//**
 509:../src/lib/lpc177x_8x/Drivers/source/lpc177x_8x_emac.c ****  * @brief   Write data to Tx packet data buffer at current index due to
 510:../src/lib/lpc177x_8x/Drivers/source/lpc177x_8x_emac.c ****  *              TxProduceIndex
 511:../src/lib/lpc177x_8x/Drivers/source/lpc177x_8x_emac.c ****  * @param[in]   pDataStruct store the address and the size of buffer that saves data.
 512:../src/lib/lpc177x_8x/Drivers/source/lpc177x_8x_emac.c ****  * @return      None
 513:../src/lib/lpc177x_8x/Drivers/source/lpc177x_8x_emac.c ****  **********************************************************************/
 514:../src/lib/lpc177x_8x/Drivers/source/lpc177x_8x_emac.c **** void EMAC_WritePacketBuffer(EMAC_PACKETBUF_Type *pDataStruct)
 515:../src/lib/lpc177x_8x/Drivers/source/lpc177x_8x_emac.c **** {
 1349              		.loc 1 515 0
 1350              		.cfi_startproc
 1351              		@ args = 0, pretend = 0, frame = 32
 1352              		@ frame_needed = 1, uses_anonymous_args = 0
 1353 072c 80B5     		push	{r7, lr}
 1354              	.LCFI46:
 1355              		.cfi_def_cfa_offset 8
 1356              		.cfi_offset 7, -8
 1357              		.cfi_offset 14, -4
 1358 072e 88B0     		sub	sp, sp, #32
 1359              	.LCFI47:
 1360              		.cfi_def_cfa_offset 40
 1361 0730 00AF     		add	r7, sp, #0
 1362              	.LCFI48:
 1363              		.cfi_def_cfa_register 7
 1364 0732 7860     		str	r0, [r7, #4]
 516:../src/lib/lpc177x_8x/Drivers/source/lpc177x_8x_emac.c ****    uint16_t* pDest;
 517:../src/lib/lpc177x_8x/Drivers/source/lpc177x_8x_emac.c ****    uint16_t* pSource = (uint16_t*)pDataStruct->pbDataBuf;
 1365              		.loc 1 517 0
 1366 0734 7B68     		ldr	r3, [r7, #4]
 1367 0736 5B68     		ldr	r3, [r3, #4]
 1368 0738 BB61     		str	r3, [r7, #24]
 518:../src/lib/lpc177x_8x/Drivers/source/lpc177x_8x_emac.c ****    uint32_t  size = pDataStruct->ulDataLen;
 1369              		.loc 1 518 0
 1370 073a 7B68     		ldr	r3, [r7, #4]
 1371 073c 1B68     		ldr	r3, [r3, #0]
 1372 073e 7B61     		str	r3, [r7, #20]
 519:../src/lib/lpc177x_8x/Drivers/source/lpc177x_8x_emac.c ****    int32_t  frame_num;
 520:../src/lib/lpc177x_8x/Drivers/source/lpc177x_8x_emac.c ****    uint32_t tmp;
 521:../src/lib/lpc177x_8x/Drivers/source/lpc177x_8x_emac.c ****    uint32_t max_frame_size = LPC_EMAC->MAXF;
 1373              		.loc 1 521 0
 1374 0740 314B     		ldr	r3, .L115
 1375 0742 5B69     		ldr	r3, [r3, #20]
 1376 0744 BB60     		str	r3, [r7, #8]
 522:../src/lib/lpc177x_8x/Drivers/source/lpc177x_8x_emac.c ****    
 523:../src/lib/lpc177x_8x/Drivers/source/lpc177x_8x_emac.c ****    if(EMAC_GetBufferSts(EMAC_TX_BUFF) == EMAC_BUFF_FULL)
 1377              		.loc 1 523 0
 1378 0746 4FF00000 		mov	r0, #0
 1379 074a FFF7FEFF 		bl	EMAC_GetBufferSts
 1380 074e 0346     		mov	r3, r0
 1381 0750 022B     		cmp	r3, #2
 1382 0752 51D0     		beq	.L113
 1383              	.L101:
 524:../src/lib/lpc177x_8x/Drivers/source/lpc177x_8x_emac.c ****        return;
 525:../src/lib/lpc177x_8x/Drivers/source/lpc177x_8x_emac.c ****    
 526:../src/lib/lpc177x_8x/Drivers/source/lpc177x_8x_emac.c ****    size = (size + 1) & 0xFFFE;    // round Size up to next even number
 1384              		.loc 1 526 0
 1385 0754 7B69     		ldr	r3, [r7, #20]
 1386 0756 03F10102 		add	r2, r3, #1
 1387 075a 4FF6FE73 		movw	r3, #65534
 1388 075e 1340     		ands	r3, r3, r2
 1389 0760 7B61     		str	r3, [r7, #20]
 527:../src/lib/lpc177x_8x/Drivers/source/lpc177x_8x_emac.c ****    frame_num = size/max_frame_size;
 1390              		.loc 1 527 0
 1391 0762 7A69     		ldr	r2, [r7, #20]
 1392 0764 BB68     		ldr	r3, [r7, #8]
 1393 0766 B2FBF3F3 		udiv	r3, r2, r3
 1394 076a 3B61     		str	r3, [r7, #16]
 528:../src/lib/lpc177x_8x/Drivers/source/lpc177x_8x_emac.c **** 
 529:../src/lib/lpc177x_8x/Drivers/source/lpc177x_8x_emac.c ****    if(size == 0)
 1395              		.loc 1 529 0
 1396 076c 7B69     		ldr	r3, [r7, #20]
 1397 076e 002B     		cmp	r3, #0
 1398 0770 3ED1     		bne	.L104
 530:../src/lib/lpc177x_8x/Drivers/source/lpc177x_8x_emac.c ****     return;
 1399              		.loc 1 530 0
 1400 0772 44E0     		b	.L100
 1401              	.L112:
 531:../src/lib/lpc177x_8x/Drivers/source/lpc177x_8x_emac.c **** 
 532:../src/lib/lpc177x_8x/Drivers/source/lpc177x_8x_emac.c ****    while(frame_num >= 0)
 533:../src/lib/lpc177x_8x/Drivers/source/lpc177x_8x_emac.c ****    {
 534:../src/lib/lpc177x_8x/Drivers/source/lpc177x_8x_emac.c ****      tmp = (frame_num > 0)? max_frame_size:size;
 1402              		.loc 1 534 0
 1403 0774 3B69     		ldr	r3, [r7, #16]
 1404 0776 002B     		cmp	r3, #0
 1405 0778 01DD     		ble	.L105
 1406              		.loc 1 534 0 is_stmt 0 discriminator 1
 1407 077a BB68     		ldr	r3, [r7, #8]
 1408 077c 00E0     		b	.L106
 1409              	.L105:
 1410              		.loc 1 534 0 discriminator 2
 1411 077e 7B69     		ldr	r3, [r7, #20]
 1412              	.L106:
 1413              		.loc 1 534 0 discriminator 3
 1414 0780 FB60     		str	r3, [r7, #12]
 535:../src/lib/lpc177x_8x/Drivers/source/lpc177x_8x_emac.c **** 
 536:../src/lib/lpc177x_8x/Drivers/source/lpc177x_8x_emac.c ****      if(tmp == 0)
 1415              		.loc 1 536 0 is_stmt 1 discriminator 3
 1416 0782 FB68     		ldr	r3, [r7, #12]
 1417 0784 002B     		cmp	r3, #0
 1418 0786 39D0     		beq	.L114
 1419              	.L107:
 537:../src/lib/lpc177x_8x/Drivers/source/lpc177x_8x_emac.c ****         break;
 538:../src/lib/lpc177x_8x/Drivers/source/lpc177x_8x_emac.c ****      
 539:../src/lib/lpc177x_8x/Drivers/source/lpc177x_8x_emac.c ****      // Setup descriptors and data
 540:../src/lib/lpc177x_8x/Drivers/source/lpc177x_8x_emac.c ****      if(frame_num == 0)
 1420              		.loc 1 540 0
 1421 0788 3B69     		ldr	r3, [r7, #16]
 1422 078a 002B     		cmp	r3, #0
 1423 078c 09D1     		bne	.L108
 541:../src/lib/lpc177x_8x/Drivers/source/lpc177x_8x_emac.c ****        pDest = (uint16_t*)EMAC_AllocTxBuff(tmp, 1);  // last frame
 1424              		.loc 1 541 0
 1425 078e FB68     		ldr	r3, [r7, #12]
 1426 0790 9BB2     		uxth	r3, r3
 1427 0792 1846     		mov	r0, r3
 1428 0794 4FF00101 		mov	r1, #1
 1429 0798 FFF7FEFF 		bl	EMAC_AllocTxBuff
 1430 079c 0346     		mov	r3, r0
 1431 079e FB61     		str	r3, [r7, #28]
 542:../src/lib/lpc177x_8x/Drivers/source/lpc177x_8x_emac.c ****      else
 543:../src/lib/lpc177x_8x/Drivers/source/lpc177x_8x_emac.c ****        pDest = (uint16_t*)EMAC_AllocTxBuff(tmp, 0);
 544:../src/lib/lpc177x_8x/Drivers/source/lpc177x_8x_emac.c ****      
 545:../src/lib/lpc177x_8x/Drivers/source/lpc177x_8x_emac.c ****      // Copy data
 546:../src/lib/lpc177x_8x/Drivers/source/lpc177x_8x_emac.c ****      while (tmp > 0)
 1432              		.loc 1 546 0
 1433 07a0 19E0     		b	.L110
 1434              	.L108:
 543:../src/lib/lpc177x_8x/Drivers/source/lpc177x_8x_emac.c ****        pDest = (uint16_t*)EMAC_AllocTxBuff(tmp, 0);
 1435              		.loc 1 543 0
 1436 07a2 FB68     		ldr	r3, [r7, #12]
 1437 07a4 9BB2     		uxth	r3, r3
 1438 07a6 1846     		mov	r0, r3
 1439 07a8 4FF00001 		mov	r1, #0
 1440 07ac FFF7FEFF 		bl	EMAC_AllocTxBuff
 1441 07b0 0346     		mov	r3, r0
 1442 07b2 FB61     		str	r3, [r7, #28]
 1443              		.loc 1 546 0
 1444 07b4 0FE0     		b	.L110
 1445              	.L111:
 547:../src/lib/lpc177x_8x/Drivers/source/lpc177x_8x_emac.c ****      {
 548:../src/lib/lpc177x_8x/Drivers/source/lpc177x_8x_emac.c ****        *pDest++ = *pSource++;
 1446              		.loc 1 548 0
 1447 07b6 BB69     		ldr	r3, [r7, #24]
 1448 07b8 1A88     		ldrh	r2, [r3, #0]
 1449 07ba FB69     		ldr	r3, [r7, #28]
 1450 07bc 1A80     		strh	r2, [r3, #0]	@ movhi
 1451 07be FB69     		ldr	r3, [r7, #28]
 1452 07c0 03F10203 		add	r3, r3, #2
 1453 07c4 FB61     		str	r3, [r7, #28]
 1454 07c6 BB69     		ldr	r3, [r7, #24]
 1455 07c8 03F10203 		add	r3, r3, #2
 1456 07cc BB61     		str	r3, [r7, #24]
 549:../src/lib/lpc177x_8x/Drivers/source/lpc177x_8x_emac.c ****        tmp -= 2;
 1457              		.loc 1 549 0
 1458 07ce FB68     		ldr	r3, [r7, #12]
 1459 07d0 A3F10203 		sub	r3, r3, #2
 1460 07d4 FB60     		str	r3, [r7, #12]
 1461              	.L110:
 546:../src/lib/lpc177x_8x/Drivers/source/lpc177x_8x_emac.c ****      while (tmp > 0)
 1462              		.loc 1 546 0 discriminator 1
 1463 07d6 FB68     		ldr	r3, [r7, #12]
 1464 07d8 002B     		cmp	r3, #0
 1465 07da ECD1     		bne	.L111
 550:../src/lib/lpc177x_8x/Drivers/source/lpc177x_8x_emac.c ****      }
 551:../src/lib/lpc177x_8x/Drivers/source/lpc177x_8x_emac.c ****      frame_num--;
 1466              		.loc 1 551 0
 1467 07dc 3B69     		ldr	r3, [r7, #16]
 1468 07de 03F1FF33 		add	r3, r3, #-1
 1469 07e2 3B61     		str	r3, [r7, #16]
 552:../src/lib/lpc177x_8x/Drivers/source/lpc177x_8x_emac.c ****      size -= tmp;
 1470              		.loc 1 552 0
 1471 07e4 7A69     		ldr	r2, [r7, #20]
 1472 07e6 FB68     		ldr	r3, [r7, #12]
 1473 07e8 D31A     		subs	r3, r2, r3
 1474 07ea 7B61     		str	r3, [r7, #20]
 553:../src/lib/lpc177x_8x/Drivers/source/lpc177x_8x_emac.c **** 
 554:../src/lib/lpc177x_8x/Drivers/source/lpc177x_8x_emac.c ****      // Update produce index
 555:../src/lib/lpc177x_8x/Drivers/source/lpc177x_8x_emac.c ****      EMAC_UpdateTxProduceIndex();
 1475              		.loc 1 555 0
 1476 07ec FFF7FEFF 		bl	EMAC_UpdateTxProduceIndex
 1477              	.L104:
 532:../src/lib/lpc177x_8x/Drivers/source/lpc177x_8x_emac.c ****    while(frame_num >= 0)
 1478              		.loc 1 532 0 discriminator 1
 1479 07f0 3B69     		ldr	r3, [r7, #16]
 1480 07f2 002B     		cmp	r3, #0
 1481 07f4 BEDA     		bge	.L112
 1482 07f6 02E0     		b	.L100
 1483              	.L113:
 524:../src/lib/lpc177x_8x/Drivers/source/lpc177x_8x_emac.c ****        return;
 1484              		.loc 1 524 0
 1485 07f8 00BF     		nop
 1486 07fa 00E0     		b	.L100
 1487              	.L114:
 537:../src/lib/lpc177x_8x/Drivers/source/lpc177x_8x_emac.c ****         break;
 1488              		.loc 1 537 0
 1489 07fc 00BF     		nop
 1490              	.L100:
 556:../src/lib/lpc177x_8x/Drivers/source/lpc177x_8x_emac.c ****    } 
 557:../src/lib/lpc177x_8x/Drivers/source/lpc177x_8x_emac.c **** }
 1491              		.loc 1 557 0
 1492 07fe 07F12007 		add	r7, r7, #32
 1493 0802 BD46     		mov	sp, r7
 1494 0804 80BD     		pop	{r7, pc}
 1495              	.L116:
 1496 0806 00BF     		.align	2
 1497              	.L115:
 1498 0808 00400820 		.word	537411584
 1499              		.cfi_endproc
 1500              	.LFE72:
 1502              		.align	2
 1503              		.global	EMAC_GetRxFrameStatus
 1504              		.thumb
 1505              		.thumb_func
 1507              	EMAC_GetRxFrameStatus:
 1508              	.LFB73:
 558:../src/lib/lpc177x_8x/Drivers/source/lpc177x_8x_emac.c **** 
 559:../src/lib/lpc177x_8x/Drivers/source/lpc177x_8x_emac.c **** 
 560:../src/lib/lpc177x_8x/Drivers/source/lpc177x_8x_emac.c **** /*********************************************************************//**
 561:../src/lib/lpc177x_8x/Drivers/source/lpc177x_8x_emac.c ****  * @brief       Get current status value of receive data (due to RxConsumeIndex)
 562:../src/lib/lpc177x_8x/Drivers/source/lpc177x_8x_emac.c ****  * @param[in]   None    
 563:../src/lib/lpc177x_8x/Drivers/source/lpc177x_8x_emac.c ****  * @return  Current value of receive data (due to RxConsumeIndex)
 564:../src/lib/lpc177x_8x/Drivers/source/lpc177x_8x_emac.c ****  **********************************************************************/
 565:../src/lib/lpc177x_8x/Drivers/source/lpc177x_8x_emac.c **** uint32_t EMAC_GetRxFrameStatus(void)
 566:../src/lib/lpc177x_8x/Drivers/source/lpc177x_8x_emac.c **** {
 1509              		.loc 1 566 0
 1510              		.cfi_startproc
 1511              		@ args = 0, pretend = 0, frame = 8
 1512              		@ frame_needed = 1, uses_anonymous_args = 0
 1513              		@ link register save eliminated.
 1514 080c 80B4     		push	{r7}
 1515              	.LCFI49:
 1516              		.cfi_def_cfa_offset 4
 1517              		.cfi_offset 7, -4
 1518 080e 83B0     		sub	sp, sp, #12
 1519              	.LCFI50:
 1520              		.cfi_def_cfa_offset 16
 1521 0810 00AF     		add	r7, sp, #0
 1522              	.LCFI51:
 1523              		.cfi_def_cfa_register 7
 567:../src/lib/lpc177x_8x/Drivers/source/lpc177x_8x_emac.c ****     uint32_t idx;
 568:../src/lib/lpc177x_8x/Drivers/source/lpc177x_8x_emac.c **** 
 569:../src/lib/lpc177x_8x/Drivers/source/lpc177x_8x_emac.c ****     idx = LPC_EMAC->RxConsumeIndex;
 1524              		.loc 1 569 0
 1525 0812 094B     		ldr	r3, .L119
 1526 0814 D3F81831 		ldr	r3, [r3, #280]
 1527 0818 7B60     		str	r3, [r7, #4]
 570:../src/lib/lpc177x_8x/Drivers/source/lpc177x_8x_emac.c ****     return (RX_STAT_INFO(idx));
 1528              		.loc 1 570 0
 1529 081a 7B68     		ldr	r3, [r7, #4]
 1530 081c 03F18063 		add	r3, r3, #67108864
 1531 0820 03F10403 		add	r3, r3, #4
 1532 0824 4FEAC303 		lsl	r3, r3, #3
 1533 0828 1B68     		ldr	r3, [r3, #0]
 571:../src/lib/lpc177x_8x/Drivers/source/lpc177x_8x_emac.c **** }
 1534              		.loc 1 571 0
 1535 082a 1846     		mov	r0, r3
 1536 082c 07F10C07 		add	r7, r7, #12
 1537 0830 BD46     		mov	sp, r7
 1538 0832 80BC     		pop	{r7}
 1539 0834 7047     		bx	lr
 1540              	.L120:
 1541 0836 00BF     		.align	2
 1542              	.L119:
 1543 0838 00400820 		.word	537411584
 1544              		.cfi_endproc
 1545              	.LFE73:
 1547              		.align	2
 1548              		.global	EMAC_GetRxFrameSize
 1549              		.thumb
 1550              		.thumb_func
 1552              	EMAC_GetRxFrameSize:
 1553              	.LFB74:
 572:../src/lib/lpc177x_8x/Drivers/source/lpc177x_8x_emac.c **** 
 573:../src/lib/lpc177x_8x/Drivers/source/lpc177x_8x_emac.c **** 
 574:../src/lib/lpc177x_8x/Drivers/source/lpc177x_8x_emac.c **** /*********************************************************************//**
 575:../src/lib/lpc177x_8x/Drivers/source/lpc177x_8x_emac.c ****  * @brief       Get size of current Received data in received buffer (due to
 576:../src/lib/lpc177x_8x/Drivers/source/lpc177x_8x_emac.c ****  *              RxConsumeIndex)
 577:../src/lib/lpc177x_8x/Drivers/source/lpc177x_8x_emac.c ****  * @param[in]   None
 578:../src/lib/lpc177x_8x/Drivers/source/lpc177x_8x_emac.c ****  * @return      Size of received data
 579:../src/lib/lpc177x_8x/Drivers/source/lpc177x_8x_emac.c ****  **********************************************************************/
 580:../src/lib/lpc177x_8x/Drivers/source/lpc177x_8x_emac.c **** uint32_t EMAC_GetRxFrameSize(void)
 581:../src/lib/lpc177x_8x/Drivers/source/lpc177x_8x_emac.c **** {
 1554              		.loc 1 581 0
 1555              		.cfi_startproc
 1556              		@ args = 0, pretend = 0, frame = 8
 1557              		@ frame_needed = 1, uses_anonymous_args = 0
 1558              		@ link register save eliminated.
 1559 083c 80B4     		push	{r7}
 1560              	.LCFI52:
 1561              		.cfi_def_cfa_offset 4
 1562              		.cfi_offset 7, -4
 1563 083e 83B0     		sub	sp, sp, #12
 1564              	.LCFI53:
 1565              		.cfi_def_cfa_offset 16
 1566 0840 00AF     		add	r7, sp, #0
 1567              	.LCFI54:
 1568              		.cfi_def_cfa_register 7
 582:../src/lib/lpc177x_8x/Drivers/source/lpc177x_8x_emac.c ****     uint32_t idx;
 583:../src/lib/lpc177x_8x/Drivers/source/lpc177x_8x_emac.c **** 
 584:../src/lib/lpc177x_8x/Drivers/source/lpc177x_8x_emac.c ****     idx = LPC_EMAC->RxConsumeIndex;
 1569              		.loc 1 584 0
 1570 0842 0C4B     		ldr	r3, .L123
 1571 0844 D3F81831 		ldr	r3, [r3, #280]
 1572 0848 7B60     		str	r3, [r7, #4]
 585:../src/lib/lpc177x_8x/Drivers/source/lpc177x_8x_emac.c **** 
 586:../src/lib/lpc177x_8x/Drivers/source/lpc177x_8x_emac.c ****     return (((RX_STAT_INFO(idx)) & EMAC_RINFO_SIZE)+1);
 1573              		.loc 1 586 0
 1574 084a 7B68     		ldr	r3, [r7, #4]
 1575 084c 03F18063 		add	r3, r3, #67108864
 1576 0850 03F10403 		add	r3, r3, #4
 1577 0854 4FEAC303 		lsl	r3, r3, #3
 1578 0858 1B68     		ldr	r3, [r3, #0]
 1579 085a 4FEA4353 		lsl	r3, r3, #21
 1580 085e 4FEA5353 		lsr	r3, r3, #21
 1581 0862 03F10103 		add	r3, r3, #1
 587:../src/lib/lpc177x_8x/Drivers/source/lpc177x_8x_emac.c **** }
 1582              		.loc 1 587 0
 1583 0866 1846     		mov	r0, r3
 1584 0868 07F10C07 		add	r7, r7, #12
 1585 086c BD46     		mov	sp, r7
 1586 086e 80BC     		pop	{r7}
 1587 0870 7047     		bx	lr
 1588              	.L124:
 1589 0872 00BF     		.align	2
 1590              	.L123:
 1591 0874 00400820 		.word	537411584
 1592              		.cfi_endproc
 1593              	.LFE74:
 1595              		.align	2
 1596              		.global	EMAC_GetRxBuffer
 1597              		.thumb
 1598              		.thumb_func
 1600              	EMAC_GetRxBuffer:
 1601              	.LFB75:
 588:../src/lib/lpc177x_8x/Drivers/source/lpc177x_8x_emac.c **** 
 589:../src/lib/lpc177x_8x/Drivers/source/lpc177x_8x_emac.c **** 
 590:../src/lib/lpc177x_8x/Drivers/source/lpc177x_8x_emac.c **** /*********************************************************************//**
 591:../src/lib/lpc177x_8x/Drivers/source/lpc177x_8x_emac.c ****  * @brief       Get the address of TX_DESC_PACKET buffer so that user can access from application
 592:../src/lib/lpc177x_8x/Drivers/source/lpc177x_8x_emac.c ****  * @param[in] None
 593:../src/lib/lpc177x_8x/Drivers/source/lpc177x_8x_emac.c ****  * @return  Address of the TX_DESC_PACKET buffer
 594:../src/lib/lpc177x_8x/Drivers/source/lpc177x_8x_emac.c ****  **********************************************************************/
 595:../src/lib/lpc177x_8x/Drivers/source/lpc177x_8x_emac.c **** 
 596:../src/lib/lpc177x_8x/Drivers/source/lpc177x_8x_emac.c **** uint32_t EMAC_GetRxBuffer(void)
 597:../src/lib/lpc177x_8x/Drivers/source/lpc177x_8x_emac.c **** {
 1602              		.loc 1 597 0
 1603              		.cfi_startproc
 1604              		@ args = 0, pretend = 0, frame = 8
 1605              		@ frame_needed = 1, uses_anonymous_args = 0
 1606              		@ link register save eliminated.
 1607 0878 80B4     		push	{r7}
 1608              	.LCFI55:
 1609              		.cfi_def_cfa_offset 4
 1610              		.cfi_offset 7, -4
 1611 087a 83B0     		sub	sp, sp, #12
 1612              	.LCFI56:
 1613              		.cfi_def_cfa_offset 16
 1614 087c 00AF     		add	r7, sp, #0
 1615              	.LCFI57:
 1616              		.cfi_def_cfa_register 7
 598:../src/lib/lpc177x_8x/Drivers/source/lpc177x_8x_emac.c ****     uint32_t idx;
 599:../src/lib/lpc177x_8x/Drivers/source/lpc177x_8x_emac.c **** 
 600:../src/lib/lpc177x_8x/Drivers/source/lpc177x_8x_emac.c ****     idx = LPC_EMAC->RxConsumeIndex;
 1617              		.loc 1 600 0
 1618 087e 084B     		ldr	r3, .L127
 1619 0880 D3F81831 		ldr	r3, [r3, #280]
 1620 0884 7B60     		str	r3, [r7, #4]
 601:../src/lib/lpc177x_8x/Drivers/source/lpc177x_8x_emac.c **** 
 602:../src/lib/lpc177x_8x/Drivers/source/lpc177x_8x_emac.c ****     return RX_DESC_PACKET(idx);
 1621              		.loc 1 602 0
 1622 0886 7B68     		ldr	r3, [r7, #4]
 1623 0888 03F18063 		add	r3, r3, #67108864
 1624 088c 4FEAC303 		lsl	r3, r3, #3
 1625 0890 1B68     		ldr	r3, [r3, #0]
 603:../src/lib/lpc177x_8x/Drivers/source/lpc177x_8x_emac.c ****  }
 1626              		.loc 1 603 0
 1627 0892 1846     		mov	r0, r3
 1628 0894 07F10C07 		add	r7, r7, #12
 1629 0898 BD46     		mov	sp, r7
 1630 089a 80BC     		pop	{r7}
 1631 089c 7047     		bx	lr
 1632              	.L128:
 1633 089e 00BF     		.align	2
 1634              	.L127:
 1635 08a0 00400820 		.word	537411584
 1636              		.cfi_endproc
 1637              	.LFE75:
 1639              		.align	2
 1640              		.global	EMAC_UpdateRxConsumeIndex
 1641              		.thumb
 1642              		.thumb_func
 1644              	EMAC_UpdateRxConsumeIndex:
 1645              	.LFB76:
 604:../src/lib/lpc177x_8x/Drivers/source/lpc177x_8x_emac.c **** 
 605:../src/lib/lpc177x_8x/Drivers/source/lpc177x_8x_emac.c **** 
 606:../src/lib/lpc177x_8x/Drivers/source/lpc177x_8x_emac.c **** /*********************************************************************//**
 607:../src/lib/lpc177x_8x/Drivers/source/lpc177x_8x_emac.c ****  * @brief       Increase the RxConsumeIndex (after reading the Receive buffer
 608:../src/lib/lpc177x_8x/Drivers/source/lpc177x_8x_emac.c ****  *              to release the Receive buffer) and wrap-around the index if
 609:../src/lib/lpc177x_8x/Drivers/source/lpc177x_8x_emac.c ****  *              it reaches the maximum Receive Number
 610:../src/lib/lpc177x_8x/Drivers/source/lpc177x_8x_emac.c ****  * @param[in]   None
 611:../src/lib/lpc177x_8x/Drivers/source/lpc177x_8x_emac.c ****  * @return      None
 612:../src/lib/lpc177x_8x/Drivers/source/lpc177x_8x_emac.c ****  **********************************************************************/
 613:../src/lib/lpc177x_8x/Drivers/source/lpc177x_8x_emac.c **** void EMAC_UpdateRxConsumeIndex(void)
 614:../src/lib/lpc177x_8x/Drivers/source/lpc177x_8x_emac.c **** {
 1646              		.loc 1 614 0
 1647              		.cfi_startproc
 1648              		@ args = 0, pretend = 0, frame = 8
 1649              		@ frame_needed = 1, uses_anonymous_args = 0
 1650              		@ link register save eliminated.
 1651 08a4 80B4     		push	{r7}
 1652              	.LCFI58:
 1653              		.cfi_def_cfa_offset 4
 1654              		.cfi_offset 7, -4
 1655 08a6 83B0     		sub	sp, sp, #12
 1656              	.LCFI59:
 1657              		.cfi_def_cfa_offset 16
 1658 08a8 00AF     		add	r7, sp, #0
 1659              	.LCFI60:
 1660              		.cfi_def_cfa_register 7
 615:../src/lib/lpc177x_8x/Drivers/source/lpc177x_8x_emac.c ****     // Get current Rx consume index
 616:../src/lib/lpc177x_8x/Drivers/source/lpc177x_8x_emac.c ****     uint32_t idx = LPC_EMAC->RxConsumeIndex;
 1661              		.loc 1 616 0
 1662 08aa 0B4B     		ldr	r3, .L131
 1663 08ac D3F81831 		ldr	r3, [r3, #280]
 1664 08b0 7B60     		str	r3, [r7, #4]
 617:../src/lib/lpc177x_8x/Drivers/source/lpc177x_8x_emac.c **** 
 618:../src/lib/lpc177x_8x/Drivers/source/lpc177x_8x_emac.c ****     /* Release frame from EMAC buffer */
 619:../src/lib/lpc177x_8x/Drivers/source/lpc177x_8x_emac.c ****     if (++idx == EMAC_NUM_RX_FRAG) idx = 0;
 1665              		.loc 1 619 0
 1666 08b2 7B68     		ldr	r3, [r7, #4]
 1667 08b4 03F10103 		add	r3, r3, #1
 1668 08b8 7B60     		str	r3, [r7, #4]
 1669 08ba 7B68     		ldr	r3, [r7, #4]
 1670 08bc 042B     		cmp	r3, #4
 1671 08be 02D1     		bne	.L130
 1672              		.loc 1 619 0 is_stmt 0 discriminator 1
 1673 08c0 4FF00003 		mov	r3, #0
 1674 08c4 7B60     		str	r3, [r7, #4]
 1675              	.L130:
 620:../src/lib/lpc177x_8x/Drivers/source/lpc177x_8x_emac.c **** 
 621:../src/lib/lpc177x_8x/Drivers/source/lpc177x_8x_emac.c ****     LPC_EMAC->RxConsumeIndex = idx;
 1676              		.loc 1 621 0 is_stmt 1
 1677 08c6 044B     		ldr	r3, .L131
 1678 08c8 7A68     		ldr	r2, [r7, #4]
 1679 08ca C3F81821 		str	r2, [r3, #280]
 622:../src/lib/lpc177x_8x/Drivers/source/lpc177x_8x_emac.c **** }
 1680              		.loc 1 622 0
 1681 08ce 07F10C07 		add	r7, r7, #12
 1682 08d2 BD46     		mov	sp, r7
 1683 08d4 80BC     		pop	{r7}
 1684 08d6 7047     		bx	lr
 1685              	.L132:
 1686              		.align	2
 1687              	.L131:
 1688 08d8 00400820 		.word	537411584
 1689              		.cfi_endproc
 1690              	.LFE76:
 1692              		.align	2
 1693              		.global	ENET_IRQHandler
 1694              		.thumb
 1695              		.thumb_func
 1697              	ENET_IRQHandler:
 1698              	.LFB77:
 623:../src/lib/lpc177x_8x/Drivers/source/lpc177x_8x_emac.c **** 
 624:../src/lib/lpc177x_8x/Drivers/source/lpc177x_8x_emac.c **** #if EMAC_INT_ENABLE
 625:../src/lib/lpc177x_8x/Drivers/source/lpc177x_8x_emac.c **** /*********************************************************************//**
 626:../src/lib/lpc177x_8x/Drivers/source/lpc177x_8x_emac.c ****  * @brief       Standard EMAC IRQ Handler. This sub-routine will check
 627:../src/lib/lpc177x_8x/Drivers/source/lpc177x_8x_emac.c ****  *              these following interrupt and call the call-back function
 628:../src/lib/lpc177x_8x/Drivers/source/lpc177x_8x_emac.c ****  *              if they're already installed:
 629:../src/lib/lpc177x_8x/Drivers/source/lpc177x_8x_emac.c ****  *              - Overrun Error interrupt in RX Queue
 630:../src/lib/lpc177x_8x/Drivers/source/lpc177x_8x_emac.c ****  *              - Receive Error interrupt: AlignmentError, RangeError,
 631:../src/lib/lpc177x_8x/Drivers/source/lpc177x_8x_emac.c ****  *              LengthError, SymbolError, CRCError or NoDescriptor or Overrun
 632:../src/lib/lpc177x_8x/Drivers/source/lpc177x_8x_emac.c ****  *              - RX Finished Process Descriptors interrupt (ProduceIndex == ConsumeIndex)
 633:../src/lib/lpc177x_8x/Drivers/source/lpc177x_8x_emac.c ****  *              - Receive Done interrupt: Read received frame to the internal buffer
 634:../src/lib/lpc177x_8x/Drivers/source/lpc177x_8x_emac.c ****  *              - Transmit Under-run interrupt
 635:../src/lib/lpc177x_8x/Drivers/source/lpc177x_8x_emac.c ****  *              - Transmit errors interrupt : LateCollision, ExcessiveCollision
 636:../src/lib/lpc177x_8x/Drivers/source/lpc177x_8x_emac.c ****  *              and ExcessiveDefer, NoDescriptor or Under-run
 637:../src/lib/lpc177x_8x/Drivers/source/lpc177x_8x_emac.c ****  *              - TX Finished Process Descriptors interrupt (ProduceIndex == ConsumeIndex)
 638:../src/lib/lpc177x_8x/Drivers/source/lpc177x_8x_emac.c ****  *              - Transmit Done interrupt
 639:../src/lib/lpc177x_8x/Drivers/source/lpc177x_8x_emac.c ****  *              - Interrupt triggered by software
 640:../src/lib/lpc177x_8x/Drivers/source/lpc177x_8x_emac.c ****  *              - Interrupt triggered by a Wakeup event detected by the receive filter
 641:../src/lib/lpc177x_8x/Drivers/source/lpc177x_8x_emac.c ****  * @param[in]   None
 642:../src/lib/lpc177x_8x/Drivers/source/lpc177x_8x_emac.c ****  * @return      None
 643:../src/lib/lpc177x_8x/Drivers/source/lpc177x_8x_emac.c ****  **********************************************************************/
 644:../src/lib/lpc177x_8x/Drivers/source/lpc177x_8x_emac.c **** void ENET_IRQHandler(void)
 645:../src/lib/lpc177x_8x/Drivers/source/lpc177x_8x_emac.c **** {
 1699              		.loc 1 645 0
 1700              		.cfi_startproc
 1701              		@ args = 0, pretend = 0, frame = 32
 1702              		@ frame_needed = 1, uses_anonymous_args = 0
 1703 08dc 90B5     		push	{r4, r7, lr}
 1704              	.LCFI61:
 1705              		.cfi_def_cfa_offset 12
 1706              		.cfi_offset 4, -12
 1707              		.cfi_offset 7, -8
 1708              		.cfi_offset 14, -4
 1709 08de 89B0     		sub	sp, sp, #36
 1710              	.LCFI62:
 1711              		.cfi_def_cfa_offset 48
 1712 08e0 00AF     		add	r7, sp, #0
 1713              	.LCFI63:
 1714              		.cfi_def_cfa_register 7
 646:../src/lib/lpc177x_8x/Drivers/source/lpc177x_8x_emac.c ****     /* EMAC Ethernet Controller Interrupt function. */
 647:../src/lib/lpc177x_8x/Drivers/source/lpc177x_8x_emac.c ****     uint32_t int_stat;
 648:../src/lib/lpc177x_8x/Drivers/source/lpc177x_8x_emac.c ****     int32_t RxLen;
 649:../src/lib/lpc177x_8x/Drivers/source/lpc177x_8x_emac.c ****     
 650:../src/lib/lpc177x_8x/Drivers/source/lpc177x_8x_emac.c ****     // Get EMAC interrupt status
 651:../src/lib/lpc177x_8x/Drivers/source/lpc177x_8x_emac.c ****     while ((int_stat = (LPC_EMAC->IntStatus & LPC_EMAC->IntEnable)) != 0)
 1715              		.loc 1 651 0
 1716 08e2 94E1     		b	.L134
 1717              	.L170:
 652:../src/lib/lpc177x_8x/Drivers/source/lpc177x_8x_emac.c ****     {
 653:../src/lib/lpc177x_8x/Drivers/source/lpc177x_8x_emac.c ****         // Clear interrupt status
 654:../src/lib/lpc177x_8x/Drivers/source/lpc177x_8x_emac.c ****         LPC_EMAC->IntClear = int_stat;
 1718              		.loc 1 654 0
 1719 08e4 8F4B     		ldr	r3, .L171
 1720 08e6 FA69     		ldr	r2, [r7, #28]
 1721 08e8 C3F8E82F 		str	r2, [r3, #4072]
 655:../src/lib/lpc177x_8x/Drivers/source/lpc177x_8x_emac.c ****      
 656:../src/lib/lpc177x_8x/Drivers/source/lpc177x_8x_emac.c ****         if(int_stat & (EMAC_INT_RX_OVERRUN |EMAC_INT_RX_ERR ))
 1722              		.loc 1 656 0
 1723 08ec FB69     		ldr	r3, [r7, #28]
 1724 08ee 03F00303 		and	r3, r3, #3
 1725 08f2 002B     		cmp	r3, #0
 1726 08f4 71D0     		beq	.L135
 1727              	.LBB2:
 657:../src/lib/lpc177x_8x/Drivers/source/lpc177x_8x_emac.c ****         {
 658:../src/lib/lpc177x_8x/Drivers/source/lpc177x_8x_emac.c ****            uint32_t ulFrameSts = EMAC_GetRxFrameStatus();
 1728              		.loc 1 658 0
 1729 08f6 FFF7FEFF 		bl	EMAC_GetRxFrameStatus
 1730 08fa F860     		str	r0, [r7, #12]
 659:../src/lib/lpc177x_8x/Drivers/source/lpc177x_8x_emac.c ****            uint32_t ulErrCode = 0;
 1731              		.loc 1 659 0
 1732 08fc 4FF00003 		mov	r3, #0
 1733 0900 BB60     		str	r3, [r7, #8]
 660:../src/lib/lpc177x_8x/Drivers/source/lpc177x_8x_emac.c **** 
 661:../src/lib/lpc177x_8x/Drivers/source/lpc177x_8x_emac.c ****            ulErrCode |= (ulFrameSts & EMAC_RINFO_CRC_ERR) ? EMAC_CRC_ERR:0;
 1734              		.loc 1 661 0
 1735 0902 FB68     		ldr	r3, [r7, #12]
 1736 0904 03F40003 		and	r3, r3, #8388608
 1737 0908 002B     		cmp	r3, #0
 1738 090a 02D0     		beq	.L136
 1739              		.loc 1 661 0 is_stmt 0 discriminator 1
 1740 090c 4FF01003 		mov	r3, #16
 1741 0910 01E0     		b	.L137
 1742              	.L136:
 1743              		.loc 1 661 0 discriminator 2
 1744 0912 4FF00003 		mov	r3, #0
 1745              	.L137:
 1746              		.loc 1 661 0 discriminator 3
 1747 0916 BA68     		ldr	r2, [r7, #8]
 1748 0918 1343     		orrs	r3, r3, r2
 1749 091a BB60     		str	r3, [r7, #8]
 662:../src/lib/lpc177x_8x/Drivers/source/lpc177x_8x_emac.c ****            ulErrCode |= (ulFrameSts & EMAC_RINFO_SYM_ERR) ? EMAC_SYMBOL_ERR:0;
 1750              		.loc 1 662 0 is_stmt 1 discriminator 3
 1751 091c FB68     		ldr	r3, [r7, #12]
 1752 091e 03F08073 		and	r3, r3, #16777216
 1753 0922 002B     		cmp	r3, #0
 1754 0924 02D0     		beq	.L138
 1755              		.loc 1 662 0 is_stmt 0 discriminator 1
 1756 0926 4FF00803 		mov	r3, #8
 1757 092a 01E0     		b	.L139
 1758              	.L138:
 1759              		.loc 1 662 0 discriminator 2
 1760 092c 4FF00003 		mov	r3, #0
 1761              	.L139:
 1762              		.loc 1 662 0 discriminator 3
 1763 0930 BA68     		ldr	r2, [r7, #8]
 1764 0932 1343     		orrs	r3, r3, r2
 1765 0934 BB60     		str	r3, [r7, #8]
 663:../src/lib/lpc177x_8x/Drivers/source/lpc177x_8x_emac.c ****            ulErrCode |= (ulFrameSts & EMAC_RINFO_LEN_ERR) ? EMAC_LENGTH_ERR:0;
 1766              		.loc 1 663 0 is_stmt 1 discriminator 3
 1767 0936 FB68     		ldr	r3, [r7, #12]
 1768 0938 03F00073 		and	r3, r3, #33554432
 1769 093c 002B     		cmp	r3, #0
 1770 093e 02D0     		beq	.L140
 1771              		.loc 1 663 0 is_stmt 0 discriminator 1
 1772 0940 4FF00403 		mov	r3, #4
 1773 0944 01E0     		b	.L141
 1774              	.L140:
 1775              		.loc 1 663 0 discriminator 2
 1776 0946 4FF00003 		mov	r3, #0
 1777              	.L141:
 1778              		.loc 1 663 0 discriminator 3
 1779 094a BA68     		ldr	r2, [r7, #8]
 1780 094c 1343     		orrs	r3, r3, r2
 1781 094e BB60     		str	r3, [r7, #8]
 664:../src/lib/lpc177x_8x/Drivers/source/lpc177x_8x_emac.c ****            ulErrCode |= (ulFrameSts & EMAC_RINFO_ALIGN_ERR) ? EMAC_ALIGN_ERR:0;
 1782              		.loc 1 664 0 is_stmt 1 discriminator 3
 1783 0950 FB68     		ldr	r3, [r7, #12]
 1784 0952 03F00063 		and	r3, r3, #134217728
 1785 0956 002B     		cmp	r3, #0
 1786 0958 02D0     		beq	.L142
 1787              		.loc 1 664 0 is_stmt 0 discriminator 1
 1788 095a 4FF00103 		mov	r3, #1
 1789 095e 01E0     		b	.L143
 1790              	.L142:
 1791              		.loc 1 664 0 discriminator 2
 1792 0960 4FF00003 		mov	r3, #0
 1793              	.L143:
 1794              		.loc 1 664 0 discriminator 3
 1795 0964 BA68     		ldr	r2, [r7, #8]
 1796 0966 1343     		orrs	r3, r3, r2
 1797 0968 BB60     		str	r3, [r7, #8]
 665:../src/lib/lpc177x_8x/Drivers/source/lpc177x_8x_emac.c ****            ulErrCode |= (ulFrameSts & EMAC_RINFO_OVERRUN) ? EMAC_OVERRUN_ERR:0;
 1798              		.loc 1 665 0 is_stmt 1 discriminator 3
 1799 096a FB68     		ldr	r3, [r7, #12]
 1800 096c 03F08053 		and	r3, r3, #268435456
 1801 0970 002B     		cmp	r3, #0
 1802 0972 02D0     		beq	.L144
 1803              		.loc 1 665 0 is_stmt 0 discriminator 1
 1804 0974 4FF04003 		mov	r3, #64
 1805 0978 01E0     		b	.L145
 1806              	.L144:
 1807              		.loc 1 665 0 discriminator 2
 1808 097a 4FF00003 		mov	r3, #0
 1809              	.L145:
 1810              		.loc 1 665 0 discriminator 3
 1811 097e BA68     		ldr	r2, [r7, #8]
 1812 0980 1343     		orrs	r3, r3, r2
 1813 0982 BB60     		str	r3, [r7, #8]
 666:../src/lib/lpc177x_8x/Drivers/source/lpc177x_8x_emac.c ****            ulErrCode |= (ulFrameSts & EMAC_RINFO_NO_DESCR) ? EMAC_RX_NO_DESC_ERR:0;
 1814              		.loc 1 666 0 is_stmt 1 discriminator 3
 1815 0984 FB68     		ldr	r3, [r7, #12]
 1816 0986 03F00053 		and	r3, r3, #536870912
 1817 098a 002B     		cmp	r3, #0
 1818 098c 02D0     		beq	.L146
 1819              		.loc 1 666 0 is_stmt 0 discriminator 1
 1820 098e 4FF02003 		mov	r3, #32
 1821 0992 01E0     		b	.L147
 1822              	.L146:
 1823              		.loc 1 666 0 discriminator 2
 1824 0994 4FF00003 		mov	r3, #0
 1825              	.L147:
 1826              		.loc 1 666 0 discriminator 3
 1827 0998 BA68     		ldr	r2, [r7, #8]
 1828 099a 1343     		orrs	r3, r3, r2
 1829 099c BB60     		str	r3, [r7, #8]
 667:../src/lib/lpc177x_8x/Drivers/source/lpc177x_8x_emac.c ****            ulErrCode |= (ulFrameSts & EMAC_RINFO_FAIL_FILT) ? EMAC_FILTER_FAILED_ERR:0;
 1830              		.loc 1 667 0 is_stmt 1 discriminator 3
 1831 099e FB68     		ldr	r3, [r7, #12]
 1832 09a0 03F48013 		and	r3, r3, #1048576
 1833 09a4 002B     		cmp	r3, #0
 1834 09a6 02D0     		beq	.L148
 1835              		.loc 1 667 0 is_stmt 0 discriminator 1
 1836 09a8 4FF48053 		mov	r3, #4096
 1837 09ac 01E0     		b	.L149
 1838              	.L148:
 1839              		.loc 1 667 0 discriminator 2
 1840 09ae 4FF00003 		mov	r3, #0
 1841              	.L149:
 1842              		.loc 1 667 0 discriminator 3
 1843 09b2 BA68     		ldr	r2, [r7, #8]
 1844 09b4 1343     		orrs	r3, r3, r2
 1845 09b6 BB60     		str	r3, [r7, #8]
 668:../src/lib/lpc177x_8x/Drivers/source/lpc177x_8x_emac.c ****            
 669:../src/lib/lpc177x_8x/Drivers/source/lpc177x_8x_emac.c ****            if(ulErrCode == 0)
 1846              		.loc 1 669 0 is_stmt 1 discriminator 3
 1847 09b8 BB68     		ldr	r3, [r7, #8]
 1848 09ba 002B     		cmp	r3, #0
 1849 09bc 04D1     		bne	.L150
 670:../src/lib/lpc177x_8x/Drivers/source/lpc177x_8x_emac.c ****            {
 671:../src/lib/lpc177x_8x/Drivers/source/lpc177x_8x_emac.c ****               /* Note:
 672:../src/lib/lpc177x_8x/Drivers/source/lpc177x_8x_emac.c ****                   * The EMAC doesn't distinguish the frame type and frame length,
 673:../src/lib/lpc177x_8x/Drivers/source/lpc177x_8x_emac.c ****                   * so, e.g. when the IP(0x8000) or ARP(0x0806) packets are received,
 674:../src/lib/lpc177x_8x/Drivers/source/lpc177x_8x_emac.c ****                   * it compares the frame type with the max length and gives the
 675:../src/lib/lpc177x_8x/Drivers/source/lpc177x_8x_emac.c ****                   * "Range" error. In fact, this bit is not an error indication,
 676:../src/lib/lpc177x_8x/Drivers/source/lpc177x_8x_emac.c ****                   * but simply a statement by the chip regarding the status of
 677:../src/lib/lpc177x_8x/Drivers/source/lpc177x_8x_emac.c ****                   * the received frame
 678:../src/lib/lpc177x_8x/Drivers/source/lpc177x_8x_emac.c ****                   */
 679:../src/lib/lpc177x_8x/Drivers/source/lpc177x_8x_emac.c ****               int_stat &= ~EMAC_INT_RX_ERR;
 1850              		.loc 1 679 0
 1851 09be FB69     		ldr	r3, [r7, #28]
 1852 09c0 23F00203 		bic	r3, r3, #2
 1853 09c4 FB61     		str	r3, [r7, #28]
 1854 09c6 08E0     		b	.L135
 1855              	.L150:
 680:../src/lib/lpc177x_8x/Drivers/source/lpc177x_8x_emac.c ****            }
 681:../src/lib/lpc177x_8x/Drivers/source/lpc177x_8x_emac.c ****            else
 682:../src/lib/lpc177x_8x/Drivers/source/lpc177x_8x_emac.c ****            {
 683:../src/lib/lpc177x_8x/Drivers/source/lpc177x_8x_emac.c ****              if(EMAC_Configs.pfnErrorReceive != NULL)
 1856              		.loc 1 683 0
 1857 09c8 574B     		ldr	r3, .L171+4
 1858 09ca 1B6A     		ldr	r3, [r3, #32]
 1859 09cc 002B     		cmp	r3, #0
 1860 09ce 04D0     		beq	.L135
 684:../src/lib/lpc177x_8x/Drivers/source/lpc177x_8x_emac.c ****                EMAC_Configs.pfnErrorReceive(ulErrCode);
 1861              		.loc 1 684 0
 1862 09d0 554B     		ldr	r3, .L171+4
 1863 09d2 1B6A     		ldr	r3, [r3, #32]
 1864 09d4 BA68     		ldr	r2, [r7, #8]
 1865 09d6 1046     		mov	r0, r2
 1866 09d8 9847     		blx	r3
 1867              	.L135:
 1868              	.LBE2:
 685:../src/lib/lpc177x_8x/Drivers/source/lpc177x_8x_emac.c ****             }
 686:../src/lib/lpc177x_8x/Drivers/source/lpc177x_8x_emac.c ****         }
 687:../src/lib/lpc177x_8x/Drivers/source/lpc177x_8x_emac.c **** 
 688:../src/lib/lpc177x_8x/Drivers/source/lpc177x_8x_emac.c ****         if(int_stat & (EMAC_INT_TX_UNDERRUN|EMAC_INT_TX_ERR ))
 1869              		.loc 1 688 0
 1870 09da FB69     		ldr	r3, [r7, #28]
 1871 09dc 03F03003 		and	r3, r3, #48
 1872 09e0 002B     		cmp	r3, #0
 1873 09e2 4FD0     		beq	.L151
 1874              	.LBB3:
 689:../src/lib/lpc177x_8x/Drivers/source/lpc177x_8x_emac.c ****         {
 690:../src/lib/lpc177x_8x/Drivers/source/lpc177x_8x_emac.c ****            uint32_t ulFrameSts = EMAC_GetTxFrameStatus();
 1875              		.loc 1 690 0
 1876 09e4 FFF7FEFF 		bl	EMAC_GetTxFrameStatus
 1877 09e8 7860     		str	r0, [r7, #4]
 691:../src/lib/lpc177x_8x/Drivers/source/lpc177x_8x_emac.c ****            uint32_t ulErrCode = 0;
 1878              		.loc 1 691 0
 1879 09ea 4FF00003 		mov	r3, #0
 1880 09ee 3B60     		str	r3, [r7, #0]
 692:../src/lib/lpc177x_8x/Drivers/source/lpc177x_8x_emac.c **** 
 693:../src/lib/lpc177x_8x/Drivers/source/lpc177x_8x_emac.c ****            ulErrCode |= (ulFrameSts & EMAC_TINFO_EXCESS_DEF) ? EMAC_EXCESSIVE_DEFER_ERR:0;
 1881              		.loc 1 693 0
 1882 09f0 7B68     		ldr	r3, [r7, #4]
 1883 09f2 03F08063 		and	r3, r3, #67108864
 1884 09f6 002B     		cmp	r3, #0
 1885 09f8 02D0     		beq	.L152
 1886              		.loc 1 693 0 is_stmt 0 discriminator 1
 1887 09fa 4FF40073 		mov	r3, #512
 1888 09fe 01E0     		b	.L153
 1889              	.L152:
 1890              		.loc 1 693 0 discriminator 2
 1891 0a00 4FF00003 		mov	r3, #0
 1892              	.L153:
 1893              		.loc 1 693 0 discriminator 3
 1894 0a04 3A68     		ldr	r2, [r7, #0]
 1895 0a06 1343     		orrs	r3, r3, r2
 1896 0a08 3B60     		str	r3, [r7, #0]
 694:../src/lib/lpc177x_8x/Drivers/source/lpc177x_8x_emac.c ****            ulErrCode |= (ulFrameSts & EMAC_TINFO_EXCESS_COL) ? EMAC_EXCESSIVE_COLLISION_ERR:0;
 1897              		.loc 1 694 0 is_stmt 1 discriminator 3
 1898 0a0a 7B68     		ldr	r3, [r7, #4]
 1899 0a0c 03F00063 		and	r3, r3, #134217728
 1900 0a10 002B     		cmp	r3, #0
 1901 0a12 02D0     		beq	.L154
 1902              		.loc 1 694 0 is_stmt 0 discriminator 1
 1903 0a14 4FF48073 		mov	r3, #256
 1904 0a18 01E0     		b	.L155
 1905              	.L154:
 1906              		.loc 1 694 0 discriminator 2
 1907 0a1a 4FF00003 		mov	r3, #0
 1908              	.L155:
 1909              		.loc 1 694 0 discriminator 3
 1910 0a1e 3A68     		ldr	r2, [r7, #0]
 1911 0a20 1343     		orrs	r3, r3, r2
 1912 0a22 3B60     		str	r3, [r7, #0]
 695:../src/lib/lpc177x_8x/Drivers/source/lpc177x_8x_emac.c ****            ulErrCode |= (ulFrameSts & EMAC_TINFO_LATE_COL) ? EMAC_LATE_COLLISION_ERR:0;
 1913              		.loc 1 695 0 is_stmt 1 discriminator 3
 1914 0a24 7B68     		ldr	r3, [r7, #4]
 1915 0a26 03F08053 		and	r3, r3, #268435456
 1916 0a2a 002B     		cmp	r3, #0
 1917 0a2c 02D0     		beq	.L156
 1918              		.loc 1 695 0 is_stmt 0 discriminator 1
 1919 0a2e 4FF08003 		mov	r3, #128
 1920 0a32 01E0     		b	.L157
 1921              	.L156:
 1922              		.loc 1 695 0 discriminator 2
 1923 0a34 4FF00003 		mov	r3, #0
 1924              	.L157:
 1925              		.loc 1 695 0 discriminator 3
 1926 0a38 3A68     		ldr	r2, [r7, #0]
 1927 0a3a 1343     		orrs	r3, r3, r2
 1928 0a3c 3B60     		str	r3, [r7, #0]
 696:../src/lib/lpc177x_8x/Drivers/source/lpc177x_8x_emac.c ****            ulErrCode |= (ulFrameSts & EMAC_TINFO_UNDERRUN) ? EMAC_UNDERRUN_ERR:0;
 1929              		.loc 1 696 0 is_stmt 1 discriminator 3
 1930 0a3e 7B68     		ldr	r3, [r7, #4]
 1931 0a40 03F00053 		and	r3, r3, #536870912
 1932 0a44 002B     		cmp	r3, #0
 1933 0a46 02D0     		beq	.L158
 1934              		.loc 1 696 0 is_stmt 0 discriminator 1
 1935 0a48 4FF48063 		mov	r3, #1024
 1936 0a4c 01E0     		b	.L159
 1937              	.L158:
 1938              		.loc 1 696 0 discriminator 2
 1939 0a4e 4FF00003 		mov	r3, #0
 1940              	.L159:
 1941              		.loc 1 696 0 discriminator 3
 1942 0a52 3A68     		ldr	r2, [r7, #0]
 1943 0a54 1343     		orrs	r3, r3, r2
 1944 0a56 3B60     		str	r3, [r7, #0]
 697:../src/lib/lpc177x_8x/Drivers/source/lpc177x_8x_emac.c ****            ulErrCode |= (ulFrameSts & EMAC_TINFO_NO_DESCR) ? EMAC_TX_NO_DESC_ERR:0;
 1945              		.loc 1 697 0 is_stmt 1 discriminator 3
 1946 0a58 7B68     		ldr	r3, [r7, #4]
 1947 0a5a 03F08043 		and	r3, r3, #1073741824
 1948 0a5e 002B     		cmp	r3, #0
 1949 0a60 02D0     		beq	.L160
 1950              		.loc 1 697 0 is_stmt 0 discriminator 1
 1951 0a62 4FF40063 		mov	r3, #2048
 1952 0a66 01E0     		b	.L161
 1953              	.L160:
 1954              		.loc 1 697 0 discriminator 2
 1955 0a68 4FF00003 		mov	r3, #0
 1956              	.L161:
 1957              		.loc 1 697 0 discriminator 3
 1958 0a6c 3A68     		ldr	r2, [r7, #0]
 1959 0a6e 1343     		orrs	r3, r3, r2
 1960 0a70 3B60     		str	r3, [r7, #0]
 698:../src/lib/lpc177x_8x/Drivers/source/lpc177x_8x_emac.c ****            if(EMAC_Configs.pfnErrorReceive != NULL)
 1961              		.loc 1 698 0 is_stmt 1 discriminator 3
 1962 0a72 2D4B     		ldr	r3, .L171+4
 1963 0a74 1B6A     		ldr	r3, [r3, #32]
 1964 0a76 002B     		cmp	r3, #0
 1965 0a78 04D0     		beq	.L151
 699:../src/lib/lpc177x_8x/Drivers/source/lpc177x_8x_emac.c ****               EMAC_Configs.pfnErrorReceive(ulErrCode);
 1966              		.loc 1 699 0
 1967 0a7a 2B4B     		ldr	r3, .L171+4
 1968 0a7c 1B6A     		ldr	r3, [r3, #32]
 1969 0a7e 3A68     		ldr	r2, [r7, #0]
 1970 0a80 1046     		mov	r0, r2
 1971 0a82 9847     		blx	r3
 1972              	.L151:
 1973              	.LBE3:
 700:../src/lib/lpc177x_8x/Drivers/source/lpc177x_8x_emac.c ****         }
 701:../src/lib/lpc177x_8x/Drivers/source/lpc177x_8x_emac.c ****    
 702:../src/lib/lpc177x_8x/Drivers/source/lpc177x_8x_emac.c ****         if(int_stat & EMAC_INT_RX_DONE)
 1974              		.loc 1 702 0
 1975 0a84 FB69     		ldr	r3, [r7, #28]
 1976 0a86 03F00803 		and	r3, r3, #8
 1977 0a8a 002B     		cmp	r3, #0
 1978 0a8c 00F09B80 		beq	.L162
 703:../src/lib/lpc177x_8x/Drivers/source/lpc177x_8x_emac.c ****         {
 704:../src/lib/lpc177x_8x/Drivers/source/lpc177x_8x_emac.c **** 
 705:../src/lib/lpc177x_8x/Drivers/source/lpc177x_8x_emac.c ****           /* Packet received. */
 706:../src/lib/lpc177x_8x/Drivers/source/lpc177x_8x_emac.c ****           if(EMAC_GetBufferSts(EMAC_RX_BUFF) != EMAC_BUFF_EMPTY)
 1979              		.loc 1 706 0
 1980 0a90 4FF00100 		mov	r0, #1
 1981 0a94 FFF7FEFF 		bl	EMAC_GetBufferSts
 1982 0a98 0346     		mov	r3, r0
 1983 0a9a 002B     		cmp	r3, #0
 1984 0a9c 00F09380 		beq	.L162
 707:../src/lib/lpc177x_8x/Drivers/source/lpc177x_8x_emac.c ****           {
 708:../src/lib/lpc177x_8x/Drivers/source/lpc177x_8x_emac.c ****              // Get data size
 709:../src/lib/lpc177x_8x/Drivers/source/lpc177x_8x_emac.c ****          RxLen = EMAC_GetRxFrameSize();
 1985              		.loc 1 709 0
 1986 0aa0 FFF7FEFF 		bl	EMAC_GetRxFrameSize
 1987 0aa4 0346     		mov	r3, r0
 1988 0aa6 BB61     		str	r3, [r7, #24]
 710:../src/lib/lpc177x_8x/Drivers/source/lpc177x_8x_emac.c ****          if(RxLen > 0)
 1989              		.loc 1 710 0
 1990 0aa8 BB69     		ldr	r3, [r7, #24]
 1991 0aaa 002B     		cmp	r3, #0
 1992 0aac 40F38B80 		ble	.L162
 711:../src/lib/lpc177x_8x/Drivers/source/lpc177x_8x_emac.c ****          {
 712:../src/lib/lpc177x_8x/Drivers/source/lpc177x_8x_emac.c ****             // trip out 4-bytes CRC field, note that length in (-1) style format
 713:../src/lib/lpc177x_8x/Drivers/source/lpc177x_8x_emac.c ****             RxLen -= 4;
 1993              		.loc 1 713 0
 1994 0ab0 BB69     		ldr	r3, [r7, #24]
 1995 0ab2 A3F10403 		sub	r3, r3, #4
 1996 0ab6 BB61     		str	r3, [r7, #24]
 714:../src/lib/lpc177x_8x/Drivers/source/lpc177x_8x_emac.c ****               
 715:../src/lib/lpc177x_8x/Drivers/source/lpc177x_8x_emac.c ****             if((EMAC_GetRxFrameStatus() & EMAC_RINFO_ERR_MASK )== 0)
 1997              		.loc 1 715 0
 1998 0ab8 FFF7FEFF 		bl	EMAC_GetRxFrameStatus
 1999 0abc 0246     		mov	r2, r0
 2000 0abe 1B4B     		ldr	r3, .L171+8
 2001 0ac0 1340     		ands	r3, r3, r2
 2002 0ac2 002B     		cmp	r3, #0
 2003 0ac4 7FD1     		bne	.L162
 2004              	.LBB4:
 716:../src/lib/lpc177x_8x/Drivers/source/lpc177x_8x_emac.c ****                     {
 717:../src/lib/lpc177x_8x/Drivers/source/lpc177x_8x_emac.c ****             uint16_t *pDest = (uint16_t*) &saFrameBuffers[sbCurrFrameID][sulCurrFrameSz];
 2005              		.loc 1 717 0
 2006 0ac6 1A4B     		ldr	r3, .L171+12
 2007 0ac8 1B78     		ldrb	r3, [r3, #0]	@ zero_extendqisi2
 2008 0aca 1A46     		mov	r2, r3
 2009 0acc 194B     		ldr	r3, .L171+16
 2010 0ace 1968     		ldr	r1, [r3, #0]
 2011 0ad0 1346     		mov	r3, r2
 2012 0ad2 4FEA4303 		lsl	r3, r3, #1
 2013 0ad6 9B18     		adds	r3, r3, r2
 2014 0ad8 4FEA4323 		lsl	r3, r3, #9
 2015 0adc 5B18     		adds	r3, r3, r1
 2016 0ade 4FEA4302 		lsl	r2, r3, #1
 2017 0ae2 154B     		ldr	r3, .L171+20
 2018 0ae4 D318     		adds	r3, r2, r3
 2019 0ae6 7B61     		str	r3, [r7, #20]
 718:../src/lib/lpc177x_8x/Drivers/source/lpc177x_8x_emac.c ****             uint16_t *pSource = (uint16_t*)EMAC_GetRxBuffer();
 2020              		.loc 1 718 0
 2021 0ae8 FFF7FEFF 		bl	EMAC_GetRxBuffer
 2022 0aec 0346     		mov	r3, r0
 2023 0aee 3B61     		str	r3, [r7, #16]
 719:../src/lib/lpc177x_8x/Drivers/source/lpc177x_8x_emac.c ****                         sulCurrFrameSz += RxLen;
 2024              		.loc 1 719 0
 2025 0af0 104B     		ldr	r3, .L171+16
 2026 0af2 1A68     		ldr	r2, [r3, #0]
 2027 0af4 BB69     		ldr	r3, [r7, #24]
 2028 0af6 D218     		adds	r2, r2, r3
 2029 0af8 0E4B     		ldr	r3, .L171+16
 2030 0afa 1A60     		str	r2, [r3, #0]
 720:../src/lib/lpc177x_8x/Drivers/source/lpc177x_8x_emac.c ****                  
 721:../src/lib/lpc177x_8x/Drivers/source/lpc177x_8x_emac.c ****             if(sulCurrFrameSz >= EMAC_MAX_FRAME_SIZE)
 2031              		.loc 1 721 0
 2032 0afc 0D4B     		ldr	r3, .L171+16
 2033 0afe 1A68     		ldr	r2, [r3, #0]
 2034 0b00 40F2FF53 		movw	r3, #1535
 2035 0b04 9A42     		cmp	r2, r3
 2036 0b06 29D9     		bls	.L164
 722:../src/lib/lpc177x_8x/Drivers/source/lpc177x_8x_emac.c ****             {
 723:../src/lib/lpc177x_8x/Drivers/source/lpc177x_8x_emac.c ****               sulCurrFrameSz = 0;
 2037              		.loc 1 723 0
 2038 0b08 0A4B     		ldr	r3, .L171+16
 2039 0b0a 4FF00002 		mov	r2, #0
 2040 0b0e 1A60     		str	r2, [r3, #0]
 724:../src/lib/lpc177x_8x/Drivers/source/lpc177x_8x_emac.c ****               if(EMAC_Configs.pfnErrorReceive != NULL)
 2041              		.loc 1 724 0
 2042 0b10 054B     		ldr	r3, .L171+4
 2043 0b12 1B6A     		ldr	r3, [r3, #32]
 2044 0b14 002B     		cmp	r3, #0
 2045 0b16 56D0     		beq	.L162
 725:../src/lib/lpc177x_8x/Drivers/source/lpc177x_8x_emac.c ****                      EMAC_Configs.pfnErrorReceive(EMAC_LENGTH_ERR);
 2046              		.loc 1 725 0
 2047 0b18 034B     		ldr	r3, .L171+4
 2048 0b1a 1B6A     		ldr	r3, [r3, #32]
 2049 0b1c 4FF00400 		mov	r0, #4
 2050 0b20 9847     		blx	r3
 2051 0b22 50E0     		b	.L162
 2052              	.L172:
 2053              		.align	2
 2054              	.L171:
 2055 0b24 00400820 		.word	537411584
 2056 0b28 00000000 		.word	EMAC_Configs
 2057 0b2c 0000901B 		.word	462422016
 2058 0b30 30180000 		.word	sbCurrFrameID
 2059 0b34 2C180000 		.word	sulCurrFrameSz
 2060 0b38 2C000000 		.word	saFrameBuffers
 2061              	.L165:
 726:../src/lib/lpc177x_8x/Drivers/source/lpc177x_8x_emac.c ****             }
 727:../src/lib/lpc177x_8x/Drivers/source/lpc177x_8x_emac.c ****             else
 728:../src/lib/lpc177x_8x/Drivers/source/lpc177x_8x_emac.c ****             {
 729:../src/lib/lpc177x_8x/Drivers/source/lpc177x_8x_emac.c ****                 // Copy data
 730:../src/lib/lpc177x_8x/Drivers/source/lpc177x_8x_emac.c ****                while (RxLen > 0)
 731:../src/lib/lpc177x_8x/Drivers/source/lpc177x_8x_emac.c ****                 {
 732:../src/lib/lpc177x_8x/Drivers/source/lpc177x_8x_emac.c ****                             *pDest++ = *pSource++;
 2062              		.loc 1 732 0
 2063 0b3c 3B69     		ldr	r3, [r7, #16]
 2064 0b3e 1A88     		ldrh	r2, [r3, #0]
 2065 0b40 7B69     		ldr	r3, [r7, #20]
 2066 0b42 1A80     		strh	r2, [r3, #0]	@ movhi
 2067 0b44 7B69     		ldr	r3, [r7, #20]
 2068 0b46 03F10203 		add	r3, r3, #2
 2069 0b4a 7B61     		str	r3, [r7, #20]
 2070 0b4c 3B69     		ldr	r3, [r7, #16]
 2071 0b4e 03F10203 		add	r3, r3, #2
 2072 0b52 3B61     		str	r3, [r7, #16]
 733:../src/lib/lpc177x_8x/Drivers/source/lpc177x_8x_emac.c ****                             RxLen -= 2;
 2073              		.loc 1 733 0
 2074 0b54 BB69     		ldr	r3, [r7, #24]
 2075 0b56 A3F10203 		sub	r3, r3, #2
 2076 0b5a BB61     		str	r3, [r7, #24]
 2077              	.L164:
 730:../src/lib/lpc177x_8x/Drivers/source/lpc177x_8x_emac.c ****                while (RxLen > 0)
 2078              		.loc 1 730 0 discriminator 1
 2079 0b5c BB69     		ldr	r3, [r7, #24]
 2080 0b5e 002B     		cmp	r3, #0
 2081 0b60 ECDC     		bgt	.L165
 734:../src/lib/lpc177x_8x/Drivers/source/lpc177x_8x_emac.c ****                             } 
 735:../src/lib/lpc177x_8x/Drivers/source/lpc177x_8x_emac.c ****                 if(EMAC_GetRxFrameStatus() & EMAC_RINFO_LAST_FLAG)
 2082              		.loc 1 735 0
 2083 0b62 FFF7FEFF 		bl	EMAC_GetRxFrameStatus
 2084 0b66 0346     		mov	r3, r0
 2085 0b68 03F08043 		and	r3, r3, #1073741824
 2086 0b6c 002B     		cmp	r3, #0
 2087 0b6e 28D0     		beq	.L166
 736:../src/lib/lpc177x_8x/Drivers/source/lpc177x_8x_emac.c ****                 {
 737:../src/lib/lpc177x_8x/Drivers/source/lpc177x_8x_emac.c ****                   
 738:../src/lib/lpc177x_8x/Drivers/source/lpc177x_8x_emac.c ****                     if(EMAC_Configs.pfnFrameReceive != NULL)
 2088              		.loc 1 738 0
 2089 0b70 2F4B     		ldr	r3, .L173
 2090 0b72 9B69     		ldr	r3, [r3, #24]
 2091 0b74 002B     		cmp	r3, #0
 2092 0b76 11D0     		beq	.L167
 739:../src/lib/lpc177x_8x/Drivers/source/lpc177x_8x_emac.c ****                     {
 740:../src/lib/lpc177x_8x/Drivers/source/lpc177x_8x_emac.c ****                   EMAC_Configs.pfnFrameReceive((uint16_t*)saFrameBuffers[sbCurrFrameID], sulCurrFra
 2093              		.loc 1 740 0
 2094 0b78 2D4B     		ldr	r3, .L173
 2095 0b7a 9C69     		ldr	r4, [r3, #24]
 2096 0b7c 2D4B     		ldr	r3, .L173+4
 2097 0b7e 1B78     		ldrb	r3, [r3, #0]	@ zero_extendqisi2
 2098 0b80 1A46     		mov	r2, r3
 2099 0b82 1346     		mov	r3, r2
 2100 0b84 4FEA4303 		lsl	r3, r3, #1
 2101 0b88 9B18     		adds	r3, r3, r2
 2102 0b8a 4FEA8323 		lsl	r3, r3, #10
 2103 0b8e 2A4A     		ldr	r2, .L173+8
 2104 0b90 9A18     		adds	r2, r3, r2
 2105 0b92 2A4B     		ldr	r3, .L173+12
 2106 0b94 1B68     		ldr	r3, [r3, #0]
 2107 0b96 1046     		mov	r0, r2
 2108 0b98 1946     		mov	r1, r3
 2109 0b9a A047     		blx	r4
 2110              	.L167:
 741:../src/lib/lpc177x_8x/Drivers/source/lpc177x_8x_emac.c ****                     }
 742:../src/lib/lpc177x_8x/Drivers/source/lpc177x_8x_emac.c ****                     sulCurrFrameSz = 0;
 2111              		.loc 1 742 0
 2112 0b9c 274B     		ldr	r3, .L173+12
 2113 0b9e 4FF00002 		mov	r2, #0
 2114 0ba2 1A60     		str	r2, [r3, #0]
 743:../src/lib/lpc177x_8x/Drivers/source/lpc177x_8x_emac.c ****                     sbCurrFrameID ++;
 2115              		.loc 1 743 0
 2116 0ba4 234B     		ldr	r3, .L173+4
 2117 0ba6 1B78     		ldrb	r3, [r3, #0]	@ zero_extendqisi2
 2118 0ba8 03F10103 		add	r3, r3, #1
 2119 0bac DAB2     		uxtb	r2, r3
 2120 0bae 214B     		ldr	r3, .L173+4
 2121 0bb0 1A70     		strb	r2, [r3, #0]
 744:../src/lib/lpc177x_8x/Drivers/source/lpc177x_8x_emac.c ****                     if(sbCurrFrameID >= EMAC_MAX_FRAME_NUM)
 2122              		.loc 1 744 0
 2123 0bb2 204B     		ldr	r3, .L173+4
 2124 0bb4 1B78     		ldrb	r3, [r3, #0]	@ zero_extendqisi2
 2125 0bb6 012B     		cmp	r3, #1
 2126 0bb8 03D9     		bls	.L166
 745:../src/lib/lpc177x_8x/Drivers/source/lpc177x_8x_emac.c ****                     sbCurrFrameID = 0;
 2127              		.loc 1 745 0
 2128 0bba 1E4B     		ldr	r3, .L173+4
 2129 0bbc 4FF00002 		mov	r2, #0
 2130 0bc0 1A70     		strb	r2, [r3, #0]
 2131              	.L166:
 746:../src/lib/lpc177x_8x/Drivers/source/lpc177x_8x_emac.c ****                 }   
 747:../src/lib/lpc177x_8x/Drivers/source/lpc177x_8x_emac.c ****                 /* Release frame from EMAC buffer */
 748:../src/lib/lpc177x_8x/Drivers/source/lpc177x_8x_emac.c ****                 EMAC_UpdateRxConsumeIndex();
 2132              		.loc 1 748 0
 2133 0bc2 FFF7FEFF 		bl	EMAC_UpdateRxConsumeIndex
 2134              	.L162:
 2135              	.LBE4:
 749:../src/lib/lpc177x_8x/Drivers/source/lpc177x_8x_emac.c ****             }
 750:../src/lib/lpc177x_8x/Drivers/source/lpc177x_8x_emac.c ****             }
 751:../src/lib/lpc177x_8x/Drivers/source/lpc177x_8x_emac.c ****         }            
 752:../src/lib/lpc177x_8x/Drivers/source/lpc177x_8x_emac.c ****         }
 753:../src/lib/lpc177x_8x/Drivers/source/lpc177x_8x_emac.c ****         
 754:../src/lib/lpc177x_8x/Drivers/source/lpc177x_8x_emac.c ****     }
 755:../src/lib/lpc177x_8x/Drivers/source/lpc177x_8x_emac.c ****         
 756:../src/lib/lpc177x_8x/Drivers/source/lpc177x_8x_emac.c ****         if(int_stat & EMAC_INT_TX_FIN && (EMAC_Configs.pfnTransmitFinish != NULL))
 2136              		.loc 1 756 0
 2137 0bc6 FB69     		ldr	r3, [r7, #28]
 2138 0bc8 03F04003 		and	r3, r3, #64
 2139 0bcc 002B     		cmp	r3, #0
 2140 0bce 06D0     		beq	.L168
 2141              		.loc 1 756 0 is_stmt 0 discriminator 1
 2142 0bd0 174B     		ldr	r3, .L173
 2143 0bd2 DB69     		ldr	r3, [r3, #28]
 2144 0bd4 002B     		cmp	r3, #0
 2145 0bd6 02D0     		beq	.L168
 757:../src/lib/lpc177x_8x/Drivers/source/lpc177x_8x_emac.c ****         {
 758:../src/lib/lpc177x_8x/Drivers/source/lpc177x_8x_emac.c ****              EMAC_Configs.pfnTransmitFinish();
 2146              		.loc 1 758 0 is_stmt 1
 2147 0bd8 154B     		ldr	r3, .L173
 2148 0bda DB69     		ldr	r3, [r3, #28]
 2149 0bdc 9847     		blx	r3
 2150              	.L168:
 759:../src/lib/lpc177x_8x/Drivers/source/lpc177x_8x_emac.c ****         }
 760:../src/lib/lpc177x_8x/Drivers/source/lpc177x_8x_emac.c **** 
 761:../src/lib/lpc177x_8x/Drivers/source/lpc177x_8x_emac.c ****         if(int_stat & EMAC_INT_SOFT_INT && (EMAC_Configs.pfnSoftInt!= NULL))
 2151              		.loc 1 761 0
 2152 0bde FB69     		ldr	r3, [r7, #28]
 2153 0be0 03F48053 		and	r3, r3, #4096
 2154 0be4 002B     		cmp	r3, #0
 2155 0be6 06D0     		beq	.L169
 2156              		.loc 1 761 0 is_stmt 0 discriminator 1
 2157 0be8 114B     		ldr	r3, .L173
 2158 0bea 9B6A     		ldr	r3, [r3, #40]
 2159 0bec 002B     		cmp	r3, #0
 2160 0bee 02D0     		beq	.L169
 762:../src/lib/lpc177x_8x/Drivers/source/lpc177x_8x_emac.c ****         {
 763:../src/lib/lpc177x_8x/Drivers/source/lpc177x_8x_emac.c ****              EMAC_Configs.pfnSoftInt();
 2161              		.loc 1 763 0 is_stmt 1
 2162 0bf0 0F4B     		ldr	r3, .L173
 2163 0bf2 9B6A     		ldr	r3, [r3, #40]
 2164 0bf4 9847     		blx	r3
 2165              	.L169:
 764:../src/lib/lpc177x_8x/Drivers/source/lpc177x_8x_emac.c ****         }
 765:../src/lib/lpc177x_8x/Drivers/source/lpc177x_8x_emac.c **** 
 766:../src/lib/lpc177x_8x/Drivers/source/lpc177x_8x_emac.c ****         if(int_stat & EMAC_INT_WAKEUP && (EMAC_Configs.pfnWakeup!= NULL))
 2166              		.loc 1 766 0
 2167 0bf6 FB69     		ldr	r3, [r7, #28]
 2168 0bf8 03F40053 		and	r3, r3, #8192
 2169 0bfc 002B     		cmp	r3, #0
 2170 0bfe 06D0     		beq	.L134
 2171              		.loc 1 766 0 is_stmt 0 discriminator 1
 2172 0c00 0B4B     		ldr	r3, .L173
 2173 0c02 5B6A     		ldr	r3, [r3, #36]
 2174 0c04 002B     		cmp	r3, #0
 2175 0c06 02D0     		beq	.L134
 767:../src/lib/lpc177x_8x/Drivers/source/lpc177x_8x_emac.c ****         {
 768:../src/lib/lpc177x_8x/Drivers/source/lpc177x_8x_emac.c ****              EMAC_Configs.pfnWakeup();
 2176              		.loc 1 768 0 is_stmt 1
 2177 0c08 094B     		ldr	r3, .L173
 2178 0c0a 5B6A     		ldr	r3, [r3, #36]
 2179 0c0c 9847     		blx	r3
 2180              	.L134:
 651:../src/lib/lpc177x_8x/Drivers/source/lpc177x_8x_emac.c ****     while ((int_stat = (LPC_EMAC->IntStatus & LPC_EMAC->IntEnable)) != 0)
 2181              		.loc 1 651 0 discriminator 1
 2182 0c0e 0C4B     		ldr	r3, .L173+16
 2183 0c10 D3F8E02F 		ldr	r2, [r3, #4064]
 2184 0c14 0A4B     		ldr	r3, .L173+16
 2185 0c16 D3F8E43F 		ldr	r3, [r3, #4068]
 2186 0c1a 1340     		ands	r3, r3, r2
 2187 0c1c FB61     		str	r3, [r7, #28]
 2188 0c1e FB69     		ldr	r3, [r7, #28]
 2189 0c20 002B     		cmp	r3, #0
 2190 0c22 7FF45FAE 		bne	.L170
 769:../src/lib/lpc177x_8x/Drivers/source/lpc177x_8x_emac.c ****         }
 770:../src/lib/lpc177x_8x/Drivers/source/lpc177x_8x_emac.c ****      
 771:../src/lib/lpc177x_8x/Drivers/source/lpc177x_8x_emac.c ****     }
 772:../src/lib/lpc177x_8x/Drivers/source/lpc177x_8x_emac.c **** }
 2191              		.loc 1 772 0
 2192 0c26 07F12407 		add	r7, r7, #36
 2193 0c2a BD46     		mov	sp, r7
 2194 0c2c 90BD     		pop	{r4, r7, pc}
 2195              	.L174:
 2196 0c2e 00BF     		.align	2
 2197              	.L173:
 2198 0c30 00000000 		.word	EMAC_Configs
 2199 0c34 30180000 		.word	sbCurrFrameID
 2200 0c38 2C000000 		.word	saFrameBuffers
 2201 0c3c 2C180000 		.word	sulCurrFrameSz
 2202 0c40 00400820 		.word	537411584
 2203              		.cfi_endproc
 2204              	.LFE77:
 2206              		.align	2
 2207              		.global	EMAC_SetHashFilter
 2208              		.thumb
 2209              		.thumb_func
 2211              	EMAC_SetHashFilter:
 2212              	.LFB78:
 773:../src/lib/lpc177x_8x/Drivers/source/lpc177x_8x_emac.c **** #endif /*EMAC_INT_ENABLE*/
 774:../src/lib/lpc177x_8x/Drivers/source/lpc177x_8x_emac.c **** 
 775:../src/lib/lpc177x_8x/Drivers/source/lpc177x_8x_emac.c **** /*********************************************************************//**
 776:../src/lib/lpc177x_8x/Drivers/source/lpc177x_8x_emac.c ****  * @brief       Enable/Disable hash filter functionality for specified destination
 777:../src/lib/lpc177x_8x/Drivers/source/lpc177x_8x_emac.c ****  *              MAC address in EMAC module
 778:../src/lib/lpc177x_8x/Drivers/source/lpc177x_8x_emac.c ****  * @param[in]   dstMAC_addr    Pointer to the first MAC destination address, should
 779:../src/lib/lpc177x_8x/Drivers/source/lpc177x_8x_emac.c ****  *                  be 6-bytes length, in order LSB to the MSB
 780:../src/lib/lpc177x_8x/Drivers/source/lpc177x_8x_emac.c ****  * @param[in]   NewState        New State of this command, should be:
 781:../src/lib/lpc177x_8x/Drivers/source/lpc177x_8x_emac.c ****  *                  - ENABLE.
 782:../src/lib/lpc177x_8x/Drivers/source/lpc177x_8x_emac.c ****  *                  - DISABLE.
 783:../src/lib/lpc177x_8x/Drivers/source/lpc177x_8x_emac.c ****  * @return      None
 784:../src/lib/lpc177x_8x/Drivers/source/lpc177x_8x_emac.c ****  *
 785:../src/lib/lpc177x_8x/Drivers/source/lpc177x_8x_emac.c ****  * Note:
 786:../src/lib/lpc177x_8x/Drivers/source/lpc177x_8x_emac.c ****  * The standard Ethernet cyclic redundancy check (CRC) function is calculated from
 787:../src/lib/lpc177x_8x/Drivers/source/lpc177x_8x_emac.c ****  * the 6 byte destination address in the Ethernet frame (this CRC is calculated
 788:../src/lib/lpc177x_8x/Drivers/source/lpc177x_8x_emac.c ****  * anyway as part of calculating the CRC of the whole frame), then bits [28:23] out of
 789:../src/lib/lpc177x_8x/Drivers/source/lpc177x_8x_emac.c ****  * the 32 bits CRC result are taken to form the hash. The 6 bit hash is used to access
 790:../src/lib/lpc177x_8x/Drivers/source/lpc177x_8x_emac.c ****  * the hash table: it is used as an index in the 64 bit HashFilter register that has been
 791:../src/lib/lpc177x_8x/Drivers/source/lpc177x_8x_emac.c ****  * programmed with accept values. If the selected accept value is 1, the frame is
 792:../src/lib/lpc177x_8x/Drivers/source/lpc177x_8x_emac.c ****  * accepted.
 793:../src/lib/lpc177x_8x/Drivers/source/lpc177x_8x_emac.c ****  **********************************************************************/
 794:../src/lib/lpc177x_8x/Drivers/source/lpc177x_8x_emac.c **** void EMAC_SetHashFilter(uint8_t dstMAC_addr[], FunctionalState NewState)
 795:../src/lib/lpc177x_8x/Drivers/source/lpc177x_8x_emac.c **** {
 2213              		.loc 1 795 0
 2214              		.cfi_startproc
 2215              		@ args = 0, pretend = 0, frame = 24
 2216              		@ frame_needed = 1, uses_anonymous_args = 0
 2217 0c44 80B5     		push	{r7, lr}
 2218              	.LCFI64:
 2219              		.cfi_def_cfa_offset 8
 2220              		.cfi_offset 7, -8
 2221              		.cfi_offset 14, -4
 2222 0c46 86B0     		sub	sp, sp, #24
 2223              	.LCFI65:
 2224              		.cfi_def_cfa_offset 32
 2225 0c48 00AF     		add	r7, sp, #0
 2226              	.LCFI66:
 2227              		.cfi_def_cfa_register 7
 2228 0c4a 7860     		str	r0, [r7, #4]
 2229 0c4c 0B46     		mov	r3, r1
 2230 0c4e FB70     		strb	r3, [r7, #3]
 796:../src/lib/lpc177x_8x/Drivers/source/lpc177x_8x_emac.c ****     uint32_t *pReg;
 797:../src/lib/lpc177x_8x/Drivers/source/lpc177x_8x_emac.c ****     uint32_t tmp;
 798:../src/lib/lpc177x_8x/Drivers/source/lpc177x_8x_emac.c ****     int32_t crc;
 799:../src/lib/lpc177x_8x/Drivers/source/lpc177x_8x_emac.c **** 
 800:../src/lib/lpc177x_8x/Drivers/source/lpc177x_8x_emac.c ****     // Calculate the CRC from the destination MAC address
 801:../src/lib/lpc177x_8x/Drivers/source/lpc177x_8x_emac.c ****     crc = EMAC_CRCCalc(dstMAC_addr, 6);
 2231              		.loc 1 801 0
 2232 0c50 7868     		ldr	r0, [r7, #4]
 2233 0c52 4FF00601 		mov	r1, #6
 2234 0c56 FFF7FEFF 		bl	EMAC_CRCCalc
 2235 0c5a 7861     		str	r0, [r7, #20]
 802:../src/lib/lpc177x_8x/Drivers/source/lpc177x_8x_emac.c ****     // Extract the value from CRC to get index value for hash filter table
 803:../src/lib/lpc177x_8x/Drivers/source/lpc177x_8x_emac.c ****     crc = (crc >> 23) & 0x3F;
 2236              		.loc 1 803 0
 2237 0c5c 7B69     		ldr	r3, [r7, #20]
 2238 0c5e 4FEAE353 		asr	r3, r3, #23
 2239 0c62 03F03F03 		and	r3, r3, #63
 2240 0c66 7B61     		str	r3, [r7, #20]
 804:../src/lib/lpc177x_8x/Drivers/source/lpc177x_8x_emac.c **** 
 805:../src/lib/lpc177x_8x/Drivers/source/lpc177x_8x_emac.c ****     pReg = (crc > 31) ? ((uint32_t *)&LPC_EMAC->HashFilterH) \
 806:../src/lib/lpc177x_8x/Drivers/source/lpc177x_8x_emac.c ****                         : ((uint32_t *)&LPC_EMAC->HashFilterL);
 2241              		.loc 1 806 0
 2242 0c68 7B69     		ldr	r3, [r7, #20]
 2243 0c6a 1F2B     		cmp	r3, #31
 2244 0c6c 01DD     		ble	.L176
 2245              		.loc 1 806 0 is_stmt 0 discriminator 1
 2246 0c6e 154B     		ldr	r3, .L182
 2247 0c70 00E0     		b	.L177
 2248              	.L176:
 2249              		.loc 1 806 0 discriminator 2
 2250 0c72 154B     		ldr	r3, .L182+4
 2251              	.L177:
 805:../src/lib/lpc177x_8x/Drivers/source/lpc177x_8x_emac.c ****     pReg = (crc > 31) ? ((uint32_t *)&LPC_EMAC->HashFilterH) \
 2252              		.loc 1 805 0 is_stmt 1
 2253 0c74 3B61     		str	r3, [r7, #16]
 807:../src/lib/lpc177x_8x/Drivers/source/lpc177x_8x_emac.c ****     tmp = (crc > 31) ? (crc - 32) : crc;
 2254              		.loc 1 807 0
 2255 0c76 7B69     		ldr	r3, [r7, #20]
 2256 0c78 1F2B     		cmp	r3, #31
 2257 0c7a 03DD     		ble	.L178
 2258              		.loc 1 807 0 is_stmt 0 discriminator 1
 2259 0c7c 7B69     		ldr	r3, [r7, #20]
 2260 0c7e A3F12003 		sub	r3, r3, #32
 2261 0c82 00E0     		b	.L179
 2262              	.L178:
 2263              		.loc 1 807 0 discriminator 2
 2264 0c84 7B69     		ldr	r3, [r7, #20]
 2265              	.L179:
 2266              		.loc 1 807 0 discriminator 3
 2267 0c86 FB60     		str	r3, [r7, #12]
 808:../src/lib/lpc177x_8x/Drivers/source/lpc177x_8x_emac.c ****     if (NewState == ENABLE)
 2268              		.loc 1 808 0 is_stmt 1 discriminator 3
 2269 0c88 FB78     		ldrb	r3, [r7, #3]	@ zero_extendqisi2
 2270 0c8a 012B     		cmp	r3, #1
 2271 0c8c 0AD1     		bne	.L180
 809:../src/lib/lpc177x_8x/Drivers/source/lpc177x_8x_emac.c ****     {
 810:../src/lib/lpc177x_8x/Drivers/source/lpc177x_8x_emac.c ****         (*pReg) |= (1UL << tmp);
 2272              		.loc 1 810 0
 2273 0c8e 3B69     		ldr	r3, [r7, #16]
 2274 0c90 1A68     		ldr	r2, [r3, #0]
 2275 0c92 FB68     		ldr	r3, [r7, #12]
 2276 0c94 4FF00101 		mov	r1, #1
 2277 0c98 01FA03F3 		lsl	r3, r1, r3
 2278 0c9c 1A43     		orrs	r2, r2, r3
 2279 0c9e 3B69     		ldr	r3, [r7, #16]
 2280 0ca0 1A60     		str	r2, [r3, #0]
 2281 0ca2 0BE0     		b	.L175
 2282              	.L180:
 811:../src/lib/lpc177x_8x/Drivers/source/lpc177x_8x_emac.c ****     }
 812:../src/lib/lpc177x_8x/Drivers/source/lpc177x_8x_emac.c ****     else
 813:../src/lib/lpc177x_8x/Drivers/source/lpc177x_8x_emac.c ****     {
 814:../src/lib/lpc177x_8x/Drivers/source/lpc177x_8x_emac.c ****         (*pReg) &= ~(1UL << tmp);
 2283              		.loc 1 814 0
 2284 0ca4 3B69     		ldr	r3, [r7, #16]
 2285 0ca6 1A68     		ldr	r2, [r3, #0]
 2286 0ca8 FB68     		ldr	r3, [r7, #12]
 2287 0caa 4FF00101 		mov	r1, #1
 2288 0cae 01FA03F3 		lsl	r3, r1, r3
 2289 0cb2 6FEA0303 		mvn	r3, r3
 2290 0cb6 1A40     		ands	r2, r2, r3
 2291 0cb8 3B69     		ldr	r3, [r7, #16]
 2292 0cba 1A60     		str	r2, [r3, #0]
 2293              	.L175:
 815:../src/lib/lpc177x_8x/Drivers/source/lpc177x_8x_emac.c ****     }
 816:../src/lib/lpc177x_8x/Drivers/source/lpc177x_8x_emac.c ****     
 817:../src/lib/lpc177x_8x/Drivers/source/lpc177x_8x_emac.c **** }
 2294              		.loc 1 817 0
 2295 0cbc 07F11807 		add	r7, r7, #24
 2296 0cc0 BD46     		mov	sp, r7
 2297 0cc2 80BD     		pop	{r7, pc}
 2298              	.L183:
 2299              		.align	2
 2300              	.L182:
 2301 0cc4 14420820 		.word	537412116
 2302 0cc8 10420820 		.word	537412112
 2303              		.cfi_endproc
 2304              	.LFE78:
 2306              		.align	2
 2307              		.global	EMAC_CRCCalc
 2308              		.thumb
 2309              		.thumb_func
 2311              	EMAC_CRCCalc:
 2312              	.LFB79:
 818:../src/lib/lpc177x_8x/Drivers/source/lpc177x_8x_emac.c **** 
 819:../src/lib/lpc177x_8x/Drivers/source/lpc177x_8x_emac.c **** 
 820:../src/lib/lpc177x_8x/Drivers/source/lpc177x_8x_emac.c **** /*********************************************************************//**
 821:../src/lib/lpc177x_8x/Drivers/source/lpc177x_8x_emac.c ****  * @brief       Calculates CRC code for number of bytes in the frame
 822:../src/lib/lpc177x_8x/Drivers/source/lpc177x_8x_emac.c ****  * @param[in]   frame_no_fcs    Pointer to the first byte of the frame
 823:../src/lib/lpc177x_8x/Drivers/source/lpc177x_8x_emac.c ****  * @param[in]   frame_len       length of the frame without the FCS
 824:../src/lib/lpc177x_8x/Drivers/source/lpc177x_8x_emac.c ****  * @return      the CRC as a 32 bit integer
 825:../src/lib/lpc177x_8x/Drivers/source/lpc177x_8x_emac.c ****  **********************************************************************/
 826:../src/lib/lpc177x_8x/Drivers/source/lpc177x_8x_emac.c **** int32_t EMAC_CRCCalc(uint8_t frame_no_fcs[], int32_t frame_len)
 827:../src/lib/lpc177x_8x/Drivers/source/lpc177x_8x_emac.c **** {
 2313              		.loc 1 827 0
 2314              		.cfi_startproc
 2315              		@ args = 0, pretend = 0, frame = 40
 2316              		@ frame_needed = 1, uses_anonymous_args = 0
 2317              		@ link register save eliminated.
 2318 0ccc 80B4     		push	{r7}
 2319              	.LCFI67:
 2320              		.cfi_def_cfa_offset 4
 2321              		.cfi_offset 7, -4
 2322 0cce 8BB0     		sub	sp, sp, #44
 2323              	.LCFI68:
 2324              		.cfi_def_cfa_offset 48
 2325 0cd0 00AF     		add	r7, sp, #0
 2326              	.LCFI69:
 2327              		.cfi_def_cfa_register 7
 2328 0cd2 7860     		str	r0, [r7, #4]
 2329 0cd4 3960     		str	r1, [r7, #0]
 828:../src/lib/lpc177x_8x/Drivers/source/lpc177x_8x_emac.c ****     int i;      // iterator
 829:../src/lib/lpc177x_8x/Drivers/source/lpc177x_8x_emac.c ****     int j;      // another iterator
 830:../src/lib/lpc177x_8x/Drivers/source/lpc177x_8x_emac.c ****     char byte;  // current byte
 831:../src/lib/lpc177x_8x/Drivers/source/lpc177x_8x_emac.c ****     int crc;    // CRC result
 832:../src/lib/lpc177x_8x/Drivers/source/lpc177x_8x_emac.c ****     int q0, q1, q2, q3; // temporary variables
 833:../src/lib/lpc177x_8x/Drivers/source/lpc177x_8x_emac.c **** 
 834:../src/lib/lpc177x_8x/Drivers/source/lpc177x_8x_emac.c ****     crc = 0xFFFFFFFF;
 2330              		.loc 1 834 0
 2331 0cd6 4FF0FF33 		mov	r3, #-1
 2332 0cda BB61     		str	r3, [r7, #24]
 835:../src/lib/lpc177x_8x/Drivers/source/lpc177x_8x_emac.c **** 
 836:../src/lib/lpc177x_8x/Drivers/source/lpc177x_8x_emac.c ****     for (i = 0; i < frame_len; i++)
 2333              		.loc 1 836 0
 2334 0cdc 4FF00003 		mov	r3, #0
 2335 0ce0 7B62     		str	r3, [r7, #36]
 2336 0ce2 6AE0     		b	.L185
 2337              	.L196:
 837:../src/lib/lpc177x_8x/Drivers/source/lpc177x_8x_emac.c ****     {
 838:../src/lib/lpc177x_8x/Drivers/source/lpc177x_8x_emac.c ****         byte = *frame_no_fcs++;
 2338              		.loc 1 838 0
 2339 0ce4 7B68     		ldr	r3, [r7, #4]
 2340 0ce6 1B78     		ldrb	r3, [r3, #0]
 2341 0ce8 FB77     		strb	r3, [r7, #31]
 2342 0cea 7B68     		ldr	r3, [r7, #4]
 2343 0cec 03F10103 		add	r3, r3, #1
 2344 0cf0 7B60     		str	r3, [r7, #4]
 839:../src/lib/lpc177x_8x/Drivers/source/lpc177x_8x_emac.c ****         for (j = 0; j < 2; j++)
 2345              		.loc 1 839 0
 2346 0cf2 4FF00003 		mov	r3, #0
 2347 0cf6 3B62     		str	r3, [r7, #32]
 2348 0cf8 58E0     		b	.L186
 2349              	.L195:
 840:../src/lib/lpc177x_8x/Drivers/source/lpc177x_8x_emac.c ****         {
 841:../src/lib/lpc177x_8x/Drivers/source/lpc177x_8x_emac.c ****             if (((crc >> 28) ^ (byte >> 3)) & 0x00000001)
 2350              		.loc 1 841 0
 2351 0cfa BB69     		ldr	r3, [r7, #24]
 2352 0cfc 4FEA2372 		asr	r2, r3, #28
 2353 0d00 FB7F     		ldrb	r3, [r7, #31]	@ zero_extendqisi2
 2354 0d02 4FEAD303 		lsr	r3, r3, #3
 2355 0d06 DBB2     		uxtb	r3, r3
 2356 0d08 5340     		eors	r3, r3, r2
 2357 0d0a 03F00103 		and	r3, r3, #1
 2358 0d0e 002B     		cmp	r3, #0
 2359 0d10 02D0     		beq	.L187
 842:../src/lib/lpc177x_8x/Drivers/source/lpc177x_8x_emac.c ****             {
 843:../src/lib/lpc177x_8x/Drivers/source/lpc177x_8x_emac.c ****                 q3 = 0x04C11DB7;
 2360              		.loc 1 843 0
 2361 0d12 2F4B     		ldr	r3, .L198
 2362 0d14 BB60     		str	r3, [r7, #8]
 2363 0d16 02E0     		b	.L188
 2364              	.L187:
 844:../src/lib/lpc177x_8x/Drivers/source/lpc177x_8x_emac.c ****             }
 845:../src/lib/lpc177x_8x/Drivers/source/lpc177x_8x_emac.c ****             else
 846:../src/lib/lpc177x_8x/Drivers/source/lpc177x_8x_emac.c ****             {
 847:../src/lib/lpc177x_8x/Drivers/source/lpc177x_8x_emac.c ****                 q3 = 0x00000000;
 2365              		.loc 1 847 0
 2366 0d18 4FF00003 		mov	r3, #0
 2367 0d1c BB60     		str	r3, [r7, #8]
 2368              	.L188:
 848:../src/lib/lpc177x_8x/Drivers/source/lpc177x_8x_emac.c ****             }
 849:../src/lib/lpc177x_8x/Drivers/source/lpc177x_8x_emac.c **** 
 850:../src/lib/lpc177x_8x/Drivers/source/lpc177x_8x_emac.c ****             if (((crc >> 29) ^ (byte >> 2)) & 0x00000001)
 2369              		.loc 1 850 0
 2370 0d1e BB69     		ldr	r3, [r7, #24]
 2371 0d20 4FEA6372 		asr	r2, r3, #29
 2372 0d24 FB7F     		ldrb	r3, [r7, #31]	@ zero_extendqisi2
 2373 0d26 4FEA9303 		lsr	r3, r3, #2
 2374 0d2a DBB2     		uxtb	r3, r3
 2375 0d2c 5340     		eors	r3, r3, r2
 2376 0d2e 03F00103 		and	r3, r3, #1
 2377 0d32 002B     		cmp	r3, #0
 2378 0d34 02D0     		beq	.L189
 851:../src/lib/lpc177x_8x/Drivers/source/lpc177x_8x_emac.c ****             {
 852:../src/lib/lpc177x_8x/Drivers/source/lpc177x_8x_emac.c ****                 q2 = 0x09823B6E;
 2379              		.loc 1 852 0
 2380 0d36 274B     		ldr	r3, .L198+4
 2381 0d38 FB60     		str	r3, [r7, #12]
 2382 0d3a 02E0     		b	.L190
 2383              	.L189:
 853:../src/lib/lpc177x_8x/Drivers/source/lpc177x_8x_emac.c ****             }
 854:../src/lib/lpc177x_8x/Drivers/source/lpc177x_8x_emac.c ****             else
 855:../src/lib/lpc177x_8x/Drivers/source/lpc177x_8x_emac.c ****             {
 856:../src/lib/lpc177x_8x/Drivers/source/lpc177x_8x_emac.c ****                 q2 = 0x00000000;
 2384              		.loc 1 856 0
 2385 0d3c 4FF00003 		mov	r3, #0
 2386 0d40 FB60     		str	r3, [r7, #12]
 2387              	.L190:
 857:../src/lib/lpc177x_8x/Drivers/source/lpc177x_8x_emac.c ****             }
 858:../src/lib/lpc177x_8x/Drivers/source/lpc177x_8x_emac.c **** 
 859:../src/lib/lpc177x_8x/Drivers/source/lpc177x_8x_emac.c ****             if (((crc >> 30) ^ (byte >> 1)) & 0x00000001)
 2388              		.loc 1 859 0
 2389 0d42 BB69     		ldr	r3, [r7, #24]
 2390 0d44 4FEAA372 		asr	r2, r3, #30
 2391 0d48 FB7F     		ldrb	r3, [r7, #31]	@ zero_extendqisi2
 2392 0d4a 4FEA5303 		lsr	r3, r3, #1
 2393 0d4e DBB2     		uxtb	r3, r3
 2394 0d50 5340     		eors	r3, r3, r2
 2395 0d52 03F00103 		and	r3, r3, #1
 2396 0d56 002B     		cmp	r3, #0
 2397 0d58 02D0     		beq	.L191
 860:../src/lib/lpc177x_8x/Drivers/source/lpc177x_8x_emac.c ****             {
 861:../src/lib/lpc177x_8x/Drivers/source/lpc177x_8x_emac.c ****                 q1 = 0x130476DC;
 2398              		.loc 1 861 0
 2399 0d5a 1F4B     		ldr	r3, .L198+8
 2400 0d5c 3B61     		str	r3, [r7, #16]
 2401 0d5e 02E0     		b	.L192
 2402              	.L191:
 862:../src/lib/lpc177x_8x/Drivers/source/lpc177x_8x_emac.c ****             }
 863:../src/lib/lpc177x_8x/Drivers/source/lpc177x_8x_emac.c ****             else
 864:../src/lib/lpc177x_8x/Drivers/source/lpc177x_8x_emac.c ****             {
 865:../src/lib/lpc177x_8x/Drivers/source/lpc177x_8x_emac.c ****                 q1 = 0x00000000;
 2403              		.loc 1 865 0
 2404 0d60 4FF00003 		mov	r3, #0
 2405 0d64 3B61     		str	r3, [r7, #16]
 2406              	.L192:
 866:../src/lib/lpc177x_8x/Drivers/source/lpc177x_8x_emac.c ****             }
 867:../src/lib/lpc177x_8x/Drivers/source/lpc177x_8x_emac.c **** 
 868:../src/lib/lpc177x_8x/Drivers/source/lpc177x_8x_emac.c ****             if (((crc >> 31) ^ (byte >> 0)) & 0x00000001)
 2407              		.loc 1 868 0
 2408 0d66 BB69     		ldr	r3, [r7, #24]
 2409 0d68 4FEAE372 		asr	r2, r3, #31
 2410 0d6c FB7F     		ldrb	r3, [r7, #31]	@ zero_extendqisi2
 2411 0d6e 5340     		eors	r3, r3, r2
 2412 0d70 03F00103 		and	r3, r3, #1
 2413 0d74 002B     		cmp	r3, #0
 2414 0d76 02D0     		beq	.L193
 869:../src/lib/lpc177x_8x/Drivers/source/lpc177x_8x_emac.c ****             {
 870:../src/lib/lpc177x_8x/Drivers/source/lpc177x_8x_emac.c ****                 q0 = 0x2608EDB8;
 2415              		.loc 1 870 0
 2416 0d78 184B     		ldr	r3, .L198+12
 2417 0d7a 7B61     		str	r3, [r7, #20]
 2418 0d7c 02E0     		b	.L194
 2419              	.L193:
 871:../src/lib/lpc177x_8x/Drivers/source/lpc177x_8x_emac.c ****             }
 872:../src/lib/lpc177x_8x/Drivers/source/lpc177x_8x_emac.c ****             else
 873:../src/lib/lpc177x_8x/Drivers/source/lpc177x_8x_emac.c ****             {
 874:../src/lib/lpc177x_8x/Drivers/source/lpc177x_8x_emac.c ****                 q0 = 0x00000000;
 2420              		.loc 1 874 0
 2421 0d7e 4FF00003 		mov	r3, #0
 2422 0d82 7B61     		str	r3, [r7, #20]
 2423              	.L194:
 875:../src/lib/lpc177x_8x/Drivers/source/lpc177x_8x_emac.c ****             }
 876:../src/lib/lpc177x_8x/Drivers/source/lpc177x_8x_emac.c **** 
 877:../src/lib/lpc177x_8x/Drivers/source/lpc177x_8x_emac.c ****             crc = (crc << 4) ^ q3 ^ q2 ^ q1 ^ q0;
 2424              		.loc 1 877 0
 2425 0d84 BB69     		ldr	r3, [r7, #24]
 2426 0d86 4FEA0312 		lsl	r2, r3, #4
 2427 0d8a BB68     		ldr	r3, [r7, #8]
 2428 0d8c 5A40     		eors	r2, r2, r3
 2429 0d8e FB68     		ldr	r3, [r7, #12]
 2430 0d90 5A40     		eors	r2, r2, r3
 2431 0d92 3B69     		ldr	r3, [r7, #16]
 2432 0d94 5A40     		eors	r2, r2, r3
 2433 0d96 7B69     		ldr	r3, [r7, #20]
 2434 0d98 5340     		eors	r3, r3, r2
 2435 0d9a BB61     		str	r3, [r7, #24]
 878:../src/lib/lpc177x_8x/Drivers/source/lpc177x_8x_emac.c **** 
 879:../src/lib/lpc177x_8x/Drivers/source/lpc177x_8x_emac.c ****             byte >>= 4;
 2436              		.loc 1 879 0
 2437 0d9c FB7F     		ldrb	r3, [r7, #31]	@ zero_extendqisi2
 2438 0d9e 4FEA1313 		lsr	r3, r3, #4
 2439 0da2 FB77     		strb	r3, [r7, #31]
 839:../src/lib/lpc177x_8x/Drivers/source/lpc177x_8x_emac.c ****         for (j = 0; j < 2; j++)
 2440              		.loc 1 839 0
 2441 0da4 3B6A     		ldr	r3, [r7, #32]
 2442 0da6 03F10103 		add	r3, r3, #1
 2443 0daa 3B62     		str	r3, [r7, #32]
 2444              	.L186:
 839:../src/lib/lpc177x_8x/Drivers/source/lpc177x_8x_emac.c ****         for (j = 0; j < 2; j++)
 2445              		.loc 1 839 0 is_stmt 0 discriminator 1
 2446 0dac 3B6A     		ldr	r3, [r7, #32]
 2447 0dae 012B     		cmp	r3, #1
 2448 0db0 A3DD     		ble	.L195
 836:../src/lib/lpc177x_8x/Drivers/source/lpc177x_8x_emac.c ****     for (i = 0; i < frame_len; i++)
 2449              		.loc 1 836 0 is_stmt 1
 2450 0db2 7B6A     		ldr	r3, [r7, #36]
 2451 0db4 03F10103 		add	r3, r3, #1
 2452 0db8 7B62     		str	r3, [r7, #36]
 2453              	.L185:
 836:../src/lib/lpc177x_8x/Drivers/source/lpc177x_8x_emac.c ****     for (i = 0; i < frame_len; i++)
 2454              		.loc 1 836 0 is_stmt 0 discriminator 1
 2455 0dba 7A6A     		ldr	r2, [r7, #36]
 2456 0dbc 3B68     		ldr	r3, [r7, #0]
 2457 0dbe 9A42     		cmp	r2, r3
 2458 0dc0 90DB     		blt	.L196
 880:../src/lib/lpc177x_8x/Drivers/source/lpc177x_8x_emac.c ****         }
 881:../src/lib/lpc177x_8x/Drivers/source/lpc177x_8x_emac.c ****     }
 882:../src/lib/lpc177x_8x/Drivers/source/lpc177x_8x_emac.c **** 
 883:../src/lib/lpc177x_8x/Drivers/source/lpc177x_8x_emac.c ****     return crc;
 2459              		.loc 1 883 0 is_stmt 1
 2460 0dc2 BB69     		ldr	r3, [r7, #24]
 884:../src/lib/lpc177x_8x/Drivers/source/lpc177x_8x_emac.c **** }
 2461              		.loc 1 884 0
 2462 0dc4 1846     		mov	r0, r3
 2463 0dc6 07F12C07 		add	r7, r7, #44
 2464 0dca BD46     		mov	sp, r7
 2465 0dcc 80BC     		pop	{r7}
 2466 0dce 7047     		bx	lr
 2467              	.L199:
 2468              		.align	2
 2469              	.L198:
 2470 0dd0 B71DC104 		.word	79764919
 2471 0dd4 6E3B8209 		.word	159529838
 2472 0dd8 DC760413 		.word	319059676
 2473 0ddc B8ED0826 		.word	638119352
 2474              		.cfi_endproc
 2475              	.LFE79:
 2477              		.align	2
 2478              		.global	EMAC_SetFilterMode
 2479              		.thumb
 2480              		.thumb_func
 2482              	EMAC_SetFilterMode:
 2483              	.LFB80:
 885:../src/lib/lpc177x_8x/Drivers/source/lpc177x_8x_emac.c **** 
 886:../src/lib/lpc177x_8x/Drivers/source/lpc177x_8x_emac.c **** /*********************************************************************//**
 887:../src/lib/lpc177x_8x/Drivers/source/lpc177x_8x_emac.c ****  * @brief       Enable/Disable Filter mode for each specified type EMAC peripheral
 888:../src/lib/lpc177x_8x/Drivers/source/lpc177x_8x_emac.c ****  * @param[in]   ulFilterMode    Filter mode, should be:
 889:../src/lib/lpc177x_8x/Drivers/source/lpc177x_8x_emac.c ****  *                              - EMAC_RFC_UCAST_EN: all frames of unicast types
 890:../src/lib/lpc177x_8x/Drivers/source/lpc177x_8x_emac.c ****  *                              will be accepted
 891:../src/lib/lpc177x_8x/Drivers/source/lpc177x_8x_emac.c ****  *                              - EMAC_RFC_BCAST_EN: broadcast frame will be
 892:../src/lib/lpc177x_8x/Drivers/source/lpc177x_8x_emac.c ****  *                              accepted
 893:../src/lib/lpc177x_8x/Drivers/source/lpc177x_8x_emac.c ****  *                              - EMAC_RFC_MCAST_EN: all frames of multicast
 894:../src/lib/lpc177x_8x/Drivers/source/lpc177x_8x_emac.c ****  *                              types will be accepted
 895:../src/lib/lpc177x_8x/Drivers/source/lpc177x_8x_emac.c ****  *                              - EMAC_RFC_UCAST_HASH_EN: The imperfect hash
 896:../src/lib/lpc177x_8x/Drivers/source/lpc177x_8x_emac.c ****  *                              filter will be applied to unicast addresses
 897:../src/lib/lpc177x_8x/Drivers/source/lpc177x_8x_emac.c ****  *                              - EMAC_RFC_MCAST_HASH_EN: The imperfect hash
 898:../src/lib/lpc177x_8x/Drivers/source/lpc177x_8x_emac.c ****  *                              filter will be applied to multicast addresses
 899:../src/lib/lpc177x_8x/Drivers/source/lpc177x_8x_emac.c ****  *                              - EMAC_RFC_PERFECT_EN: the destination address
 900:../src/lib/lpc177x_8x/Drivers/source/lpc177x_8x_emac.c ****  *                              will be compared with the 6 byte station address
 901:../src/lib/lpc177x_8x/Drivers/source/lpc177x_8x_emac.c ****  *                              programmed in the station address by the filter
 902:../src/lib/lpc177x_8x/Drivers/source/lpc177x_8x_emac.c ****  *                              - EMAC_RFC_MAGP_WOL_EN: the result of the magic
 903:../src/lib/lpc177x_8x/Drivers/source/lpc177x_8x_emac.c ****  *                              packet filter will generate a WoL interrupt when
 904:../src/lib/lpc177x_8x/Drivers/source/lpc177x_8x_emac.c ****  *                              there is a match
 905:../src/lib/lpc177x_8x/Drivers/source/lpc177x_8x_emac.c ****  *                              - EMAC_RFC_PFILT_WOL_EN: the result of the perfect address
 906:../src/lib/lpc177x_8x/Drivers/source/lpc177x_8x_emac.c ****  *                              matching filter and the imperfect hash filter will
 907:../src/lib/lpc177x_8x/Drivers/source/lpc177x_8x_emac.c ****  *                              generate a WoL interrupt when there is a match
 908:../src/lib/lpc177x_8x/Drivers/source/lpc177x_8x_emac.c ****  * @param[in]   NewState    New State of this command, should be:
 909:../src/lib/lpc177x_8x/Drivers/source/lpc177x_8x_emac.c ****  *                              - ENABLE
 910:../src/lib/lpc177x_8x/Drivers/source/lpc177x_8x_emac.c ****  *                              - DISABLE
 911:../src/lib/lpc177x_8x/Drivers/source/lpc177x_8x_emac.c ****  * @return      None
 912:../src/lib/lpc177x_8x/Drivers/source/lpc177x_8x_emac.c ****  **********************************************************************/
 913:../src/lib/lpc177x_8x/Drivers/source/lpc177x_8x_emac.c **** void EMAC_SetFilterMode(uint32_t ulFilterMode, FunctionalState NewState)
 914:../src/lib/lpc177x_8x/Drivers/source/lpc177x_8x_emac.c **** {
 2484              		.loc 1 914 0
 2485              		.cfi_startproc
 2486              		@ args = 0, pretend = 0, frame = 8
 2487              		@ frame_needed = 1, uses_anonymous_args = 0
 2488              		@ link register save eliminated.
 2489 0de0 80B4     		push	{r7}
 2490              	.LCFI70:
 2491              		.cfi_def_cfa_offset 4
 2492              		.cfi_offset 7, -4
 2493 0de2 83B0     		sub	sp, sp, #12
 2494              	.LCFI71:
 2495              		.cfi_def_cfa_offset 16
 2496 0de4 00AF     		add	r7, sp, #0
 2497              	.LCFI72:
 2498              		.cfi_def_cfa_register 7
 2499 0de6 7860     		str	r0, [r7, #4]
 2500 0de8 0B46     		mov	r3, r1
 2501 0dea FB70     		strb	r3, [r7, #3]
 915:../src/lib/lpc177x_8x/Drivers/source/lpc177x_8x_emac.c ****     if (NewState == ENABLE)
 2502              		.loc 1 915 0
 2503 0dec FB78     		ldrb	r3, [r7, #3]	@ zero_extendqisi2
 2504 0dee 012B     		cmp	r3, #1
 2505 0df0 2CD1     		bne	.L201
 916:../src/lib/lpc177x_8x/Drivers/source/lpc177x_8x_emac.c ****     {
 917:../src/lib/lpc177x_8x/Drivers/source/lpc177x_8x_emac.c ****         LPC_EMAC->RxFilterCtrl |= ulFilterMode;
 2506              		.loc 1 917 0
 2507 0df2 1E4B     		ldr	r3, .L204
 2508 0df4 1D4A     		ldr	r2, .L204
 2509 0df6 D2F80012 		ldr	r1, [r2, #512]
 2510 0dfa 7A68     		ldr	r2, [r7, #4]
 2511 0dfc 0A43     		orrs	r2, r2, r1
 2512 0dfe C3F80022 		str	r2, [r3, #512]
 918:../src/lib/lpc177x_8x/Drivers/source/lpc177x_8x_emac.c **** 
 919:../src/lib/lpc177x_8x/Drivers/source/lpc177x_8x_emac.c ****         if((ulFilterMode & EMAC_RFC_MCAST_HASH_EN) &&
 2513              		.loc 1 919 0
 2514 0e02 7B68     		ldr	r3, [r7, #4]
 2515 0e04 03F01003 		and	r3, r3, #16
 2516 0e08 002B     		cmp	r3, #0
 2517 0e0a 0CD0     		beq	.L202
 920:../src/lib/lpc177x_8x/Drivers/source/lpc177x_8x_emac.c ****             ((ulFilterMode & EMAC_RFC_MCAST_EN) == 0))
 2518              		.loc 1 920 0 discriminator 1
 2519 0e0c 7B68     		ldr	r3, [r7, #4]
 2520 0e0e 03F00403 		and	r3, r3, #4
 919:../src/lib/lpc177x_8x/Drivers/source/lpc177x_8x_emac.c ****         if((ulFilterMode & EMAC_RFC_MCAST_HASH_EN) &&
 2521              		.loc 1 919 0 discriminator 1
 2522 0e12 002B     		cmp	r3, #0
 2523 0e14 07D1     		bne	.L202
 921:../src/lib/lpc177x_8x/Drivers/source/lpc177x_8x_emac.c ****         {
 922:../src/lib/lpc177x_8x/Drivers/source/lpc177x_8x_emac.c ****           LPC_EMAC->RxFilterCtrl &= ~EMAC_RFC_MCAST_EN;
 2524              		.loc 1 922 0
 2525 0e16 154B     		ldr	r3, .L204
 2526 0e18 144A     		ldr	r2, .L204
 2527 0e1a D2F80022 		ldr	r2, [r2, #512]
 2528 0e1e 22F00402 		bic	r2, r2, #4
 2529 0e22 C3F80022 		str	r2, [r3, #512]
 2530              	.L202:
 923:../src/lib/lpc177x_8x/Drivers/source/lpc177x_8x_emac.c ****         }
 924:../src/lib/lpc177x_8x/Drivers/source/lpc177x_8x_emac.c ****         if((ulFilterMode & EMAC_RFC_UCAST_HASH_EN) &&
 2531              		.loc 1 924 0
 2532 0e26 7B68     		ldr	r3, [r7, #4]
 2533 0e28 03F00803 		and	r3, r3, #8
 2534 0e2c 002B     		cmp	r3, #0
 2535 0e2e 17D0     		beq	.L200
 925:../src/lib/lpc177x_8x/Drivers/source/lpc177x_8x_emac.c ****             ((ulFilterMode & EMAC_RFC_UCAST_EN) == 0))
 2536              		.loc 1 925 0 discriminator 1
 2537 0e30 7B68     		ldr	r3, [r7, #4]
 2538 0e32 03F00103 		and	r3, r3, #1
 924:../src/lib/lpc177x_8x/Drivers/source/lpc177x_8x_emac.c ****         if((ulFilterMode & EMAC_RFC_UCAST_HASH_EN) &&
 2539              		.loc 1 924 0 discriminator 1
 2540 0e36 002B     		cmp	r3, #0
 2541 0e38 12D1     		bne	.L200
 926:../src/lib/lpc177x_8x/Drivers/source/lpc177x_8x_emac.c ****         {
 927:../src/lib/lpc177x_8x/Drivers/source/lpc177x_8x_emac.c ****           LPC_EMAC->RxFilterCtrl &= ~EMAC_RFC_UCAST_EN;
 2542              		.loc 1 927 0
 2543 0e3a 0C4B     		ldr	r3, .L204
 2544 0e3c 0B4A     		ldr	r2, .L204
 2545 0e3e D2F80022 		ldr	r2, [r2, #512]
 2546 0e42 22F00102 		bic	r2, r2, #1
 2547 0e46 C3F80022 		str	r2, [r3, #512]
 2548 0e4a 09E0     		b	.L200
 2549              	.L201:
 928:../src/lib/lpc177x_8x/Drivers/source/lpc177x_8x_emac.c ****         }
 929:../src/lib/lpc177x_8x/Drivers/source/lpc177x_8x_emac.c ****     }
 930:../src/lib/lpc177x_8x/Drivers/source/lpc177x_8x_emac.c ****     else
 931:../src/lib/lpc177x_8x/Drivers/source/lpc177x_8x_emac.c ****     {
 932:../src/lib/lpc177x_8x/Drivers/source/lpc177x_8x_emac.c ****         LPC_EMAC->RxFilterCtrl &= ~ulFilterMode;
 2550              		.loc 1 932 0
 2551 0e4c 074B     		ldr	r3, .L204
 2552 0e4e 074A     		ldr	r2, .L204
 2553 0e50 D2F80012 		ldr	r1, [r2, #512]
 2554 0e54 7A68     		ldr	r2, [r7, #4]
 2555 0e56 6FEA0202 		mvn	r2, r2
 2556 0e5a 0A40     		ands	r2, r2, r1
 2557 0e5c C3F80022 		str	r2, [r3, #512]
 2558              	.L200:
 933:../src/lib/lpc177x_8x/Drivers/source/lpc177x_8x_emac.c ****     }
 934:../src/lib/lpc177x_8x/Drivers/source/lpc177x_8x_emac.c **** }
 2559              		.loc 1 934 0
 2560 0e60 07F10C07 		add	r7, r7, #12
 2561 0e64 BD46     		mov	sp, r7
 2562 0e66 80BC     		pop	{r7}
 2563 0e68 7047     		bx	lr
 2564              	.L205:
 2565 0e6a 00BF     		.align	2
 2566              	.L204:
 2567 0e6c 00400820 		.word	537411584
 2568              		.cfi_endproc
 2569              	.LFE80:
 2571              		.align	2
 2572              		.global	EMAC_GetWoLStatus
 2573              		.thumb
 2574              		.thumb_func
 2576              	EMAC_GetWoLStatus:
 2577              	.LFB81:
 935:../src/lib/lpc177x_8x/Drivers/source/lpc177x_8x_emac.c **** 
 936:../src/lib/lpc177x_8x/Drivers/source/lpc177x_8x_emac.c **** /*********************************************************************//**
 937:../src/lib/lpc177x_8x/Drivers/source/lpc177x_8x_emac.c ****  * @brief       Get status of Wake On LAN Filter for each specified
 938:../src/lib/lpc177x_8x/Drivers/source/lpc177x_8x_emac.c ****  *              type in EMAC peripheral, clear this status if it is set
 939:../src/lib/lpc177x_8x/Drivers/source/lpc177x_8x_emac.c ****  * @param[in]   ulFilterMode    WoL Filter mode, should be:
 940:../src/lib/lpc177x_8x/Drivers/source/lpc177x_8x_emac.c ****  *                              - EMAC_WOL_UCAST: unicast frames caused WoL
 941:../src/lib/lpc177x_8x/Drivers/source/lpc177x_8x_emac.c ****  *                              - EMAC_WOL_UCAST: broadcast frame caused WoL
 942:../src/lib/lpc177x_8x/Drivers/source/lpc177x_8x_emac.c ****  *                              - EMAC_WOL_MCAST: multicast frame caused WoL
 943:../src/lib/lpc177x_8x/Drivers/source/lpc177x_8x_emac.c ****  *                              - EMAC_WOL_UCAST_HASH: unicast frame that passes the
 944:../src/lib/lpc177x_8x/Drivers/source/lpc177x_8x_emac.c ****  *                              imperfect hash filter caused WoL
 945:../src/lib/lpc177x_8x/Drivers/source/lpc177x_8x_emac.c ****  *                              - EMAC_WOL_MCAST_HASH: multicast frame that passes the
 946:../src/lib/lpc177x_8x/Drivers/source/lpc177x_8x_emac.c ****  *                              imperfect hash filter caused WoL
 947:../src/lib/lpc177x_8x/Drivers/source/lpc177x_8x_emac.c ****  *                              - EMAC_WOL_PERFECT:perfect address matching filter
 948:../src/lib/lpc177x_8x/Drivers/source/lpc177x_8x_emac.c ****  *                              caused WoL
 949:../src/lib/lpc177x_8x/Drivers/source/lpc177x_8x_emac.c ****  *                              - EMAC_WOL_RX_FILTER: the receive filter caused WoL
 950:../src/lib/lpc177x_8x/Drivers/source/lpc177x_8x_emac.c ****  *                              - EMAC_WOL_MAG_PACKET: the magic packet filter caused WoL
 951:../src/lib/lpc177x_8x/Drivers/source/lpc177x_8x_emac.c ****  * @return      SET/RESET
 952:../src/lib/lpc177x_8x/Drivers/source/lpc177x_8x_emac.c ****  **********************************************************************/
 953:../src/lib/lpc177x_8x/Drivers/source/lpc177x_8x_emac.c **** FlagStatus EMAC_GetWoLStatus(uint32_t ulWoLMode)
 954:../src/lib/lpc177x_8x/Drivers/source/lpc177x_8x_emac.c **** {
 2578              		.loc 1 954 0
 2579              		.cfi_startproc
 2580              		@ args = 0, pretend = 0, frame = 8
 2581              		@ frame_needed = 1, uses_anonymous_args = 0
 2582              		@ link register save eliminated.
 2583 0e70 80B4     		push	{r7}
 2584              	.LCFI73:
 2585              		.cfi_def_cfa_offset 4
 2586              		.cfi_offset 7, -4
 2587 0e72 83B0     		sub	sp, sp, #12
 2588              	.LCFI74:
 2589              		.cfi_def_cfa_offset 16
 2590 0e74 00AF     		add	r7, sp, #0
 2591              	.LCFI75:
 2592              		.cfi_def_cfa_register 7
 2593 0e76 7860     		str	r0, [r7, #4]
 955:../src/lib/lpc177x_8x/Drivers/source/lpc177x_8x_emac.c ****     if (LPC_EMAC->RxFilterWoLStatus & ulWoLMode)
 2594              		.loc 1 955 0
 2595 0e78 0A4B     		ldr	r3, .L209
 2596 0e7a D3F80422 		ldr	r2, [r3, #516]
 2597 0e7e 7B68     		ldr	r3, [r7, #4]
 2598 0e80 1340     		ands	r3, r3, r2
 2599 0e82 002B     		cmp	r3, #0
 2600 0e84 06D0     		beq	.L207
 956:../src/lib/lpc177x_8x/Drivers/source/lpc177x_8x_emac.c ****     {
 957:../src/lib/lpc177x_8x/Drivers/source/lpc177x_8x_emac.c ****         LPC_EMAC->RxFilterWoLClear = ulWoLMode;
 2601              		.loc 1 957 0
 2602 0e86 074B     		ldr	r3, .L209
 2603 0e88 7A68     		ldr	r2, [r7, #4]
 2604 0e8a C3F80822 		str	r2, [r3, #520]
 958:../src/lib/lpc177x_8x/Drivers/source/lpc177x_8x_emac.c **** 
 959:../src/lib/lpc177x_8x/Drivers/source/lpc177x_8x_emac.c ****         return SET;
 2605              		.loc 1 959 0
 2606 0e8e 4FF00103 		mov	r3, #1
 2607 0e92 01E0     		b	.L208
 2608              	.L207:
 960:../src/lib/lpc177x_8x/Drivers/source/lpc177x_8x_emac.c ****     }
 961:../src/lib/lpc177x_8x/Drivers/source/lpc177x_8x_emac.c ****     else
 962:../src/lib/lpc177x_8x/Drivers/source/lpc177x_8x_emac.c ****     {
 963:../src/lib/lpc177x_8x/Drivers/source/lpc177x_8x_emac.c ****         return RESET;
 2609              		.loc 1 963 0
 2610 0e94 4FF00003 		mov	r3, #0
 2611              	.L208:
 964:../src/lib/lpc177x_8x/Drivers/source/lpc177x_8x_emac.c ****     }
 965:../src/lib/lpc177x_8x/Drivers/source/lpc177x_8x_emac.c **** }
 2612              		.loc 1 965 0
 2613 0e98 1846     		mov	r0, r3
 2614 0e9a 07F10C07 		add	r7, r7, #12
 2615 0e9e BD46     		mov	sp, r7
 2616 0ea0 80BC     		pop	{r7}
 2617 0ea2 7047     		bx	lr
 2618              	.L210:
 2619              		.align	2
 2620              	.L209:
 2621 0ea4 00400820 		.word	537411584
 2622              		.cfi_endproc
 2623              	.LFE81:
 2625              		.align	2
 2626              		.global	EMAC_IntCmd
 2627              		.thumb
 2628              		.thumb_func
 2630              	EMAC_IntCmd:
 2631              	.LFB82:
 966:../src/lib/lpc177x_8x/Drivers/source/lpc177x_8x_emac.c **** 
 967:../src/lib/lpc177x_8x/Drivers/source/lpc177x_8x_emac.c **** 
 968:../src/lib/lpc177x_8x/Drivers/source/lpc177x_8x_emac.c **** 
 969:../src/lib/lpc177x_8x/Drivers/source/lpc177x_8x_emac.c **** 
 970:../src/lib/lpc177x_8x/Drivers/source/lpc177x_8x_emac.c **** 
 971:../src/lib/lpc177x_8x/Drivers/source/lpc177x_8x_emac.c **** 
 972:../src/lib/lpc177x_8x/Drivers/source/lpc177x_8x_emac.c **** /*********************************************************************//**
 973:../src/lib/lpc177x_8x/Drivers/source/lpc177x_8x_emac.c ****  * @brief       Enable/Disable interrupt for each type in EMAC
 974:../src/lib/lpc177x_8x/Drivers/source/lpc177x_8x_emac.c ****  * @param[in]   ulIntType   Interrupt Type, should be:
 975:../src/lib/lpc177x_8x/Drivers/source/lpc177x_8x_emac.c ****  *                          - EMAC_INT_RX_OVERRUN: Receive Overrun
 976:../src/lib/lpc177x_8x/Drivers/source/lpc177x_8x_emac.c ****  *                          - EMAC_INT_RX_ERR: Receive Error
 977:../src/lib/lpc177x_8x/Drivers/source/lpc177x_8x_emac.c ****  *                          - EMAC_INT_RX_FIN: Receive Descriptor Finish
 978:../src/lib/lpc177x_8x/Drivers/source/lpc177x_8x_emac.c ****  *                          - EMAC_INT_RX_DONE: Receive Done
 979:../src/lib/lpc177x_8x/Drivers/source/lpc177x_8x_emac.c ****  *                          - EMAC_INT_TX_UNDERRUN: Transmit Under-run
 980:../src/lib/lpc177x_8x/Drivers/source/lpc177x_8x_emac.c ****  *                          - EMAC_INT_TX_ERR: Transmit Error
 981:../src/lib/lpc177x_8x/Drivers/source/lpc177x_8x_emac.c ****  *                          - EMAC_INT_TX_FIN: Transmit descriptor finish
 982:../src/lib/lpc177x_8x/Drivers/source/lpc177x_8x_emac.c ****  *                          - EMAC_INT_TX_DONE: Transmit Done
 983:../src/lib/lpc177x_8x/Drivers/source/lpc177x_8x_emac.c ****  *                          - EMAC_INT_SOFT_INT: Software interrupt
 984:../src/lib/lpc177x_8x/Drivers/source/lpc177x_8x_emac.c ****  *                          - EMAC_INT_WAKEUP: Wakeup interrupt
 985:../src/lib/lpc177x_8x/Drivers/source/lpc177x_8x_emac.c ****  * @param[in]   NewState    New State of this function, should be:
 986:../src/lib/lpc177x_8x/Drivers/source/lpc177x_8x_emac.c ****  *                          - ENABLE.
 987:../src/lib/lpc177x_8x/Drivers/source/lpc177x_8x_emac.c ****  *                          - DISABLE.
 988:../src/lib/lpc177x_8x/Drivers/source/lpc177x_8x_emac.c ****  * @return      None
 989:../src/lib/lpc177x_8x/Drivers/source/lpc177x_8x_emac.c ****  **********************************************************************/
 990:../src/lib/lpc177x_8x/Drivers/source/lpc177x_8x_emac.c **** void EMAC_IntCmd(uint32_t ulIntType, FunctionalState NewState)
 991:../src/lib/lpc177x_8x/Drivers/source/lpc177x_8x_emac.c **** {
 2632              		.loc 1 991 0
 2633              		.cfi_startproc
 2634              		@ args = 0, pretend = 0, frame = 8
 2635              		@ frame_needed = 1, uses_anonymous_args = 0
 2636              		@ link register save eliminated.
 2637 0ea8 80B4     		push	{r7}
 2638              	.LCFI76:
 2639              		.cfi_def_cfa_offset 4
 2640              		.cfi_offset 7, -4
 2641 0eaa 83B0     		sub	sp, sp, #12
 2642              	.LCFI77:
 2643              		.cfi_def_cfa_offset 16
 2644 0eac 00AF     		add	r7, sp, #0
 2645              	.LCFI78:
 2646              		.cfi_def_cfa_register 7
 2647 0eae 7860     		str	r0, [r7, #4]
 2648 0eb0 0B46     		mov	r3, r1
 2649 0eb2 FB70     		strb	r3, [r7, #3]
 992:../src/lib/lpc177x_8x/Drivers/source/lpc177x_8x_emac.c ****     if (NewState == ENABLE)
 2650              		.loc 1 992 0
 2651 0eb4 FB78     		ldrb	r3, [r7, #3]	@ zero_extendqisi2
 2652 0eb6 012B     		cmp	r3, #1
 2653 0eb8 08D1     		bne	.L212
 993:../src/lib/lpc177x_8x/Drivers/source/lpc177x_8x_emac.c ****     {
 994:../src/lib/lpc177x_8x/Drivers/source/lpc177x_8x_emac.c ****         LPC_EMAC->IntEnable |= ulIntType;
 2654              		.loc 1 994 0
 2655 0eba 0C4B     		ldr	r3, .L214
 2656 0ebc 0B4A     		ldr	r2, .L214
 2657 0ebe D2F8E41F 		ldr	r1, [r2, #4068]
 2658 0ec2 7A68     		ldr	r2, [r7, #4]
 2659 0ec4 0A43     		orrs	r2, r2, r1
 2660 0ec6 C3F8E42F 		str	r2, [r3, #4068]
 2661 0eca 09E0     		b	.L211
 2662              	.L212:
 995:../src/lib/lpc177x_8x/Drivers/source/lpc177x_8x_emac.c ****     }
 996:../src/lib/lpc177x_8x/Drivers/source/lpc177x_8x_emac.c ****     else
 997:../src/lib/lpc177x_8x/Drivers/source/lpc177x_8x_emac.c ****     {
 998:../src/lib/lpc177x_8x/Drivers/source/lpc177x_8x_emac.c ****         LPC_EMAC->IntEnable &= ~(ulIntType);
 2663              		.loc 1 998 0
 2664 0ecc 074B     		ldr	r3, .L214
 2665 0ece 074A     		ldr	r2, .L214
 2666 0ed0 D2F8E41F 		ldr	r1, [r2, #4068]
 2667 0ed4 7A68     		ldr	r2, [r7, #4]
 2668 0ed6 6FEA0202 		mvn	r2, r2
 2669 0eda 0A40     		ands	r2, r2, r1
 2670 0edc C3F8E42F 		str	r2, [r3, #4068]
 2671              	.L211:
 999:../src/lib/lpc177x_8x/Drivers/source/lpc177x_8x_emac.c ****     }
1000:../src/lib/lpc177x_8x/Drivers/source/lpc177x_8x_emac.c **** }
 2672              		.loc 1 1000 0
 2673 0ee0 07F10C07 		add	r7, r7, #12
 2674 0ee4 BD46     		mov	sp, r7
 2675 0ee6 80BC     		pop	{r7}
 2676 0ee8 7047     		bx	lr
 2677              	.L215:
 2678 0eea 00BF     		.align	2
 2679              	.L214:
 2680 0eec 00400820 		.word	537411584
 2681              		.cfi_endproc
 2682              	.LFE82:
 2684              		.align	2
 2685              		.global	EMAC_IntGetStatus
 2686              		.thumb
 2687              		.thumb_func
 2689              	EMAC_IntGetStatus:
 2690              	.LFB83:
1001:../src/lib/lpc177x_8x/Drivers/source/lpc177x_8x_emac.c **** 
1002:../src/lib/lpc177x_8x/Drivers/source/lpc177x_8x_emac.c **** /*********************************************************************//**
1003:../src/lib/lpc177x_8x/Drivers/source/lpc177x_8x_emac.c ****  * @brief       Check whether if specified interrupt flag is set or not
1004:../src/lib/lpc177x_8x/Drivers/source/lpc177x_8x_emac.c ****  *              for each interrupt type in EMAC and clear interrupt pending
1005:../src/lib/lpc177x_8x/Drivers/source/lpc177x_8x_emac.c ****  *              if it is set.
1006:../src/lib/lpc177x_8x/Drivers/source/lpc177x_8x_emac.c ****  * @param[in]   ulIntType   Interrupt Type, should be:
1007:../src/lib/lpc177x_8x/Drivers/source/lpc177x_8x_emac.c ****  *                          - EMAC_INT_RX_OVERRUN: Receive Overrun
1008:../src/lib/lpc177x_8x/Drivers/source/lpc177x_8x_emac.c ****  *                          - EMAC_INT_RX_ERR: Receive Error
1009:../src/lib/lpc177x_8x/Drivers/source/lpc177x_8x_emac.c ****  *                          - EMAC_INT_RX_FIN: Receive Descriptor Finish
1010:../src/lib/lpc177x_8x/Drivers/source/lpc177x_8x_emac.c ****  *                          - EMAC_INT_RX_DONE: Receive Done
1011:../src/lib/lpc177x_8x/Drivers/source/lpc177x_8x_emac.c ****  *                          - EMAC_INT_TX_UNDERRUN: Transmit Under-run
1012:../src/lib/lpc177x_8x/Drivers/source/lpc177x_8x_emac.c ****  *                          - EMAC_INT_TX_ERR: Transmit Error
1013:../src/lib/lpc177x_8x/Drivers/source/lpc177x_8x_emac.c ****  *                          - EMAC_INT_TX_FIN: Transmit descriptor finish
1014:../src/lib/lpc177x_8x/Drivers/source/lpc177x_8x_emac.c ****  *                          - EMAC_INT_TX_DONE: Transmit Done
1015:../src/lib/lpc177x_8x/Drivers/source/lpc177x_8x_emac.c ****  *                          - EMAC_INT_SOFT_INT: Software interrupt
1016:../src/lib/lpc177x_8x/Drivers/source/lpc177x_8x_emac.c ****  *                          - EMAC_INT_WAKEUP: Wakeup interrupt
1017:../src/lib/lpc177x_8x/Drivers/source/lpc177x_8x_emac.c ****  * @return      New state of specified interrupt (SET or RESET)
1018:../src/lib/lpc177x_8x/Drivers/source/lpc177x_8x_emac.c ****  **********************************************************************/
1019:../src/lib/lpc177x_8x/Drivers/source/lpc177x_8x_emac.c **** IntStatus EMAC_IntGetStatus(uint32_t ulIntType)
1020:../src/lib/lpc177x_8x/Drivers/source/lpc177x_8x_emac.c **** {
 2691              		.loc 1 1020 0
 2692              		.cfi_startproc
 2693              		@ args = 0, pretend = 0, frame = 8
 2694              		@ frame_needed = 1, uses_anonymous_args = 0
 2695              		@ link register save eliminated.
 2696 0ef0 80B4     		push	{r7}
 2697              	.LCFI79:
 2698              		.cfi_def_cfa_offset 4
 2699              		.cfi_offset 7, -4
 2700 0ef2 83B0     		sub	sp, sp, #12
 2701              	.LCFI80:
 2702              		.cfi_def_cfa_offset 16
 2703 0ef4 00AF     		add	r7, sp, #0
 2704              	.LCFI81:
 2705              		.cfi_def_cfa_register 7
 2706 0ef6 7860     		str	r0, [r7, #4]
1021:../src/lib/lpc177x_8x/Drivers/source/lpc177x_8x_emac.c ****     if (LPC_EMAC->IntStatus & ulIntType)
 2707              		.loc 1 1021 0
 2708 0ef8 0A4B     		ldr	r3, .L219
 2709 0efa D3F8E02F 		ldr	r2, [r3, #4064]
 2710 0efe 7B68     		ldr	r3, [r7, #4]
 2711 0f00 1340     		ands	r3, r3, r2
 2712 0f02 002B     		cmp	r3, #0
 2713 0f04 06D0     		beq	.L217
1022:../src/lib/lpc177x_8x/Drivers/source/lpc177x_8x_emac.c ****     {
1023:../src/lib/lpc177x_8x/Drivers/source/lpc177x_8x_emac.c ****         LPC_EMAC->IntClear = ulIntType;
 2714              		.loc 1 1023 0
 2715 0f06 074B     		ldr	r3, .L219
 2716 0f08 7A68     		ldr	r2, [r7, #4]
 2717 0f0a C3F8E82F 		str	r2, [r3, #4072]
1024:../src/lib/lpc177x_8x/Drivers/source/lpc177x_8x_emac.c ****         return SET;
 2718              		.loc 1 1024 0
 2719 0f0e 4FF00103 		mov	r3, #1
 2720 0f12 01E0     		b	.L218
 2721              	.L217:
1025:../src/lib/lpc177x_8x/Drivers/source/lpc177x_8x_emac.c ****     }
1026:../src/lib/lpc177x_8x/Drivers/source/lpc177x_8x_emac.c ****     else
1027:../src/lib/lpc177x_8x/Drivers/source/lpc177x_8x_emac.c ****     {
1028:../src/lib/lpc177x_8x/Drivers/source/lpc177x_8x_emac.c ****         return RESET;
 2722              		.loc 1 1028 0
 2723 0f14 4FF00003 		mov	r3, #0
 2724              	.L218:
1029:../src/lib/lpc177x_8x/Drivers/source/lpc177x_8x_emac.c ****     }
1030:../src/lib/lpc177x_8x/Drivers/source/lpc177x_8x_emac.c **** }
 2725              		.loc 1 1030 0
 2726 0f18 1846     		mov	r0, r3
 2727 0f1a 07F10C07 		add	r7, r7, #12
 2728 0f1e BD46     		mov	sp, r7
 2729 0f20 80BC     		pop	{r7}
 2730 0f22 7047     		bx	lr
 2731              	.L220:
 2732              		.align	2
 2733              	.L219:
 2734 0f24 00400820 		.word	537411584
 2735              		.cfi_endproc
 2736              	.LFE83:
 2738              	.Letext0:
 2739              		.file 2 "g:\\program files\\codesourcery\\sourcery_codebench_lite_for_arm_eabi\\bin\\../lib/gcc/ar
 2740              		.file 3 "D:\\workspace_gnu\\RTT_Demo0\\src\\lib\\lpc177x_8x\\Drivers\\include/lpc_types.h"
 2741              		.file 4 "D:\\workspace_gnu\\RTT_Demo0\\src\\lib\\lpc177x_8x\\Core\\Device\\NXP\\LPC177x_8x\\Includ
 2742              		.file 5 "D:\\workspace_gnu\\RTT_Demo0\\src\\lib\\lpc177x_8x\\Drivers\\include/lpc177x_8x_emac.h"
 2743              		.file 6 "D:\\workspace_gnu\\RTT_Demo0\\src\\lib\\lpc177x_8x\\Core\\CMSIS\\Include/core_cm3.h"