   1              		.syntax unified
   2              		.cpu cortex-m4
   3              		.fpu softvfp
   4              		.eabi_attribute 20, 1
   5              		.eabi_attribute 21, 1
   6              		.eabi_attribute 23, 3
   7              		.eabi_attribute 24, 1
   8              		.eabi_attribute 25, 1
   9              		.eabi_attribute 26, 1
  10              		.eabi_attribute 30, 6
  11              		.eabi_attribute 34, 1
  12              		.eabi_attribute 18, 4
  13              		.thumb
  14              		.file	"lpc177x_8x_wwdt.c"
  15              		.text
  16              	.Ltext0:
  17              		.cfi_sections	.debug_frame
  18              		.align	2
  19              		.global	WWDT_SetTimeOutRaw
  20              		.thumb
  21              		.thumb_func
  23              	WWDT_SetTimeOutRaw:
  24              	.LFB55:
  25              		.file 1 "../src/lib/lpc177x_8x/Drivers/source/lpc177x_8x_wwdt.c"
   1:../src/lib/lpc177x_8x/Drivers/source/lpc177x_8x_wwdt.c **** /**********************************************************************
   2:../src/lib/lpc177x_8x/Drivers/source/lpc177x_8x_wwdt.c **** * $Id$      lpc177x_8x_wwdt.c           2011-06-02
   3:../src/lib/lpc177x_8x/Drivers/source/lpc177x_8x_wwdt.c **** *//**
   4:../src/lib/lpc177x_8x/Drivers/source/lpc177x_8x_wwdt.c **** * @file     lpc177x_8x_wwdt.c
   5:../src/lib/lpc177x_8x/Drivers/source/lpc177x_8x_wwdt.c **** * @brief    Contains all functions support for Wachtdog Timer
   6:../src/lib/lpc177x_8x/Drivers/source/lpc177x_8x_wwdt.c **** *           firmware library on LPC177x_8x
   7:../src/lib/lpc177x_8x/Drivers/source/lpc177x_8x_wwdt.c **** * @version  1.0
   8:../src/lib/lpc177x_8x/Drivers/source/lpc177x_8x_wwdt.c **** * @date     02. June. 2011
   9:../src/lib/lpc177x_8x/Drivers/source/lpc177x_8x_wwdt.c **** * @author   NXP MCU SW Application Team
  10:../src/lib/lpc177x_8x/Drivers/source/lpc177x_8x_wwdt.c **** * 
  11:../src/lib/lpc177x_8x/Drivers/source/lpc177x_8x_wwdt.c **** * Copyright(C) 2011, NXP Semiconductor
  12:../src/lib/lpc177x_8x/Drivers/source/lpc177x_8x_wwdt.c **** * All rights reserved.
  13:../src/lib/lpc177x_8x/Drivers/source/lpc177x_8x_wwdt.c **** *
  14:../src/lib/lpc177x_8x/Drivers/source/lpc177x_8x_wwdt.c **** ***********************************************************************
  15:../src/lib/lpc177x_8x/Drivers/source/lpc177x_8x_wwdt.c **** * Software that is described herein is for illustrative purposes only
  16:../src/lib/lpc177x_8x/Drivers/source/lpc177x_8x_wwdt.c **** * which provides customers with programming information regarding the
  17:../src/lib/lpc177x_8x/Drivers/source/lpc177x_8x_wwdt.c **** * products. This software is supplied "AS IS" without any warranties.
  18:../src/lib/lpc177x_8x/Drivers/source/lpc177x_8x_wwdt.c **** * NXP Semiconductors assumes no responsibility or liability for the
  19:../src/lib/lpc177x_8x/Drivers/source/lpc177x_8x_wwdt.c **** * use of the software, conveys no license or title under any patent,
  20:../src/lib/lpc177x_8x/Drivers/source/lpc177x_8x_wwdt.c **** * copyright, or mask work right to the product. NXP Semiconductors
  21:../src/lib/lpc177x_8x/Drivers/source/lpc177x_8x_wwdt.c **** * reserves the right to make changes in the software without
  22:../src/lib/lpc177x_8x/Drivers/source/lpc177x_8x_wwdt.c **** * notification. NXP Semiconductors also make no representation or
  23:../src/lib/lpc177x_8x/Drivers/source/lpc177x_8x_wwdt.c **** * warranty that such application will be suitable for the specified
  24:../src/lib/lpc177x_8x/Drivers/source/lpc177x_8x_wwdt.c **** * use without further testing or modification.
  25:../src/lib/lpc177x_8x/Drivers/source/lpc177x_8x_wwdt.c **** * Permission to use, copy, modify, and distribute this software and its
  26:../src/lib/lpc177x_8x/Drivers/source/lpc177x_8x_wwdt.c **** * documentation is hereby granted, under NXP Semiconductors'
  27:../src/lib/lpc177x_8x/Drivers/source/lpc177x_8x_wwdt.c **** * relevant copyright in the software, without fee, provided that it
  28:../src/lib/lpc177x_8x/Drivers/source/lpc177x_8x_wwdt.c **** * is used in conjunction with NXP Semiconductors microcontrollers.  This
  29:../src/lib/lpc177x_8x/Drivers/source/lpc177x_8x_wwdt.c **** * copyright, permission, and disclaimer notice must appear in all copies of
  30:../src/lib/lpc177x_8x/Drivers/source/lpc177x_8x_wwdt.c **** * this code.
  31:../src/lib/lpc177x_8x/Drivers/source/lpc177x_8x_wwdt.c **** **********************************************************************/
  32:../src/lib/lpc177x_8x/Drivers/source/lpc177x_8x_wwdt.c **** 
  33:../src/lib/lpc177x_8x/Drivers/source/lpc177x_8x_wwdt.c **** /* Peripheral group ----------------------------------------------------------- */
  34:../src/lib/lpc177x_8x/Drivers/source/lpc177x_8x_wwdt.c **** /** @addtogroup WWDT
  35:../src/lib/lpc177x_8x/Drivers/source/lpc177x_8x_wwdt.c ****  * @{
  36:../src/lib/lpc177x_8x/Drivers/source/lpc177x_8x_wwdt.c ****  */
  37:../src/lib/lpc177x_8x/Drivers/source/lpc177x_8x_wwdt.c **** #ifdef __BUILD_WITH_EXAMPLE__
  38:../src/lib/lpc177x_8x/Drivers/source/lpc177x_8x_wwdt.c **** #include "lpc177x_8x_libcfg.h"
  39:../src/lib/lpc177x_8x/Drivers/source/lpc177x_8x_wwdt.c **** #else
  40:../src/lib/lpc177x_8x/Drivers/source/lpc177x_8x_wwdt.c **** #include "lpc177x_8x_libcfg_default.h"
  41:../src/lib/lpc177x_8x/Drivers/source/lpc177x_8x_wwdt.c **** #endif /* __BUILD_WITH_EXAMPLE__ */
  42:../src/lib/lpc177x_8x/Drivers/source/lpc177x_8x_wwdt.c **** #ifdef _WDT
  43:../src/lib/lpc177x_8x/Drivers/source/lpc177x_8x_wwdt.c **** 
  44:../src/lib/lpc177x_8x/Drivers/source/lpc177x_8x_wwdt.c **** /* Includes ------------------------------------------------------------------- */
  45:../src/lib/lpc177x_8x/Drivers/source/lpc177x_8x_wwdt.c **** #include "lpc177x_8x_wwdt.h"
  46:../src/lib/lpc177x_8x/Drivers/source/lpc177x_8x_wwdt.c **** #include "lpc177x_8x_clkpwr.h"
  47:../src/lib/lpc177x_8x/Drivers/source/lpc177x_8x_wwdt.c **** #include "lpc177x_8x_pinsel.h"
  48:../src/lib/lpc177x_8x/Drivers/source/lpc177x_8x_wwdt.c **** 
  49:../src/lib/lpc177x_8x/Drivers/source/lpc177x_8x_wwdt.c **** 
  50:../src/lib/lpc177x_8x/Drivers/source/lpc177x_8x_wwdt.c ****  /* Public Functions ----------------------------------------------------------- */
  51:../src/lib/lpc177x_8x/Drivers/source/lpc177x_8x_wwdt.c ****  /** @addtogroup WDT_Public_Functions
  52:../src/lib/lpc177x_8x/Drivers/source/lpc177x_8x_wwdt.c ****   * @{
  53:../src/lib/lpc177x_8x/Drivers/source/lpc177x_8x_wwdt.c ****   */
  54:../src/lib/lpc177x_8x/Drivers/source/lpc177x_8x_wwdt.c **** 
  55:../src/lib/lpc177x_8x/Drivers/source/lpc177x_8x_wwdt.c ****  /********************************************************************//**
  56:../src/lib/lpc177x_8x/Drivers/source/lpc177x_8x_wwdt.c ****  * @brief       Set timeout value to Timer Constant register 
  57:../src/lib/lpc177x_8x/Drivers/source/lpc177x_8x_wwdt.c ****  *              (if enable) to generate a WatchDog event if match
  58:../src/lib/lpc177x_8x/Drivers/source/lpc177x_8x_wwdt.c ****  *
  59:../src/lib/lpc177x_8x/Drivers/source/lpc177x_8x_wwdt.c ****  * @param[in]   timeoutVal  The value (counter) will write directly to 
  60:../src/lib/lpc177x_8x/Drivers/source/lpc177x_8x_wwdt.c ****  *              Register w/o pre-calc
  61:../src/lib/lpc177x_8x/Drivers/source/lpc177x_8x_wwdt.c ****  *
  62:../src/lib/lpc177x_8x/Drivers/source/lpc177x_8x_wwdt.c ****  * @return      None
  63:../src/lib/lpc177x_8x/Drivers/source/lpc177x_8x_wwdt.c ****  *********************************************************************/
  64:../src/lib/lpc177x_8x/Drivers/source/lpc177x_8x_wwdt.c **** int8_t WWDT_SetTimeOutRaw(uint32_t timeoutVal)
  65:../src/lib/lpc177x_8x/Drivers/source/lpc177x_8x_wwdt.c **** {
  26              		.loc 1 65 0
  27              		.cfi_startproc
  28              		@ args = 0, pretend = 0, frame = 16
  29              		@ frame_needed = 1, uses_anonymous_args = 0
  30              		@ link register save eliminated.
  31 0000 80B4     		push	{r7}
  32              	.LCFI0:
  33              		.cfi_def_cfa_offset 4
  34              		.cfi_offset 7, -4
  35 0002 85B0     		sub	sp, sp, #20
  36              	.LCFI1:
  37              		.cfi_def_cfa_offset 24
  38 0004 00AF     		add	r7, sp, #0
  39              	.LCFI2:
  40              		.cfi_def_cfa_register 7
  41 0006 7860     		str	r0, [r7, #4]
  66:../src/lib/lpc177x_8x/Drivers/source/lpc177x_8x_wwdt.c ****     int8_t retval = 0;
  42              		.loc 1 66 0
  43 0008 4FF00003 		mov	r3, #0
  44 000c FB73     		strb	r3, [r7, #15]
  67:../src/lib/lpc177x_8x/Drivers/source/lpc177x_8x_wwdt.c **** 
  68:../src/lib/lpc177x_8x/Drivers/source/lpc177x_8x_wwdt.c ****     if(timeoutVal < WWDT_TIMEOUT_MIN)
  45              		.loc 1 68 0
  46 000e 7B68     		ldr	r3, [r7, #4]
  47 0010 FE2B     		cmp	r3, #254
  48 0012 06D8     		bhi	.L2
  69:../src/lib/lpc177x_8x/Drivers/source/lpc177x_8x_wwdt.c ****     {
  70:../src/lib/lpc177x_8x/Drivers/source/lpc177x_8x_wwdt.c ****         timeoutVal = WWDT_TIMEOUT_MIN;
  49              		.loc 1 70 0
  50 0014 4FF0FF03 		mov	r3, #255
  51 0018 7B60     		str	r3, [r7, #4]
  71:../src/lib/lpc177x_8x/Drivers/source/lpc177x_8x_wwdt.c ****         retval = WWDT_FUNC_BAD_PARAM;
  52              		.loc 1 71 0
  53 001a 4FF0FF03 		mov	r3, #255
  54 001e FB73     		strb	r3, [r7, #15]
  55 0020 0AE0     		b	.L3
  56              	.L2:
  72:../src/lib/lpc177x_8x/Drivers/source/lpc177x_8x_wwdt.c ****     }
  73:../src/lib/lpc177x_8x/Drivers/source/lpc177x_8x_wwdt.c ****     else if (timeoutVal > WWDT_TIMEOUT_MAX)
  57              		.loc 1 73 0
  58 0022 7A68     		ldr	r2, [r7, #4]
  59 0024 6FF07F43 		mvn	r3, #-16777216
  60 0028 9A42     		cmp	r2, r3
  61 002a 05D9     		bls	.L3
  74:../src/lib/lpc177x_8x/Drivers/source/lpc177x_8x_wwdt.c ****     {
  75:../src/lib/lpc177x_8x/Drivers/source/lpc177x_8x_wwdt.c ****         timeoutVal = WWDT_TIMEOUT_MAX;
  62              		.loc 1 75 0
  63 002c 6FF07F43 		mvn	r3, #-16777216
  64 0030 7B60     		str	r3, [r7, #4]
  76:../src/lib/lpc177x_8x/Drivers/source/lpc177x_8x_wwdt.c ****         retval = WWDT_FUNC_BAD_PARAM;
  65              		.loc 1 76 0
  66 0032 4FF0FF03 		mov	r3, #255
  67 0036 FB73     		strb	r3, [r7, #15]
  68              	.L3:
  77:../src/lib/lpc177x_8x/Drivers/source/lpc177x_8x_wwdt.c ****     }
  78:../src/lib/lpc177x_8x/Drivers/source/lpc177x_8x_wwdt.c **** 
  79:../src/lib/lpc177x_8x/Drivers/source/lpc177x_8x_wwdt.c ****     LPC_WDT->TC = timeoutVal;
  69              		.loc 1 79 0
  70 0038 4FF08043 		mov	r3, #1073741824
  71 003c 7A68     		ldr	r2, [r7, #4]
  72 003e 5A60     		str	r2, [r3, #4]
  80:../src/lib/lpc177x_8x/Drivers/source/lpc177x_8x_wwdt.c **** 
  81:../src/lib/lpc177x_8x/Drivers/source/lpc177x_8x_wwdt.c ****     return retval;
  73              		.loc 1 81 0
  74 0040 FB7B     		ldrb	r3, [r7, #15]	@ zero_extendqisi2
  75 0042 5BB2     		sxtb	r3, r3
  82:../src/lib/lpc177x_8x/Drivers/source/lpc177x_8x_wwdt.c **** }
  76              		.loc 1 82 0
  77 0044 1846     		mov	r0, r3
  78 0046 07F11407 		add	r7, r7, #20
  79 004a BD46     		mov	sp, r7
  80 004c 80BC     		pop	{r7}
  81 004e 7047     		bx	lr
  82              		.cfi_endproc
  83              	.LFE55:
  85              		.align	2
  86              		.global	WWDT_SetTimeOut
  87              		.thumb
  88              		.thumb_func
  90              	WWDT_SetTimeOut:
  91              	.LFB56:
  83:../src/lib/lpc177x_8x/Drivers/source/lpc177x_8x_wwdt.c **** 
  84:../src/lib/lpc177x_8x/Drivers/source/lpc177x_8x_wwdt.c **** 
  85:../src/lib/lpc177x_8x/Drivers/source/lpc177x_8x_wwdt.c **** /********************************************************************//**
  86:../src/lib/lpc177x_8x/Drivers/source/lpc177x_8x_wwdt.c ****  * @brief       Set WDT timeout (cal by usec) to TC register
  87:../src/lib/lpc177x_8x/Drivers/source/lpc177x_8x_wwdt.c ****  *
  88:../src/lib/lpc177x_8x/Drivers/source/lpc177x_8x_wwdt.c ****  * @param[in]   timeout The time (usec) to generate watchdog event if 
  89:../src/lib/lpc177x_8x/Drivers/source/lpc177x_8x_wwdt.c ****  *              the watchdog counter reach this value
  90:../src/lib/lpc177x_8x/Drivers/source/lpc177x_8x_wwdt.c ****  *
  91:../src/lib/lpc177x_8x/Drivers/source/lpc177x_8x_wwdt.c ****  * @return      WWDT_FUNC_OK if success
  92:../src/lib/lpc177x_8x/Drivers/source/lpc177x_8x_wwdt.c ****  *********************************************************************/
  93:../src/lib/lpc177x_8x/Drivers/source/lpc177x_8x_wwdt.c **** int8_t WWDT_SetTimeOut(uint32_t timeout)
  94:../src/lib/lpc177x_8x/Drivers/source/lpc177x_8x_wwdt.c **** {
  92              		.loc 1 94 0
  93              		.cfi_startproc
  94              		@ args = 0, pretend = 0, frame = 8
  95              		@ frame_needed = 1, uses_anonymous_args = 0
  96 0050 80B5     		push	{r7, lr}
  97              	.LCFI3:
  98              		.cfi_def_cfa_offset 8
  99              		.cfi_offset 7, -8
 100              		.cfi_offset 14, -4
 101 0052 82B0     		sub	sp, sp, #8
 102              	.LCFI4:
 103              		.cfi_def_cfa_offset 16
 104 0054 00AF     		add	r7, sp, #0
 105              	.LCFI5:
 106              		.cfi_def_cfa_register 7
 107 0056 7860     		str	r0, [r7, #4]
  95:../src/lib/lpc177x_8x/Drivers/source/lpc177x_8x_wwdt.c ****     return WWDT_SetTimeOutRaw(WDT_GET_FROM_USEC(timeout));
 108              		.loc 1 95 0
 109 0058 7B68     		ldr	r3, [r7, #4]
 110 005a 4FEAD303 		lsr	r3, r3, #3
 111 005e 1846     		mov	r0, r3
 112 0060 FFF7FEFF 		bl	WWDT_SetTimeOutRaw
 113 0064 0346     		mov	r3, r0
  96:../src/lib/lpc177x_8x/Drivers/source/lpc177x_8x_wwdt.c **** }
 114              		.loc 1 96 0
 115 0066 1846     		mov	r0, r3
 116 0068 07F10807 		add	r7, r7, #8
 117 006c BD46     		mov	sp, r7
 118 006e 80BD     		pop	{r7, pc}
 119              		.cfi_endproc
 120              	.LFE56:
 122              		.align	2
 123              		.global	WWDT_Init
 124              		.thumb
 125              		.thumb_func
 127              	WWDT_Init:
 128              	.LFB57:
  97:../src/lib/lpc177x_8x/Drivers/source/lpc177x_8x_wwdt.c **** 
  98:../src/lib/lpc177x_8x/Drivers/source/lpc177x_8x_wwdt.c **** 
  99:../src/lib/lpc177x_8x/Drivers/source/lpc177x_8x_wwdt.c **** /*********************************************************************//**
 100:../src/lib/lpc177x_8x/Drivers/source/lpc177x_8x_wwdt.c **** * @brief        Initial for Watchdog function by setting timeout
 101:../src/lib/lpc177x_8x/Drivers/source/lpc177x_8x_wwdt.c **** *
 102:../src/lib/lpc177x_8x/Drivers/source/lpc177x_8x_wwdt.c **** * @param[in]    TimeOut time out value, should be in range:
 103:../src/lib/lpc177x_8x/Drivers/source/lpc177x_8x_wwdt.c **** *               2048 .. 134217728
 104:../src/lib/lpc177x_8x/Drivers/source/lpc177x_8x_wwdt.c **** *
 105:../src/lib/lpc177x_8x/Drivers/source/lpc177x_8x_wwdt.c **** * @return      WWDT_FUNC_OK if success
 106:../src/lib/lpc177x_8x/Drivers/source/lpc177x_8x_wwdt.c ****  **********************************************************************/
 107:../src/lib/lpc177x_8x/Drivers/source/lpc177x_8x_wwdt.c **** int8_t WWDT_Init(uint32_t TimeOut)
 108:../src/lib/lpc177x_8x/Drivers/source/lpc177x_8x_wwdt.c **** {
 129              		.loc 1 108 0
 130              		.cfi_startproc
 131              		@ args = 0, pretend = 0, frame = 8
 132              		@ frame_needed = 1, uses_anonymous_args = 0
 133 0070 80B5     		push	{r7, lr}
 134              	.LCFI6:
 135              		.cfi_def_cfa_offset 8
 136              		.cfi_offset 7, -8
 137              		.cfi_offset 14, -4
 138 0072 82B0     		sub	sp, sp, #8
 139              	.LCFI7:
 140              		.cfi_def_cfa_offset 16
 141 0074 00AF     		add	r7, sp, #0
 142              	.LCFI8:
 143              		.cfi_def_cfa_register 7
 144 0076 7860     		str	r0, [r7, #4]
 109:../src/lib/lpc177x_8x/Drivers/source/lpc177x_8x_wwdt.c ****     return WWDT_SetTimeOut(TimeOut);
 145              		.loc 1 109 0
 146 0078 7868     		ldr	r0, [r7, #4]
 147 007a FFF7FEFF 		bl	WWDT_SetTimeOut
 148 007e 0346     		mov	r3, r0
 110:../src/lib/lpc177x_8x/Drivers/source/lpc177x_8x_wwdt.c **** }
 149              		.loc 1 110 0
 150 0080 1846     		mov	r0, r3
 151 0082 07F10807 		add	r7, r7, #8
 152 0086 BD46     		mov	sp, r7
 153 0088 80BD     		pop	{r7, pc}
 154              		.cfi_endproc
 155              	.LFE57:
 157 008a 00BF     		.align	2
 158              		.global	WWDT_Configure
 159              		.thumb
 160              		.thumb_func
 162              	WWDT_Configure:
 163              	.LFB58:
 111:../src/lib/lpc177x_8x/Drivers/source/lpc177x_8x_wwdt.c **** 
 112:../src/lib/lpc177x_8x/Drivers/source/lpc177x_8x_wwdt.c **** /*********************************************************************//**
 113:../src/lib/lpc177x_8x/Drivers/source/lpc177x_8x_wwdt.c ****  * @brief       Configure the WatchDog by initialization all the timing
 114:../src/lib/lpc177x_8x/Drivers/source/lpc177x_8x_wwdt.c ****  *              value for register (Warning value, Window value,...)
 115:../src/lib/lpc177x_8x/Drivers/source/lpc177x_8x_wwdt.c ****  *
 116:../src/lib/lpc177x_8x/Drivers/source/lpc177x_8x_wwdt.c ****  * @param       wdtCfg a the st_Wdt_Config type value
 117:../src/lib/lpc177x_8x/Drivers/source/lpc177x_8x_wwdt.c ****  *
 118:../src/lib/lpc177x_8x/Drivers/source/lpc177x_8x_wwdt.c ****  * @return      None
 119:../src/lib/lpc177x_8x/Drivers/source/lpc177x_8x_wwdt.c ****  **********************************************************************/
 120:../src/lib/lpc177x_8x/Drivers/source/lpc177x_8x_wwdt.c **** void WWDT_Configure(st_Wdt_Config wdtCfg)
 121:../src/lib/lpc177x_8x/Drivers/source/lpc177x_8x_wwdt.c **** {
 164              		.loc 1 121 0
 165              		.cfi_startproc
 166              		@ args = 0, pretend = 0, frame = 16
 167              		@ frame_needed = 1, uses_anonymous_args = 0
 168 008c 90B5     		push	{r4, r7, lr}
 169              	.LCFI9:
 170              		.cfi_def_cfa_offset 12
 171              		.cfi_offset 4, -12
 172              		.cfi_offset 7, -8
 173              		.cfi_offset 14, -4
 174 008e 85B0     		sub	sp, sp, #20
 175              	.LCFI10:
 176              		.cfi_def_cfa_offset 32
 177 0090 00AF     		add	r7, sp, #0
 178              	.LCFI11:
 179              		.cfi_def_cfa_register 7
 180 0092 3C46     		mov	r4, r7
 181 0094 84E80F00 		stmia	r4, {r0, r1, r2, r3}
 122:../src/lib/lpc177x_8x/Drivers/source/lpc177x_8x_wwdt.c ****     WWDT_SetTimeOut(wdtCfg.wdtTmrConst);
 182              		.loc 1 122 0
 183 0098 7B68     		ldr	r3, [r7, #4]
 184 009a 1846     		mov	r0, r3
 185 009c FFF7FEFF 		bl	WWDT_SetTimeOut
 123:../src/lib/lpc177x_8x/Drivers/source/lpc177x_8x_wwdt.c **** 
 124:../src/lib/lpc177x_8x/Drivers/source/lpc177x_8x_wwdt.c ****     if(wdtCfg.wdtEnable)
 186              		.loc 1 124 0
 187 00a0 3B78     		ldrb	r3, [r7, #0]	@ zero_extendqisi2
 188 00a2 002B     		cmp	r3, #0
 189 00a4 0AD0     		beq	.L10
 125:../src/lib/lpc177x_8x/Drivers/source/lpc177x_8x_wwdt.c ****     {
 126:../src/lib/lpc177x_8x/Drivers/source/lpc177x_8x_wwdt.c ****         LPC_WDT->MOD |= WWDT_WDMOD_WDEN;
 190              		.loc 1 126 0
 191 00a6 4FF08043 		mov	r3, #1073741824
 192 00aa 4FF08042 		mov	r2, #1073741824
 193 00ae 1278     		ldrb	r2, [r2, #0]
 194 00b0 D2B2     		uxtb	r2, r2
 195 00b2 42F00102 		orr	r2, r2, #1
 196 00b6 D2B2     		uxtb	r2, r2
 197 00b8 1A70     		strb	r2, [r3, #0]
 198 00ba 09E0     		b	.L11
 199              	.L10:
 127:../src/lib/lpc177x_8x/Drivers/source/lpc177x_8x_wwdt.c ****     }
 128:../src/lib/lpc177x_8x/Drivers/source/lpc177x_8x_wwdt.c ****     else
 129:../src/lib/lpc177x_8x/Drivers/source/lpc177x_8x_wwdt.c ****     {
 130:../src/lib/lpc177x_8x/Drivers/source/lpc177x_8x_wwdt.c ****         LPC_WDT->MOD &= ~WWDT_WDMOD_WDEN;
 200              		.loc 1 130 0
 201 00bc 4FF08043 		mov	r3, #1073741824
 202 00c0 4FF08042 		mov	r2, #1073741824
 203 00c4 1278     		ldrb	r2, [r2, #0]
 204 00c6 D2B2     		uxtb	r2, r2
 205 00c8 22F00102 		bic	r2, r2, #1
 206 00cc D2B2     		uxtb	r2, r2
 207 00ce 1A70     		strb	r2, [r3, #0]
 208              	.L11:
 131:../src/lib/lpc177x_8x/Drivers/source/lpc177x_8x_wwdt.c ****     }
 132:../src/lib/lpc177x_8x/Drivers/source/lpc177x_8x_wwdt.c **** 
 133:../src/lib/lpc177x_8x/Drivers/source/lpc177x_8x_wwdt.c ****     if(wdtCfg.wdtReset)
 209              		.loc 1 133 0
 210 00d0 7B78     		ldrb	r3, [r7, #1]	@ zero_extendqisi2
 211 00d2 002B     		cmp	r3, #0
 212 00d4 0AD0     		beq	.L12
 134:../src/lib/lpc177x_8x/Drivers/source/lpc177x_8x_wwdt.c ****     {
 135:../src/lib/lpc177x_8x/Drivers/source/lpc177x_8x_wwdt.c ****         LPC_WDT->MOD |= WWDT_WDMOD_WDRESET;
 213              		.loc 1 135 0
 214 00d6 4FF08043 		mov	r3, #1073741824
 215 00da 4FF08042 		mov	r2, #1073741824
 216 00de 1278     		ldrb	r2, [r2, #0]
 217 00e0 D2B2     		uxtb	r2, r2
 218 00e2 42F00202 		orr	r2, r2, #2
 219 00e6 D2B2     		uxtb	r2, r2
 220 00e8 1A70     		strb	r2, [r3, #0]
 221 00ea 09E0     		b	.L13
 222              	.L12:
 136:../src/lib/lpc177x_8x/Drivers/source/lpc177x_8x_wwdt.c ****     }
 137:../src/lib/lpc177x_8x/Drivers/source/lpc177x_8x_wwdt.c ****     else
 138:../src/lib/lpc177x_8x/Drivers/source/lpc177x_8x_wwdt.c ****     {
 139:../src/lib/lpc177x_8x/Drivers/source/lpc177x_8x_wwdt.c ****         LPC_WDT->MOD &= ~WWDT_WDMOD_WDRESET;
 223              		.loc 1 139 0
 224 00ec 4FF08043 		mov	r3, #1073741824
 225 00f0 4FF08042 		mov	r2, #1073741824
 226 00f4 1278     		ldrb	r2, [r2, #0]
 227 00f6 D2B2     		uxtb	r2, r2
 228 00f8 22F00202 		bic	r2, r2, #2
 229 00fc D2B2     		uxtb	r2, r2
 230 00fe 1A70     		strb	r2, [r3, #0]
 231              	.L13:
 140:../src/lib/lpc177x_8x/Drivers/source/lpc177x_8x_wwdt.c ****     }
 141:../src/lib/lpc177x_8x/Drivers/source/lpc177x_8x_wwdt.c **** 
 142:../src/lib/lpc177x_8x/Drivers/source/lpc177x_8x_wwdt.c ****     if(wdtCfg.wdtProtect)
 232              		.loc 1 142 0
 233 0100 BB78     		ldrb	r3, [r7, #2]	@ zero_extendqisi2
 234 0102 002B     		cmp	r3, #0
 235 0104 0AD0     		beq	.L14
 143:../src/lib/lpc177x_8x/Drivers/source/lpc177x_8x_wwdt.c ****     {
 144:../src/lib/lpc177x_8x/Drivers/source/lpc177x_8x_wwdt.c ****         LPC_WDT->MOD |= WWDT_WDMOD_WDPROTECT;
 236              		.loc 1 144 0
 237 0106 4FF08043 		mov	r3, #1073741824
 238 010a 4FF08042 		mov	r2, #1073741824
 239 010e 1278     		ldrb	r2, [r2, #0]
 240 0110 D2B2     		uxtb	r2, r2
 241 0112 42F01002 		orr	r2, r2, #16
 242 0116 D2B2     		uxtb	r2, r2
 243 0118 1A70     		strb	r2, [r3, #0]
 244 011a 09E0     		b	.L15
 245              	.L14:
 145:../src/lib/lpc177x_8x/Drivers/source/lpc177x_8x_wwdt.c ****     }
 146:../src/lib/lpc177x_8x/Drivers/source/lpc177x_8x_wwdt.c ****     else
 147:../src/lib/lpc177x_8x/Drivers/source/lpc177x_8x_wwdt.c ****     {
 148:../src/lib/lpc177x_8x/Drivers/source/lpc177x_8x_wwdt.c ****         LPC_WDT->MOD &= ~WWDT_WDMOD_WDPROTECT;
 246              		.loc 1 148 0
 247 011c 4FF08043 		mov	r3, #1073741824
 248 0120 4FF08042 		mov	r2, #1073741824
 249 0124 1278     		ldrb	r2, [r2, #0]
 250 0126 D2B2     		uxtb	r2, r2
 251 0128 22F01002 		bic	r2, r2, #16
 252 012c D2B2     		uxtb	r2, r2
 253 012e 1A70     		strb	r2, [r3, #0]
 254              	.L15:
 149:../src/lib/lpc177x_8x/Drivers/source/lpc177x_8x_wwdt.c ****     }
 150:../src/lib/lpc177x_8x/Drivers/source/lpc177x_8x_wwdt.c **** 
 151:../src/lib/lpc177x_8x/Drivers/source/lpc177x_8x_wwdt.c ****     WWDT_SetWarning(wdtCfg.wdtWarningVal);
 255              		.loc 1 151 0
 256 0130 BB68     		ldr	r3, [r7, #8]
 257 0132 1846     		mov	r0, r3
 258 0134 FFF7FEFF 		bl	WWDT_SetWarning
 152:../src/lib/lpc177x_8x/Drivers/source/lpc177x_8x_wwdt.c **** 
 153:../src/lib/lpc177x_8x/Drivers/source/lpc177x_8x_wwdt.c ****     WWDT_SetWindow(wdtCfg.wdtWindowVal);
 259              		.loc 1 153 0
 260 0138 FB68     		ldr	r3, [r7, #12]
 261 013a 1846     		mov	r0, r3
 262 013c FFF7FEFF 		bl	WWDT_SetWindow
 154:../src/lib/lpc177x_8x/Drivers/source/lpc177x_8x_wwdt.c **** }
 263              		.loc 1 154 0
 264 0140 07F11407 		add	r7, r7, #20
 265 0144 BD46     		mov	sp, r7
 266 0146 90BD     		pop	{r4, r7, pc}
 267              		.cfi_endproc
 268              	.LFE58:
 270              		.align	2
 271              		.global	WWDT_Start
 272              		.thumb
 273              		.thumb_func
 275              	WWDT_Start:
 276              	.LFB59:
 155:../src/lib/lpc177x_8x/Drivers/source/lpc177x_8x_wwdt.c **** 
 156:../src/lib/lpc177x_8x/Drivers/source/lpc177x_8x_wwdt.c **** /*********************************************************************//**
 157:../src/lib/lpc177x_8x/Drivers/source/lpc177x_8x_wwdt.c ****  * @brief       Start WatchDog with specific Timeout
 158:../src/lib/lpc177x_8x/Drivers/source/lpc177x_8x_wwdt.c ****  *
 159:../src/lib/lpc177x_8x/Drivers/source/lpc177x_8x_wwdt.c ****  * @param       TimeOut specific Timeout for WatchDog event
 160:../src/lib/lpc177x_8x/Drivers/source/lpc177x_8x_wwdt.c ****  *
 161:../src/lib/lpc177x_8x/Drivers/source/lpc177x_8x_wwdt.c ****  * @return      WWDT_FUNC_OK if success
 162:../src/lib/lpc177x_8x/Drivers/source/lpc177x_8x_wwdt.c ****  **********************************************************************/
 163:../src/lib/lpc177x_8x/Drivers/source/lpc177x_8x_wwdt.c **** int8_t WWDT_Start(uint32_t TimeOut)
 164:../src/lib/lpc177x_8x/Drivers/source/lpc177x_8x_wwdt.c **** {
 277              		.loc 1 164 0
 278              		.cfi_startproc
 279              		@ args = 0, pretend = 0, frame = 16
 280              		@ frame_needed = 1, uses_anonymous_args = 0
 281 0148 80B5     		push	{r7, lr}
 282              	.LCFI12:
 283              		.cfi_def_cfa_offset 8
 284              		.cfi_offset 7, -8
 285              		.cfi_offset 14, -4
 286 014a 84B0     		sub	sp, sp, #16
 287              	.LCFI13:
 288              		.cfi_def_cfa_offset 24
 289 014c 00AF     		add	r7, sp, #0
 290              	.LCFI14:
 291              		.cfi_def_cfa_register 7
 292 014e 7860     		str	r0, [r7, #4]
 165:../src/lib/lpc177x_8x/Drivers/source/lpc177x_8x_wwdt.c ****     int8_t retval = WWDT_FUNC_OK;
 293              		.loc 1 165 0
 294 0150 4FF00003 		mov	r3, #0
 295 0154 FB73     		strb	r3, [r7, #15]
 166:../src/lib/lpc177x_8x/Drivers/source/lpc177x_8x_wwdt.c **** 
 167:../src/lib/lpc177x_8x/Drivers/source/lpc177x_8x_wwdt.c ****     retval = WWDT_SetTimeOut(TimeOut);
 296              		.loc 1 167 0
 297 0156 7868     		ldr	r0, [r7, #4]
 298 0158 FFF7FEFF 		bl	WWDT_SetTimeOut
 299 015c 0346     		mov	r3, r0
 300 015e FB73     		strb	r3, [r7, #15]
 168:../src/lib/lpc177x_8x/Drivers/source/lpc177x_8x_wwdt.c **** 
 169:../src/lib/lpc177x_8x/Drivers/source/lpc177x_8x_wwdt.c ****     WWDT_Cmd(ENABLE);
 301              		.loc 1 169 0
 302 0160 4FF00100 		mov	r0, #1
 303 0164 FFF7FEFF 		bl	WWDT_Cmd
 170:../src/lib/lpc177x_8x/Drivers/source/lpc177x_8x_wwdt.c **** 
 171:../src/lib/lpc177x_8x/Drivers/source/lpc177x_8x_wwdt.c ****     return retval;
 304              		.loc 1 171 0
 305 0168 FB7B     		ldrb	r3, [r7, #15]	@ zero_extendqisi2
 306 016a 5BB2     		sxtb	r3, r3
 172:../src/lib/lpc177x_8x/Drivers/source/lpc177x_8x_wwdt.c **** }
 307              		.loc 1 172 0
 308 016c 1846     		mov	r0, r3
 309 016e 07F11007 		add	r7, r7, #16
 310 0172 BD46     		mov	sp, r7
 311 0174 80BD     		pop	{r7, pc}
 312              		.cfi_endproc
 313              	.LFE59:
 315 0176 00BF     		.align	2
 316              		.global	WWDT_SetTimerConstant
 317              		.thumb
 318              		.thumb_func
 320              	WWDT_SetTimerConstant:
 321              	.LFB60:
 173:../src/lib/lpc177x_8x/Drivers/source/lpc177x_8x_wwdt.c **** 
 174:../src/lib/lpc177x_8x/Drivers/source/lpc177x_8x_wwdt.c **** 
 175:../src/lib/lpc177x_8x/Drivers/source/lpc177x_8x_wwdt.c **** /********************************************************************//**
 176:../src/lib/lpc177x_8x/Drivers/source/lpc177x_8x_wwdt.c ****  * @brief       Update WDT timeout value and feed
 177:../src/lib/lpc177x_8x/Drivers/source/lpc177x_8x_wwdt.c ****  *
 178:../src/lib/lpc177x_8x/Drivers/source/lpc177x_8x_wwdt.c ****  * @param[in]   WarnTime    time to generate watchdog warning interrupt(us)
 179:../src/lib/lpc177x_8x/Drivers/source/lpc177x_8x_wwdt.c ****  *              should be in range: 2048 .. 134217728
 180:../src/lib/lpc177x_8x/Drivers/source/lpc177x_8x_wwdt.c ****  *
 181:../src/lib/lpc177x_8x/Drivers/source/lpc177x_8x_wwdt.c ****  * @return      None
 182:../src/lib/lpc177x_8x/Drivers/source/lpc177x_8x_wwdt.c ****  *********************************************************************/
 183:../src/lib/lpc177x_8x/Drivers/source/lpc177x_8x_wwdt.c **** void WWDT_SetTimerConstant(uint32_t constVal)
 184:../src/lib/lpc177x_8x/Drivers/source/lpc177x_8x_wwdt.c **** {
 322              		.loc 1 184 0
 323              		.cfi_startproc
 324              		@ args = 0, pretend = 0, frame = 8
 325              		@ frame_needed = 1, uses_anonymous_args = 0
 326              		@ link register save eliminated.
 327 0178 80B4     		push	{r7}
 328              	.LCFI15:
 329              		.cfi_def_cfa_offset 4
 330              		.cfi_offset 7, -4
 331 017a 83B0     		sub	sp, sp, #12
 332              	.LCFI16:
 333              		.cfi_def_cfa_offset 16
 334 017c 00AF     		add	r7, sp, #0
 335              	.LCFI17:
 336              		.cfi_def_cfa_register 7
 337 017e 7860     		str	r0, [r7, #4]
 185:../src/lib/lpc177x_8x/Drivers/source/lpc177x_8x_wwdt.c ****     LPC_WDT->TC = constVal;
 338              		.loc 1 185 0
 339 0180 4FF08043 		mov	r3, #1073741824
 340 0184 7A68     		ldr	r2, [r7, #4]
 341 0186 5A60     		str	r2, [r3, #4]
 186:../src/lib/lpc177x_8x/Drivers/source/lpc177x_8x_wwdt.c **** }
 342              		.loc 1 186 0
 343 0188 07F10C07 		add	r7, r7, #12
 344 018c BD46     		mov	sp, r7
 345 018e 80BC     		pop	{r7}
 346 0190 7047     		bx	lr
 347              		.cfi_endproc
 348              	.LFE60:
 350 0192 00BF     		.align	2
 351              		.global	WWDT_SetMode
 352              		.thumb
 353              		.thumb_func
 355              	WWDT_SetMode:
 356              	.LFB61:
 187:../src/lib/lpc177x_8x/Drivers/source/lpc177x_8x_wwdt.c **** 
 188:../src/lib/lpc177x_8x/Drivers/source/lpc177x_8x_wwdt.c **** 
 189:../src/lib/lpc177x_8x/Drivers/source/lpc177x_8x_wwdt.c **** /*********************************************************************//**
 190:../src/lib/lpc177x_8x/Drivers/source/lpc177x_8x_wwdt.c ****  * @brief       Enable/Disable WDT function
 191:../src/lib/lpc177x_8x/Drivers/source/lpc177x_8x_wwdt.c ****  *
 192:../src/lib/lpc177x_8x/Drivers/source/lpc177x_8x_wwdt.c ****  * @param[in]   Mode WWDT mode that will be enabled/disabled, should be:
 193:../src/lib/lpc177x_8x/Drivers/source/lpc177x_8x_wwdt.c ****  *              - WWDT_PROTECT_MODE : protect mode
 194:../src/lib/lpc177x_8x/Drivers/source/lpc177x_8x_wwdt.c ****  *              - WWDT_RESET_MODE   : reset mode
 195:../src/lib/lpc177x_8x/Drivers/source/lpc177x_8x_wwdt.c ****  *
 196:../src/lib/lpc177x_8x/Drivers/source/lpc177x_8x_wwdt.c ****  * @param[in]   NewState new state of protection function, should be:
 197:../src/lib/lpc177x_8x/Drivers/source/lpc177x_8x_wwdt.c ****  *              - ENABLE: The watchdog reload value can be changed at any time
 198:../src/lib/lpc177x_8x/Drivers/source/lpc177x_8x_wwdt.c ****  *              - DISABLE: The watchdog reload value can be changed only after
 199:../src/lib/lpc177x_8x/Drivers/source/lpc177x_8x_wwdt.c ****  *                         the counter is below the value of WDWARNINT and WDWINDOW
 200:../src/lib/lpc177x_8x/Drivers/source/lpc177x_8x_wwdt.c ****  *
 201:../src/lib/lpc177x_8x/Drivers/source/lpc177x_8x_wwdt.c ****  * @return      None
 202:../src/lib/lpc177x_8x/Drivers/source/lpc177x_8x_wwdt.c ****  **********************************************************************/
 203:../src/lib/lpc177x_8x/Drivers/source/lpc177x_8x_wwdt.c **** void WWDT_SetMode(uint8_t mode, FunctionalState NewState)
 204:../src/lib/lpc177x_8x/Drivers/source/lpc177x_8x_wwdt.c **** {
 357              		.loc 1 204 0
 358              		.cfi_startproc
 359              		@ args = 0, pretend = 0, frame = 8
 360              		@ frame_needed = 1, uses_anonymous_args = 0
 361              		@ link register save eliminated.
 362 0194 80B4     		push	{r7}
 363              	.LCFI18:
 364              		.cfi_def_cfa_offset 4
 365              		.cfi_offset 7, -4
 366 0196 83B0     		sub	sp, sp, #12
 367              	.LCFI19:
 368              		.cfi_def_cfa_offset 16
 369 0198 00AF     		add	r7, sp, #0
 370              	.LCFI20:
 371              		.cfi_def_cfa_register 7
 372 019a 0246     		mov	r2, r0
 373 019c 0B46     		mov	r3, r1
 374 019e FA71     		strb	r2, [r7, #7]
 375 01a0 BB71     		strb	r3, [r7, #6]
 205:../src/lib/lpc177x_8x/Drivers/source/lpc177x_8x_wwdt.c ****     if (mode == WWDT_PROTECT_MODE )
 376              		.loc 1 205 0
 377 01a2 FB79     		ldrb	r3, [r7, #7]	@ zero_extendqisi2
 378 01a4 002B     		cmp	r3, #0
 379 01a6 18D1     		bne	.L20
 206:../src/lib/lpc177x_8x/Drivers/source/lpc177x_8x_wwdt.c ****     {
 207:../src/lib/lpc177x_8x/Drivers/source/lpc177x_8x_wwdt.c ****         if(NewState == ENABLE)
 380              		.loc 1 207 0
 381 01a8 BB79     		ldrb	r3, [r7, #6]	@ zero_extendqisi2
 382 01aa 012B     		cmp	r3, #1
 383 01ac 0AD1     		bne	.L21
 208:../src/lib/lpc177x_8x/Drivers/source/lpc177x_8x_wwdt.c ****             LPC_WDT->MOD |= WWDT_WDMOD_WDPROTECT;
 384              		.loc 1 208 0
 385 01ae 4FF08043 		mov	r3, #1073741824
 386 01b2 4FF08042 		mov	r2, #1073741824
 387 01b6 1278     		ldrb	r2, [r2, #0]
 388 01b8 D2B2     		uxtb	r2, r2
 389 01ba 42F01002 		orr	r2, r2, #16
 390 01be D2B2     		uxtb	r2, r2
 391 01c0 1A70     		strb	r2, [r3, #0]
 392 01c2 25E0     		b	.L19
 393              	.L21:
 209:../src/lib/lpc177x_8x/Drivers/source/lpc177x_8x_wwdt.c ****         else
 210:../src/lib/lpc177x_8x/Drivers/source/lpc177x_8x_wwdt.c ****             LPC_WDT->MOD &= ~WWDT_WDMOD_WDPROTECT;
 394              		.loc 1 210 0
 395 01c4 4FF08043 		mov	r3, #1073741824
 396 01c8 4FF08042 		mov	r2, #1073741824
 397 01cc 1278     		ldrb	r2, [r2, #0]
 398 01ce D2B2     		uxtb	r2, r2
 399 01d0 22F01002 		bic	r2, r2, #16
 400 01d4 D2B2     		uxtb	r2, r2
 401 01d6 1A70     		strb	r2, [r3, #0]
 402 01d8 1AE0     		b	.L19
 403              	.L20:
 211:../src/lib/lpc177x_8x/Drivers/source/lpc177x_8x_wwdt.c ****     }
 212:../src/lib/lpc177x_8x/Drivers/source/lpc177x_8x_wwdt.c ****     else if(mode == WWDT_RESET_MODE)
 404              		.loc 1 212 0
 405 01da FB79     		ldrb	r3, [r7, #7]	@ zero_extendqisi2
 406 01dc 012B     		cmp	r3, #1
 407 01de 17D1     		bne	.L19
 213:../src/lib/lpc177x_8x/Drivers/source/lpc177x_8x_wwdt.c ****     {
 214:../src/lib/lpc177x_8x/Drivers/source/lpc177x_8x_wwdt.c ****         if(NewState == ENABLE)
 408              		.loc 1 214 0
 409 01e0 BB79     		ldrb	r3, [r7, #6]	@ zero_extendqisi2
 410 01e2 012B     		cmp	r3, #1
 411 01e4 0AD1     		bne	.L23
 215:../src/lib/lpc177x_8x/Drivers/source/lpc177x_8x_wwdt.c ****             LPC_WDT->MOD |= WWDT_WDMOD_WDRESET;
 412              		.loc 1 215 0
 413 01e6 4FF08043 		mov	r3, #1073741824
 414 01ea 4FF08042 		mov	r2, #1073741824
 415 01ee 1278     		ldrb	r2, [r2, #0]
 416 01f0 D2B2     		uxtb	r2, r2
 417 01f2 42F00202 		orr	r2, r2, #2
 418 01f6 D2B2     		uxtb	r2, r2
 419 01f8 1A70     		strb	r2, [r3, #0]
 420 01fa 09E0     		b	.L19
 421              	.L23:
 216:../src/lib/lpc177x_8x/Drivers/source/lpc177x_8x_wwdt.c ****         else
 217:../src/lib/lpc177x_8x/Drivers/source/lpc177x_8x_wwdt.c ****             LPC_WDT->MOD &= ~WWDT_WDMOD_WDRESET;
 422              		.loc 1 217 0
 423 01fc 4FF08043 		mov	r3, #1073741824
 424 0200 4FF08042 		mov	r2, #1073741824
 425 0204 1278     		ldrb	r2, [r2, #0]
 426 0206 D2B2     		uxtb	r2, r2
 427 0208 22F00202 		bic	r2, r2, #2
 428 020c D2B2     		uxtb	r2, r2
 429 020e 1A70     		strb	r2, [r3, #0]
 430              	.L19:
 218:../src/lib/lpc177x_8x/Drivers/source/lpc177x_8x_wwdt.c ****     }
 219:../src/lib/lpc177x_8x/Drivers/source/lpc177x_8x_wwdt.c **** }
 431              		.loc 1 219 0
 432 0210 07F10C07 		add	r7, r7, #12
 433 0214 BD46     		mov	sp, r7
 434 0216 80BC     		pop	{r7}
 435 0218 7047     		bx	lr
 436              		.cfi_endproc
 437              	.LFE61:
 439 021a 00BF     		.align	2
 440              		.global	WWDT_Enable
 441              		.thumb
 442              		.thumb_func
 444              	WWDT_Enable:
 445              	.LFB62:
 220:../src/lib/lpc177x_8x/Drivers/source/lpc177x_8x_wwdt.c **** 
 221:../src/lib/lpc177x_8x/Drivers/source/lpc177x_8x_wwdt.c **** /*********************************************************************//**
 222:../src/lib/lpc177x_8x/Drivers/source/lpc177x_8x_wwdt.c ****  * @brief       Enable/Disable WWDT activity
 223:../src/lib/lpc177x_8x/Drivers/source/lpc177x_8x_wwdt.c ****  *
 224:../src/lib/lpc177x_8x/Drivers/source/lpc177x_8x_wwdt.c ****  * @param[in]   NewState To enable/disable the WatchDog
 225:../src/lib/lpc177x_8x/Drivers/source/lpc177x_8x_wwdt.c ****  *
 226:../src/lib/lpc177x_8x/Drivers/source/lpc177x_8x_wwdt.c ****  * @return      None
 227:../src/lib/lpc177x_8x/Drivers/source/lpc177x_8x_wwdt.c ****  **********************************************************************/
 228:../src/lib/lpc177x_8x/Drivers/source/lpc177x_8x_wwdt.c **** void WWDT_Enable(FunctionalState NewState)
 229:../src/lib/lpc177x_8x/Drivers/source/lpc177x_8x_wwdt.c **** {
 446              		.loc 1 229 0
 447              		.cfi_startproc
 448              		@ args = 0, pretend = 0, frame = 8
 449              		@ frame_needed = 1, uses_anonymous_args = 0
 450              		@ link register save eliminated.
 451 021c 80B4     		push	{r7}
 452              	.LCFI21:
 453              		.cfi_def_cfa_offset 4
 454              		.cfi_offset 7, -4
 455 021e 83B0     		sub	sp, sp, #12
 456              	.LCFI22:
 457              		.cfi_def_cfa_offset 16
 458 0220 00AF     		add	r7, sp, #0
 459              	.LCFI23:
 460              		.cfi_def_cfa_register 7
 461 0222 0346     		mov	r3, r0
 462 0224 FB71     		strb	r3, [r7, #7]
 230:../src/lib/lpc177x_8x/Drivers/source/lpc177x_8x_wwdt.c ****     if(NewState == ENABLE)
 463              		.loc 1 230 0
 464 0226 FB79     		ldrb	r3, [r7, #7]	@ zero_extendqisi2
 465 0228 012B     		cmp	r3, #1
 466 022a 0AD1     		bne	.L25
 231:../src/lib/lpc177x_8x/Drivers/source/lpc177x_8x_wwdt.c ****     {
 232:../src/lib/lpc177x_8x/Drivers/source/lpc177x_8x_wwdt.c ****         LPC_WDT->MOD |= WWDT_WDMOD_WDEN;
 467              		.loc 1 232 0
 468 022c 4FF08043 		mov	r3, #1073741824
 469 0230 4FF08042 		mov	r2, #1073741824
 470 0234 1278     		ldrb	r2, [r2, #0]
 471 0236 D2B2     		uxtb	r2, r2
 472 0238 42F00102 		orr	r2, r2, #1
 473 023c D2B2     		uxtb	r2, r2
 474 023e 1A70     		strb	r2, [r3, #0]
 475 0240 09E0     		b	.L24
 476              	.L25:
 233:../src/lib/lpc177x_8x/Drivers/source/lpc177x_8x_wwdt.c ****     }
 234:../src/lib/lpc177x_8x/Drivers/source/lpc177x_8x_wwdt.c ****     else
 235:../src/lib/lpc177x_8x/Drivers/source/lpc177x_8x_wwdt.c ****     {
 236:../src/lib/lpc177x_8x/Drivers/source/lpc177x_8x_wwdt.c ****         LPC_WDT->MOD &= ~WWDT_WDMOD_WDEN;
 477              		.loc 1 236 0
 478 0242 4FF08043 		mov	r3, #1073741824
 479 0246 4FF08042 		mov	r2, #1073741824
 480 024a 1278     		ldrb	r2, [r2, #0]
 481 024c D2B2     		uxtb	r2, r2
 482 024e 22F00102 		bic	r2, r2, #1
 483 0252 D2B2     		uxtb	r2, r2
 484 0254 1A70     		strb	r2, [r3, #0]
 485              	.L24:
 237:../src/lib/lpc177x_8x/Drivers/source/lpc177x_8x_wwdt.c ****     }
 238:../src/lib/lpc177x_8x/Drivers/source/lpc177x_8x_wwdt.c **** }
 486              		.loc 1 238 0
 487 0256 07F10C07 		add	r7, r7, #12
 488 025a BD46     		mov	sp, r7
 489 025c 80BC     		pop	{r7}
 490 025e 7047     		bx	lr
 491              		.cfi_endproc
 492              	.LFE62:
 494              		.align	2
 495              		.global	WWDT_Cmd
 496              		.thumb
 497              		.thumb_func
 499              	WWDT_Cmd:
 500              	.LFB63:
 239:../src/lib/lpc177x_8x/Drivers/source/lpc177x_8x_wwdt.c **** 
 240:../src/lib/lpc177x_8x/Drivers/source/lpc177x_8x_wwdt.c **** /*********************************************************************//**
 241:../src/lib/lpc177x_8x/Drivers/source/lpc177x_8x_wwdt.c ****  * @brief       Enable/Disable WWDT activity. In case of Enable, it will
 242:../src/lib/lpc177x_8x/Drivers/source/lpc177x_8x_wwdt.c ****  *              do feeding WatchDog for its normal operation.
 243:../src/lib/lpc177x_8x/Drivers/source/lpc177x_8x_wwdt.c ****  *
 244:../src/lib/lpc177x_8x/Drivers/source/lpc177x_8x_wwdt.c ****  * @param[in]   NewState To enable/disable the WatchDog
 245:../src/lib/lpc177x_8x/Drivers/source/lpc177x_8x_wwdt.c ****  *
 246:../src/lib/lpc177x_8x/Drivers/source/lpc177x_8x_wwdt.c ****  * @return      None
 247:../src/lib/lpc177x_8x/Drivers/source/lpc177x_8x_wwdt.c ****  **********************************************************************/
 248:../src/lib/lpc177x_8x/Drivers/source/lpc177x_8x_wwdt.c **** void WWDT_Cmd(FunctionalState NewState)
 249:../src/lib/lpc177x_8x/Drivers/source/lpc177x_8x_wwdt.c **** {
 501              		.loc 1 249 0
 502              		.cfi_startproc
 503              		@ args = 0, pretend = 0, frame = 8
 504              		@ frame_needed = 1, uses_anonymous_args = 0
 505 0260 80B5     		push	{r7, lr}
 506              	.LCFI24:
 507              		.cfi_def_cfa_offset 8
 508              		.cfi_offset 7, -8
 509              		.cfi_offset 14, -4
 510 0262 82B0     		sub	sp, sp, #8
 511              	.LCFI25:
 512              		.cfi_def_cfa_offset 16
 513 0264 00AF     		add	r7, sp, #0
 514              	.LCFI26:
 515              		.cfi_def_cfa_register 7
 516 0266 0346     		mov	r3, r0
 517 0268 FB71     		strb	r3, [r7, #7]
 250:../src/lib/lpc177x_8x/Drivers/source/lpc177x_8x_wwdt.c ****     if(NewState == ENABLE)
 518              		.loc 1 250 0
 519 026a FB79     		ldrb	r3, [r7, #7]	@ zero_extendqisi2
 520 026c 012B     		cmp	r3, #1
 521 026e 0CD1     		bne	.L28
 251:../src/lib/lpc177x_8x/Drivers/source/lpc177x_8x_wwdt.c ****     {
 252:../src/lib/lpc177x_8x/Drivers/source/lpc177x_8x_wwdt.c ****         LPC_WDT->MOD |= WWDT_WDMOD_WDEN;
 522              		.loc 1 252 0
 523 0270 4FF08043 		mov	r3, #1073741824
 524 0274 4FF08042 		mov	r2, #1073741824
 525 0278 1278     		ldrb	r2, [r2, #0]
 526 027a D2B2     		uxtb	r2, r2
 527 027c 42F00102 		orr	r2, r2, #1
 528 0280 D2B2     		uxtb	r2, r2
 529 0282 1A70     		strb	r2, [r3, #0]
 253:../src/lib/lpc177x_8x/Drivers/source/lpc177x_8x_wwdt.c **** 
 254:../src/lib/lpc177x_8x/Drivers/source/lpc177x_8x_wwdt.c ****         //Load the Feed register to start using WDT
 255:../src/lib/lpc177x_8x/Drivers/source/lpc177x_8x_wwdt.c ****         WWDT_Feed();
 530              		.loc 1 255 0
 531 0284 FFF7FEFF 		bl	WWDT_Feed
 532 0288 09E0     		b	.L27
 533              	.L28:
 256:../src/lib/lpc177x_8x/Drivers/source/lpc177x_8x_wwdt.c ****     }
 257:../src/lib/lpc177x_8x/Drivers/source/lpc177x_8x_wwdt.c ****     else
 258:../src/lib/lpc177x_8x/Drivers/source/lpc177x_8x_wwdt.c ****     {
 259:../src/lib/lpc177x_8x/Drivers/source/lpc177x_8x_wwdt.c ****         LPC_WDT->MOD &= ~WWDT_WDMOD_WDEN;
 534              		.loc 1 259 0
 535 028a 4FF08043 		mov	r3, #1073741824
 536 028e 4FF08042 		mov	r2, #1073741824
 537 0292 1278     		ldrb	r2, [r2, #0]
 538 0294 D2B2     		uxtb	r2, r2
 539 0296 22F00102 		bic	r2, r2, #1
 540 029a D2B2     		uxtb	r2, r2
 541 029c 1A70     		strb	r2, [r3, #0]
 542              	.L27:
 260:../src/lib/lpc177x_8x/Drivers/source/lpc177x_8x_wwdt.c ****     }
 261:../src/lib/lpc177x_8x/Drivers/source/lpc177x_8x_wwdt.c **** }
 543              		.loc 1 261 0
 544 029e 07F10807 		add	r7, r7, #8
 545 02a2 BD46     		mov	sp, r7
 546 02a4 80BD     		pop	{r7, pc}
 547              		.cfi_endproc
 548              	.LFE63:
 550 02a6 00BF     		.align	2
 551              		.global	WWDT_SetWarningRaw
 552              		.thumb
 553              		.thumb_func
 555              	WWDT_SetWarningRaw:
 556              	.LFB64:
 262:../src/lib/lpc177x_8x/Drivers/source/lpc177x_8x_wwdt.c **** 
 263:../src/lib/lpc177x_8x/Drivers/source/lpc177x_8x_wwdt.c **** /********************************************************************//**
 264:../src/lib/lpc177x_8x/Drivers/source/lpc177x_8x_wwdt.c ****  * @brief       Set the warning value to register to generate interrupt
 265:../src/lib/lpc177x_8x/Drivers/source/lpc177x_8x_wwdt.c ****  *              (if enable) if the watchdog timer matches this value.
 266:../src/lib/lpc177x_8x/Drivers/source/lpc177x_8x_wwdt.c ****  *
 267:../src/lib/lpc177x_8x/Drivers/source/lpc177x_8x_wwdt.c ****  * @param[in]   warnVal The value (counter) will write directly to Warning 
 268:../src/lib/lpc177x_8x/Drivers/source/lpc177x_8x_wwdt.c ****  *              Register w/o pre-calc
 269:../src/lib/lpc177x_8x/Drivers/source/lpc177x_8x_wwdt.c ****  *
 270:../src/lib/lpc177x_8x/Drivers/source/lpc177x_8x_wwdt.c ****  * @return      WWDT_FUNC_OK if success
 271:../src/lib/lpc177x_8x/Drivers/source/lpc177x_8x_wwdt.c ****  *********************************************************************/
 272:../src/lib/lpc177x_8x/Drivers/source/lpc177x_8x_wwdt.c **** int8_t WWDT_SetWarningRaw(uint32_t warnVal)
 273:../src/lib/lpc177x_8x/Drivers/source/lpc177x_8x_wwdt.c **** {
 557              		.loc 1 273 0
 558              		.cfi_startproc
 559              		@ args = 0, pretend = 0, frame = 16
 560              		@ frame_needed = 1, uses_anonymous_args = 0
 561              		@ link register save eliminated.
 562 02a8 80B4     		push	{r7}
 563              	.LCFI27:
 564              		.cfi_def_cfa_offset 4
 565              		.cfi_offset 7, -4
 566 02aa 85B0     		sub	sp, sp, #20
 567              	.LCFI28:
 568              		.cfi_def_cfa_offset 24
 569 02ac 00AF     		add	r7, sp, #0
 570              	.LCFI29:
 571              		.cfi_def_cfa_register 7
 572 02ae 7860     		str	r0, [r7, #4]
 274:../src/lib/lpc177x_8x/Drivers/source/lpc177x_8x_wwdt.c ****     int8_t retval = WWDT_FUNC_OK;
 573              		.loc 1 274 0
 574 02b0 4FF00003 		mov	r3, #0
 575 02b4 FB73     		strb	r3, [r7, #15]
 275:../src/lib/lpc177x_8x/Drivers/source/lpc177x_8x_wwdt.c **** 
 276:../src/lib/lpc177x_8x/Drivers/source/lpc177x_8x_wwdt.c ****     if(warnVal < WWDT_WARNINT_MIN)
 576              		.loc 1 276 0
 577 02b6 7B68     		ldr	r3, [r7, #4]
 578 02b8 FE2B     		cmp	r3, #254
 579 02ba 06D8     		bhi	.L31
 277:../src/lib/lpc177x_8x/Drivers/source/lpc177x_8x_wwdt.c ****     {
 278:../src/lib/lpc177x_8x/Drivers/source/lpc177x_8x_wwdt.c ****         warnVal = WWDT_WARNINT_MIN;
 580              		.loc 1 278 0
 581 02bc 4FF0FF03 		mov	r3, #255
 582 02c0 7B60     		str	r3, [r7, #4]
 279:../src/lib/lpc177x_8x/Drivers/source/lpc177x_8x_wwdt.c ****         retval = WWDT_FUNC_BAD_PARAM;
 583              		.loc 1 279 0
 584 02c2 4FF0FF03 		mov	r3, #255
 585 02c6 FB73     		strb	r3, [r7, #15]
 586 02c8 0AE0     		b	.L32
 587              	.L31:
 280:../src/lib/lpc177x_8x/Drivers/source/lpc177x_8x_wwdt.c ****     }
 281:../src/lib/lpc177x_8x/Drivers/source/lpc177x_8x_wwdt.c ****     else if (warnVal > WWDT_WARNINT_MAX)
 588              		.loc 1 281 0
 589 02ca 7A68     		ldr	r2, [r7, #4]
 590 02cc 40F2FF33 		movw	r3, #1023
 591 02d0 9A42     		cmp	r2, r3
 592 02d2 05D9     		bls	.L32
 282:../src/lib/lpc177x_8x/Drivers/source/lpc177x_8x_wwdt.c ****     {
 283:../src/lib/lpc177x_8x/Drivers/source/lpc177x_8x_wwdt.c ****         warnVal = WWDT_WARNINT_MAX;
 593              		.loc 1 283 0
 594 02d4 40F2FF33 		movw	r3, #1023
 595 02d8 7B60     		str	r3, [r7, #4]
 284:../src/lib/lpc177x_8x/Drivers/source/lpc177x_8x_wwdt.c ****         retval = WWDT_FUNC_BAD_PARAM;
 596              		.loc 1 284 0
 597 02da 4FF0FF03 		mov	r3, #255
 598 02de FB73     		strb	r3, [r7, #15]
 599              	.L32:
 285:../src/lib/lpc177x_8x/Drivers/source/lpc177x_8x_wwdt.c ****     }
 286:../src/lib/lpc177x_8x/Drivers/source/lpc177x_8x_wwdt.c **** 
 287:../src/lib/lpc177x_8x/Drivers/source/lpc177x_8x_wwdt.c ****     LPC_WDT->WARNINT = warnVal;
 600              		.loc 1 287 0
 601 02e0 4FF08043 		mov	r3, #1073741824
 602 02e4 7A68     		ldr	r2, [r7, #4]
 603 02e6 5A61     		str	r2, [r3, #20]
 288:../src/lib/lpc177x_8x/Drivers/source/lpc177x_8x_wwdt.c **** 
 289:../src/lib/lpc177x_8x/Drivers/source/lpc177x_8x_wwdt.c ****     return retval;
 604              		.loc 1 289 0
 605 02e8 FB7B     		ldrb	r3, [r7, #15]	@ zero_extendqisi2
 606 02ea 5BB2     		sxtb	r3, r3
 290:../src/lib/lpc177x_8x/Drivers/source/lpc177x_8x_wwdt.c **** }
 607              		.loc 1 290 0
 608 02ec 1846     		mov	r0, r3
 609 02ee 07F11407 		add	r7, r7, #20
 610 02f2 BD46     		mov	sp, r7
 611 02f4 80BC     		pop	{r7}
 612 02f6 7047     		bx	lr
 613              		.cfi_endproc
 614              	.LFE64:
 616              		.align	2
 617              		.global	WWDT_SetWarning
 618              		.thumb
 619              		.thumb_func
 621              	WWDT_SetWarning:
 622              	.LFB65:
 291:../src/lib/lpc177x_8x/Drivers/source/lpc177x_8x_wwdt.c **** 
 292:../src/lib/lpc177x_8x/Drivers/source/lpc177x_8x_wwdt.c **** /********************************************************************//**
 293:../src/lib/lpc177x_8x/Drivers/source/lpc177x_8x_wwdt.c ****  * @brief       Update WDT warning time (cal by usec) to warning register
 294:../src/lib/lpc177x_8x/Drivers/source/lpc177x_8x_wwdt.c ****  *
 295:../src/lib/lpc177x_8x/Drivers/source/lpc177x_8x_wwdt.c ****  * @param[in]   WarnTime The time (usec) to generate watchdog warning
 296:../src/lib/lpc177x_8x/Drivers/source/lpc177x_8x_wwdt.c ****  *              interrupt should be in range: 2048 .. 8192
 297:../src/lib/lpc177x_8x/Drivers/source/lpc177x_8x_wwdt.c ****  *
 298:../src/lib/lpc177x_8x/Drivers/source/lpc177x_8x_wwdt.c ****  * @return      WWDT_FUNC_OK if success
 299:../src/lib/lpc177x_8x/Drivers/source/lpc177x_8x_wwdt.c ****  *********************************************************************/
 300:../src/lib/lpc177x_8x/Drivers/source/lpc177x_8x_wwdt.c **** int8_t WWDT_SetWarning(uint32_t WarnTime)
 301:../src/lib/lpc177x_8x/Drivers/source/lpc177x_8x_wwdt.c **** {
 623              		.loc 1 301 0
 624              		.cfi_startproc
 625              		@ args = 0, pretend = 0, frame = 8
 626              		@ frame_needed = 1, uses_anonymous_args = 0
 627 02f8 80B5     		push	{r7, lr}
 628              	.LCFI30:
 629              		.cfi_def_cfa_offset 8
 630              		.cfi_offset 7, -8
 631              		.cfi_offset 14, -4
 632 02fa 82B0     		sub	sp, sp, #8
 633              	.LCFI31:
 634              		.cfi_def_cfa_offset 16
 635 02fc 00AF     		add	r7, sp, #0
 636              	.LCFI32:
 637              		.cfi_def_cfa_register 7
 638 02fe 7860     		str	r0, [r7, #4]
 302:../src/lib/lpc177x_8x/Drivers/source/lpc177x_8x_wwdt.c ****     return WWDT_SetWarningRaw(WDT_GET_FROM_USEC(WarnTime));
 639              		.loc 1 302 0
 640 0300 7B68     		ldr	r3, [r7, #4]
 641 0302 4FEAD303 		lsr	r3, r3, #3
 642 0306 1846     		mov	r0, r3
 643 0308 FFF7FEFF 		bl	WWDT_SetWarningRaw
 644 030c 0346     		mov	r3, r0
 303:../src/lib/lpc177x_8x/Drivers/source/lpc177x_8x_wwdt.c **** }
 645              		.loc 1 303 0
 646 030e 1846     		mov	r0, r3
 647 0310 07F10807 		add	r7, r7, #8
 648 0314 BD46     		mov	sp, r7
 649 0316 80BD     		pop	{r7, pc}
 650              		.cfi_endproc
 651              	.LFE65:
 653              		.align	2
 654              		.global	WWDT_SetWindowRaw
 655              		.thumb
 656              		.thumb_func
 658              	WWDT_SetWindowRaw:
 659              	.LFB66:
 304:../src/lib/lpc177x_8x/Drivers/source/lpc177x_8x_wwdt.c **** 
 305:../src/lib/lpc177x_8x/Drivers/source/lpc177x_8x_wwdt.c **** 
 306:../src/lib/lpc177x_8x/Drivers/source/lpc177x_8x_wwdt.c **** /********************************************************************//**
 307:../src/lib/lpc177x_8x/Drivers/source/lpc177x_8x_wwdt.c ****  * @brief       Update WDT Windows value (by counter) to Window Register
 308:../src/lib/lpc177x_8x/Drivers/source/lpc177x_8x_wwdt.c ****  *              of WatchDog
 309:../src/lib/lpc177x_8x/Drivers/source/lpc177x_8x_wwdt.c ****  *
 310:../src/lib/lpc177x_8x/Drivers/source/lpc177x_8x_wwdt.c ****  * @param[in]   wndVal The value (counter) will write directly to Window
 311:../src/lib/lpc177x_8x/Drivers/source/lpc177x_8x_wwdt.c ****  *              Register w/o pre-calc
 312:../src/lib/lpc177x_8x/Drivers/source/lpc177x_8x_wwdt.c ****  *
 313:../src/lib/lpc177x_8x/Drivers/source/lpc177x_8x_wwdt.c ****  * @return      WWDT_FUNC_OK if success
 314:../src/lib/lpc177x_8x/Drivers/source/lpc177x_8x_wwdt.c ****  *********************************************************************/
 315:../src/lib/lpc177x_8x/Drivers/source/lpc177x_8x_wwdt.c **** int8_t WWDT_SetWindowRaw(uint32_t wndVal)
 316:../src/lib/lpc177x_8x/Drivers/source/lpc177x_8x_wwdt.c **** {
 660              		.loc 1 316 0
 661              		.cfi_startproc
 662              		@ args = 0, pretend = 0, frame = 16
 663              		@ frame_needed = 1, uses_anonymous_args = 0
 664              		@ link register save eliminated.
 665 0318 80B4     		push	{r7}
 666              	.LCFI33:
 667              		.cfi_def_cfa_offset 4
 668              		.cfi_offset 7, -4
 669 031a 85B0     		sub	sp, sp, #20
 670              	.LCFI34:
 671              		.cfi_def_cfa_offset 24
 672 031c 00AF     		add	r7, sp, #0
 673              	.LCFI35:
 674              		.cfi_def_cfa_register 7
 675 031e 7860     		str	r0, [r7, #4]
 317:../src/lib/lpc177x_8x/Drivers/source/lpc177x_8x_wwdt.c ****     int8_t retval = WWDT_FUNC_OK;
 676              		.loc 1 317 0
 677 0320 4FF00003 		mov	r3, #0
 678 0324 FB73     		strb	r3, [r7, #15]
 318:../src/lib/lpc177x_8x/Drivers/source/lpc177x_8x_wwdt.c **** 
 319:../src/lib/lpc177x_8x/Drivers/source/lpc177x_8x_wwdt.c ****     if(wndVal < WWDT_WINDOW_MIN)
 679              		.loc 1 319 0
 680 0326 7B68     		ldr	r3, [r7, #4]
 681 0328 FE2B     		cmp	r3, #254
 682 032a 06D8     		bhi	.L37
 320:../src/lib/lpc177x_8x/Drivers/source/lpc177x_8x_wwdt.c ****     {
 321:../src/lib/lpc177x_8x/Drivers/source/lpc177x_8x_wwdt.c ****         wndVal = WWDT_WINDOW_MIN;
 683              		.loc 1 321 0
 684 032c 4FF0FF03 		mov	r3, #255
 685 0330 7B60     		str	r3, [r7, #4]
 322:../src/lib/lpc177x_8x/Drivers/source/lpc177x_8x_wwdt.c ****         retval = WWDT_FUNC_BAD_PARAM;
 686              		.loc 1 322 0
 687 0332 4FF0FF03 		mov	r3, #255
 688 0336 FB73     		strb	r3, [r7, #15]
 689 0338 0AE0     		b	.L38
 690              	.L37:
 323:../src/lib/lpc177x_8x/Drivers/source/lpc177x_8x_wwdt.c ****     }
 324:../src/lib/lpc177x_8x/Drivers/source/lpc177x_8x_wwdt.c ****     else if (wndVal > WWDT_WINDOW_MAX)
 691              		.loc 1 324 0
 692 033a 7A68     		ldr	r2, [r7, #4]
 693 033c 6FF07F43 		mvn	r3, #-16777216
 694 0340 9A42     		cmp	r2, r3
 695 0342 05D9     		bls	.L38
 325:../src/lib/lpc177x_8x/Drivers/source/lpc177x_8x_wwdt.c ****     {
 326:../src/lib/lpc177x_8x/Drivers/source/lpc177x_8x_wwdt.c ****         wndVal = WWDT_WINDOW_MAX;
 696              		.loc 1 326 0
 697 0344 6FF07F43 		mvn	r3, #-16777216
 698 0348 7B60     		str	r3, [r7, #4]
 327:../src/lib/lpc177x_8x/Drivers/source/lpc177x_8x_wwdt.c ****         retval = WWDT_FUNC_BAD_PARAM;
 699              		.loc 1 327 0
 700 034a 4FF0FF03 		mov	r3, #255
 701 034e FB73     		strb	r3, [r7, #15]
 702              	.L38:
 328:../src/lib/lpc177x_8x/Drivers/source/lpc177x_8x_wwdt.c ****     }
 329:../src/lib/lpc177x_8x/Drivers/source/lpc177x_8x_wwdt.c **** 
 330:../src/lib/lpc177x_8x/Drivers/source/lpc177x_8x_wwdt.c ****     LPC_WDT->WINDOW = wndVal;
 703              		.loc 1 330 0
 704 0350 4FF08043 		mov	r3, #1073741824
 705 0354 7A68     		ldr	r2, [r7, #4]
 706 0356 9A61     		str	r2, [r3, #24]
 331:../src/lib/lpc177x_8x/Drivers/source/lpc177x_8x_wwdt.c **** 
 332:../src/lib/lpc177x_8x/Drivers/source/lpc177x_8x_wwdt.c ****     return retval;
 707              		.loc 1 332 0
 708 0358 FB7B     		ldrb	r3, [r7, #15]	@ zero_extendqisi2
 709 035a 5BB2     		sxtb	r3, r3
 333:../src/lib/lpc177x_8x/Drivers/source/lpc177x_8x_wwdt.c **** }
 710              		.loc 1 333 0
 711 035c 1846     		mov	r0, r3
 712 035e 07F11407 		add	r7, r7, #20
 713 0362 BD46     		mov	sp, r7
 714 0364 80BC     		pop	{r7}
 715 0366 7047     		bx	lr
 716              		.cfi_endproc
 717              	.LFE66:
 719              		.align	2
 720              		.global	WWDT_SetWindow
 721              		.thumb
 722              		.thumb_func
 724              	WWDT_SetWindow:
 725              	.LFB67:
 334:../src/lib/lpc177x_8x/Drivers/source/lpc177x_8x_wwdt.c **** 
 335:../src/lib/lpc177x_8x/Drivers/source/lpc177x_8x_wwdt.c **** 
 336:../src/lib/lpc177x_8x/Drivers/source/lpc177x_8x_wwdt.c **** /********************************************************************//**
 337:../src/lib/lpc177x_8x/Drivers/source/lpc177x_8x_wwdt.c ****  * @brief       Update WDT Windows value (by usec) to Window Register
 338:../src/lib/lpc177x_8x/Drivers/source/lpc177x_8x_wwdt.c ****  *              of WatchDog
 339:../src/lib/lpc177x_8x/Drivers/source/lpc177x_8x_wwdt.c ****  *
 340:../src/lib/lpc177x_8x/Drivers/source/lpc177x_8x_wwdt.c ****  * @param[in]   WindowedTime Expected time (usec) to set watchdog window event
 341:../src/lib/lpc177x_8x/Drivers/source/lpc177x_8x_wwdt.c ****  *
 342:../src/lib/lpc177x_8x/Drivers/source/lpc177x_8x_wwdt.c ****  * @return      WWDT_FUNC_OK if success
 343:../src/lib/lpc177x_8x/Drivers/source/lpc177x_8x_wwdt.c ****  *********************************************************************/
 344:../src/lib/lpc177x_8x/Drivers/source/lpc177x_8x_wwdt.c **** int8_t WWDT_SetWindow(uint32_t WindowedTime)
 345:../src/lib/lpc177x_8x/Drivers/source/lpc177x_8x_wwdt.c **** {
 726              		.loc 1 345 0
 727              		.cfi_startproc
 728              		@ args = 0, pretend = 0, frame = 8
 729              		@ frame_needed = 1, uses_anonymous_args = 0
 730 0368 80B5     		push	{r7, lr}
 731              	.LCFI36:
 732              		.cfi_def_cfa_offset 8
 733              		.cfi_offset 7, -8
 734              		.cfi_offset 14, -4
 735 036a 82B0     		sub	sp, sp, #8
 736              	.LCFI37:
 737              		.cfi_def_cfa_offset 16
 738 036c 00AF     		add	r7, sp, #0
 739              	.LCFI38:
 740              		.cfi_def_cfa_register 7
 741 036e 7860     		str	r0, [r7, #4]
 346:../src/lib/lpc177x_8x/Drivers/source/lpc177x_8x_wwdt.c ****     return WWDT_SetWindowRaw(WDT_GET_FROM_USEC(WindowedTime));
 742              		.loc 1 346 0
 743 0370 7B68     		ldr	r3, [r7, #4]
 744 0372 4FEAD303 		lsr	r3, r3, #3
 745 0376 1846     		mov	r0, r3
 746 0378 FFF7FEFF 		bl	WWDT_SetWindowRaw
 747 037c 0346     		mov	r3, r0
 347:../src/lib/lpc177x_8x/Drivers/source/lpc177x_8x_wwdt.c **** }
 748              		.loc 1 347 0
 749 037e 1846     		mov	r0, r3
 750 0380 07F10807 		add	r7, r7, #8
 751 0384 BD46     		mov	sp, r7
 752 0386 80BD     		pop	{r7, pc}
 753              		.cfi_endproc
 754              	.LFE67:
 756              		.align	2
 757              		.global	WDT_UpdateTimeOut
 758              		.thumb
 759              		.thumb_func
 761              	WDT_UpdateTimeOut:
 762              	.LFB68:
 348:../src/lib/lpc177x_8x/Drivers/source/lpc177x_8x_wwdt.c **** 
 349:../src/lib/lpc177x_8x/Drivers/source/lpc177x_8x_wwdt.c **** 
 350:../src/lib/lpc177x_8x/Drivers/source/lpc177x_8x_wwdt.c **** /********************************************************************//**
 351:../src/lib/lpc177x_8x/Drivers/source/lpc177x_8x_wwdt.c ****  * @brief       Update WDT timeout value for WatchDog event(s)
 352:../src/lib/lpc177x_8x/Drivers/source/lpc177x_8x_wwdt.c ****  *
 353:../src/lib/lpc177x_8x/Drivers/source/lpc177x_8x_wwdt.c ****  * @param[in]   TimeOut Time Out value (usec) to be updated, should be
 354:../src/lib/lpc177x_8x/Drivers/source/lpc177x_8x_wwdt.c ****  *              in range: 2048 .. 134217728
 355:../src/lib/lpc177x_8x/Drivers/source/lpc177x_8x_wwdt.c ****  *
 356:../src/lib/lpc177x_8x/Drivers/source/lpc177x_8x_wwdt.c ****  * @return      None
 357:../src/lib/lpc177x_8x/Drivers/source/lpc177x_8x_wwdt.c ****  *********************************************************************/
 358:../src/lib/lpc177x_8x/Drivers/source/lpc177x_8x_wwdt.c **** void WDT_UpdateTimeOut(uint32_t TimeOut)
 359:../src/lib/lpc177x_8x/Drivers/source/lpc177x_8x_wwdt.c **** {
 763              		.loc 1 359 0
 764              		.cfi_startproc
 765              		@ args = 0, pretend = 0, frame = 8
 766              		@ frame_needed = 1, uses_anonymous_args = 0
 767 0388 80B5     		push	{r7, lr}
 768              	.LCFI39:
 769              		.cfi_def_cfa_offset 8
 770              		.cfi_offset 7, -8
 771              		.cfi_offset 14, -4
 772 038a 82B0     		sub	sp, sp, #8
 773              	.LCFI40:
 774              		.cfi_def_cfa_offset 16
 775 038c 00AF     		add	r7, sp, #0
 776              	.LCFI41:
 777              		.cfi_def_cfa_register 7
 778 038e 7860     		str	r0, [r7, #4]
 360:../src/lib/lpc177x_8x/Drivers/source/lpc177x_8x_wwdt.c ****     /* check WDPROTECT,
 361:../src/lib/lpc177x_8x/Drivers/source/lpc177x_8x_wwdt.c ****      * if it is enable, wait until the counter is below the value of
 362:../src/lib/lpc177x_8x/Drivers/source/lpc177x_8x_wwdt.c ****      * WDWARNINT and WDWINDOW
 363:../src/lib/lpc177x_8x/Drivers/source/lpc177x_8x_wwdt.c ****      */
 364:../src/lib/lpc177x_8x/Drivers/source/lpc177x_8x_wwdt.c ****     if(LPC_WDT->MOD & (1<<4))
 779              		.loc 1 364 0
 780 0390 4FF08043 		mov	r3, #1073741824
 781 0394 1B78     		ldrb	r3, [r3, #0]
 782 0396 DBB2     		uxtb	r3, r3
 783 0398 03F01003 		and	r3, r3, #16
 784 039c 002B     		cmp	r3, #0
 785 039e 16D0     		beq	.L43
 365:../src/lib/lpc177x_8x/Drivers/source/lpc177x_8x_wwdt.c ****     {
 366:../src/lib/lpc177x_8x/Drivers/source/lpc177x_8x_wwdt.c ****         while((LPC_WDT->TV <(LPC_WDT->WARNINT & WWDT_WDWARNINT_MASK))\
 786              		.loc 1 366 0
 787 03a0 00BF     		nop
 788              	.L44:
 789              		.loc 1 366 0 is_stmt 0 discriminator 1
 790 03a2 4FF08043 		mov	r3, #1073741824
 791 03a6 DA68     		ldr	r2, [r3, #12]
 792 03a8 4FF08043 		mov	r3, #1073741824
 793 03ac 5B69     		ldr	r3, [r3, #20]
 794 03ae 4FEA8353 		lsl	r3, r3, #22
 795 03b2 4FEA9353 		lsr	r3, r3, #22
 796 03b6 9A42     		cmp	r2, r3
 797 03b8 09D2     		bcs	.L43
 367:../src/lib/lpc177x_8x/Drivers/source/lpc177x_8x_wwdt.c ****                         &&(LPC_WDT->TV <(LPC_WDT->WINDOW & WWDT_WDTC_MASK)));
 798              		.loc 1 367 0 is_stmt 1
 799 03ba 4FF08043 		mov	r3, #1073741824
 800 03be DA68     		ldr	r2, [r3, #12]
 801 03c0 4FF08043 		mov	r3, #1073741824
 802 03c4 9B69     		ldr	r3, [r3, #24]
 803 03c6 23F07F43 		bic	r3, r3, #-16777216
 804 03ca 9A42     		cmp	r2, r3
 805 03cc E9D3     		bcc	.L44
 806              	.L43:
 368:../src/lib/lpc177x_8x/Drivers/source/lpc177x_8x_wwdt.c ****     }
 369:../src/lib/lpc177x_8x/Drivers/source/lpc177x_8x_wwdt.c **** 
 370:../src/lib/lpc177x_8x/Drivers/source/lpc177x_8x_wwdt.c ****     WWDT_SetTimeOut(TimeOut);
 807              		.loc 1 370 0
 808 03ce 7868     		ldr	r0, [r7, #4]
 809 03d0 FFF7FEFF 		bl	WWDT_SetTimeOut
 371:../src/lib/lpc177x_8x/Drivers/source/lpc177x_8x_wwdt.c **** }
 810              		.loc 1 371 0
 811 03d4 07F10807 		add	r7, r7, #8
 812 03d8 BD46     		mov	sp, r7
 813 03da 80BD     		pop	{r7, pc}
 814              		.cfi_endproc
 815              	.LFE68:
 817              		.align	2
 818              		.global	WWDT_GetStatus
 819              		.thumb
 820              		.thumb_func
 822              	WWDT_GetStatus:
 823              	.LFB69:
 372:../src/lib/lpc177x_8x/Drivers/source/lpc177x_8x_wwdt.c **** 
 373:../src/lib/lpc177x_8x/Drivers/source/lpc177x_8x_wwdt.c **** 
 374:../src/lib/lpc177x_8x/Drivers/source/lpc177x_8x_wwdt.c **** /********************************************************************//**
 375:../src/lib/lpc177x_8x/Drivers/source/lpc177x_8x_wwdt.c ****  * @brief       Read WWDT status flag
 376:../src/lib/lpc177x_8x/Drivers/source/lpc177x_8x_wwdt.c ****  *
 377:../src/lib/lpc177x_8x/Drivers/source/lpc177x_8x_wwdt.c ****  * @param[in]   Status kind of status flag that you want to get, should be:
 378:../src/lib/lpc177x_8x/Drivers/source/lpc177x_8x_wwdt.c ****  *              - WWDT_WARNINT_FLAG: watchdog interrupt flag
 379:../src/lib/lpc177x_8x/Drivers/source/lpc177x_8x_wwdt.c ****  *              - WWDT_TIMEOUT_FLAG: watchdog time-out flag
 380:../src/lib/lpc177x_8x/Drivers/source/lpc177x_8x_wwdt.c ****  *
 381:../src/lib/lpc177x_8x/Drivers/source/lpc177x_8x_wwdt.c ****  * @return      Time out flag status of WDT
 382:../src/lib/lpc177x_8x/Drivers/source/lpc177x_8x_wwdt.c ****  *********************************************************************/
 383:../src/lib/lpc177x_8x/Drivers/source/lpc177x_8x_wwdt.c **** FlagStatus WWDT_GetStatus (uint8_t Status)
 384:../src/lib/lpc177x_8x/Drivers/source/lpc177x_8x_wwdt.c **** {
 824              		.loc 1 384 0
 825              		.cfi_startproc
 826              		@ args = 0, pretend = 0, frame = 8
 827              		@ frame_needed = 1, uses_anonymous_args = 0
 828              		@ link register save eliminated.
 829 03dc 80B4     		push	{r7}
 830              	.LCFI42:
 831              		.cfi_def_cfa_offset 4
 832              		.cfi_offset 7, -4
 833 03de 83B0     		sub	sp, sp, #12
 834              	.LCFI43:
 835              		.cfi_def_cfa_offset 16
 836 03e0 00AF     		add	r7, sp, #0
 837              	.LCFI44:
 838              		.cfi_def_cfa_register 7
 839 03e2 0346     		mov	r3, r0
 840 03e4 FB71     		strb	r3, [r7, #7]
 385:../src/lib/lpc177x_8x/Drivers/source/lpc177x_8x_wwdt.c ****     if(Status == WWDT_WARNINT_FLAG)
 841              		.loc 1 385 0
 842 03e6 FB79     		ldrb	r3, [r7, #7]	@ zero_extendqisi2
 843 03e8 002B     		cmp	r3, #0
 844 03ea 07D1     		bne	.L46
 386:../src/lib/lpc177x_8x/Drivers/source/lpc177x_8x_wwdt.c ****     {
 387:../src/lib/lpc177x_8x/Drivers/source/lpc177x_8x_wwdt.c ****         return ((FlagStatus)(LPC_WDT->MOD & (1<<3)));
 845              		.loc 1 387 0
 846 03ec 4FF08043 		mov	r3, #1073741824
 847 03f0 1B78     		ldrb	r3, [r3, #0]
 848 03f2 DBB2     		uxtb	r3, r3
 849 03f4 03F00803 		and	r3, r3, #8
 850 03f8 DBB2     		uxtb	r3, r3
 851 03fa 0CE0     		b	.L47
 852              	.L46:
 388:../src/lib/lpc177x_8x/Drivers/source/lpc177x_8x_wwdt.c ****     }
 389:../src/lib/lpc177x_8x/Drivers/source/lpc177x_8x_wwdt.c ****     else if (Status == WWDT_TIMEOUT_FLAG)
 853              		.loc 1 389 0
 854 03fc FB79     		ldrb	r3, [r7, #7]	@ zero_extendqisi2
 855 03fe 012B     		cmp	r3, #1
 856 0400 07D1     		bne	.L48
 390:../src/lib/lpc177x_8x/Drivers/source/lpc177x_8x_wwdt.c ****     {
 391:../src/lib/lpc177x_8x/Drivers/source/lpc177x_8x_wwdt.c ****         return ((FlagStatus)(LPC_WDT->MOD & (1<<2)));
 857              		.loc 1 391 0
 858 0402 4FF08043 		mov	r3, #1073741824
 859 0406 1B78     		ldrb	r3, [r3, #0]
 860 0408 DBB2     		uxtb	r3, r3
 861 040a 03F00403 		and	r3, r3, #4
 862 040e DBB2     		uxtb	r3, r3
 863 0410 01E0     		b	.L47
 864              	.L48:
 392:../src/lib/lpc177x_8x/Drivers/source/lpc177x_8x_wwdt.c ****     }
 393:../src/lib/lpc177x_8x/Drivers/source/lpc177x_8x_wwdt.c ****     return RESET;
 865              		.loc 1 393 0
 866 0412 4FF00003 		mov	r3, #0
 867              	.L47:
 394:../src/lib/lpc177x_8x/Drivers/source/lpc177x_8x_wwdt.c **** }
 868              		.loc 1 394 0
 869 0416 1846     		mov	r0, r3
 870 0418 07F10C07 		add	r7, r7, #12
 871 041c BD46     		mov	sp, r7
 872 041e 80BC     		pop	{r7}
 873 0420 7047     		bx	lr
 874              		.cfi_endproc
 875              	.LFE69:
 877 0422 00BF     		.align	2
 878              		.global	WWDT_ClearStatusFlag
 879              		.thumb
 880              		.thumb_func
 882              	WWDT_ClearStatusFlag:
 883              	.LFB70:
 395:../src/lib/lpc177x_8x/Drivers/source/lpc177x_8x_wwdt.c **** 
 396:../src/lib/lpc177x_8x/Drivers/source/lpc177x_8x_wwdt.c **** /********************************************************************//**
 397:../src/lib/lpc177x_8x/Drivers/source/lpc177x_8x_wwdt.c ****  * @brief       Clear WWDT status flag
 398:../src/lib/lpc177x_8x/Drivers/source/lpc177x_8x_wwdt.c ****  *
 399:../src/lib/lpc177x_8x/Drivers/source/lpc177x_8x_wwdt.c ****  * @param[in]   Status kind of status flag that you want to get, should be:
 400:../src/lib/lpc177x_8x/Drivers/source/lpc177x_8x_wwdt.c ****  *              - WWDT_WARNINT_FLAG: watchdog interrupt flag
 401:../src/lib/lpc177x_8x/Drivers/source/lpc177x_8x_wwdt.c ****  *              - WWDT_TIMEOUT_FLAG: watchdog time-out flag
 402:../src/lib/lpc177x_8x/Drivers/source/lpc177x_8x_wwdt.c ****  *
 403:../src/lib/lpc177x_8x/Drivers/source/lpc177x_8x_wwdt.c ****  * @return      None
 404:../src/lib/lpc177x_8x/Drivers/source/lpc177x_8x_wwdt.c ****  *********************************************************************/
 405:../src/lib/lpc177x_8x/Drivers/source/lpc177x_8x_wwdt.c **** void WWDT_ClearStatusFlag (uint8_t flag)
 406:../src/lib/lpc177x_8x/Drivers/source/lpc177x_8x_wwdt.c **** {
 884              		.loc 1 406 0
 885              		.cfi_startproc
 886              		@ args = 0, pretend = 0, frame = 8
 887              		@ frame_needed = 1, uses_anonymous_args = 0
 888              		@ link register save eliminated.
 889 0424 80B4     		push	{r7}
 890              	.LCFI45:
 891              		.cfi_def_cfa_offset 4
 892              		.cfi_offset 7, -4
 893 0426 83B0     		sub	sp, sp, #12
 894              	.LCFI46:
 895              		.cfi_def_cfa_offset 16
 896 0428 00AF     		add	r7, sp, #0
 897              	.LCFI47:
 898              		.cfi_def_cfa_register 7
 899 042a 0346     		mov	r3, r0
 900 042c FB71     		strb	r3, [r7, #7]
 407:../src/lib/lpc177x_8x/Drivers/source/lpc177x_8x_wwdt.c ****     if(flag == WWDT_WARNINT_FLAG)
 901              		.loc 1 407 0
 902 042e FB79     		ldrb	r3, [r7, #7]	@ zero_extendqisi2
 903 0430 002B     		cmp	r3, #0
 904 0432 0AD1     		bne	.L50
 408:../src/lib/lpc177x_8x/Drivers/source/lpc177x_8x_wwdt.c ****     {
 409:../src/lib/lpc177x_8x/Drivers/source/lpc177x_8x_wwdt.c ****         // Write 1 to this bit to clear itself
 410:../src/lib/lpc177x_8x/Drivers/source/lpc177x_8x_wwdt.c ****         LPC_WDT->MOD |= WWDT_WDMOD_WDINT;
 905              		.loc 1 410 0
 906 0434 4FF08043 		mov	r3, #1073741824
 907 0438 4FF08042 		mov	r2, #1073741824
 908 043c 1278     		ldrb	r2, [r2, #0]
 909 043e D2B2     		uxtb	r2, r2
 910 0440 42F00802 		orr	r2, r2, #8
 911 0444 D2B2     		uxtb	r2, r2
 912 0446 1A70     		strb	r2, [r3, #0]
 913 0448 0CE0     		b	.L49
 914              	.L50:
 411:../src/lib/lpc177x_8x/Drivers/source/lpc177x_8x_wwdt.c ****     }
 412:../src/lib/lpc177x_8x/Drivers/source/lpc177x_8x_wwdt.c ****     else if(flag == WWDT_TIMEOUT_FLAG)
 915              		.loc 1 412 0
 916 044a FB79     		ldrb	r3, [r7, #7]	@ zero_extendqisi2
 917 044c 012B     		cmp	r3, #1
 918 044e 09D1     		bne	.L49
 413:../src/lib/lpc177x_8x/Drivers/source/lpc177x_8x_wwdt.c ****     {
 414:../src/lib/lpc177x_8x/Drivers/source/lpc177x_8x_wwdt.c ****         // Write 0 to this bit to clear itself
 415:../src/lib/lpc177x_8x/Drivers/source/lpc177x_8x_wwdt.c ****         LPC_WDT->MOD &= ~ WWDT_WDMOD_WDTOF;
 919              		.loc 1 415 0
 920 0450 4FF08043 		mov	r3, #1073741824
 921 0454 4FF08042 		mov	r2, #1073741824
 922 0458 1278     		ldrb	r2, [r2, #0]
 923 045a D2B2     		uxtb	r2, r2
 924 045c 22F00402 		bic	r2, r2, #4
 925 0460 D2B2     		uxtb	r2, r2
 926 0462 1A70     		strb	r2, [r3, #0]
 927              	.L49:
 416:../src/lib/lpc177x_8x/Drivers/source/lpc177x_8x_wwdt.c ****     }
 417:../src/lib/lpc177x_8x/Drivers/source/lpc177x_8x_wwdt.c **** }
 928              		.loc 1 417 0
 929 0464 07F10C07 		add	r7, r7, #12
 930 0468 BD46     		mov	sp, r7
 931 046a 80BC     		pop	{r7}
 932 046c 7047     		bx	lr
 933              		.cfi_endproc
 934              	.LFE70:
 936 046e 00BF     		.align	2
 937              		.global	WWDT_ClrTimeOutFlag
 938              		.thumb
 939              		.thumb_func
 941              	WWDT_ClrTimeOutFlag:
 942              	.LFB71:
 418:../src/lib/lpc177x_8x/Drivers/source/lpc177x_8x_wwdt.c **** 
 419:../src/lib/lpc177x_8x/Drivers/source/lpc177x_8x_wwdt.c **** /********************************************************************//**
 420:../src/lib/lpc177x_8x/Drivers/source/lpc177x_8x_wwdt.c ****  * @brief       Clear WDT Time out flag
 421:../src/lib/lpc177x_8x/Drivers/source/lpc177x_8x_wwdt.c ****  * @param       None
 422:../src/lib/lpc177x_8x/Drivers/source/lpc177x_8x_wwdt.c ****  * @return      None
 423:../src/lib/lpc177x_8x/Drivers/source/lpc177x_8x_wwdt.c ****  *********************************************************************/
 424:../src/lib/lpc177x_8x/Drivers/source/lpc177x_8x_wwdt.c **** void WWDT_ClrTimeOutFlag (void)
 425:../src/lib/lpc177x_8x/Drivers/source/lpc177x_8x_wwdt.c **** {
 943              		.loc 1 425 0
 944              		.cfi_startproc
 945              		@ args = 0, pretend = 0, frame = 0
 946              		@ frame_needed = 1, uses_anonymous_args = 0
 947              		@ link register save eliminated.
 948 0470 80B4     		push	{r7}
 949              	.LCFI48:
 950              		.cfi_def_cfa_offset 4
 951              		.cfi_offset 7, -4
 952 0472 00AF     		add	r7, sp, #0
 953              	.LCFI49:
 954              		.cfi_def_cfa_register 7
 426:../src/lib/lpc177x_8x/Drivers/source/lpc177x_8x_wwdt.c ****     LPC_WDT->MOD &= ~ WWDT_WDMOD_WDTOF;
 955              		.loc 1 426 0
 956 0474 4FF08043 		mov	r3, #1073741824
 957 0478 4FF08042 		mov	r2, #1073741824
 958 047c 1278     		ldrb	r2, [r2, #0]
 959 047e D2B2     		uxtb	r2, r2
 960 0480 22F00402 		bic	r2, r2, #4
 961 0484 D2B2     		uxtb	r2, r2
 962 0486 1A70     		strb	r2, [r3, #0]
 427:../src/lib/lpc177x_8x/Drivers/source/lpc177x_8x_wwdt.c **** }
 963              		.loc 1 427 0
 964 0488 BD46     		mov	sp, r7
 965 048a 80BC     		pop	{r7}
 966 048c 7047     		bx	lr
 967              		.cfi_endproc
 968              	.LFE71:
 970 048e 00BF     		.align	2
 971              		.global	WWDT_FeedStdSeq
 972              		.thumb
 973              		.thumb_func
 975              	WWDT_FeedStdSeq:
 976              	.LFB72:
 428:../src/lib/lpc177x_8x/Drivers/source/lpc177x_8x_wwdt.c **** 
 429:../src/lib/lpc177x_8x/Drivers/source/lpc177x_8x_wwdt.c **** 
 430:../src/lib/lpc177x_8x/Drivers/source/lpc177x_8x_wwdt.c **** /********************************************************************//**
 431:../src/lib/lpc177x_8x/Drivers/source/lpc177x_8x_wwdt.c ****  * @brief       Following the standard sequence to Feed the WatchDog Timer
 432:../src/lib/lpc177x_8x/Drivers/source/lpc177x_8x_wwdt.c ****  *
 433:../src/lib/lpc177x_8x/Drivers/source/lpc177x_8x_wwdt.c ****  * @param       None
 434:../src/lib/lpc177x_8x/Drivers/source/lpc177x_8x_wwdt.c ****  *
 435:../src/lib/lpc177x_8x/Drivers/source/lpc177x_8x_wwdt.c ****  * @return      None
 436:../src/lib/lpc177x_8x/Drivers/source/lpc177x_8x_wwdt.c ****  *********************************************************************/
 437:../src/lib/lpc177x_8x/Drivers/source/lpc177x_8x_wwdt.c **** void WWDT_FeedStdSeq (void)
 438:../src/lib/lpc177x_8x/Drivers/source/lpc177x_8x_wwdt.c **** {
 977              		.loc 1 438 0
 978              		.cfi_startproc
 979              		@ args = 0, pretend = 0, frame = 0
 980              		@ frame_needed = 1, uses_anonymous_args = 0
 981              		@ link register save eliminated.
 982 0490 80B4     		push	{r7}
 983              	.LCFI50:
 984              		.cfi_def_cfa_offset 4
 985              		.cfi_offset 7, -4
 986 0492 00AF     		add	r7, sp, #0
 987              	.LCFI51:
 988              		.cfi_def_cfa_register 7
 439:../src/lib/lpc177x_8x/Drivers/source/lpc177x_8x_wwdt.c ****     LPC_WDT->FEED = 0xAA;
 989              		.loc 1 439 0
 990 0494 4FF08043 		mov	r3, #1073741824
 991 0498 4FF0AA02 		mov	r2, #170
 992 049c 1A72     		strb	r2, [r3, #8]
 440:../src/lib/lpc177x_8x/Drivers/source/lpc177x_8x_wwdt.c **** 
 441:../src/lib/lpc177x_8x/Drivers/source/lpc177x_8x_wwdt.c ****     LPC_WDT->FEED = 0x55;
 993              		.loc 1 441 0
 994 049e 4FF08043 		mov	r3, #1073741824
 995 04a2 4FF05502 		mov	r2, #85
 996 04a6 1A72     		strb	r2, [r3, #8]
 442:../src/lib/lpc177x_8x/Drivers/source/lpc177x_8x_wwdt.c **** }
 997              		.loc 1 442 0
 998 04a8 BD46     		mov	sp, r7
 999 04aa 80BC     		pop	{r7}
 1000 04ac 7047     		bx	lr
 1001              		.cfi_endproc
 1002              	.LFE72:
 1004 04ae 00BF     		.align	2
 1005              		.global	WWDT_Feed
 1006              		.thumb
 1007              		.thumb_func
 1009              	WWDT_Feed:
 1010              	.LFB73:
 443:../src/lib/lpc177x_8x/Drivers/source/lpc177x_8x_wwdt.c **** 
 444:../src/lib/lpc177x_8x/Drivers/source/lpc177x_8x_wwdt.c **** /********************************************************************//**
 445:../src/lib/lpc177x_8x/Drivers/source/lpc177x_8x_wwdt.c ****  * @brief       After set WDTEN, call this function to start Watchdog
 446:../src/lib/lpc177x_8x/Drivers/source/lpc177x_8x_wwdt.c ****  *              or reload the Watchdog timer
 447:../src/lib/lpc177x_8x/Drivers/source/lpc177x_8x_wwdt.c ****  *
 448:../src/lib/lpc177x_8x/Drivers/source/lpc177x_8x_wwdt.c ****  * @param       None
 449:../src/lib/lpc177x_8x/Drivers/source/lpc177x_8x_wwdt.c ****  *
 450:../src/lib/lpc177x_8x/Drivers/source/lpc177x_8x_wwdt.c ****  * @return      None
 451:../src/lib/lpc177x_8x/Drivers/source/lpc177x_8x_wwdt.c ****  *********************************************************************/
 452:../src/lib/lpc177x_8x/Drivers/source/lpc177x_8x_wwdt.c **** void WWDT_Feed (void)
 453:../src/lib/lpc177x_8x/Drivers/source/lpc177x_8x_wwdt.c **** {
 1011              		.loc 1 453 0
 1012              		.cfi_startproc
 1013              		@ args = 0, pretend = 0, frame = 0
 1014              		@ frame_needed = 1, uses_anonymous_args = 0
 1015 04b0 80B5     		push	{r7, lr}
 1016              	.LCFI52:
 1017              		.cfi_def_cfa_offset 8
 1018              		.cfi_offset 7, -8
 1019              		.cfi_offset 14, -4
 1020 04b2 00AF     		add	r7, sp, #0
 1021              	.LCFI53:
 1022              		.cfi_def_cfa_register 7
 1023              	.LBB6:
 1024              	.LBB7:
 1025              		.file 2 "D:\\workspace_gnu\\RTT_Demo0\\src\\lib\\lpc177x_8x\\Core\\CMSIS\\Include/core_cmFunc.h"
   1:D:\workspace_gnu\RTT_Demo0\src\lib\lpc177x_8x\Core\CMSIS\Include\core_cmFunc.h **** /**************************************************************************//**
   2:D:\workspace_gnu\RTT_Demo0\src\lib\lpc177x_8x\Core\CMSIS\Include\core_cmFunc.h ****  * @file     core_cmFunc.h
   3:D:\workspace_gnu\RTT_Demo0\src\lib\lpc177x_8x\Core\CMSIS\Include\core_cmFunc.h ****  * @brief    CMSIS Cortex-M Core Function Access Header File
   4:D:\workspace_gnu\RTT_Demo0\src\lib\lpc177x_8x\Core\CMSIS\Include\core_cmFunc.h ****  * @version  V2.10
   5:D:\workspace_gnu\RTT_Demo0\src\lib\lpc177x_8x\Core\CMSIS\Include\core_cmFunc.h ****  * @date     26. July 2011
   6:D:\workspace_gnu\RTT_Demo0\src\lib\lpc177x_8x\Core\CMSIS\Include\core_cmFunc.h ****  *
   7:D:\workspace_gnu\RTT_Demo0\src\lib\lpc177x_8x\Core\CMSIS\Include\core_cmFunc.h ****  * @note
   8:D:\workspace_gnu\RTT_Demo0\src\lib\lpc177x_8x\Core\CMSIS\Include\core_cmFunc.h ****  * Copyright (C) 2009-2011 ARM Limited. All rights reserved.
   9:D:\workspace_gnu\RTT_Demo0\src\lib\lpc177x_8x\Core\CMSIS\Include\core_cmFunc.h ****  *
  10:D:\workspace_gnu\RTT_Demo0\src\lib\lpc177x_8x\Core\CMSIS\Include\core_cmFunc.h ****  * @par
  11:D:\workspace_gnu\RTT_Demo0\src\lib\lpc177x_8x\Core\CMSIS\Include\core_cmFunc.h ****  * ARM Limited (ARM) is supplying this software for use with Cortex-M 
  12:D:\workspace_gnu\RTT_Demo0\src\lib\lpc177x_8x\Core\CMSIS\Include\core_cmFunc.h ****  * processor based microcontrollers.  This file can be freely distributed 
  13:D:\workspace_gnu\RTT_Demo0\src\lib\lpc177x_8x\Core\CMSIS\Include\core_cmFunc.h ****  * within development tools that are supporting such ARM based processors. 
  14:D:\workspace_gnu\RTT_Demo0\src\lib\lpc177x_8x\Core\CMSIS\Include\core_cmFunc.h ****  *
  15:D:\workspace_gnu\RTT_Demo0\src\lib\lpc177x_8x\Core\CMSIS\Include\core_cmFunc.h ****  * @par
  16:D:\workspace_gnu\RTT_Demo0\src\lib\lpc177x_8x\Core\CMSIS\Include\core_cmFunc.h ****  * THIS SOFTWARE IS PROVIDED "AS IS".  NO WARRANTIES, WHETHER EXPRESS, IMPLIED
  17:D:\workspace_gnu\RTT_Demo0\src\lib\lpc177x_8x\Core\CMSIS\Include\core_cmFunc.h ****  * OR STATUTORY, INCLUDING, BUT NOT LIMITED TO, IMPLIED WARRANTIES OF
  18:D:\workspace_gnu\RTT_Demo0\src\lib\lpc177x_8x\Core\CMSIS\Include\core_cmFunc.h ****  * MERCHANTABILITY AND FITNESS FOR A PARTICULAR PURPOSE APPLY TO THIS SOFTWARE.
  19:D:\workspace_gnu\RTT_Demo0\src\lib\lpc177x_8x\Core\CMSIS\Include\core_cmFunc.h ****  * ARM SHALL NOT, IN ANY CIRCUMSTANCES, BE LIABLE FOR SPECIAL, INCIDENTAL, OR
  20:D:\workspace_gnu\RTT_Demo0\src\lib\lpc177x_8x\Core\CMSIS\Include\core_cmFunc.h ****  * CONSEQUENTIAL DAMAGES, FOR ANY REASON WHATSOEVER.
  21:D:\workspace_gnu\RTT_Demo0\src\lib\lpc177x_8x\Core\CMSIS\Include\core_cmFunc.h ****  *
  22:D:\workspace_gnu\RTT_Demo0\src\lib\lpc177x_8x\Core\CMSIS\Include\core_cmFunc.h ****  ******************************************************************************/
  23:D:\workspace_gnu\RTT_Demo0\src\lib\lpc177x_8x\Core\CMSIS\Include\core_cmFunc.h **** 
  24:D:\workspace_gnu\RTT_Demo0\src\lib\lpc177x_8x\Core\CMSIS\Include\core_cmFunc.h **** #ifndef __CORE_CMFUNC_H
  25:D:\workspace_gnu\RTT_Demo0\src\lib\lpc177x_8x\Core\CMSIS\Include\core_cmFunc.h **** #define __CORE_CMFUNC_H
  26:D:\workspace_gnu\RTT_Demo0\src\lib\lpc177x_8x\Core\CMSIS\Include\core_cmFunc.h **** 
  27:D:\workspace_gnu\RTT_Demo0\src\lib\lpc177x_8x\Core\CMSIS\Include\core_cmFunc.h **** 
  28:D:\workspace_gnu\RTT_Demo0\src\lib\lpc177x_8x\Core\CMSIS\Include\core_cmFunc.h **** /* ###########################  Core Function Access  ########################### */
  29:D:\workspace_gnu\RTT_Demo0\src\lib\lpc177x_8x\Core\CMSIS\Include\core_cmFunc.h **** /** \ingroup  CMSIS_Core_FunctionInterface   
  30:D:\workspace_gnu\RTT_Demo0\src\lib\lpc177x_8x\Core\CMSIS\Include\core_cmFunc.h ****     \defgroup CMSIS_Core_RegAccFunctions CMSIS Core Register Access Functions
  31:D:\workspace_gnu\RTT_Demo0\src\lib\lpc177x_8x\Core\CMSIS\Include\core_cmFunc.h ****   @{
  32:D:\workspace_gnu\RTT_Demo0\src\lib\lpc177x_8x\Core\CMSIS\Include\core_cmFunc.h ****  */
  33:D:\workspace_gnu\RTT_Demo0\src\lib\lpc177x_8x\Core\CMSIS\Include\core_cmFunc.h **** 
  34:D:\workspace_gnu\RTT_Demo0\src\lib\lpc177x_8x\Core\CMSIS\Include\core_cmFunc.h **** #if   defined ( __CC_ARM ) /*------------------RealView Compiler -----------------*/
  35:D:\workspace_gnu\RTT_Demo0\src\lib\lpc177x_8x\Core\CMSIS\Include\core_cmFunc.h **** /* ARM armcc specific functions */
  36:D:\workspace_gnu\RTT_Demo0\src\lib\lpc177x_8x\Core\CMSIS\Include\core_cmFunc.h **** 
  37:D:\workspace_gnu\RTT_Demo0\src\lib\lpc177x_8x\Core\CMSIS\Include\core_cmFunc.h **** #if (__ARMCC_VERSION < 400677)
  38:D:\workspace_gnu\RTT_Demo0\src\lib\lpc177x_8x\Core\CMSIS\Include\core_cmFunc.h ****   #error "Please use ARM Compiler Toolchain V4.0.677 or later!"
  39:D:\workspace_gnu\RTT_Demo0\src\lib\lpc177x_8x\Core\CMSIS\Include\core_cmFunc.h **** #endif
  40:D:\workspace_gnu\RTT_Demo0\src\lib\lpc177x_8x\Core\CMSIS\Include\core_cmFunc.h **** 
  41:D:\workspace_gnu\RTT_Demo0\src\lib\lpc177x_8x\Core\CMSIS\Include\core_cmFunc.h **** /* intrinsic void __enable_irq();     */
  42:D:\workspace_gnu\RTT_Demo0\src\lib\lpc177x_8x\Core\CMSIS\Include\core_cmFunc.h **** /* intrinsic void __disable_irq();    */
  43:D:\workspace_gnu\RTT_Demo0\src\lib\lpc177x_8x\Core\CMSIS\Include\core_cmFunc.h **** 
  44:D:\workspace_gnu\RTT_Demo0\src\lib\lpc177x_8x\Core\CMSIS\Include\core_cmFunc.h **** /** \brief  Get Control Register
  45:D:\workspace_gnu\RTT_Demo0\src\lib\lpc177x_8x\Core\CMSIS\Include\core_cmFunc.h **** 
  46:D:\workspace_gnu\RTT_Demo0\src\lib\lpc177x_8x\Core\CMSIS\Include\core_cmFunc.h ****     This function returns the content of the Control Register.
  47:D:\workspace_gnu\RTT_Demo0\src\lib\lpc177x_8x\Core\CMSIS\Include\core_cmFunc.h **** 
  48:D:\workspace_gnu\RTT_Demo0\src\lib\lpc177x_8x\Core\CMSIS\Include\core_cmFunc.h ****     \return               Control Register value
  49:D:\workspace_gnu\RTT_Demo0\src\lib\lpc177x_8x\Core\CMSIS\Include\core_cmFunc.h ****  */
  50:D:\workspace_gnu\RTT_Demo0\src\lib\lpc177x_8x\Core\CMSIS\Include\core_cmFunc.h **** static __INLINE uint32_t __get_CONTROL(void)
  51:D:\workspace_gnu\RTT_Demo0\src\lib\lpc177x_8x\Core\CMSIS\Include\core_cmFunc.h **** {
  52:D:\workspace_gnu\RTT_Demo0\src\lib\lpc177x_8x\Core\CMSIS\Include\core_cmFunc.h ****   register uint32_t __regControl         __ASM("control");
  53:D:\workspace_gnu\RTT_Demo0\src\lib\lpc177x_8x\Core\CMSIS\Include\core_cmFunc.h ****   return(__regControl);
  54:D:\workspace_gnu\RTT_Demo0\src\lib\lpc177x_8x\Core\CMSIS\Include\core_cmFunc.h **** }
  55:D:\workspace_gnu\RTT_Demo0\src\lib\lpc177x_8x\Core\CMSIS\Include\core_cmFunc.h **** 
  56:D:\workspace_gnu\RTT_Demo0\src\lib\lpc177x_8x\Core\CMSIS\Include\core_cmFunc.h **** 
  57:D:\workspace_gnu\RTT_Demo0\src\lib\lpc177x_8x\Core\CMSIS\Include\core_cmFunc.h **** /** \brief  Set Control Register
  58:D:\workspace_gnu\RTT_Demo0\src\lib\lpc177x_8x\Core\CMSIS\Include\core_cmFunc.h **** 
  59:D:\workspace_gnu\RTT_Demo0\src\lib\lpc177x_8x\Core\CMSIS\Include\core_cmFunc.h ****     This function writes the given value to the Control Register.
  60:D:\workspace_gnu\RTT_Demo0\src\lib\lpc177x_8x\Core\CMSIS\Include\core_cmFunc.h **** 
  61:D:\workspace_gnu\RTT_Demo0\src\lib\lpc177x_8x\Core\CMSIS\Include\core_cmFunc.h ****     \param [in]    control  Control Register value to set
  62:D:\workspace_gnu\RTT_Demo0\src\lib\lpc177x_8x\Core\CMSIS\Include\core_cmFunc.h ****  */
  63:D:\workspace_gnu\RTT_Demo0\src\lib\lpc177x_8x\Core\CMSIS\Include\core_cmFunc.h **** static __INLINE void __set_CONTROL(uint32_t control)
  64:D:\workspace_gnu\RTT_Demo0\src\lib\lpc177x_8x\Core\CMSIS\Include\core_cmFunc.h **** {
  65:D:\workspace_gnu\RTT_Demo0\src\lib\lpc177x_8x\Core\CMSIS\Include\core_cmFunc.h ****   register uint32_t __regControl         __ASM("control");
  66:D:\workspace_gnu\RTT_Demo0\src\lib\lpc177x_8x\Core\CMSIS\Include\core_cmFunc.h ****   __regControl = control;
  67:D:\workspace_gnu\RTT_Demo0\src\lib\lpc177x_8x\Core\CMSIS\Include\core_cmFunc.h **** }
  68:D:\workspace_gnu\RTT_Demo0\src\lib\lpc177x_8x\Core\CMSIS\Include\core_cmFunc.h **** 
  69:D:\workspace_gnu\RTT_Demo0\src\lib\lpc177x_8x\Core\CMSIS\Include\core_cmFunc.h **** 
  70:D:\workspace_gnu\RTT_Demo0\src\lib\lpc177x_8x\Core\CMSIS\Include\core_cmFunc.h **** /** \brief  Get ISPR Register
  71:D:\workspace_gnu\RTT_Demo0\src\lib\lpc177x_8x\Core\CMSIS\Include\core_cmFunc.h **** 
  72:D:\workspace_gnu\RTT_Demo0\src\lib\lpc177x_8x\Core\CMSIS\Include\core_cmFunc.h ****     This function returns the content of the ISPR Register.
  73:D:\workspace_gnu\RTT_Demo0\src\lib\lpc177x_8x\Core\CMSIS\Include\core_cmFunc.h **** 
  74:D:\workspace_gnu\RTT_Demo0\src\lib\lpc177x_8x\Core\CMSIS\Include\core_cmFunc.h ****     \return               ISPR Register value
  75:D:\workspace_gnu\RTT_Demo0\src\lib\lpc177x_8x\Core\CMSIS\Include\core_cmFunc.h ****  */
  76:D:\workspace_gnu\RTT_Demo0\src\lib\lpc177x_8x\Core\CMSIS\Include\core_cmFunc.h **** static __INLINE uint32_t __get_IPSR(void)
  77:D:\workspace_gnu\RTT_Demo0\src\lib\lpc177x_8x\Core\CMSIS\Include\core_cmFunc.h **** {
  78:D:\workspace_gnu\RTT_Demo0\src\lib\lpc177x_8x\Core\CMSIS\Include\core_cmFunc.h ****   register uint32_t __regIPSR          __ASM("ipsr");
  79:D:\workspace_gnu\RTT_Demo0\src\lib\lpc177x_8x\Core\CMSIS\Include\core_cmFunc.h ****   return(__regIPSR);
  80:D:\workspace_gnu\RTT_Demo0\src\lib\lpc177x_8x\Core\CMSIS\Include\core_cmFunc.h **** }
  81:D:\workspace_gnu\RTT_Demo0\src\lib\lpc177x_8x\Core\CMSIS\Include\core_cmFunc.h **** 
  82:D:\workspace_gnu\RTT_Demo0\src\lib\lpc177x_8x\Core\CMSIS\Include\core_cmFunc.h **** 
  83:D:\workspace_gnu\RTT_Demo0\src\lib\lpc177x_8x\Core\CMSIS\Include\core_cmFunc.h **** /** \brief  Get APSR Register
  84:D:\workspace_gnu\RTT_Demo0\src\lib\lpc177x_8x\Core\CMSIS\Include\core_cmFunc.h **** 
  85:D:\workspace_gnu\RTT_Demo0\src\lib\lpc177x_8x\Core\CMSIS\Include\core_cmFunc.h ****     This function returns the content of the APSR Register.
  86:D:\workspace_gnu\RTT_Demo0\src\lib\lpc177x_8x\Core\CMSIS\Include\core_cmFunc.h **** 
  87:D:\workspace_gnu\RTT_Demo0\src\lib\lpc177x_8x\Core\CMSIS\Include\core_cmFunc.h ****     \return               APSR Register value
  88:D:\workspace_gnu\RTT_Demo0\src\lib\lpc177x_8x\Core\CMSIS\Include\core_cmFunc.h ****  */
  89:D:\workspace_gnu\RTT_Demo0\src\lib\lpc177x_8x\Core\CMSIS\Include\core_cmFunc.h **** static __INLINE uint32_t __get_APSR(void)
  90:D:\workspace_gnu\RTT_Demo0\src\lib\lpc177x_8x\Core\CMSIS\Include\core_cmFunc.h **** {
  91:D:\workspace_gnu\RTT_Demo0\src\lib\lpc177x_8x\Core\CMSIS\Include\core_cmFunc.h ****   register uint32_t __regAPSR          __ASM("apsr");
  92:D:\workspace_gnu\RTT_Demo0\src\lib\lpc177x_8x\Core\CMSIS\Include\core_cmFunc.h ****   return(__regAPSR);
  93:D:\workspace_gnu\RTT_Demo0\src\lib\lpc177x_8x\Core\CMSIS\Include\core_cmFunc.h **** }
  94:D:\workspace_gnu\RTT_Demo0\src\lib\lpc177x_8x\Core\CMSIS\Include\core_cmFunc.h **** 
  95:D:\workspace_gnu\RTT_Demo0\src\lib\lpc177x_8x\Core\CMSIS\Include\core_cmFunc.h **** 
  96:D:\workspace_gnu\RTT_Demo0\src\lib\lpc177x_8x\Core\CMSIS\Include\core_cmFunc.h **** /** \brief  Get xPSR Register
  97:D:\workspace_gnu\RTT_Demo0\src\lib\lpc177x_8x\Core\CMSIS\Include\core_cmFunc.h **** 
  98:D:\workspace_gnu\RTT_Demo0\src\lib\lpc177x_8x\Core\CMSIS\Include\core_cmFunc.h ****     This function returns the content of the xPSR Register.
  99:D:\workspace_gnu\RTT_Demo0\src\lib\lpc177x_8x\Core\CMSIS\Include\core_cmFunc.h **** 
 100:D:\workspace_gnu\RTT_Demo0\src\lib\lpc177x_8x\Core\CMSIS\Include\core_cmFunc.h ****     \return               xPSR Register value
 101:D:\workspace_gnu\RTT_Demo0\src\lib\lpc177x_8x\Core\CMSIS\Include\core_cmFunc.h ****  */
 102:D:\workspace_gnu\RTT_Demo0\src\lib\lpc177x_8x\Core\CMSIS\Include\core_cmFunc.h **** static __INLINE uint32_t __get_xPSR(void)
 103:D:\workspace_gnu\RTT_Demo0\src\lib\lpc177x_8x\Core\CMSIS\Include\core_cmFunc.h **** {
 104:D:\workspace_gnu\RTT_Demo0\src\lib\lpc177x_8x\Core\CMSIS\Include\core_cmFunc.h ****   register uint32_t __regXPSR          __ASM("xpsr");
 105:D:\workspace_gnu\RTT_Demo0\src\lib\lpc177x_8x\Core\CMSIS\Include\core_cmFunc.h ****   return(__regXPSR);
 106:D:\workspace_gnu\RTT_Demo0\src\lib\lpc177x_8x\Core\CMSIS\Include\core_cmFunc.h **** }
 107:D:\workspace_gnu\RTT_Demo0\src\lib\lpc177x_8x\Core\CMSIS\Include\core_cmFunc.h **** 
 108:D:\workspace_gnu\RTT_Demo0\src\lib\lpc177x_8x\Core\CMSIS\Include\core_cmFunc.h **** 
 109:D:\workspace_gnu\RTT_Demo0\src\lib\lpc177x_8x\Core\CMSIS\Include\core_cmFunc.h **** /** \brief  Get Process Stack Pointer
 110:D:\workspace_gnu\RTT_Demo0\src\lib\lpc177x_8x\Core\CMSIS\Include\core_cmFunc.h **** 
 111:D:\workspace_gnu\RTT_Demo0\src\lib\lpc177x_8x\Core\CMSIS\Include\core_cmFunc.h ****     This function returns the current value of the Process Stack Pointer (PSP).
 112:D:\workspace_gnu\RTT_Demo0\src\lib\lpc177x_8x\Core\CMSIS\Include\core_cmFunc.h **** 
 113:D:\workspace_gnu\RTT_Demo0\src\lib\lpc177x_8x\Core\CMSIS\Include\core_cmFunc.h ****     \return               PSP Register value
 114:D:\workspace_gnu\RTT_Demo0\src\lib\lpc177x_8x\Core\CMSIS\Include\core_cmFunc.h ****  */
 115:D:\workspace_gnu\RTT_Demo0\src\lib\lpc177x_8x\Core\CMSIS\Include\core_cmFunc.h **** static __INLINE uint32_t __get_PSP(void)
 116:D:\workspace_gnu\RTT_Demo0\src\lib\lpc177x_8x\Core\CMSIS\Include\core_cmFunc.h **** {
 117:D:\workspace_gnu\RTT_Demo0\src\lib\lpc177x_8x\Core\CMSIS\Include\core_cmFunc.h ****   register uint32_t __regProcessStackPointer  __ASM("psp");
 118:D:\workspace_gnu\RTT_Demo0\src\lib\lpc177x_8x\Core\CMSIS\Include\core_cmFunc.h ****   return(__regProcessStackPointer);
 119:D:\workspace_gnu\RTT_Demo0\src\lib\lpc177x_8x\Core\CMSIS\Include\core_cmFunc.h **** }
 120:D:\workspace_gnu\RTT_Demo0\src\lib\lpc177x_8x\Core\CMSIS\Include\core_cmFunc.h **** 
 121:D:\workspace_gnu\RTT_Demo0\src\lib\lpc177x_8x\Core\CMSIS\Include\core_cmFunc.h **** 
 122:D:\workspace_gnu\RTT_Demo0\src\lib\lpc177x_8x\Core\CMSIS\Include\core_cmFunc.h **** /** \brief  Set Process Stack Pointer
 123:D:\workspace_gnu\RTT_Demo0\src\lib\lpc177x_8x\Core\CMSIS\Include\core_cmFunc.h **** 
 124:D:\workspace_gnu\RTT_Demo0\src\lib\lpc177x_8x\Core\CMSIS\Include\core_cmFunc.h ****     This function assigns the given value to the Process Stack Pointer (PSP).
 125:D:\workspace_gnu\RTT_Demo0\src\lib\lpc177x_8x\Core\CMSIS\Include\core_cmFunc.h **** 
 126:D:\workspace_gnu\RTT_Demo0\src\lib\lpc177x_8x\Core\CMSIS\Include\core_cmFunc.h ****     \param [in]    topOfProcStack  Process Stack Pointer value to set
 127:D:\workspace_gnu\RTT_Demo0\src\lib\lpc177x_8x\Core\CMSIS\Include\core_cmFunc.h ****  */
 128:D:\workspace_gnu\RTT_Demo0\src\lib\lpc177x_8x\Core\CMSIS\Include\core_cmFunc.h **** static __INLINE void __set_PSP(uint32_t topOfProcStack)
 129:D:\workspace_gnu\RTT_Demo0\src\lib\lpc177x_8x\Core\CMSIS\Include\core_cmFunc.h **** {
 130:D:\workspace_gnu\RTT_Demo0\src\lib\lpc177x_8x\Core\CMSIS\Include\core_cmFunc.h ****   register uint32_t __regProcessStackPointer  __ASM("psp");
 131:D:\workspace_gnu\RTT_Demo0\src\lib\lpc177x_8x\Core\CMSIS\Include\core_cmFunc.h ****   __regProcessStackPointer = topOfProcStack;
 132:D:\workspace_gnu\RTT_Demo0\src\lib\lpc177x_8x\Core\CMSIS\Include\core_cmFunc.h **** }
 133:D:\workspace_gnu\RTT_Demo0\src\lib\lpc177x_8x\Core\CMSIS\Include\core_cmFunc.h **** 
 134:D:\workspace_gnu\RTT_Demo0\src\lib\lpc177x_8x\Core\CMSIS\Include\core_cmFunc.h **** 
 135:D:\workspace_gnu\RTT_Demo0\src\lib\lpc177x_8x\Core\CMSIS\Include\core_cmFunc.h **** /** \brief  Get Main Stack Pointer
 136:D:\workspace_gnu\RTT_Demo0\src\lib\lpc177x_8x\Core\CMSIS\Include\core_cmFunc.h **** 
 137:D:\workspace_gnu\RTT_Demo0\src\lib\lpc177x_8x\Core\CMSIS\Include\core_cmFunc.h ****     This function returns the current value of the Main Stack Pointer (MSP).
 138:D:\workspace_gnu\RTT_Demo0\src\lib\lpc177x_8x\Core\CMSIS\Include\core_cmFunc.h **** 
 139:D:\workspace_gnu\RTT_Demo0\src\lib\lpc177x_8x\Core\CMSIS\Include\core_cmFunc.h ****     \return               MSP Register value
 140:D:\workspace_gnu\RTT_Demo0\src\lib\lpc177x_8x\Core\CMSIS\Include\core_cmFunc.h ****  */
 141:D:\workspace_gnu\RTT_Demo0\src\lib\lpc177x_8x\Core\CMSIS\Include\core_cmFunc.h **** static __INLINE uint32_t __get_MSP(void)
 142:D:\workspace_gnu\RTT_Demo0\src\lib\lpc177x_8x\Core\CMSIS\Include\core_cmFunc.h **** {
 143:D:\workspace_gnu\RTT_Demo0\src\lib\lpc177x_8x\Core\CMSIS\Include\core_cmFunc.h ****   register uint32_t __regMainStackPointer     __ASM("msp");
 144:D:\workspace_gnu\RTT_Demo0\src\lib\lpc177x_8x\Core\CMSIS\Include\core_cmFunc.h ****   return(__regMainStackPointer);
 145:D:\workspace_gnu\RTT_Demo0\src\lib\lpc177x_8x\Core\CMSIS\Include\core_cmFunc.h **** }
 146:D:\workspace_gnu\RTT_Demo0\src\lib\lpc177x_8x\Core\CMSIS\Include\core_cmFunc.h **** 
 147:D:\workspace_gnu\RTT_Demo0\src\lib\lpc177x_8x\Core\CMSIS\Include\core_cmFunc.h **** 
 148:D:\workspace_gnu\RTT_Demo0\src\lib\lpc177x_8x\Core\CMSIS\Include\core_cmFunc.h **** /** \brief  Set Main Stack Pointer
 149:D:\workspace_gnu\RTT_Demo0\src\lib\lpc177x_8x\Core\CMSIS\Include\core_cmFunc.h **** 
 150:D:\workspace_gnu\RTT_Demo0\src\lib\lpc177x_8x\Core\CMSIS\Include\core_cmFunc.h ****     This function assigns the given value to the Main Stack Pointer (MSP).
 151:D:\workspace_gnu\RTT_Demo0\src\lib\lpc177x_8x\Core\CMSIS\Include\core_cmFunc.h **** 
 152:D:\workspace_gnu\RTT_Demo0\src\lib\lpc177x_8x\Core\CMSIS\Include\core_cmFunc.h ****     \param [in]    topOfMainStack  Main Stack Pointer value to set
 153:D:\workspace_gnu\RTT_Demo0\src\lib\lpc177x_8x\Core\CMSIS\Include\core_cmFunc.h ****  */
 154:D:\workspace_gnu\RTT_Demo0\src\lib\lpc177x_8x\Core\CMSIS\Include\core_cmFunc.h **** static __INLINE void __set_MSP(uint32_t topOfMainStack)
 155:D:\workspace_gnu\RTT_Demo0\src\lib\lpc177x_8x\Core\CMSIS\Include\core_cmFunc.h **** {
 156:D:\workspace_gnu\RTT_Demo0\src\lib\lpc177x_8x\Core\CMSIS\Include\core_cmFunc.h ****   register uint32_t __regMainStackPointer     __ASM("msp");
 157:D:\workspace_gnu\RTT_Demo0\src\lib\lpc177x_8x\Core\CMSIS\Include\core_cmFunc.h ****   __regMainStackPointer = topOfMainStack;
 158:D:\workspace_gnu\RTT_Demo0\src\lib\lpc177x_8x\Core\CMSIS\Include\core_cmFunc.h **** }
 159:D:\workspace_gnu\RTT_Demo0\src\lib\lpc177x_8x\Core\CMSIS\Include\core_cmFunc.h **** 
 160:D:\workspace_gnu\RTT_Demo0\src\lib\lpc177x_8x\Core\CMSIS\Include\core_cmFunc.h **** 
 161:D:\workspace_gnu\RTT_Demo0\src\lib\lpc177x_8x\Core\CMSIS\Include\core_cmFunc.h **** /** \brief  Get Priority Mask
 162:D:\workspace_gnu\RTT_Demo0\src\lib\lpc177x_8x\Core\CMSIS\Include\core_cmFunc.h **** 
 163:D:\workspace_gnu\RTT_Demo0\src\lib\lpc177x_8x\Core\CMSIS\Include\core_cmFunc.h ****     This function returns the current state of the priority mask bit from the Priority Mask Registe
 164:D:\workspace_gnu\RTT_Demo0\src\lib\lpc177x_8x\Core\CMSIS\Include\core_cmFunc.h **** 
 165:D:\workspace_gnu\RTT_Demo0\src\lib\lpc177x_8x\Core\CMSIS\Include\core_cmFunc.h ****     \return               Priority Mask value
 166:D:\workspace_gnu\RTT_Demo0\src\lib\lpc177x_8x\Core\CMSIS\Include\core_cmFunc.h ****  */
 167:D:\workspace_gnu\RTT_Demo0\src\lib\lpc177x_8x\Core\CMSIS\Include\core_cmFunc.h **** static __INLINE uint32_t __get_PRIMASK(void)
 168:D:\workspace_gnu\RTT_Demo0\src\lib\lpc177x_8x\Core\CMSIS\Include\core_cmFunc.h **** {
 169:D:\workspace_gnu\RTT_Demo0\src\lib\lpc177x_8x\Core\CMSIS\Include\core_cmFunc.h ****   register uint32_t __regPriMask         __ASM("primask");
 170:D:\workspace_gnu\RTT_Demo0\src\lib\lpc177x_8x\Core\CMSIS\Include\core_cmFunc.h ****   return(__regPriMask);
 171:D:\workspace_gnu\RTT_Demo0\src\lib\lpc177x_8x\Core\CMSIS\Include\core_cmFunc.h **** }
 172:D:\workspace_gnu\RTT_Demo0\src\lib\lpc177x_8x\Core\CMSIS\Include\core_cmFunc.h **** 
 173:D:\workspace_gnu\RTT_Demo0\src\lib\lpc177x_8x\Core\CMSIS\Include\core_cmFunc.h **** 
 174:D:\workspace_gnu\RTT_Demo0\src\lib\lpc177x_8x\Core\CMSIS\Include\core_cmFunc.h **** /** \brief  Set Priority Mask
 175:D:\workspace_gnu\RTT_Demo0\src\lib\lpc177x_8x\Core\CMSIS\Include\core_cmFunc.h **** 
 176:D:\workspace_gnu\RTT_Demo0\src\lib\lpc177x_8x\Core\CMSIS\Include\core_cmFunc.h ****     This function assigns the given value to the Priority Mask Register.
 177:D:\workspace_gnu\RTT_Demo0\src\lib\lpc177x_8x\Core\CMSIS\Include\core_cmFunc.h **** 
 178:D:\workspace_gnu\RTT_Demo0\src\lib\lpc177x_8x\Core\CMSIS\Include\core_cmFunc.h ****     \param [in]    priMask  Priority Mask
 179:D:\workspace_gnu\RTT_Demo0\src\lib\lpc177x_8x\Core\CMSIS\Include\core_cmFunc.h ****  */
 180:D:\workspace_gnu\RTT_Demo0\src\lib\lpc177x_8x\Core\CMSIS\Include\core_cmFunc.h **** static __INLINE void __set_PRIMASK(uint32_t priMask)
 181:D:\workspace_gnu\RTT_Demo0\src\lib\lpc177x_8x\Core\CMSIS\Include\core_cmFunc.h **** {
 182:D:\workspace_gnu\RTT_Demo0\src\lib\lpc177x_8x\Core\CMSIS\Include\core_cmFunc.h ****   register uint32_t __regPriMask         __ASM("primask");
 183:D:\workspace_gnu\RTT_Demo0\src\lib\lpc177x_8x\Core\CMSIS\Include\core_cmFunc.h ****   __regPriMask = (priMask);
 184:D:\workspace_gnu\RTT_Demo0\src\lib\lpc177x_8x\Core\CMSIS\Include\core_cmFunc.h **** }
 185:D:\workspace_gnu\RTT_Demo0\src\lib\lpc177x_8x\Core\CMSIS\Include\core_cmFunc.h ****  
 186:D:\workspace_gnu\RTT_Demo0\src\lib\lpc177x_8x\Core\CMSIS\Include\core_cmFunc.h **** 
 187:D:\workspace_gnu\RTT_Demo0\src\lib\lpc177x_8x\Core\CMSIS\Include\core_cmFunc.h **** #if       (__CORTEX_M >= 0x03)
 188:D:\workspace_gnu\RTT_Demo0\src\lib\lpc177x_8x\Core\CMSIS\Include\core_cmFunc.h **** 
 189:D:\workspace_gnu\RTT_Demo0\src\lib\lpc177x_8x\Core\CMSIS\Include\core_cmFunc.h **** /** \brief  Enable FIQ
 190:D:\workspace_gnu\RTT_Demo0\src\lib\lpc177x_8x\Core\CMSIS\Include\core_cmFunc.h **** 
 191:D:\workspace_gnu\RTT_Demo0\src\lib\lpc177x_8x\Core\CMSIS\Include\core_cmFunc.h ****     This function enables FIQ interrupts by clearing the F-bit in the CPSR.
 192:D:\workspace_gnu\RTT_Demo0\src\lib\lpc177x_8x\Core\CMSIS\Include\core_cmFunc.h ****     Can only be executed in Privileged modes.
 193:D:\workspace_gnu\RTT_Demo0\src\lib\lpc177x_8x\Core\CMSIS\Include\core_cmFunc.h ****  */
 194:D:\workspace_gnu\RTT_Demo0\src\lib\lpc177x_8x\Core\CMSIS\Include\core_cmFunc.h **** #define __enable_fault_irq                __enable_fiq
 195:D:\workspace_gnu\RTT_Demo0\src\lib\lpc177x_8x\Core\CMSIS\Include\core_cmFunc.h **** 
 196:D:\workspace_gnu\RTT_Demo0\src\lib\lpc177x_8x\Core\CMSIS\Include\core_cmFunc.h **** 
 197:D:\workspace_gnu\RTT_Demo0\src\lib\lpc177x_8x\Core\CMSIS\Include\core_cmFunc.h **** /** \brief  Disable FIQ
 198:D:\workspace_gnu\RTT_Demo0\src\lib\lpc177x_8x\Core\CMSIS\Include\core_cmFunc.h **** 
 199:D:\workspace_gnu\RTT_Demo0\src\lib\lpc177x_8x\Core\CMSIS\Include\core_cmFunc.h ****     This function disables FIQ interrupts by setting the F-bit in the CPSR.
 200:D:\workspace_gnu\RTT_Demo0\src\lib\lpc177x_8x\Core\CMSIS\Include\core_cmFunc.h ****     Can only be executed in Privileged modes.
 201:D:\workspace_gnu\RTT_Demo0\src\lib\lpc177x_8x\Core\CMSIS\Include\core_cmFunc.h ****  */
 202:D:\workspace_gnu\RTT_Demo0\src\lib\lpc177x_8x\Core\CMSIS\Include\core_cmFunc.h **** #define __disable_fault_irq               __disable_fiq
 203:D:\workspace_gnu\RTT_Demo0\src\lib\lpc177x_8x\Core\CMSIS\Include\core_cmFunc.h **** 
 204:D:\workspace_gnu\RTT_Demo0\src\lib\lpc177x_8x\Core\CMSIS\Include\core_cmFunc.h **** 
 205:D:\workspace_gnu\RTT_Demo0\src\lib\lpc177x_8x\Core\CMSIS\Include\core_cmFunc.h **** /** \brief  Get Base Priority
 206:D:\workspace_gnu\RTT_Demo0\src\lib\lpc177x_8x\Core\CMSIS\Include\core_cmFunc.h **** 
 207:D:\workspace_gnu\RTT_Demo0\src\lib\lpc177x_8x\Core\CMSIS\Include\core_cmFunc.h ****     This function returns the current value of the Base Priority register.
 208:D:\workspace_gnu\RTT_Demo0\src\lib\lpc177x_8x\Core\CMSIS\Include\core_cmFunc.h **** 
 209:D:\workspace_gnu\RTT_Demo0\src\lib\lpc177x_8x\Core\CMSIS\Include\core_cmFunc.h ****     \return               Base Priority register value
 210:D:\workspace_gnu\RTT_Demo0\src\lib\lpc177x_8x\Core\CMSIS\Include\core_cmFunc.h ****  */
 211:D:\workspace_gnu\RTT_Demo0\src\lib\lpc177x_8x\Core\CMSIS\Include\core_cmFunc.h **** static __INLINE uint32_t  __get_BASEPRI(void)
 212:D:\workspace_gnu\RTT_Demo0\src\lib\lpc177x_8x\Core\CMSIS\Include\core_cmFunc.h **** {
 213:D:\workspace_gnu\RTT_Demo0\src\lib\lpc177x_8x\Core\CMSIS\Include\core_cmFunc.h ****   register uint32_t __regBasePri         __ASM("basepri");
 214:D:\workspace_gnu\RTT_Demo0\src\lib\lpc177x_8x\Core\CMSIS\Include\core_cmFunc.h ****   return(__regBasePri);
 215:D:\workspace_gnu\RTT_Demo0\src\lib\lpc177x_8x\Core\CMSIS\Include\core_cmFunc.h **** }
 216:D:\workspace_gnu\RTT_Demo0\src\lib\lpc177x_8x\Core\CMSIS\Include\core_cmFunc.h **** 
 217:D:\workspace_gnu\RTT_Demo0\src\lib\lpc177x_8x\Core\CMSIS\Include\core_cmFunc.h **** 
 218:D:\workspace_gnu\RTT_Demo0\src\lib\lpc177x_8x\Core\CMSIS\Include\core_cmFunc.h **** /** \brief  Set Base Priority
 219:D:\workspace_gnu\RTT_Demo0\src\lib\lpc177x_8x\Core\CMSIS\Include\core_cmFunc.h **** 
 220:D:\workspace_gnu\RTT_Demo0\src\lib\lpc177x_8x\Core\CMSIS\Include\core_cmFunc.h ****     This function assigns the given value to the Base Priority register.
 221:D:\workspace_gnu\RTT_Demo0\src\lib\lpc177x_8x\Core\CMSIS\Include\core_cmFunc.h **** 
 222:D:\workspace_gnu\RTT_Demo0\src\lib\lpc177x_8x\Core\CMSIS\Include\core_cmFunc.h ****     \param [in]    basePri  Base Priority value to set
 223:D:\workspace_gnu\RTT_Demo0\src\lib\lpc177x_8x\Core\CMSIS\Include\core_cmFunc.h ****  */
 224:D:\workspace_gnu\RTT_Demo0\src\lib\lpc177x_8x\Core\CMSIS\Include\core_cmFunc.h **** static __INLINE void __set_BASEPRI(uint32_t basePri)
 225:D:\workspace_gnu\RTT_Demo0\src\lib\lpc177x_8x\Core\CMSIS\Include\core_cmFunc.h **** {
 226:D:\workspace_gnu\RTT_Demo0\src\lib\lpc177x_8x\Core\CMSIS\Include\core_cmFunc.h ****   register uint32_t __regBasePri         __ASM("basepri");
 227:D:\workspace_gnu\RTT_Demo0\src\lib\lpc177x_8x\Core\CMSIS\Include\core_cmFunc.h ****   __regBasePri = (basePri & 0xff);
 228:D:\workspace_gnu\RTT_Demo0\src\lib\lpc177x_8x\Core\CMSIS\Include\core_cmFunc.h **** }
 229:D:\workspace_gnu\RTT_Demo0\src\lib\lpc177x_8x\Core\CMSIS\Include\core_cmFunc.h ****  
 230:D:\workspace_gnu\RTT_Demo0\src\lib\lpc177x_8x\Core\CMSIS\Include\core_cmFunc.h **** 
 231:D:\workspace_gnu\RTT_Demo0\src\lib\lpc177x_8x\Core\CMSIS\Include\core_cmFunc.h **** /** \brief  Get Fault Mask
 232:D:\workspace_gnu\RTT_Demo0\src\lib\lpc177x_8x\Core\CMSIS\Include\core_cmFunc.h **** 
 233:D:\workspace_gnu\RTT_Demo0\src\lib\lpc177x_8x\Core\CMSIS\Include\core_cmFunc.h ****     This function returns the current value of the Fault Mask register.
 234:D:\workspace_gnu\RTT_Demo0\src\lib\lpc177x_8x\Core\CMSIS\Include\core_cmFunc.h **** 
 235:D:\workspace_gnu\RTT_Demo0\src\lib\lpc177x_8x\Core\CMSIS\Include\core_cmFunc.h ****     \return               Fault Mask register value
 236:D:\workspace_gnu\RTT_Demo0\src\lib\lpc177x_8x\Core\CMSIS\Include\core_cmFunc.h ****  */
 237:D:\workspace_gnu\RTT_Demo0\src\lib\lpc177x_8x\Core\CMSIS\Include\core_cmFunc.h **** static __INLINE uint32_t __get_FAULTMASK(void)
 238:D:\workspace_gnu\RTT_Demo0\src\lib\lpc177x_8x\Core\CMSIS\Include\core_cmFunc.h **** {
 239:D:\workspace_gnu\RTT_Demo0\src\lib\lpc177x_8x\Core\CMSIS\Include\core_cmFunc.h ****   register uint32_t __regFaultMask       __ASM("faultmask");
 240:D:\workspace_gnu\RTT_Demo0\src\lib\lpc177x_8x\Core\CMSIS\Include\core_cmFunc.h ****   return(__regFaultMask);
 241:D:\workspace_gnu\RTT_Demo0\src\lib\lpc177x_8x\Core\CMSIS\Include\core_cmFunc.h **** }
 242:D:\workspace_gnu\RTT_Demo0\src\lib\lpc177x_8x\Core\CMSIS\Include\core_cmFunc.h **** 
 243:D:\workspace_gnu\RTT_Demo0\src\lib\lpc177x_8x\Core\CMSIS\Include\core_cmFunc.h **** 
 244:D:\workspace_gnu\RTT_Demo0\src\lib\lpc177x_8x\Core\CMSIS\Include\core_cmFunc.h **** /** \brief  Set Fault Mask
 245:D:\workspace_gnu\RTT_Demo0\src\lib\lpc177x_8x\Core\CMSIS\Include\core_cmFunc.h **** 
 246:D:\workspace_gnu\RTT_Demo0\src\lib\lpc177x_8x\Core\CMSIS\Include\core_cmFunc.h ****     This function assigns the given value to the Fault Mask register.
 247:D:\workspace_gnu\RTT_Demo0\src\lib\lpc177x_8x\Core\CMSIS\Include\core_cmFunc.h **** 
 248:D:\workspace_gnu\RTT_Demo0\src\lib\lpc177x_8x\Core\CMSIS\Include\core_cmFunc.h ****     \param [in]    faultMask  Fault Mask value to set
 249:D:\workspace_gnu\RTT_Demo0\src\lib\lpc177x_8x\Core\CMSIS\Include\core_cmFunc.h ****  */
 250:D:\workspace_gnu\RTT_Demo0\src\lib\lpc177x_8x\Core\CMSIS\Include\core_cmFunc.h **** static __INLINE void __set_FAULTMASK(uint32_t faultMask)
 251:D:\workspace_gnu\RTT_Demo0\src\lib\lpc177x_8x\Core\CMSIS\Include\core_cmFunc.h **** {
 252:D:\workspace_gnu\RTT_Demo0\src\lib\lpc177x_8x\Core\CMSIS\Include\core_cmFunc.h ****   register uint32_t __regFaultMask       __ASM("faultmask");
 253:D:\workspace_gnu\RTT_Demo0\src\lib\lpc177x_8x\Core\CMSIS\Include\core_cmFunc.h ****   __regFaultMask = (faultMask & (uint32_t)1);
 254:D:\workspace_gnu\RTT_Demo0\src\lib\lpc177x_8x\Core\CMSIS\Include\core_cmFunc.h **** }
 255:D:\workspace_gnu\RTT_Demo0\src\lib\lpc177x_8x\Core\CMSIS\Include\core_cmFunc.h **** 
 256:D:\workspace_gnu\RTT_Demo0\src\lib\lpc177x_8x\Core\CMSIS\Include\core_cmFunc.h **** #endif /* (__CORTEX_M >= 0x03) */
 257:D:\workspace_gnu\RTT_Demo0\src\lib\lpc177x_8x\Core\CMSIS\Include\core_cmFunc.h **** 
 258:D:\workspace_gnu\RTT_Demo0\src\lib\lpc177x_8x\Core\CMSIS\Include\core_cmFunc.h **** 
 259:D:\workspace_gnu\RTT_Demo0\src\lib\lpc177x_8x\Core\CMSIS\Include\core_cmFunc.h **** #if       (__CORTEX_M == 0x04)
 260:D:\workspace_gnu\RTT_Demo0\src\lib\lpc177x_8x\Core\CMSIS\Include\core_cmFunc.h **** 
 261:D:\workspace_gnu\RTT_Demo0\src\lib\lpc177x_8x\Core\CMSIS\Include\core_cmFunc.h **** /** \brief  Get FPSCR
 262:D:\workspace_gnu\RTT_Demo0\src\lib\lpc177x_8x\Core\CMSIS\Include\core_cmFunc.h **** 
 263:D:\workspace_gnu\RTT_Demo0\src\lib\lpc177x_8x\Core\CMSIS\Include\core_cmFunc.h ****     This function returns the current value of the Floating Point Status/Control register.
 264:D:\workspace_gnu\RTT_Demo0\src\lib\lpc177x_8x\Core\CMSIS\Include\core_cmFunc.h **** 
 265:D:\workspace_gnu\RTT_Demo0\src\lib\lpc177x_8x\Core\CMSIS\Include\core_cmFunc.h ****     \return               Floating Point Status/Control register value
 266:D:\workspace_gnu\RTT_Demo0\src\lib\lpc177x_8x\Core\CMSIS\Include\core_cmFunc.h ****  */
 267:D:\workspace_gnu\RTT_Demo0\src\lib\lpc177x_8x\Core\CMSIS\Include\core_cmFunc.h **** static __INLINE uint32_t __get_FPSCR(void)
 268:D:\workspace_gnu\RTT_Demo0\src\lib\lpc177x_8x\Core\CMSIS\Include\core_cmFunc.h **** {
 269:D:\workspace_gnu\RTT_Demo0\src\lib\lpc177x_8x\Core\CMSIS\Include\core_cmFunc.h **** #if (__FPU_PRESENT == 1) && (__FPU_USED == 1)
 270:D:\workspace_gnu\RTT_Demo0\src\lib\lpc177x_8x\Core\CMSIS\Include\core_cmFunc.h ****   register uint32_t __regfpscr         __ASM("fpscr");
 271:D:\workspace_gnu\RTT_Demo0\src\lib\lpc177x_8x\Core\CMSIS\Include\core_cmFunc.h ****   return(__regfpscr);
 272:D:\workspace_gnu\RTT_Demo0\src\lib\lpc177x_8x\Core\CMSIS\Include\core_cmFunc.h **** #else
 273:D:\workspace_gnu\RTT_Demo0\src\lib\lpc177x_8x\Core\CMSIS\Include\core_cmFunc.h ****    return(0);
 274:D:\workspace_gnu\RTT_Demo0\src\lib\lpc177x_8x\Core\CMSIS\Include\core_cmFunc.h **** #endif
 275:D:\workspace_gnu\RTT_Demo0\src\lib\lpc177x_8x\Core\CMSIS\Include\core_cmFunc.h **** }
 276:D:\workspace_gnu\RTT_Demo0\src\lib\lpc177x_8x\Core\CMSIS\Include\core_cmFunc.h **** 
 277:D:\workspace_gnu\RTT_Demo0\src\lib\lpc177x_8x\Core\CMSIS\Include\core_cmFunc.h **** 
 278:D:\workspace_gnu\RTT_Demo0\src\lib\lpc177x_8x\Core\CMSIS\Include\core_cmFunc.h **** /** \brief  Set FPSCR
 279:D:\workspace_gnu\RTT_Demo0\src\lib\lpc177x_8x\Core\CMSIS\Include\core_cmFunc.h **** 
 280:D:\workspace_gnu\RTT_Demo0\src\lib\lpc177x_8x\Core\CMSIS\Include\core_cmFunc.h ****     This function assigns the given value to the Floating Point Status/Control register.
 281:D:\workspace_gnu\RTT_Demo0\src\lib\lpc177x_8x\Core\CMSIS\Include\core_cmFunc.h **** 
 282:D:\workspace_gnu\RTT_Demo0\src\lib\lpc177x_8x\Core\CMSIS\Include\core_cmFunc.h ****     \param [in]    fpscr  Floating Point Status/Control value to set
 283:D:\workspace_gnu\RTT_Demo0\src\lib\lpc177x_8x\Core\CMSIS\Include\core_cmFunc.h ****  */
 284:D:\workspace_gnu\RTT_Demo0\src\lib\lpc177x_8x\Core\CMSIS\Include\core_cmFunc.h **** static __INLINE void __set_FPSCR(uint32_t fpscr)
 285:D:\workspace_gnu\RTT_Demo0\src\lib\lpc177x_8x\Core\CMSIS\Include\core_cmFunc.h **** {
 286:D:\workspace_gnu\RTT_Demo0\src\lib\lpc177x_8x\Core\CMSIS\Include\core_cmFunc.h **** #if (__FPU_PRESENT == 1) && (__FPU_USED == 1)
 287:D:\workspace_gnu\RTT_Demo0\src\lib\lpc177x_8x\Core\CMSIS\Include\core_cmFunc.h ****   register uint32_t __regfpscr         __ASM("fpscr");
 288:D:\workspace_gnu\RTT_Demo0\src\lib\lpc177x_8x\Core\CMSIS\Include\core_cmFunc.h ****   __regfpscr = (fpscr);
 289:D:\workspace_gnu\RTT_Demo0\src\lib\lpc177x_8x\Core\CMSIS\Include\core_cmFunc.h **** #endif
 290:D:\workspace_gnu\RTT_Demo0\src\lib\lpc177x_8x\Core\CMSIS\Include\core_cmFunc.h **** }
 291:D:\workspace_gnu\RTT_Demo0\src\lib\lpc177x_8x\Core\CMSIS\Include\core_cmFunc.h **** 
 292:D:\workspace_gnu\RTT_Demo0\src\lib\lpc177x_8x\Core\CMSIS\Include\core_cmFunc.h **** #endif /* (__CORTEX_M == 0x04) */
 293:D:\workspace_gnu\RTT_Demo0\src\lib\lpc177x_8x\Core\CMSIS\Include\core_cmFunc.h **** 
 294:D:\workspace_gnu\RTT_Demo0\src\lib\lpc177x_8x\Core\CMSIS\Include\core_cmFunc.h **** 
 295:D:\workspace_gnu\RTT_Demo0\src\lib\lpc177x_8x\Core\CMSIS\Include\core_cmFunc.h **** #elif defined ( __ICCARM__ ) /*------------------ ICC Compiler -------------------*/
 296:D:\workspace_gnu\RTT_Demo0\src\lib\lpc177x_8x\Core\CMSIS\Include\core_cmFunc.h **** /* IAR iccarm specific functions */
 297:D:\workspace_gnu\RTT_Demo0\src\lib\lpc177x_8x\Core\CMSIS\Include\core_cmFunc.h **** 
 298:D:\workspace_gnu\RTT_Demo0\src\lib\lpc177x_8x\Core\CMSIS\Include\core_cmFunc.h **** #include <cmsis_iar.h>
 299:D:\workspace_gnu\RTT_Demo0\src\lib\lpc177x_8x\Core\CMSIS\Include\core_cmFunc.h **** 
 300:D:\workspace_gnu\RTT_Demo0\src\lib\lpc177x_8x\Core\CMSIS\Include\core_cmFunc.h **** #elif defined ( __GNUC__ ) /*------------------ GNU Compiler ---------------------*/
 301:D:\workspace_gnu\RTT_Demo0\src\lib\lpc177x_8x\Core\CMSIS\Include\core_cmFunc.h **** /* GNU gcc specific functions */
 302:D:\workspace_gnu\RTT_Demo0\src\lib\lpc177x_8x\Core\CMSIS\Include\core_cmFunc.h **** 
 303:D:\workspace_gnu\RTT_Demo0\src\lib\lpc177x_8x\Core\CMSIS\Include\core_cmFunc.h **** /** \brief  Enable IRQ Interrupts
 304:D:\workspace_gnu\RTT_Demo0\src\lib\lpc177x_8x\Core\CMSIS\Include\core_cmFunc.h **** 
 305:D:\workspace_gnu\RTT_Demo0\src\lib\lpc177x_8x\Core\CMSIS\Include\core_cmFunc.h ****   This function enables IRQ interrupts by clearing the I-bit in the CPSR.
 306:D:\workspace_gnu\RTT_Demo0\src\lib\lpc177x_8x\Core\CMSIS\Include\core_cmFunc.h ****   Can only be executed in Privileged modes.
 307:D:\workspace_gnu\RTT_Demo0\src\lib\lpc177x_8x\Core\CMSIS\Include\core_cmFunc.h ****  */
 308:D:\workspace_gnu\RTT_Demo0\src\lib\lpc177x_8x\Core\CMSIS\Include\core_cmFunc.h **** __attribute__( ( always_inline ) ) static __INLINE void __enable_irq(void)
 309:D:\workspace_gnu\RTT_Demo0\src\lib\lpc177x_8x\Core\CMSIS\Include\core_cmFunc.h **** {
 310:D:\workspace_gnu\RTT_Demo0\src\lib\lpc177x_8x\Core\CMSIS\Include\core_cmFunc.h ****   __ASM volatile ("cpsie i");
 311:D:\workspace_gnu\RTT_Demo0\src\lib\lpc177x_8x\Core\CMSIS\Include\core_cmFunc.h **** }
 312:D:\workspace_gnu\RTT_Demo0\src\lib\lpc177x_8x\Core\CMSIS\Include\core_cmFunc.h **** 
 313:D:\workspace_gnu\RTT_Demo0\src\lib\lpc177x_8x\Core\CMSIS\Include\core_cmFunc.h **** 
 314:D:\workspace_gnu\RTT_Demo0\src\lib\lpc177x_8x\Core\CMSIS\Include\core_cmFunc.h **** /** \brief  Disable IRQ Interrupts
 315:D:\workspace_gnu\RTT_Demo0\src\lib\lpc177x_8x\Core\CMSIS\Include\core_cmFunc.h **** 
 316:D:\workspace_gnu\RTT_Demo0\src\lib\lpc177x_8x\Core\CMSIS\Include\core_cmFunc.h ****   This function disables IRQ interrupts by setting the I-bit in the CPSR.
 317:D:\workspace_gnu\RTT_Demo0\src\lib\lpc177x_8x\Core\CMSIS\Include\core_cmFunc.h ****   Can only be executed in Privileged modes.
 318:D:\workspace_gnu\RTT_Demo0\src\lib\lpc177x_8x\Core\CMSIS\Include\core_cmFunc.h ****  */
 319:D:\workspace_gnu\RTT_Demo0\src\lib\lpc177x_8x\Core\CMSIS\Include\core_cmFunc.h **** __attribute__( ( always_inline ) ) static __INLINE void __disable_irq(void)
 320:D:\workspace_gnu\RTT_Demo0\src\lib\lpc177x_8x\Core\CMSIS\Include\core_cmFunc.h **** {
 321:D:\workspace_gnu\RTT_Demo0\src\lib\lpc177x_8x\Core\CMSIS\Include\core_cmFunc.h ****   __ASM volatile ("cpsid i");
 1026              		.loc 2 321 0
 1027              	@ 321 "D:\workspace_gnu\RTT_Demo0\src\lib\lpc177x_8x\Core\CMSIS\Include/core_cmFunc.h" 1
 1028 04b4 72B6     		cpsid i
 1029              	@ 0 "" 2
 1030              		.thumb
 1031              	.LBE7:
 1032              	.LBE6:
 454:../src/lib/lpc177x_8x/Drivers/source/lpc177x_8x_wwdt.c ****     // Disable irq interrupt
 455:../src/lib/lpc177x_8x/Drivers/source/lpc177x_8x_wwdt.c ****     __disable_irq();
 456:../src/lib/lpc177x_8x/Drivers/source/lpc177x_8x_wwdt.c **** 
 457:../src/lib/lpc177x_8x/Drivers/source/lpc177x_8x_wwdt.c ****     WWDT_FeedStdSeq();
 1033              		.loc 1 457 0
 1034 04b6 FFF7FEFF 		bl	WWDT_FeedStdSeq
 1035              	.LBB8:
 1036              	.LBB9:
 310:D:\workspace_gnu\RTT_Demo0\src\lib\lpc177x_8x\Core\CMSIS\Include\core_cmFunc.h ****   __ASM volatile ("cpsie i");
 1037              		.loc 2 310 0
 1038              	@ 310 "D:\workspace_gnu\RTT_Demo0\src\lib\lpc177x_8x\Core\CMSIS\Include/core_cmFunc.h" 1
 1039 04ba 62B6     		cpsie i
 1040              	@ 0 "" 2
 1041              		.thumb
 1042              	.LBE9:
 1043              	.LBE8:
 458:../src/lib/lpc177x_8x/Drivers/source/lpc177x_8x_wwdt.c **** 
 459:../src/lib/lpc177x_8x/Drivers/source/lpc177x_8x_wwdt.c ****     // Then enable irq interrupt
 460:../src/lib/lpc177x_8x/Drivers/source/lpc177x_8x_wwdt.c ****     __enable_irq();
 461:../src/lib/lpc177x_8x/Drivers/source/lpc177x_8x_wwdt.c **** }
 1044              		.loc 1 461 0
 1045 04bc 80BD     		pop	{r7, pc}
 1046              		.cfi_endproc
 1047              	.LFE73:
 1049 04be 00BF     		.align	2
 1050              		.global	WWDT_GetCurrentCount
 1051              		.thumb
 1052              		.thumb_func
 1054              	WWDT_GetCurrentCount:
 1055              	.LFB74:
 462:../src/lib/lpc177x_8x/Drivers/source/lpc177x_8x_wwdt.c **** 
 463:../src/lib/lpc177x_8x/Drivers/source/lpc177x_8x_wwdt.c **** /********************************************************************//**
 464:../src/lib/lpc177x_8x/Drivers/source/lpc177x_8x_wwdt.c ****  * @brief       Get the current value of WDT
 465:../src/lib/lpc177x_8x/Drivers/source/lpc177x_8x_wwdt.c ****  *
 466:../src/lib/lpc177x_8x/Drivers/source/lpc177x_8x_wwdt.c ****  * @param       None
 467:../src/lib/lpc177x_8x/Drivers/source/lpc177x_8x_wwdt.c ****  *
 468:../src/lib/lpc177x_8x/Drivers/source/lpc177x_8x_wwdt.c ****  * @return      Current value of WDT
 469:../src/lib/lpc177x_8x/Drivers/source/lpc177x_8x_wwdt.c ****  *********************************************************************/
 470:../src/lib/lpc177x_8x/Drivers/source/lpc177x_8x_wwdt.c **** uint32_t WWDT_GetCurrentCount(void)
 471:../src/lib/lpc177x_8x/Drivers/source/lpc177x_8x_wwdt.c **** {
 1056              		.loc 1 471 0
 1057              		.cfi_startproc
 1058              		@ args = 0, pretend = 0, frame = 0
 1059              		@ frame_needed = 1, uses_anonymous_args = 0
 1060              		@ link register save eliminated.
 1061 04c0 80B4     		push	{r7}
 1062              	.LCFI54:
 1063              		.cfi_def_cfa_offset 4
 1064              		.cfi_offset 7, -4
 1065 04c2 00AF     		add	r7, sp, #0
 1066              	.LCFI55:
 1067              		.cfi_def_cfa_register 7
 472:../src/lib/lpc177x_8x/Drivers/source/lpc177x_8x_wwdt.c ****     return LPC_WDT->TV;
 1068              		.loc 1 472 0
 1069 04c4 4FF08043 		mov	r3, #1073741824
 1070 04c8 DB68     		ldr	r3, [r3, #12]
 473:../src/lib/lpc177x_8x/Drivers/source/lpc177x_8x_wwdt.c **** }
 1071              		.loc 1 473 0
 1072 04ca 1846     		mov	r0, r3
 1073 04cc BD46     		mov	sp, r7
 1074 04ce 80BC     		pop	{r7}
 1075 04d0 7047     		bx	lr
 1076              		.cfi_endproc
 1077              	.LFE74:
 1079              	.Letext0:
 1080              		.file 3 "g:\\program files\\codesourcery\\sourcery_codebench_lite_for_arm_eabi\\bin\\../lib/gcc/ar
 1081              		.file 4 "D:\\workspace_gnu\\RTT_Demo0\\src\\lib\\lpc177x_8x\\Drivers\\include/lpc_types.h"
 1082              		.file 5 "D:\\workspace_gnu\\RTT_Demo0\\src\\lib\\lpc177x_8x\\Core\\Device\\NXP\\LPC177x_8x\\Includ
 1083              		.file 6 "D:\\workspace_gnu\\RTT_Demo0\\src\\lib\\lpc177x_8x\\Drivers\\include/lpc177x_8x_wwdt.h"
 1084              		.file 7 "D:\\workspace_gnu\\RTT_Demo0\\src\\lib\\lpc177x_8x\\Core\\CMSIS\\Include/core_cm3.h"