   1              		.syntax unified
   2              		.cpu cortex-m4
   3              		.fpu softvfp
   4              		.eabi_attribute 20, 1
   5              		.eabi_attribute 21, 1
   6              		.eabi_attribute 23, 3
   7              		.eabi_attribute 24, 1
   8              		.eabi_attribute 25, 1
   9              		.eabi_attribute 26, 1
  10              		.eabi_attribute 30, 6
  11              		.eabi_attribute 34, 1
  12              		.eabi_attribute 18, 4
  13              		.thumb
  14              		.file	"lpc177x_8x_uart.c"
  15              		.text
  16              	.Ltext0:
  17              		.cfi_sections	.debug_frame
  18              		.global	__aeabi_uldivmod
  19              		.align	2
  20              		.thumb
  21              		.thumb_func
  23              	uart_set_divisors:
  24              	.LFB55:
  25              		.file 1 "../src/lib/lpc177x_8x/Drivers/source/lpc177x_8x_uart.c"
   1:../src/lib/lpc177x_8x/Drivers/source/lpc177x_8x_uart.c **** /**********************************************************************
   2:../src/lib/lpc177x_8x/Drivers/source/lpc177x_8x_uart.c **** * $Id$      lpc177x_8x_uart.c           2011-06-02
   3:../src/lib/lpc177x_8x/Drivers/source/lpc177x_8x_uart.c **** *//**
   4:../src/lib/lpc177x_8x/Drivers/source/lpc177x_8x_uart.c **** * @file     lpc177x_8x_uart.c
   5:../src/lib/lpc177x_8x/Drivers/source/lpc177x_8x_uart.c **** * @brief    Contains all functions support for UART firmware library
   6:../src/lib/lpc177x_8x/Drivers/source/lpc177x_8x_uart.c **** *           on LPC177x_8x
   7:../src/lib/lpc177x_8x/Drivers/source/lpc177x_8x_uart.c **** * @version  1.0
   8:../src/lib/lpc177x_8x/Drivers/source/lpc177x_8x_uart.c **** * @date     02. June. 2011
   9:../src/lib/lpc177x_8x/Drivers/source/lpc177x_8x_uart.c **** * @author   NXP MCU SW Application Team
  10:../src/lib/lpc177x_8x/Drivers/source/lpc177x_8x_uart.c **** * 
  11:../src/lib/lpc177x_8x/Drivers/source/lpc177x_8x_uart.c **** * Copyright(C) 2011, NXP Semiconductor
  12:../src/lib/lpc177x_8x/Drivers/source/lpc177x_8x_uart.c **** * All rights reserved.
  13:../src/lib/lpc177x_8x/Drivers/source/lpc177x_8x_uart.c **** *
  14:../src/lib/lpc177x_8x/Drivers/source/lpc177x_8x_uart.c **** ***********************************************************************
  15:../src/lib/lpc177x_8x/Drivers/source/lpc177x_8x_uart.c **** * Software that is described herein is for illustrative purposes only
  16:../src/lib/lpc177x_8x/Drivers/source/lpc177x_8x_uart.c **** * which provides customers with programming information regarding the
  17:../src/lib/lpc177x_8x/Drivers/source/lpc177x_8x_uart.c **** * products. This software is supplied "AS IS" without any warranties.
  18:../src/lib/lpc177x_8x/Drivers/source/lpc177x_8x_uart.c **** * NXP Semiconductors assumes no responsibility or liability for the
  19:../src/lib/lpc177x_8x/Drivers/source/lpc177x_8x_uart.c **** * use of the software, conveys no license or title under any patent,
  20:../src/lib/lpc177x_8x/Drivers/source/lpc177x_8x_uart.c **** * copyright, or mask work right to the product. NXP Semiconductors
  21:../src/lib/lpc177x_8x/Drivers/source/lpc177x_8x_uart.c **** * reserves the right to make changes in the software without
  22:../src/lib/lpc177x_8x/Drivers/source/lpc177x_8x_uart.c **** * notification. NXP Semiconductors also make no representation or
  23:../src/lib/lpc177x_8x/Drivers/source/lpc177x_8x_uart.c **** * warranty that such application will be suitable for the specified
  24:../src/lib/lpc177x_8x/Drivers/source/lpc177x_8x_uart.c **** * use without further testing or modification.
  25:../src/lib/lpc177x_8x/Drivers/source/lpc177x_8x_uart.c **** * Permission to use, copy, modify, and distribute this software and its
  26:../src/lib/lpc177x_8x/Drivers/source/lpc177x_8x_uart.c **** * documentation is hereby granted, under NXP Semiconductors'
  27:../src/lib/lpc177x_8x/Drivers/source/lpc177x_8x_uart.c **** * relevant copyright in the software, without fee, provided that it
  28:../src/lib/lpc177x_8x/Drivers/source/lpc177x_8x_uart.c **** * is used in conjunction with NXP Semiconductors microcontrollers.  This
  29:../src/lib/lpc177x_8x/Drivers/source/lpc177x_8x_uart.c **** * copyright, permission, and disclaimer notice must appear in all copies of
  30:../src/lib/lpc177x_8x/Drivers/source/lpc177x_8x_uart.c **** * this code.
  31:../src/lib/lpc177x_8x/Drivers/source/lpc177x_8x_uart.c **** **********************************************************************/
  32:../src/lib/lpc177x_8x/Drivers/source/lpc177x_8x_uart.c **** 
  33:../src/lib/lpc177x_8x/Drivers/source/lpc177x_8x_uart.c **** /* Peripheral group ----------------------------------------------------------- */
  34:../src/lib/lpc177x_8x/Drivers/source/lpc177x_8x_uart.c **** /** @addtogroup UART
  35:../src/lib/lpc177x_8x/Drivers/source/lpc177x_8x_uart.c ****  * @{
  36:../src/lib/lpc177x_8x/Drivers/source/lpc177x_8x_uart.c ****  */
  37:../src/lib/lpc177x_8x/Drivers/source/lpc177x_8x_uart.c **** #ifdef __BUILD_WITH_EXAMPLE__
  38:../src/lib/lpc177x_8x/Drivers/source/lpc177x_8x_uart.c **** #include "lpc177x_8x_libcfg.h"
  39:../src/lib/lpc177x_8x/Drivers/source/lpc177x_8x_uart.c **** #else
  40:../src/lib/lpc177x_8x/Drivers/source/lpc177x_8x_uart.c **** #include "lpc177x_8x_libcfg_default.h"
  41:../src/lib/lpc177x_8x/Drivers/source/lpc177x_8x_uart.c **** #endif /* __BUILD_WITH_EXAMPLE__ */
  42:../src/lib/lpc177x_8x/Drivers/source/lpc177x_8x_uart.c **** #ifdef _UART
  43:../src/lib/lpc177x_8x/Drivers/source/lpc177x_8x_uart.c **** 
  44:../src/lib/lpc177x_8x/Drivers/source/lpc177x_8x_uart.c **** /* Includes ------------------------------------------------------------------- */
  45:../src/lib/lpc177x_8x/Drivers/source/lpc177x_8x_uart.c **** #include "lpc177x_8x_uart.h"
  46:../src/lib/lpc177x_8x/Drivers/source/lpc177x_8x_uart.c **** #include "lpc177x_8x_clkpwr.h"
  47:../src/lib/lpc177x_8x/Drivers/source/lpc177x_8x_uart.c **** 
  48:../src/lib/lpc177x_8x/Drivers/source/lpc177x_8x_uart.c **** /* Private Functions ---------------------------------------------------------- */
  49:../src/lib/lpc177x_8x/Drivers/source/lpc177x_8x_uart.c **** 
  50:../src/lib/lpc177x_8x/Drivers/source/lpc177x_8x_uart.c **** static Status uart_set_divisors(UART_ID_Type UartID, uint32_t baudrate);
  51:../src/lib/lpc177x_8x/Drivers/source/lpc177x_8x_uart.c **** static LPC_UART_TypeDef *uart_get_pointer(UART_ID_Type UartID);
  52:../src/lib/lpc177x_8x/Drivers/source/lpc177x_8x_uart.c **** 
  53:../src/lib/lpc177x_8x/Drivers/source/lpc177x_8x_uart.c **** 
  54:../src/lib/lpc177x_8x/Drivers/source/lpc177x_8x_uart.c **** /*********************************************************************//**
  55:../src/lib/lpc177x_8x/Drivers/source/lpc177x_8x_uart.c ****  * @brief       Determines best dividers to get a target clock rate
  56:../src/lib/lpc177x_8x/Drivers/source/lpc177x_8x_uart.c ****  * @param[in]   UARTx   Pointer to selected UART peripheral, should be:
  57:../src/lib/lpc177x_8x/Drivers/source/lpc177x_8x_uart.c ****  *              - UART_0: UART0 peripheral
  58:../src/lib/lpc177x_8x/Drivers/source/lpc177x_8x_uart.c ****  *              - UART_1: UART1 peripheral
  59:../src/lib/lpc177x_8x/Drivers/source/lpc177x_8x_uart.c ****  *              - UART_2: UART2 peripheral
  60:../src/lib/lpc177x_8x/Drivers/source/lpc177x_8x_uart.c ****  *              - UART_3: UART3 peripheral
  61:../src/lib/lpc177x_8x/Drivers/source/lpc177x_8x_uart.c ****  *              - UART_4: UART4 peripheral
  62:../src/lib/lpc177x_8x/Drivers/source/lpc177x_8x_uart.c ****  * @param[in]   baudrate Desired UART baud rate.
  63:../src/lib/lpc177x_8x/Drivers/source/lpc177x_8x_uart.c ****  * @return      Error status, could be:
  64:../src/lib/lpc177x_8x/Drivers/source/lpc177x_8x_uart.c ****  *              - SUCCESS
  65:../src/lib/lpc177x_8x/Drivers/source/lpc177x_8x_uart.c ****  *              - ERROR
  66:../src/lib/lpc177x_8x/Drivers/source/lpc177x_8x_uart.c ****  **********************************************************************/
  67:../src/lib/lpc177x_8x/Drivers/source/lpc177x_8x_uart.c **** static Status uart_set_divisors(UART_ID_Type UartID, uint32_t baudrate)
  68:../src/lib/lpc177x_8x/Drivers/source/lpc177x_8x_uart.c **** {
  26              		.loc 1 68 0
  27              		.cfi_startproc
  28              		@ args = 0, pretend = 0, frame = 96
  29              		@ frame_needed = 1, uses_anonymous_args = 0
  30 0000 2DE9B04F 		push	{r4, r5, r7, r8, r9, sl, fp, lr}
  31              	.LCFI0:
  32              		.cfi_def_cfa_offset 32
  33              		.cfi_offset 4, -32
  34              		.cfi_offset 5, -28
  35              		.cfi_offset 7, -24
  36              		.cfi_offset 8, -20
  37              		.cfi_offset 9, -16
  38              		.cfi_offset 10, -12
  39              		.cfi_offset 11, -8
  40              		.cfi_offset 14, -4
  41 0004 98B0     		sub	sp, sp, #96
  42              	.LCFI1:
  43              		.cfi_def_cfa_offset 128
  44 0006 00AF     		add	r7, sp, #0
  45              	.LCFI2:
  46              		.cfi_def_cfa_register 7
  47 0008 0346     		mov	r3, r0
  48 000a B961     		str	r1, [r7, #24]
  49 000c FB77     		strb	r3, [r7, #31]
  69:../src/lib/lpc177x_8x/Drivers/source/lpc177x_8x_uart.c ****     Status errorStatus = ERROR;
  50              		.loc 1 69 0
  51 000e 4FF00003 		mov	r3, #0
  52 0012 87F85F30 		strb	r3, [r7, #95]
  70:../src/lib/lpc177x_8x/Drivers/source/lpc177x_8x_uart.c **** 
  71:../src/lib/lpc177x_8x/Drivers/source/lpc177x_8x_uart.c ****     uint32_t uClk;
  72:../src/lib/lpc177x_8x/Drivers/source/lpc177x_8x_uart.c ****     uint32_t d, m, bestd, bestm, tmp;
  73:../src/lib/lpc177x_8x/Drivers/source/lpc177x_8x_uart.c ****     uint64_t best_divisor, divisor;
  74:../src/lib/lpc177x_8x/Drivers/source/lpc177x_8x_uart.c ****     uint32_t current_error, best_error;
  75:../src/lib/lpc177x_8x/Drivers/source/lpc177x_8x_uart.c ****     uint32_t recalcbaud;
  76:../src/lib/lpc177x_8x/Drivers/source/lpc177x_8x_uart.c **** 
  77:../src/lib/lpc177x_8x/Drivers/source/lpc177x_8x_uart.c ****     /* get UART block clock */
  78:../src/lib/lpc177x_8x/Drivers/source/lpc177x_8x_uart.c ****     uClk = CLKPWR_GetCLK(CLKPWR_CLKTYPE_PER);
  53              		.loc 1 78 0
  54 0016 4FF00100 		mov	r0, #1
  55 001a FFF7FEFF 		bl	CLKPWR_GetCLK
  56 001e 7863     		str	r0, [r7, #52]
  79:../src/lib/lpc177x_8x/Drivers/source/lpc177x_8x_uart.c **** 
  80:../src/lib/lpc177x_8x/Drivers/source/lpc177x_8x_uart.c ****     /* In the Uart IP block, baud rate is calculated using FDR and DLL-DLM registers
  81:../src/lib/lpc177x_8x/Drivers/source/lpc177x_8x_uart.c ****     * The formula is :
  82:../src/lib/lpc177x_8x/Drivers/source/lpc177x_8x_uart.c ****     * BaudRate= uClk * (mulFracDiv/(mulFracDiv+dividerAddFracDiv) / (16 * (DLL)
  83:../src/lib/lpc177x_8x/Drivers/source/lpc177x_8x_uart.c ****     * It involves floating point calculations. That's the reason the formulae are adjusted with
  84:../src/lib/lpc177x_8x/Drivers/source/lpc177x_8x_uart.c ****     * Multiply and divide method.*/
  85:../src/lib/lpc177x_8x/Drivers/source/lpc177x_8x_uart.c ****     
  86:../src/lib/lpc177x_8x/Drivers/source/lpc177x_8x_uart.c ****     /* The value of mulFracDiv and dividerAddFracDiv should comply to the following expressions:
  87:../src/lib/lpc177x_8x/Drivers/source/lpc177x_8x_uart.c ****     * 0 < mulFracDiv <= 15, 0 <= dividerAddFracDiv <= 15 */
  88:../src/lib/lpc177x_8x/Drivers/source/lpc177x_8x_uart.c ****     best_error = 0xFFFFFFFF; /* Worst case */
  57              		.loc 1 88 0
  58 0020 4FF0FF33 		mov	r3, #-1
  59 0024 BB63     		str	r3, [r7, #56]
  89:../src/lib/lpc177x_8x/Drivers/source/lpc177x_8x_uart.c ****     bestd = 0;
  60              		.loc 1 89 0
  61 0026 4FF00003 		mov	r3, #0
  62 002a 3B65     		str	r3, [r7, #80]
  90:../src/lib/lpc177x_8x/Drivers/source/lpc177x_8x_uart.c ****     bestm = 0;
  63              		.loc 1 90 0
  64 002c 4FF00003 		mov	r3, #0
  65 0030 FB64     		str	r3, [r7, #76]
  91:../src/lib/lpc177x_8x/Drivers/source/lpc177x_8x_uart.c ****     best_divisor = 0;
  66              		.loc 1 91 0
  67 0032 4FF00002 		mov	r2, #0
  68 0036 4FF00003 		mov	r3, #0
  69 003a C7E91023 		strd	r2, [r7, #64]
  92:../src/lib/lpc177x_8x/Drivers/source/lpc177x_8x_uart.c ****     
  93:../src/lib/lpc177x_8x/Drivers/source/lpc177x_8x_uart.c ****     for (m = 1 ; m <= 15 ;m++)
  70              		.loc 1 93 0
  71 003e 4FF00103 		mov	r3, #1
  72 0042 7B65     		str	r3, [r7, #84]
  73 0044 70E0     		b	.L2
  74              	.L12:
  94:../src/lib/lpc177x_8x/Drivers/source/lpc177x_8x_uart.c ****     {
  95:../src/lib/lpc177x_8x/Drivers/source/lpc177x_8x_uart.c ****         for (d = 0 ; d < m ; d++)
  75              		.loc 1 95 0
  76 0046 4FF00003 		mov	r3, #0
  77 004a BB65     		str	r3, [r7, #88]
  78 004c 5FE0     		b	.L3
  79              	.L9:
  96:../src/lib/lpc177x_8x/Drivers/source/lpc177x_8x_uart.c ****         {
  97:../src/lib/lpc177x_8x/Drivers/source/lpc177x_8x_uart.c ****             divisor = ((uint64_t)uClk << 28)*m / (baudrate*(m+d));
  80              		.loc 1 97 0
  81 004e 796B     		ldr	r1, [r7, #52]
  82 0050 0A46     		mov	r2, r1
  83 0052 4FF00003 		mov	r3, #0
  84 0056 4FEA1211 		lsr	r1, r2, #4
  85 005a 4FEA0375 		lsl	r5, r3, #28
  86 005e 0D43     		orrs	r5, r5, r1
  87 0060 4FEA0274 		lsl	r4, r2, #28
  88 0064 796D     		ldr	r1, [r7, #84]
  89 0066 0A46     		mov	r2, r1
  90 0068 4FF00003 		mov	r3, #0
  91 006c 02FB05F0 		mul	r0, r2, r5
  92 0070 04FB03F1 		mul	r1, r4, r3
  93 0074 4118     		adds	r1, r0, r1
  94 0076 A4FB0289 		umull	r8, r9, r4, r2
  95 007a 01EB0903 		add	r3, r1, r9
  96 007e 9946     		mov	r9, r3
  97 0080 7A6D     		ldr	r2, [r7, #84]
  98 0082 BB6D     		ldr	r3, [r7, #88]
  99 0084 D318     		adds	r3, r2, r3
 100 0086 BA69     		ldr	r2, [r7, #24]
 101 0088 02FB03F1 		mul	r1, r2, r3
 102 008c 0A46     		mov	r2, r1
 103 008e 4FF00003 		mov	r3, #0
 104 0092 4046     		mov	r0, r8
 105 0094 4946     		mov	r1, r9
 106 0096 FFF7FEFF 		bl	__aeabi_uldivmod
 107 009a 0246     		mov	r2, r0
 108 009c 0B46     		mov	r3, r1
 109 009e C7E90A23 		strd	r2, [r7, #40]
  98:../src/lib/lpc177x_8x/Drivers/source/lpc177x_8x_uart.c ****             current_error = divisor & 0xFFFFFFFF;
 110              		.loc 1 98 0
 111 00a2 BB6A     		ldr	r3, [r7, #40]
 112 00a4 FB63     		str	r3, [r7, #60]
  99:../src/lib/lpc177x_8x/Drivers/source/lpc177x_8x_uart.c **** 
 100:../src/lib/lpc177x_8x/Drivers/source/lpc177x_8x_uart.c ****             tmp = divisor>>32;
 113              		.loc 1 100 0
 114 00a6 FB6A     		ldr	r3, [r7, #44]
 115 00a8 1B46     		mov	r3, r3
 116 00aa 3B61     		str	r3, [r7, #16]
 117 00ac 4FF00001 		mov	r1, #0
 118 00b0 7961     		str	r1, [r7, #20]
 119 00b2 3B69     		ldr	r3, [r7, #16]
 120 00b4 BB64     		str	r3, [r7, #72]
 101:../src/lib/lpc177x_8x/Drivers/source/lpc177x_8x_uart.c **** 
 102:../src/lib/lpc177x_8x/Drivers/source/lpc177x_8x_uart.c ****             /* Adjust error */
 103:../src/lib/lpc177x_8x/Drivers/source/lpc177x_8x_uart.c ****             if(current_error > ((uint32_t)1<<31))
 121              		.loc 1 103 0
 122 00b6 FB6B     		ldr	r3, [r7, #60]
 123 00b8 B3F1004F 		cmp	r3, #-2147483648
 124 00bc 07D9     		bls	.L4
 104:../src/lib/lpc177x_8x/Drivers/source/lpc177x_8x_uart.c ****             {
 105:../src/lib/lpc177x_8x/Drivers/source/lpc177x_8x_uart.c ****                 current_error = -current_error;
 125              		.loc 1 105 0
 126 00be FB6B     		ldr	r3, [r7, #60]
 127 00c0 C3F10003 		rsb	r3, r3, #0
 128 00c4 FB63     		str	r3, [r7, #60]
 106:../src/lib/lpc177x_8x/Drivers/source/lpc177x_8x_uart.c ****                 tmp++;
 129              		.loc 1 106 0
 130 00c6 BB6C     		ldr	r3, [r7, #72]
 131 00c8 03F10103 		add	r3, r3, #1
 132 00cc BB64     		str	r3, [r7, #72]
 133              	.L4:
 107:../src/lib/lpc177x_8x/Drivers/source/lpc177x_8x_uart.c ****             }
 108:../src/lib/lpc177x_8x/Drivers/source/lpc177x_8x_uart.c **** 
 109:../src/lib/lpc177x_8x/Drivers/source/lpc177x_8x_uart.c ****             /* Out of range */
 110:../src/lib/lpc177x_8x/Drivers/source/lpc177x_8x_uart.c ****             if(tmp < 1 || tmp > 65536)
 134              		.loc 1 110 0
 135 00ce BB6C     		ldr	r3, [r7, #72]
 136 00d0 002B     		cmp	r3, #0
 137 00d2 17D0     		beq	.L21
 138              		.loc 1 110 0 is_stmt 0 discriminator 1
 139 00d4 BB6C     		ldr	r3, [r7, #72]
 140 00d6 B3F5803F 		cmp	r3, #65536
 141 00da 13D8     		bhi	.L21
 142              	.L6:
 111:../src/lib/lpc177x_8x/Drivers/source/lpc177x_8x_uart.c ****                 continue;
 112:../src/lib/lpc177x_8x/Drivers/source/lpc177x_8x_uart.c **** 
 113:../src/lib/lpc177x_8x/Drivers/source/lpc177x_8x_uart.c ****             if( current_error < best_error)
 143              		.loc 1 113 0 is_stmt 1
 144 00dc FA6B     		ldr	r2, [r7, #60]
 145 00de BB6B     		ldr	r3, [r7, #56]
 146 00e0 9A42     		cmp	r2, r3
 147 00e2 10D2     		bcs	.L7
 114:../src/lib/lpc177x_8x/Drivers/source/lpc177x_8x_uart.c ****             {
 115:../src/lib/lpc177x_8x/Drivers/source/lpc177x_8x_uart.c ****                 best_error = current_error;
 148              		.loc 1 115 0
 149 00e4 FB6B     		ldr	r3, [r7, #60]
 150 00e6 BB63     		str	r3, [r7, #56]
 116:../src/lib/lpc177x_8x/Drivers/source/lpc177x_8x_uart.c ****                 best_divisor = tmp;
 151              		.loc 1 116 0
 152 00e8 B96C     		ldr	r1, [r7, #72]
 153 00ea 0A46     		mov	r2, r1
 154 00ec 4FF00003 		mov	r3, #0
 155 00f0 C7E91023 		strd	r2, [r7, #64]
 117:../src/lib/lpc177x_8x/Drivers/source/lpc177x_8x_uart.c ****                 bestd = d;
 156              		.loc 1 117 0
 157 00f4 BB6D     		ldr	r3, [r7, #88]
 158 00f6 3B65     		str	r3, [r7, #80]
 118:../src/lib/lpc177x_8x/Drivers/source/lpc177x_8x_uart.c ****                 bestm = m;
 159              		.loc 1 118 0
 160 00f8 7B6D     		ldr	r3, [r7, #84]
 161 00fa FB64     		str	r3, [r7, #76]
 119:../src/lib/lpc177x_8x/Drivers/source/lpc177x_8x_uart.c ****                 
 120:../src/lib/lpc177x_8x/Drivers/source/lpc177x_8x_uart.c ****                 if(best_error == 0) 
 162              		.loc 1 120 0
 163 00fc BB6B     		ldr	r3, [r7, #56]
 164 00fe 002B     		cmp	r3, #0
 165 0100 0AD0     		beq	.L22
 166 0102 00E0     		b	.L7
 167              	.L21:
 111:../src/lib/lpc177x_8x/Drivers/source/lpc177x_8x_uart.c ****                 continue;
 168              		.loc 1 111 0
 169 0104 00BF     		nop
 170              	.L7:
  95:../src/lib/lpc177x_8x/Drivers/source/lpc177x_8x_uart.c ****         for (d = 0 ; d < m ; d++)
 171              		.loc 1 95 0
 172 0106 BB6D     		ldr	r3, [r7, #88]
 173 0108 03F10103 		add	r3, r3, #1
 174 010c BB65     		str	r3, [r7, #88]
 175              	.L3:
  95:../src/lib/lpc177x_8x/Drivers/source/lpc177x_8x_uart.c ****         for (d = 0 ; d < m ; d++)
 176              		.loc 1 95 0 is_stmt 0 discriminator 1
 177 010e BA6D     		ldr	r2, [r7, #88]
 178 0110 7B6D     		ldr	r3, [r7, #84]
 179 0112 9A42     		cmp	r2, r3
 180 0114 9BD3     		bcc	.L9
 181 0116 00E0     		b	.L8
 182              	.L22:
 121:../src/lib/lpc177x_8x/Drivers/source/lpc177x_8x_uart.c ****                     break;
 183              		.loc 1 121 0 is_stmt 1
 184 0118 00BF     		nop
 185              	.L8:
 122:../src/lib/lpc177x_8x/Drivers/source/lpc177x_8x_uart.c ****             }
 123:../src/lib/lpc177x_8x/Drivers/source/lpc177x_8x_uart.c ****         } /* end of inner for loop */
 124:../src/lib/lpc177x_8x/Drivers/source/lpc177x_8x_uart.c **** 
 125:../src/lib/lpc177x_8x/Drivers/source/lpc177x_8x_uart.c ****         if (best_error == 0)
 186              		.loc 1 125 0
 187 011a BB6B     		ldr	r3, [r7, #56]
 188 011c 002B     		cmp	r3, #0
 189 011e 07D0     		beq	.L23
 190              	.L10:
  93:../src/lib/lpc177x_8x/Drivers/source/lpc177x_8x_uart.c ****     for (m = 1 ; m <= 15 ;m++)
 191              		.loc 1 93 0
 192 0120 7B6D     		ldr	r3, [r7, #84]
 193 0122 03F10103 		add	r3, r3, #1
 194 0126 7B65     		str	r3, [r7, #84]
 195              	.L2:
  93:../src/lib/lpc177x_8x/Drivers/source/lpc177x_8x_uart.c ****     for (m = 1 ; m <= 15 ;m++)
 196              		.loc 1 93 0 is_stmt 0 discriminator 1
 197 0128 7B6D     		ldr	r3, [r7, #84]
 198 012a 0F2B     		cmp	r3, #15
 199 012c 8BD9     		bls	.L12
 200 012e 00E0     		b	.L11
 201              	.L23:
 126:../src/lib/lpc177x_8x/Drivers/source/lpc177x_8x_uart.c ****             break;
 202              		.loc 1 126 0 is_stmt 1
 203 0130 00BF     		nop
 204              	.L11:
 127:../src/lib/lpc177x_8x/Drivers/source/lpc177x_8x_uart.c ****     } /* end of outer for loop  */
 128:../src/lib/lpc177x_8x/Drivers/source/lpc177x_8x_uart.c **** 
 129:../src/lib/lpc177x_8x/Drivers/source/lpc177x_8x_uart.c ****     /* can not find best match */
 130:../src/lib/lpc177x_8x/Drivers/source/lpc177x_8x_uart.c ****     if(best_divisor == 0) 
 205              		.loc 1 130 0
 206 0132 D7E91023 		ldrd	r2, [r7, #64]
 207 0136 52EA0301 		orrs	r1, r2, r3
 208 013a 02D1     		bne	.L13
 131:../src/lib/lpc177x_8x/Drivers/source/lpc177x_8x_uart.c ****         return ERROR;
 209              		.loc 1 131 0
 210 013c 4FF00003 		mov	r3, #0
 211 0140 DDE0     		b	.L14
 212              	.L13:
 132:../src/lib/lpc177x_8x/Drivers/source/lpc177x_8x_uart.c **** 
 133:../src/lib/lpc177x_8x/Drivers/source/lpc177x_8x_uart.c ****     recalcbaud = (uClk >> 4) * bestm / (best_divisor * (bestm + bestd));
 213              		.loc 1 133 0
 214 0142 7B6B     		ldr	r3, [r7, #52]
 215 0144 4FEA1313 		lsr	r3, r3, #4
 216 0148 FA6C     		ldr	r2, [r7, #76]
 217 014a 02FB03F3 		mul	r3, r2, r3
 218 014e 1846     		mov	r0, r3
 219 0150 4FF00001 		mov	r1, #0
 220 0154 FA6C     		ldr	r2, [r7, #76]
 221 0156 3B6D     		ldr	r3, [r7, #80]
 222 0158 D418     		adds	r4, r2, r3
 223 015a 2246     		mov	r2, r4
 224 015c 4FF00003 		mov	r3, #0
 225 0160 3C6C     		ldr	r4, [r7, #64]
 226 0162 03FB04F5 		mul	r5, r3, r4
 227 0166 7C6C     		ldr	r4, [r7, #68]
 228 0168 02FB04F4 		mul	r4, r2, r4
 229 016c 2C19     		adds	r4, r5, r4
 230 016e 3D6C     		ldr	r5, [r7, #64]
 231 0170 A5FB0223 		umull	r2, r3, r5, r2
 232 0174 E418     		adds	r4, r4, r3
 233 0176 2346     		mov	r3, r4
 234 0178 FFF7FEFF 		bl	__aeabi_uldivmod
 235 017c 0246     		mov	r2, r0
 236 017e 0B46     		mov	r3, r1
 237 0180 1346     		mov	r3, r2
 238 0182 7B62     		str	r3, [r7, #36]
 134:../src/lib/lpc177x_8x/Drivers/source/lpc177x_8x_uart.c **** 
 135:../src/lib/lpc177x_8x/Drivers/source/lpc177x_8x_uart.c ****     /* reuse best_error to evaluate baud error*/
 136:../src/lib/lpc177x_8x/Drivers/source/lpc177x_8x_uart.c ****     if(baudrate > recalcbaud) 
 239              		.loc 1 136 0
 240 0184 BA69     		ldr	r2, [r7, #24]
 241 0186 7B6A     		ldr	r3, [r7, #36]
 242 0188 9A42     		cmp	r2, r3
 243 018a 04D9     		bls	.L15
 137:../src/lib/lpc177x_8x/Drivers/source/lpc177x_8x_uart.c ****         best_error = baudrate - recalcbaud;
 244              		.loc 1 137 0
 245 018c BA69     		ldr	r2, [r7, #24]
 246 018e 7B6A     		ldr	r3, [r7, #36]
 247 0190 D31A     		subs	r3, r2, r3
 248 0192 BB63     		str	r3, [r7, #56]
 249 0194 03E0     		b	.L16
 250              	.L15:
 138:../src/lib/lpc177x_8x/Drivers/source/lpc177x_8x_uart.c ****     else 
 139:../src/lib/lpc177x_8x/Drivers/source/lpc177x_8x_uart.c ****         best_error = recalcbaud -baudrate;
 251              		.loc 1 139 0
 252 0196 7A6A     		ldr	r2, [r7, #36]
 253 0198 BB69     		ldr	r3, [r7, #24]
 254 019a D31A     		subs	r3, r2, r3
 255 019c BB63     		str	r3, [r7, #56]
 256              	.L16:
 140:../src/lib/lpc177x_8x/Drivers/source/lpc177x_8x_uart.c **** 
 141:../src/lib/lpc177x_8x/Drivers/source/lpc177x_8x_uart.c ****     best_error = best_error * 100 / baudrate;
 257              		.loc 1 141 0
 258 019e BB6B     		ldr	r3, [r7, #56]
 259 01a0 4FF06402 		mov	r2, #100
 260 01a4 02FB03F2 		mul	r2, r2, r3
 261 01a8 BB69     		ldr	r3, [r7, #24]
 262 01aa B2FBF3F3 		udiv	r3, r2, r3
 263 01ae BB63     		str	r3, [r7, #56]
 142:../src/lib/lpc177x_8x/Drivers/source/lpc177x_8x_uart.c **** 
 143:../src/lib/lpc177x_8x/Drivers/source/lpc177x_8x_uart.c ****     if (best_error < UART_ACCEPTED_BAUDRATE_ERROR)
 264              		.loc 1 143 0
 265 01b0 BB6B     		ldr	r3, [r7, #56]
 266 01b2 022B     		cmp	r3, #2
 267 01b4 00F2A180 		bhi	.L17
 144:../src/lib/lpc177x_8x/Drivers/source/lpc177x_8x_uart.c ****     {
 145:../src/lib/lpc177x_8x/Drivers/source/lpc177x_8x_uart.c ****         if (UartID == UART_1)
 268              		.loc 1 145 0
 269 01b8 FB7F     		ldrb	r3, [r7, #31]	@ zero_extendqisi2
 270 01ba 012B     		cmp	r3, #1
 271 01bc 31D1     		bne	.L18
 146:../src/lib/lpc177x_8x/Drivers/source/lpc177x_8x_uart.c ****         {
 147:../src/lib/lpc177x_8x/Drivers/source/lpc177x_8x_uart.c ****             LPC_UART1->LCR |= UART_LCR_DLAB_EN;
 272              		.loc 1 147 0
 273 01be 534B     		ldr	r3, .L24
 274 01c0 524A     		ldr	r2, .L24
 275 01c2 127B     		ldrb	r2, [r2, #12]
 276 01c4 D2B2     		uxtb	r2, r2
 277 01c6 62F07F02 		orn	r2, r2, #127
 278 01ca D2B2     		uxtb	r2, r2
 279 01cc 1A73     		strb	r2, [r3, #12]
 148:../src/lib/lpc177x_8x/Drivers/source/lpc177x_8x_uart.c ****             
 149:../src/lib/lpc177x_8x/Drivers/source/lpc177x_8x_uart.c ****             LPC_UART1->DLM = UART_LOAD_DLM(best_divisor);
 280              		.loc 1 149 0
 281 01ce 4F4B     		ldr	r3, .L24
 282 01d0 7A6C     		ldr	r2, [r7, #68]
 283 01d2 4FEA0262 		lsl	r2, r2, #24
 284 01d6 396C     		ldr	r1, [r7, #64]
 285 01d8 4FEA1121 		lsr	r1, r1, #8
 286 01dc B960     		str	r1, [r7, #8]
 287 01de B968     		ldr	r1, [r7, #8]
 288 01e0 1143     		orrs	r1, r1, r2
 289 01e2 B960     		str	r1, [r7, #8]
 290 01e4 7A6C     		ldr	r2, [r7, #68]
 291 01e6 4FEA1222 		lsr	r2, r2, #8
 292 01ea FA60     		str	r2, [r7, #12]
 293 01ec 397A     		ldrb	r1, [r7, #8]
 294 01ee CAB2     		uxtb	r2, r1
 295 01f0 1A71     		strb	r2, [r3, #4]
 150:../src/lib/lpc177x_8x/Drivers/source/lpc177x_8x_uart.c ****             
 151:../src/lib/lpc177x_8x/Drivers/source/lpc177x_8x_uart.c ****             LPC_UART1->DLL = UART_LOAD_DLL(best_divisor);
 296              		.loc 1 151 0
 297 01f2 464B     		ldr	r3, .L24
 298 01f4 97F84020 		ldrb	r2, [r7, #64]	@ zero_extendqisi2
 299 01f8 1A70     		strb	r2, [r3, #0]
 152:../src/lib/lpc177x_8x/Drivers/source/lpc177x_8x_uart.c ****             
 153:../src/lib/lpc177x_8x/Drivers/source/lpc177x_8x_uart.c ****             /* Then reset DLAB bit */
 154:../src/lib/lpc177x_8x/Drivers/source/lpc177x_8x_uart.c ****             LPC_UART1->LCR &= (~UART_LCR_DLAB_EN) & UART_LCR_BITMASK;
 300              		.loc 1 154 0
 301 01fa 444B     		ldr	r3, .L24
 302 01fc 434A     		ldr	r2, .L24
 303 01fe 127B     		ldrb	r2, [r2, #12]
 304 0200 D2B2     		uxtb	r2, r2
 305 0202 02F07F02 		and	r2, r2, #127
 306 0206 D2B2     		uxtb	r2, r2
 307 0208 1A73     		strb	r2, [r3, #12]
 155:../src/lib/lpc177x_8x/Drivers/source/lpc177x_8x_uart.c ****             
 156:../src/lib/lpc177x_8x/Drivers/source/lpc177x_8x_uart.c ****             LPC_UART1->FDR = (UART_FDR_MULVAL(bestm)
 308              		.loc 1 156 0
 309 020a 404B     		ldr	r3, .L24
 310 020c FA6C     		ldr	r2, [r7, #76]
 311 020e 4FEA0212 		lsl	r2, r2, #4
 312 0212 D1B2     		uxtb	r1, r2
 157:../src/lib/lpc177x_8x/Drivers/source/lpc177x_8x_uart.c ****                                                     | UART_FDR_DIVADDVAL(bestd)) & UART_FDR_BITMASK
 313              		.loc 1 157 0
 314 0214 3A6D     		ldr	r2, [r7, #80]
 315 0216 02F00F02 		and	r2, r2, #15
 316 021a 0A43     		orrs	r2, r2, r1
 317 021c D2B2     		uxtb	r2, r2
 156:../src/lib/lpc177x_8x/Drivers/source/lpc177x_8x_uart.c ****             LPC_UART1->FDR = (UART_FDR_MULVAL(bestm)
 318              		.loc 1 156 0
 319 021e 9A62     		str	r2, [r3, #40]
 320 0220 67E0     		b	.L19
 321              	.L18:
 158:../src/lib/lpc177x_8x/Drivers/source/lpc177x_8x_uart.c ****         }
 159:../src/lib/lpc177x_8x/Drivers/source/lpc177x_8x_uart.c ****         else if (UartID == UART_4)
 322              		.loc 1 159 0
 323 0222 FB7F     		ldrb	r3, [r7, #31]	@ zero_extendqisi2
 324 0224 042B     		cmp	r3, #4
 325 0226 2DD1     		bne	.L20
 160:../src/lib/lpc177x_8x/Drivers/source/lpc177x_8x_uart.c ****         {
 161:../src/lib/lpc177x_8x/Drivers/source/lpc177x_8x_uart.c ****             LPC_UART4->LCR |= UART_LCR_DLAB_EN;
 326              		.loc 1 161 0
 327 0228 394B     		ldr	r3, .L24+4
 328 022a 394A     		ldr	r2, .L24+4
 329 022c D268     		ldr	r2, [r2, #12]
 330 022e 42F08002 		orr	r2, r2, #128
 331 0232 DA60     		str	r2, [r3, #12]
 162:../src/lib/lpc177x_8x/Drivers/source/lpc177x_8x_uart.c ****             
 163:../src/lib/lpc177x_8x/Drivers/source/lpc177x_8x_uart.c ****             LPC_UART4->DLM = UART_LOAD_DLM(best_divisor);
 332              		.loc 1 163 0
 333 0234 364B     		ldr	r3, .L24+4
 334 0236 7A6C     		ldr	r2, [r7, #68]
 335 0238 4FEA0262 		lsl	r2, r2, #24
 336 023c 396C     		ldr	r1, [r7, #64]
 337 023e 4FEA1121 		lsr	r1, r1, #8
 338 0242 3960     		str	r1, [r7, #0]
 339 0244 3968     		ldr	r1, [r7, #0]
 340 0246 1143     		orrs	r1, r1, r2
 341 0248 3960     		str	r1, [r7, #0]
 342 024a 7A6C     		ldr	r2, [r7, #68]
 343 024c 4FEA1222 		lsr	r2, r2, #8
 344 0250 7A60     		str	r2, [r7, #4]
 345 0252 3A68     		ldr	r2, [r7, #0]
 346 0254 D2B2     		uxtb	r2, r2
 347 0256 5A60     		str	r2, [r3, #4]
 164:../src/lib/lpc177x_8x/Drivers/source/lpc177x_8x_uart.c ****             
 165:../src/lib/lpc177x_8x/Drivers/source/lpc177x_8x_uart.c ****             LPC_UART4->DLL = UART_LOAD_DLL(best_divisor);
 348              		.loc 1 165 0
 349 0258 2D4B     		ldr	r3, .L24+4
 350 025a 3A6C     		ldr	r2, [r7, #64]
 351 025c D2B2     		uxtb	r2, r2
 352 025e 1A60     		str	r2, [r3, #0]
 166:../src/lib/lpc177x_8x/Drivers/source/lpc177x_8x_uart.c ****             
 167:../src/lib/lpc177x_8x/Drivers/source/lpc177x_8x_uart.c ****             /* Then reset DLAB bit */
 168:../src/lib/lpc177x_8x/Drivers/source/lpc177x_8x_uart.c ****             LPC_UART4->LCR &= (~UART_LCR_DLAB_EN) & UART_LCR_BITMASK;
 353              		.loc 1 168 0
 354 0260 2B4B     		ldr	r3, .L24+4
 355 0262 2B4A     		ldr	r2, .L24+4
 356 0264 D268     		ldr	r2, [r2, #12]
 357 0266 02F07F02 		and	r2, r2, #127
 358 026a DA60     		str	r2, [r3, #12]
 169:../src/lib/lpc177x_8x/Drivers/source/lpc177x_8x_uart.c ****             
 170:../src/lib/lpc177x_8x/Drivers/source/lpc177x_8x_uart.c ****             LPC_UART4->FDR = (UART_FDR_MULVAL(bestm)
 359              		.loc 1 170 0
 360 026c 284B     		ldr	r3, .L24+4
 361 026e FA6C     		ldr	r2, [r7, #76]
 362 0270 4FEA0212 		lsl	r2, r2, #4
 363 0274 D1B2     		uxtb	r1, r2
 171:../src/lib/lpc177x_8x/Drivers/source/lpc177x_8x_uart.c ****                                                     | UART_FDR_DIVADDVAL(bestd)) & UART_FDR_BITMASK
 364              		.loc 1 171 0
 365 0276 3A6D     		ldr	r2, [r7, #80]
 366 0278 02F00F02 		and	r2, r2, #15
 367 027c 0A43     		orrs	r2, r2, r1
 368 027e D2B2     		uxtb	r2, r2
 170:../src/lib/lpc177x_8x/Drivers/source/lpc177x_8x_uart.c ****             LPC_UART4->FDR = (UART_FDR_MULVAL(bestm)
 369              		.loc 1 170 0
 370 0280 9A62     		str	r2, [r3, #40]
 371 0282 36E0     		b	.L19
 372              	.L20:
 373              	.LBB2:
 172:../src/lib/lpc177x_8x/Drivers/source/lpc177x_8x_uart.c ****         }
 173:../src/lib/lpc177x_8x/Drivers/source/lpc177x_8x_uart.c ****             
 174:../src/lib/lpc177x_8x/Drivers/source/lpc177x_8x_uart.c ****         else
 175:../src/lib/lpc177x_8x/Drivers/source/lpc177x_8x_uart.c ****         {
 176:../src/lib/lpc177x_8x/Drivers/source/lpc177x_8x_uart.c ****             LPC_UART_TypeDef *UARTx = uart_get_pointer(UartID);
 374              		.loc 1 176 0
 375 0284 FB7F     		ldrb	r3, [r7, #31]	@ zero_extendqisi2
 376 0286 1846     		mov	r0, r3
 377 0288 00F044F8 		bl	uart_get_pointer
 378 028c 3862     		str	r0, [r7, #32]
 177:../src/lib/lpc177x_8x/Drivers/source/lpc177x_8x_uart.c ****             UARTx->LCR |= UART_LCR_DLAB_EN;
 379              		.loc 1 177 0
 380 028e 3B6A     		ldr	r3, [r7, #32]
 381 0290 1B7B     		ldrb	r3, [r3, #12]
 382 0292 DBB2     		uxtb	r3, r3
 383 0294 63F07F03 		orn	r3, r3, #127
 384 0298 DAB2     		uxtb	r2, r3
 385 029a 3B6A     		ldr	r3, [r7, #32]
 386 029c 1A73     		strb	r2, [r3, #12]
 178:../src/lib/lpc177x_8x/Drivers/source/lpc177x_8x_uart.c ****             
 179:../src/lib/lpc177x_8x/Drivers/source/lpc177x_8x_uart.c ****             UARTx->DLM = UART_LOAD_DLM(best_divisor);
 387              		.loc 1 179 0
 388 029e 7B6C     		ldr	r3, [r7, #68]
 389 02a0 4FEA0363 		lsl	r3, r3, #24
 390 02a4 3A6C     		ldr	r2, [r7, #64]
 391 02a6 4FEA122A 		lsr	sl, r2, #8
 392 02aa 43EA0A0A 		orr	sl, r3, sl
 393 02ae 7B6C     		ldr	r3, [r7, #68]
 394 02b0 4FEA132B 		lsr	fp, r3, #8
 395 02b4 5FFA8AF2 		uxtb	r2, sl
 396 02b8 3B6A     		ldr	r3, [r7, #32]
 397 02ba 1A71     		strb	r2, [r3, #4]
 180:../src/lib/lpc177x_8x/Drivers/source/lpc177x_8x_uart.c ****             
 181:../src/lib/lpc177x_8x/Drivers/source/lpc177x_8x_uart.c ****             UARTx->DLL = UART_LOAD_DLL(best_divisor);
 398              		.loc 1 181 0
 399 02bc 97F84020 		ldrb	r2, [r7, #64]	@ zero_extendqisi2
 400 02c0 3B6A     		ldr	r3, [r7, #32]
 401 02c2 1A70     		strb	r2, [r3, #0]
 182:../src/lib/lpc177x_8x/Drivers/source/lpc177x_8x_uart.c ****             
 183:../src/lib/lpc177x_8x/Drivers/source/lpc177x_8x_uart.c ****             /* Then reset DLAB bit */
 184:../src/lib/lpc177x_8x/Drivers/source/lpc177x_8x_uart.c ****             UARTx->LCR &= (~UART_LCR_DLAB_EN) & UART_LCR_BITMASK;
 402              		.loc 1 184 0
 403 02c4 3B6A     		ldr	r3, [r7, #32]
 404 02c6 1B7B     		ldrb	r3, [r3, #12]
 405 02c8 DBB2     		uxtb	r3, r3
 406 02ca 03F07F03 		and	r3, r3, #127
 407 02ce DAB2     		uxtb	r2, r3
 408 02d0 3B6A     		ldr	r3, [r7, #32]
 409 02d2 1A73     		strb	r2, [r3, #12]
 185:../src/lib/lpc177x_8x/Drivers/source/lpc177x_8x_uart.c ****             
 186:../src/lib/lpc177x_8x/Drivers/source/lpc177x_8x_uart.c ****             UARTx->FDR = (UART_FDR_MULVAL(bestm) \
 410              		.loc 1 186 0
 411 02d4 FB6C     		ldr	r3, [r7, #76]
 412 02d6 DBB2     		uxtb	r3, r3
 413 02d8 4FEA0313 		lsl	r3, r3, #4
 414 02dc DAB2     		uxtb	r2, r3
 415 02de 3B6D     		ldr	r3, [r7, #80]
 416 02e0 DBB2     		uxtb	r3, r3
 417 02e2 03F00F03 		and	r3, r3, #15
 418 02e6 DBB2     		uxtb	r3, r3
 419 02e8 1343     		orrs	r3, r3, r2
 420 02ea DAB2     		uxtb	r2, r3
 421 02ec 3B6A     		ldr	r3, [r7, #32]
 422 02ee 83F82820 		strb	r2, [r3, #40]
 423              	.L19:
 424              	.LBE2:
 187:../src/lib/lpc177x_8x/Drivers/source/lpc177x_8x_uart.c ****                             | UART_FDR_DIVADDVAL(bestd)) & UART_FDR_BITMASK;
 188:../src/lib/lpc177x_8x/Drivers/source/lpc177x_8x_uart.c ****         }
 189:../src/lib/lpc177x_8x/Drivers/source/lpc177x_8x_uart.c ****         errorStatus = SUCCESS;
 425              		.loc 1 189 0
 426 02f2 4FF00103 		mov	r3, #1
 427 02f6 87F85F30 		strb	r3, [r7, #95]
 428              	.L17:
 190:../src/lib/lpc177x_8x/Drivers/source/lpc177x_8x_uart.c ****     }
 191:../src/lib/lpc177x_8x/Drivers/source/lpc177x_8x_uart.c **** 
 192:../src/lib/lpc177x_8x/Drivers/source/lpc177x_8x_uart.c ****     return errorStatus;
 429              		.loc 1 192 0
 430 02fa 97F85F30 		ldrb	r3, [r7, #95]	@ zero_extendqisi2
 431              	.L14:
 193:../src/lib/lpc177x_8x/Drivers/source/lpc177x_8x_uart.c **** }
 432              		.loc 1 193 0
 433 02fe 1846     		mov	r0, r3
 434 0300 07F16007 		add	r7, r7, #96
 435 0304 BD46     		mov	sp, r7
 436 0306 BDE8B08F 		pop	{r4, r5, r7, r8, r9, sl, fp, pc}
 437              	.L25:
 438 030a 00BF     		.align	2
 439              	.L24:
 440 030c 00000140 		.word	1073807360
 441 0310 00400A40 		.word	1074413568
 442              		.cfi_endproc
 443              	.LFE55:
 445              		.align	2
 446              		.thumb
 447              		.thumb_func
 449              	uart_get_pointer:
 450              	.LFB56:
 194:../src/lib/lpc177x_8x/Drivers/source/lpc177x_8x_uart.c **** /*********************************************************************//**
 195:../src/lib/lpc177x_8x/Drivers/source/lpc177x_8x_uart.c ****  * @brief       Get the pointer of a given Uart
 196:../src/lib/lpc177x_8x/Drivers/source/lpc177x_8x_uart.c ****  * @param[in]   UARTx   Pointer to selected UART peripheral, should be:
 197:../src/lib/lpc177x_8x/Drivers/source/lpc177x_8x_uart.c ****  *              - UART_0: UART0 peripheral
 198:../src/lib/lpc177x_8x/Drivers/source/lpc177x_8x_uart.c ****  *              - UART_1: UART1 peripheral
 199:../src/lib/lpc177x_8x/Drivers/source/lpc177x_8x_uart.c ****  *              - UART_2: UART2 peripheral
 200:../src/lib/lpc177x_8x/Drivers/source/lpc177x_8x_uart.c ****  *              - UART_3: UART3 peripheral
 201:../src/lib/lpc177x_8x/Drivers/source/lpc177x_8x_uart.c ****  *              - UART_4: UART4 peripheral
 202:../src/lib/lpc177x_8x/Drivers/source/lpc177x_8x_uart.c ****  * @return      LPC_UART0~LPC_UART4
 203:../src/lib/lpc177x_8x/Drivers/source/lpc177x_8x_uart.c ****  **********************************************************************/
 204:../src/lib/lpc177x_8x/Drivers/source/lpc177x_8x_uart.c **** LPC_UART_TypeDef *uart_get_pointer(UART_ID_Type UartID)
 205:../src/lib/lpc177x_8x/Drivers/source/lpc177x_8x_uart.c **** {
 451              		.loc 1 205 0
 452              		.cfi_startproc
 453              		@ args = 0, pretend = 0, frame = 16
 454              		@ frame_needed = 1, uses_anonymous_args = 0
 455              		@ link register save eliminated.
 456 0314 80B4     		push	{r7}
 457              	.LCFI3:
 458              		.cfi_def_cfa_offset 4
 459              		.cfi_offset 7, -4
 460 0316 85B0     		sub	sp, sp, #20
 461              	.LCFI4:
 462              		.cfi_def_cfa_offset 24
 463 0318 00AF     		add	r7, sp, #0
 464              	.LCFI5:
 465              		.cfi_def_cfa_register 7
 466 031a 0346     		mov	r3, r0
 467 031c FB71     		strb	r3, [r7, #7]
 206:../src/lib/lpc177x_8x/Drivers/source/lpc177x_8x_uart.c ****     LPC_UART_TypeDef *UARTx = NULL;
 468              		.loc 1 206 0
 469 031e 4FF00003 		mov	r3, #0
 470 0322 FB60     		str	r3, [r7, #12]
 207:../src/lib/lpc177x_8x/Drivers/source/lpc177x_8x_uart.c ****     switch(UartID)
 471              		.loc 1 207 0
 472 0324 FB79     		ldrb	r3, [r7, #7]	@ zero_extendqisi2
 473 0326 022B     		cmp	r3, #2
 474 0328 06D0     		beq	.L29
 475 032a 032B     		cmp	r3, #3
 476 032c 07D0     		beq	.L30
 477 032e 002B     		cmp	r3, #0
 478 0330 08D1     		bne	.L33
 479              	.L28:
 208:../src/lib/lpc177x_8x/Drivers/source/lpc177x_8x_uart.c ****     {
 209:../src/lib/lpc177x_8x/Drivers/source/lpc177x_8x_uart.c ****         case UART_0:
 210:../src/lib/lpc177x_8x/Drivers/source/lpc177x_8x_uart.c ****             UARTx = LPC_UART0;
 480              		.loc 1 210 0
 481 0332 084B     		ldr	r3, .L34
 482 0334 FB60     		str	r3, [r7, #12]
 211:../src/lib/lpc177x_8x/Drivers/source/lpc177x_8x_uart.c ****             break;
 483              		.loc 1 211 0
 484 0336 06E0     		b	.L31
 485              	.L29:
 212:../src/lib/lpc177x_8x/Drivers/source/lpc177x_8x_uart.c ****         case UART_2:
 213:../src/lib/lpc177x_8x/Drivers/source/lpc177x_8x_uart.c ****             UARTx = LPC_UART2;
 486              		.loc 1 213 0
 487 0338 074B     		ldr	r3, .L34+4
 488 033a FB60     		str	r3, [r7, #12]
 214:../src/lib/lpc177x_8x/Drivers/source/lpc177x_8x_uart.c ****             break;
 489              		.loc 1 214 0
 490 033c 03E0     		b	.L31
 491              	.L30:
 215:../src/lib/lpc177x_8x/Drivers/source/lpc177x_8x_uart.c ****         case UART_3:
 216:../src/lib/lpc177x_8x/Drivers/source/lpc177x_8x_uart.c ****             UARTx = LPC_UART3;
 492              		.loc 1 216 0
 493 033e 074B     		ldr	r3, .L34+8
 494 0340 FB60     		str	r3, [r7, #12]
 217:../src/lib/lpc177x_8x/Drivers/source/lpc177x_8x_uart.c ****             break;
 495              		.loc 1 217 0
 496 0342 00E0     		b	.L31
 497              	.L33:
 218:../src/lib/lpc177x_8x/Drivers/source/lpc177x_8x_uart.c ****         default:
 219:../src/lib/lpc177x_8x/Drivers/source/lpc177x_8x_uart.c ****             break;
 498              		.loc 1 219 0
 499 0344 00BF     		nop
 500              	.L31:
 220:../src/lib/lpc177x_8x/Drivers/source/lpc177x_8x_uart.c ****     }
 221:../src/lib/lpc177x_8x/Drivers/source/lpc177x_8x_uart.c ****     return UARTx;
 501              		.loc 1 221 0
 502 0346 FB68     		ldr	r3, [r7, #12]
 222:../src/lib/lpc177x_8x/Drivers/source/lpc177x_8x_uart.c **** }
 503              		.loc 1 222 0
 504 0348 1846     		mov	r0, r3
 505 034a 07F11407 		add	r7, r7, #20
 506 034e BD46     		mov	sp, r7
 507 0350 80BC     		pop	{r7}
 508 0352 7047     		bx	lr
 509              	.L35:
 510              		.align	2
 511              	.L34:
 512 0354 00C00040 		.word	1073790976
 513 0358 00800940 		.word	1074364416
 514 035c 00C00940 		.word	1074380800
 515              		.cfi_endproc
 516              	.LFE56:
 518              		.align	2
 519              		.global	UART_Init
 520              		.thumb
 521              		.thumb_func
 523              	UART_Init:
 524              	.LFB57:
 223:../src/lib/lpc177x_8x/Drivers/source/lpc177x_8x_uart.c **** 
 224:../src/lib/lpc177x_8x/Drivers/source/lpc177x_8x_uart.c **** /* End of Private Functions ---------------------------------------------------- */
 225:../src/lib/lpc177x_8x/Drivers/source/lpc177x_8x_uart.c **** 
 226:../src/lib/lpc177x_8x/Drivers/source/lpc177x_8x_uart.c **** 
 227:../src/lib/lpc177x_8x/Drivers/source/lpc177x_8x_uart.c **** /* Public Functions ----------------------------------------------------------- */
 228:../src/lib/lpc177x_8x/Drivers/source/lpc177x_8x_uart.c **** /** @addtogroup UART_Public_Functions
 229:../src/lib/lpc177x_8x/Drivers/source/lpc177x_8x_uart.c ****  * @{
 230:../src/lib/lpc177x_8x/Drivers/source/lpc177x_8x_uart.c ****  */
 231:../src/lib/lpc177x_8x/Drivers/source/lpc177x_8x_uart.c **** /* UART Init/DeInit functions -------------------------------------------------*/
 232:../src/lib/lpc177x_8x/Drivers/source/lpc177x_8x_uart.c **** /********************************************************************//**
 233:../src/lib/lpc177x_8x/Drivers/source/lpc177x_8x_uart.c ****  * @brief       Initializes the UARTx peripheral according to the specified
 234:../src/lib/lpc177x_8x/Drivers/source/lpc177x_8x_uart.c ****  *               parameters in the UART_ConfigStruct.
 235:../src/lib/lpc177x_8x/Drivers/source/lpc177x_8x_uart.c ****  * @param[in]   UARTx   UART peripheral selected, should be:
 236:../src/lib/lpc177x_8x/Drivers/source/lpc177x_8x_uart.c ****  *              - UART_0: UART0 peripheral
 237:../src/lib/lpc177x_8x/Drivers/source/lpc177x_8x_uart.c ****  *              - UART_1: UART1 peripheral
 238:../src/lib/lpc177x_8x/Drivers/source/lpc177x_8x_uart.c ****  *              - UART_2: UART2 peripheral
 239:../src/lib/lpc177x_8x/Drivers/source/lpc177x_8x_uart.c ****  *              - UART_3: UART3 peripheral
 240:../src/lib/lpc177x_8x/Drivers/source/lpc177x_8x_uart.c ****  *              - UART_4: UART4 peripheral
 241:../src/lib/lpc177x_8x/Drivers/source/lpc177x_8x_uart.c ****  * @param[in]   UART_ConfigStruct Pointer to a UART_CFG_Type structure
 242:../src/lib/lpc177x_8x/Drivers/source/lpc177x_8x_uart.c **** *                    that contains the configuration information for the
 243:../src/lib/lpc177x_8x/Drivers/source/lpc177x_8x_uart.c **** *                    specified UART peripheral.
 244:../src/lib/lpc177x_8x/Drivers/source/lpc177x_8x_uart.c ****  * @return      None
 245:../src/lib/lpc177x_8x/Drivers/source/lpc177x_8x_uart.c ****  *********************************************************************/
 246:../src/lib/lpc177x_8x/Drivers/source/lpc177x_8x_uart.c **** void UART_Init(UART_ID_Type UartID, UART_CFG_Type *UART_ConfigStruct)
 247:../src/lib/lpc177x_8x/Drivers/source/lpc177x_8x_uart.c **** {
 525              		.loc 1 247 0
 526              		.cfi_startproc
 527              		@ args = 0, pretend = 0, frame = 24
 528              		@ frame_needed = 1, uses_anonymous_args = 0
 529 0360 80B5     		push	{r7, lr}
 530              	.LCFI6:
 531              		.cfi_def_cfa_offset 8
 532              		.cfi_offset 7, -8
 533              		.cfi_offset 14, -4
 534 0362 86B0     		sub	sp, sp, #24
 535              	.LCFI7:
 536              		.cfi_def_cfa_offset 32
 537 0364 00AF     		add	r7, sp, #0
 538              	.LCFI8:
 539              		.cfi_def_cfa_register 7
 540 0366 0346     		mov	r3, r0
 541 0368 3960     		str	r1, [r7, #0]
 542 036a FB71     		strb	r3, [r7, #7]
 248:../src/lib/lpc177x_8x/Drivers/source/lpc177x_8x_uart.c ****     uint32_t tmp;
 249:../src/lib/lpc177x_8x/Drivers/source/lpc177x_8x_uart.c ****     switch (UartID)
 543              		.loc 1 249 0
 544 036c FB79     		ldrb	r3, [r7, #7]	@ zero_extendqisi2
 545 036e 042B     		cmp	r3, #4
 546 0370 00F20981 		bhi	.L37
 547 0374 01A2     		adr	r2, .L41
 548 0376 52F823F0 		ldr	pc, [r2, r3, lsl #2]
 549 037a 00BF     		.align	2
 550              	.L41:
 551 037c 91030000 		.word	.L38+1
 552 0380 61040000 		.word	.L39+1
 553 0384 91030000 		.word	.L38+1
 554 0388 91030000 		.word	.L38+1
 555 038c 09050000 		.word	.L40+1
 556              	.L38:
 557              	.LBB3:
 250:../src/lib/lpc177x_8x/Drivers/source/lpc177x_8x_uart.c ****     {
 251:../src/lib/lpc177x_8x/Drivers/source/lpc177x_8x_uart.c ****         case UART_0:
 252:../src/lib/lpc177x_8x/Drivers/source/lpc177x_8x_uart.c ****         case UART_2:
 253:../src/lib/lpc177x_8x/Drivers/source/lpc177x_8x_uart.c ****         case UART_3:
 254:../src/lib/lpc177x_8x/Drivers/source/lpc177x_8x_uart.c ****         {
 255:../src/lib/lpc177x_8x/Drivers/source/lpc177x_8x_uart.c ****             LPC_UART_TypeDef *UARTx = uart_get_pointer(UartID);
 558              		.loc 1 255 0
 559 0390 FB79     		ldrb	r3, [r7, #7]	@ zero_extendqisi2
 560 0392 1846     		mov	r0, r3
 561 0394 FFF7BEFF 		bl	uart_get_pointer
 562 0398 3861     		str	r0, [r7, #16]
 256:../src/lib/lpc177x_8x/Drivers/source/lpc177x_8x_uart.c ****             if(UartID == UART_0)
 563              		.loc 1 256 0
 564 039a FB79     		ldrb	r3, [r7, #7]	@ zero_extendqisi2
 565 039c 002B     		cmp	r3, #0
 566 039e 06D1     		bne	.L42
 257:../src/lib/lpc177x_8x/Drivers/source/lpc177x_8x_uart.c ****                 /* Set up clock and power for UART module */
 258:../src/lib/lpc177x_8x/Drivers/source/lpc177x_8x_uart.c ****                 CLKPWR_ConfigPPWR (CLKPWR_PCONP_PCUART0, ENABLE);
 567              		.loc 1 258 0
 568 03a0 4FF00800 		mov	r0, #8
 569 03a4 4FF00101 		mov	r1, #1
 570 03a8 FFF7FEFF 		bl	CLKPWR_ConfigPPWR
 571 03ac 12E0     		b	.L43
 572              	.L42:
 259:../src/lib/lpc177x_8x/Drivers/source/lpc177x_8x_uart.c ****             else if(UartID == UART_2)
 573              		.loc 1 259 0
 574 03ae FB79     		ldrb	r3, [r7, #7]	@ zero_extendqisi2
 575 03b0 022B     		cmp	r3, #2
 576 03b2 06D1     		bne	.L44
 260:../src/lib/lpc177x_8x/Drivers/source/lpc177x_8x_uart.c ****                 /* Set up clock and power for UART module */
 261:../src/lib/lpc177x_8x/Drivers/source/lpc177x_8x_uart.c ****                 CLKPWR_ConfigPPWR (CLKPWR_PCONP_PCUART2, ENABLE);
 577              		.loc 1 261 0
 578 03b4 4FF08070 		mov	r0, #16777216
 579 03b8 4FF00101 		mov	r1, #1
 580 03bc FFF7FEFF 		bl	CLKPWR_ConfigPPWR
 581 03c0 08E0     		b	.L43
 582              	.L44:
 262:../src/lib/lpc177x_8x/Drivers/source/lpc177x_8x_uart.c ****             else if(UartID == UART_3)
 583              		.loc 1 262 0
 584 03c2 FB79     		ldrb	r3, [r7, #7]	@ zero_extendqisi2
 585 03c4 032B     		cmp	r3, #3
 586 03c6 05D1     		bne	.L43
 263:../src/lib/lpc177x_8x/Drivers/source/lpc177x_8x_uart.c ****                 /* Set up clock and power for UART module */
 264:../src/lib/lpc177x_8x/Drivers/source/lpc177x_8x_uart.c ****                 CLKPWR_ConfigPPWR (CLKPWR_PCONP_PCUART3, ENABLE);;
 587              		.loc 1 264 0
 588 03c8 4FF00070 		mov	r0, #33554432
 589 03cc 4FF00101 		mov	r1, #1
 590 03d0 FFF7FEFF 		bl	CLKPWR_ConfigPPWR
 591              	.L43:
 265:../src/lib/lpc177x_8x/Drivers/source/lpc177x_8x_uart.c ****             /* FIFOs are empty */
 266:../src/lib/lpc177x_8x/Drivers/source/lpc177x_8x_uart.c ****             UARTx->FCR = ( UART_FCR_FIFO_EN | UART_FCR_RX_RS | UART_FCR_TX_RS);
 592              		.loc 1 266 0
 593 03d4 3B69     		ldr	r3, [r7, #16]
 594 03d6 4FF00702 		mov	r2, #7
 595 03da 1A72     		strb	r2, [r3, #8]
 267:../src/lib/lpc177x_8x/Drivers/source/lpc177x_8x_uart.c **** 
 268:../src/lib/lpc177x_8x/Drivers/source/lpc177x_8x_uart.c ****             // Disable FIFO
 269:../src/lib/lpc177x_8x/Drivers/source/lpc177x_8x_uart.c ****             UARTx->FCR = 0;
 596              		.loc 1 269 0
 597 03dc 3B69     		ldr	r3, [r7, #16]
 598 03de 4FF00002 		mov	r2, #0
 599 03e2 1A72     		strb	r2, [r3, #8]
 270:../src/lib/lpc177x_8x/Drivers/source/lpc177x_8x_uart.c **** 
 271:../src/lib/lpc177x_8x/Drivers/source/lpc177x_8x_uart.c ****             // Dummy reading
 272:../src/lib/lpc177x_8x/Drivers/source/lpc177x_8x_uart.c ****             while (UARTx->LSR & UART_LSR_RDR)
 600              		.loc 1 272 0
 601 03e4 03E0     		b	.L45
 602              	.L46:
 273:../src/lib/lpc177x_8x/Drivers/source/lpc177x_8x_uart.c ****             {
 274:../src/lib/lpc177x_8x/Drivers/source/lpc177x_8x_uart.c ****                 tmp = UARTx->RBR;
 603              		.loc 1 274 0
 604 03e6 3B69     		ldr	r3, [r7, #16]
 605 03e8 1B78     		ldrb	r3, [r3, #0]
 606 03ea DBB2     		uxtb	r3, r3
 607 03ec 7B61     		str	r3, [r7, #20]
 608              	.L45:
 272:../src/lib/lpc177x_8x/Drivers/source/lpc177x_8x_uart.c ****             while (UARTx->LSR & UART_LSR_RDR)
 609              		.loc 1 272 0 discriminator 1
 610 03ee 3B69     		ldr	r3, [r7, #16]
 611 03f0 1B7D     		ldrb	r3, [r3, #20]
 612 03f2 DBB2     		uxtb	r3, r3
 613 03f4 03F00103 		and	r3, r3, #1
 614 03f8 002B     		cmp	r3, #0
 615 03fa F4D1     		bne	.L46
 275:../src/lib/lpc177x_8x/Drivers/source/lpc177x_8x_uart.c ****             }
 276:../src/lib/lpc177x_8x/Drivers/source/lpc177x_8x_uart.c **** 
 277:../src/lib/lpc177x_8x/Drivers/source/lpc177x_8x_uart.c ****             UARTx->TER = UART_TER_TXEN;
 616              		.loc 1 277 0
 617 03fc 3B69     		ldr	r3, [r7, #16]
 618 03fe 4FF08002 		mov	r2, #128
 619 0402 83F83020 		strb	r2, [r3, #48]
 278:../src/lib/lpc177x_8x/Drivers/source/lpc177x_8x_uart.c **** 
 279:../src/lib/lpc177x_8x/Drivers/source/lpc177x_8x_uart.c ****             // Wait for current transmit complete
 280:../src/lib/lpc177x_8x/Drivers/source/lpc177x_8x_uart.c ****             while (!(UARTx->LSR & UART_LSR_THRE));
 620              		.loc 1 280 0
 621 0406 00BF     		nop
 622              	.L47:
 623              		.loc 1 280 0 is_stmt 0 discriminator 1
 624 0408 3B69     		ldr	r3, [r7, #16]
 625 040a 1B7D     		ldrb	r3, [r3, #20]
 626 040c DBB2     		uxtb	r3, r3
 627 040e 03F02003 		and	r3, r3, #32
 628 0412 002B     		cmp	r3, #0
 629 0414 F8D0     		beq	.L47
 281:../src/lib/lpc177x_8x/Drivers/source/lpc177x_8x_uart.c **** 
 282:../src/lib/lpc177x_8x/Drivers/source/lpc177x_8x_uart.c ****             // Disable Tx
 283:../src/lib/lpc177x_8x/Drivers/source/lpc177x_8x_uart.c ****             UARTx->TER = 0;
 630              		.loc 1 283 0 is_stmt 1
 631 0416 3B69     		ldr	r3, [r7, #16]
 632 0418 4FF00002 		mov	r2, #0
 633 041c 83F83020 		strb	r2, [r3, #48]
 284:../src/lib/lpc177x_8x/Drivers/source/lpc177x_8x_uart.c **** 
 285:../src/lib/lpc177x_8x/Drivers/source/lpc177x_8x_uart.c ****             // Disable interrupt
 286:../src/lib/lpc177x_8x/Drivers/source/lpc177x_8x_uart.c ****             UARTx->IER = 0;
 634              		.loc 1 286 0
 635 0420 3B69     		ldr	r3, [r7, #16]
 636 0422 4FF00002 		mov	r2, #0
 637 0426 5A60     		str	r2, [r3, #4]
 287:../src/lib/lpc177x_8x/Drivers/source/lpc177x_8x_uart.c **** 
 288:../src/lib/lpc177x_8x/Drivers/source/lpc177x_8x_uart.c ****             // Set LCR to default state
 289:../src/lib/lpc177x_8x/Drivers/source/lpc177x_8x_uart.c ****             UARTx->LCR = 0;
 638              		.loc 1 289 0
 639 0428 3B69     		ldr	r3, [r7, #16]
 640 042a 4FF00002 		mov	r2, #0
 641 042e 1A73     		strb	r2, [r3, #12]
 290:../src/lib/lpc177x_8x/Drivers/source/lpc177x_8x_uart.c **** 
 291:../src/lib/lpc177x_8x/Drivers/source/lpc177x_8x_uart.c ****             // Set ACR to default state
 292:../src/lib/lpc177x_8x/Drivers/source/lpc177x_8x_uart.c ****             UARTx->ACR = 0;
 642              		.loc 1 292 0
 643 0430 3B69     		ldr	r3, [r7, #16]
 644 0432 4FF00002 		mov	r2, #0
 645 0436 1A62     		str	r2, [r3, #32]
 293:../src/lib/lpc177x_8x/Drivers/source/lpc177x_8x_uart.c **** 
 294:../src/lib/lpc177x_8x/Drivers/source/lpc177x_8x_uart.c ****             // Set RS485 control to default state
 295:../src/lib/lpc177x_8x/Drivers/source/lpc177x_8x_uart.c ****             UARTx->RS485CTRL = 0;
 646              		.loc 1 295 0
 647 0438 3B69     		ldr	r3, [r7, #16]
 648 043a 4FF00002 		mov	r2, #0
 649 043e 83F84C20 		strb	r2, [r3, #76]
 296:../src/lib/lpc177x_8x/Drivers/source/lpc177x_8x_uart.c **** 
 297:../src/lib/lpc177x_8x/Drivers/source/lpc177x_8x_uart.c ****             // Set RS485 delay timer to default state
 298:../src/lib/lpc177x_8x/Drivers/source/lpc177x_8x_uart.c ****             UARTx->RS485DLY = 0;
 650              		.loc 1 298 0
 651 0442 3B69     		ldr	r3, [r7, #16]
 652 0444 4FF00002 		mov	r2, #0
 653 0448 83F85420 		strb	r2, [r3, #84]
 299:../src/lib/lpc177x_8x/Drivers/source/lpc177x_8x_uart.c **** 
 300:../src/lib/lpc177x_8x/Drivers/source/lpc177x_8x_uart.c ****             // Set RS485 addr match to default state
 301:../src/lib/lpc177x_8x/Drivers/source/lpc177x_8x_uart.c ****             UARTx->ADRMATCH = 0;
 654              		.loc 1 301 0
 655 044c 3B69     		ldr	r3, [r7, #16]
 656 044e 4FF00002 		mov	r2, #0
 657 0452 83F85020 		strb	r2, [r3, #80]
 302:../src/lib/lpc177x_8x/Drivers/source/lpc177x_8x_uart.c **** 
 303:../src/lib/lpc177x_8x/Drivers/source/lpc177x_8x_uart.c ****             // Dummy reading
 304:../src/lib/lpc177x_8x/Drivers/source/lpc177x_8x_uart.c ****             tmp = UARTx->LSR;
 658              		.loc 1 304 0
 659 0456 3B69     		ldr	r3, [r7, #16]
 660 0458 1B7D     		ldrb	r3, [r3, #20]
 661 045a DBB2     		uxtb	r3, r3
 662 045c 7B61     		str	r3, [r7, #20]
 663              	.LBE3:
 305:../src/lib/lpc177x_8x/Drivers/source/lpc177x_8x_uart.c ****         }
 306:../src/lib/lpc177x_8x/Drivers/source/lpc177x_8x_uart.c ****         break;
 664              		.loc 1 306 0
 665 045e 92E0     		b	.L37
 666              	.L39:
 307:../src/lib/lpc177x_8x/Drivers/source/lpc177x_8x_uart.c ****         case UART_1:
 308:../src/lib/lpc177x_8x/Drivers/source/lpc177x_8x_uart.c ****         {
 309:../src/lib/lpc177x_8x/Drivers/source/lpc177x_8x_uart.c ****             /* Set up clock and power for UART module */
 310:../src/lib/lpc177x_8x/Drivers/source/lpc177x_8x_uart.c ****             CLKPWR_ConfigPPWR (CLKPWR_PCONP_PCUART1, ENABLE);
 667              		.loc 1 310 0
 668 0460 4FF01000 		mov	r0, #16
 669 0464 4FF00101 		mov	r1, #1
 670 0468 FFF7FEFF 		bl	CLKPWR_ConfigPPWR
 311:../src/lib/lpc177x_8x/Drivers/source/lpc177x_8x_uart.c **** 
 312:../src/lib/lpc177x_8x/Drivers/source/lpc177x_8x_uart.c ****             /* FIFOs are empty */
 313:../src/lib/lpc177x_8x/Drivers/source/lpc177x_8x_uart.c ****             LPC_UART1->FCR = ( UART_FCR_FIFO_EN | UART_FCR_RX_RS | UART_FCR_TX_RS);
 671              		.loc 1 313 0
 672 046c 8D4B     		ldr	r3, .L79
 673 046e 4FF00702 		mov	r2, #7
 674 0472 1A72     		strb	r2, [r3, #8]
 314:../src/lib/lpc177x_8x/Drivers/source/lpc177x_8x_uart.c **** 
 315:../src/lib/lpc177x_8x/Drivers/source/lpc177x_8x_uart.c ****             // Disable FIFO
 316:../src/lib/lpc177x_8x/Drivers/source/lpc177x_8x_uart.c ****             LPC_UART1->FCR = 0;
 675              		.loc 1 316 0
 676 0474 8B4B     		ldr	r3, .L79
 677 0476 4FF00002 		mov	r2, #0
 678 047a 1A72     		strb	r2, [r3, #8]
 317:../src/lib/lpc177x_8x/Drivers/source/lpc177x_8x_uart.c **** 
 318:../src/lib/lpc177x_8x/Drivers/source/lpc177x_8x_uart.c ****             // Dummy reading
 319:../src/lib/lpc177x_8x/Drivers/source/lpc177x_8x_uart.c ****             while (LPC_UART1->LSR & UART_LSR_RDR)
 679              		.loc 1 319 0
 680 047c 03E0     		b	.L48
 681              	.L49:
 320:../src/lib/lpc177x_8x/Drivers/source/lpc177x_8x_uart.c ****             {
 321:../src/lib/lpc177x_8x/Drivers/source/lpc177x_8x_uart.c ****                 tmp = LPC_UART1->RBR;
 682              		.loc 1 321 0
 683 047e 894B     		ldr	r3, .L79
 684 0480 1B78     		ldrb	r3, [r3, #0]
 685 0482 DBB2     		uxtb	r3, r3
 686 0484 7B61     		str	r3, [r7, #20]
 687              	.L48:
 319:../src/lib/lpc177x_8x/Drivers/source/lpc177x_8x_uart.c ****             while (LPC_UART1->LSR & UART_LSR_RDR)
 688              		.loc 1 319 0 discriminator 1
 689 0486 874B     		ldr	r3, .L79
 690 0488 1B7D     		ldrb	r3, [r3, #20]
 691 048a DBB2     		uxtb	r3, r3
 692 048c 03F00103 		and	r3, r3, #1
 693 0490 002B     		cmp	r3, #0
 694 0492 F4D1     		bne	.L49
 322:../src/lib/lpc177x_8x/Drivers/source/lpc177x_8x_uart.c ****             }
 323:../src/lib/lpc177x_8x/Drivers/source/lpc177x_8x_uart.c **** 
 324:../src/lib/lpc177x_8x/Drivers/source/lpc177x_8x_uart.c ****             LPC_UART1->TER = UART_TER_TXEN;
 695              		.loc 1 324 0
 696 0494 834B     		ldr	r3, .L79
 697 0496 4FF08002 		mov	r2, #128
 698 049a 83F83020 		strb	r2, [r3, #48]
 325:../src/lib/lpc177x_8x/Drivers/source/lpc177x_8x_uart.c **** 
 326:../src/lib/lpc177x_8x/Drivers/source/lpc177x_8x_uart.c ****             // Wait for current transmit complete
 327:../src/lib/lpc177x_8x/Drivers/source/lpc177x_8x_uart.c ****             while (!(LPC_UART1->LSR & UART_LSR_THRE));
 699              		.loc 1 327 0
 700 049e 00BF     		nop
 701              	.L50:
 702              		.loc 1 327 0 is_stmt 0 discriminator 1
 703 04a0 804B     		ldr	r3, .L79
 704 04a2 1B7D     		ldrb	r3, [r3, #20]
 705 04a4 DBB2     		uxtb	r3, r3
 706 04a6 03F02003 		and	r3, r3, #32
 707 04aa 002B     		cmp	r3, #0
 708 04ac F8D0     		beq	.L50
 328:../src/lib/lpc177x_8x/Drivers/source/lpc177x_8x_uart.c **** 
 329:../src/lib/lpc177x_8x/Drivers/source/lpc177x_8x_uart.c ****             // Disable Tx
 330:../src/lib/lpc177x_8x/Drivers/source/lpc177x_8x_uart.c ****             LPC_UART1->TER = 0;
 709              		.loc 1 330 0 is_stmt 1
 710 04ae 7D4B     		ldr	r3, .L79
 711 04b0 4FF00002 		mov	r2, #0
 712 04b4 83F83020 		strb	r2, [r3, #48]
 331:../src/lib/lpc177x_8x/Drivers/source/lpc177x_8x_uart.c **** 
 332:../src/lib/lpc177x_8x/Drivers/source/lpc177x_8x_uart.c ****             // Disable interrupt
 333:../src/lib/lpc177x_8x/Drivers/source/lpc177x_8x_uart.c ****             LPC_UART1->IER = 0;
 713              		.loc 1 333 0
 714 04b8 7A4B     		ldr	r3, .L79
 715 04ba 4FF00002 		mov	r2, #0
 716 04be 5A60     		str	r2, [r3, #4]
 334:../src/lib/lpc177x_8x/Drivers/source/lpc177x_8x_uart.c **** 
 335:../src/lib/lpc177x_8x/Drivers/source/lpc177x_8x_uart.c ****             // Set LCR to default state
 336:../src/lib/lpc177x_8x/Drivers/source/lpc177x_8x_uart.c ****             LPC_UART1->LCR = 0;
 717              		.loc 1 336 0
 718 04c0 784B     		ldr	r3, .L79
 719 04c2 4FF00002 		mov	r2, #0
 720 04c6 1A73     		strb	r2, [r3, #12]
 337:../src/lib/lpc177x_8x/Drivers/source/lpc177x_8x_uart.c **** 
 338:../src/lib/lpc177x_8x/Drivers/source/lpc177x_8x_uart.c ****             // Set ACR to default state
 339:../src/lib/lpc177x_8x/Drivers/source/lpc177x_8x_uart.c ****             LPC_UART1->ACR = 0;
 721              		.loc 1 339 0
 722 04c8 764B     		ldr	r3, .L79
 723 04ca 4FF00002 		mov	r2, #0
 724 04ce 1A62     		str	r2, [r3, #32]
 340:../src/lib/lpc177x_8x/Drivers/source/lpc177x_8x_uart.c **** 
 341:../src/lib/lpc177x_8x/Drivers/source/lpc177x_8x_uart.c ****             // Set RS485 control to default state
 342:../src/lib/lpc177x_8x/Drivers/source/lpc177x_8x_uart.c ****             LPC_UART1->RS485CTRL = 0;
 725              		.loc 1 342 0
 726 04d0 744B     		ldr	r3, .L79
 727 04d2 4FF00002 		mov	r2, #0
 728 04d6 83F84C20 		strb	r2, [r3, #76]
 343:../src/lib/lpc177x_8x/Drivers/source/lpc177x_8x_uart.c **** 
 344:../src/lib/lpc177x_8x/Drivers/source/lpc177x_8x_uart.c ****             // Set RS485 delay timer to default state
 345:../src/lib/lpc177x_8x/Drivers/source/lpc177x_8x_uart.c ****             LPC_UART1->RS485DLY = 0;
 729              		.loc 1 345 0
 730 04da 724B     		ldr	r3, .L79
 731 04dc 4FF00002 		mov	r2, #0
 732 04e0 83F85420 		strb	r2, [r3, #84]
 346:../src/lib/lpc177x_8x/Drivers/source/lpc177x_8x_uart.c **** 
 347:../src/lib/lpc177x_8x/Drivers/source/lpc177x_8x_uart.c ****             // Set RS485 addr match to default state
 348:../src/lib/lpc177x_8x/Drivers/source/lpc177x_8x_uart.c ****             LPC_UART1->ADRMATCH = 0;
 733              		.loc 1 348 0
 734 04e4 6F4B     		ldr	r3, .L79
 735 04e6 4FF00002 		mov	r2, #0
 736 04ea 83F85020 		strb	r2, [r3, #80]
 349:../src/lib/lpc177x_8x/Drivers/source/lpc177x_8x_uart.c **** 
 350:../src/lib/lpc177x_8x/Drivers/source/lpc177x_8x_uart.c ****             // Dummy reading
 351:../src/lib/lpc177x_8x/Drivers/source/lpc177x_8x_uart.c ****             tmp = LPC_UART1->LSR;
 737              		.loc 1 351 0
 738 04ee 6D4B     		ldr	r3, .L79
 739 04f0 1B7D     		ldrb	r3, [r3, #20]
 740 04f2 DBB2     		uxtb	r3, r3
 741 04f4 7B61     		str	r3, [r7, #20]
 352:../src/lib/lpc177x_8x/Drivers/source/lpc177x_8x_uart.c **** 
 353:../src/lib/lpc177x_8x/Drivers/source/lpc177x_8x_uart.c ****             // Set Modem Control to default state
 354:../src/lib/lpc177x_8x/Drivers/source/lpc177x_8x_uart.c ****             LPC_UART1->MCR = 0;
 742              		.loc 1 354 0
 743 04f6 6B4B     		ldr	r3, .L79
 744 04f8 4FF00002 		mov	r2, #0
 745 04fc 1A74     		strb	r2, [r3, #16]
 355:../src/lib/lpc177x_8x/Drivers/source/lpc177x_8x_uart.c **** 
 356:../src/lib/lpc177x_8x/Drivers/source/lpc177x_8x_uart.c ****             //Dummy Reading to Clear Status
 357:../src/lib/lpc177x_8x/Drivers/source/lpc177x_8x_uart.c ****             tmp = LPC_UART1->MSR;
 746              		.loc 1 357 0
 747 04fe 694B     		ldr	r3, .L79
 748 0500 1B7E     		ldrb	r3, [r3, #24]
 749 0502 DBB2     		uxtb	r3, r3
 750 0504 7B61     		str	r3, [r7, #20]
 358:../src/lib/lpc177x_8x/Drivers/source/lpc177x_8x_uart.c ****         }
 359:../src/lib/lpc177x_8x/Drivers/source/lpc177x_8x_uart.c ****         break;
 751              		.loc 1 359 0
 752 0506 3EE0     		b	.L37
 753              	.L40:
 360:../src/lib/lpc177x_8x/Drivers/source/lpc177x_8x_uart.c ****         case UART_4:
 361:../src/lib/lpc177x_8x/Drivers/source/lpc177x_8x_uart.c ****         {
 362:../src/lib/lpc177x_8x/Drivers/source/lpc177x_8x_uart.c ****             /* Set up clock and power for UART module */
 363:../src/lib/lpc177x_8x/Drivers/source/lpc177x_8x_uart.c ****             CLKPWR_ConfigPPWR (CLKPWR_PCONP_PCUART4, ENABLE);
 754              		.loc 1 363 0
 755 0508 4FF48070 		mov	r0, #256
 756 050c 4FF00101 		mov	r1, #1
 757 0510 FFF7FEFF 		bl	CLKPWR_ConfigPPWR
 364:../src/lib/lpc177x_8x/Drivers/source/lpc177x_8x_uart.c **** 
 365:../src/lib/lpc177x_8x/Drivers/source/lpc177x_8x_uart.c ****             /* FIFOs are empty */
 366:../src/lib/lpc177x_8x/Drivers/source/lpc177x_8x_uart.c ****             LPC_UART4->FCR = ( UART_FCR_FIFO_EN | UART_FCR_RX_RS | UART_FCR_TX_RS);
 758              		.loc 1 366 0
 759 0514 644B     		ldr	r3, .L79+4
 760 0516 4FF00702 		mov	r2, #7
 761 051a 9A60     		str	r2, [r3, #8]
 367:../src/lib/lpc177x_8x/Drivers/source/lpc177x_8x_uart.c **** 
 368:../src/lib/lpc177x_8x/Drivers/source/lpc177x_8x_uart.c ****             // Disable FIFO
 369:../src/lib/lpc177x_8x/Drivers/source/lpc177x_8x_uart.c ****             LPC_UART4->FCR = 0;
 762              		.loc 1 369 0
 763 051c 624B     		ldr	r3, .L79+4
 764 051e 4FF00002 		mov	r2, #0
 765 0522 9A60     		str	r2, [r3, #8]
 370:../src/lib/lpc177x_8x/Drivers/source/lpc177x_8x_uart.c **** 
 371:../src/lib/lpc177x_8x/Drivers/source/lpc177x_8x_uart.c ****             // Dummy reading
 372:../src/lib/lpc177x_8x/Drivers/source/lpc177x_8x_uart.c ****             while (LPC_UART4->LSR & UART_LSR_RDR)
 766              		.loc 1 372 0
 767 0524 02E0     		b	.L51
 768              	.L52:
 373:../src/lib/lpc177x_8x/Drivers/source/lpc177x_8x_uart.c ****             {
 374:../src/lib/lpc177x_8x/Drivers/source/lpc177x_8x_uart.c ****                 tmp = LPC_UART4->RBR;
 769              		.loc 1 374 0
 770 0526 604B     		ldr	r3, .L79+4
 771 0528 1B68     		ldr	r3, [r3, #0]
 772 052a 7B61     		str	r3, [r7, #20]
 773              	.L51:
 372:../src/lib/lpc177x_8x/Drivers/source/lpc177x_8x_uart.c ****             while (LPC_UART4->LSR & UART_LSR_RDR)
 774              		.loc 1 372 0 discriminator 1
 775 052c 5E4B     		ldr	r3, .L79+4
 776 052e 5B69     		ldr	r3, [r3, #20]
 777 0530 03F00103 		and	r3, r3, #1
 778 0534 002B     		cmp	r3, #0
 779 0536 F6D1     		bne	.L52
 375:../src/lib/lpc177x_8x/Drivers/source/lpc177x_8x_uart.c ****             }
 376:../src/lib/lpc177x_8x/Drivers/source/lpc177x_8x_uart.c **** 
 377:../src/lib/lpc177x_8x/Drivers/source/lpc177x_8x_uart.c ****             //LPC_UART4->TER = UART4_TER_TXEN;
 378:../src/lib/lpc177x_8x/Drivers/source/lpc177x_8x_uart.c **** 
 379:../src/lib/lpc177x_8x/Drivers/source/lpc177x_8x_uart.c ****             // Wait for current transmit complete
 380:../src/lib/lpc177x_8x/Drivers/source/lpc177x_8x_uart.c ****             while (!(LPC_UART4->LSR & UART_LSR_THRE));
 780              		.loc 1 380 0
 781 0538 00BF     		nop
 782              	.L53:
 783              		.loc 1 380 0 is_stmt 0 discriminator 1
 784 053a 5B4B     		ldr	r3, .L79+4
 785 053c 5B69     		ldr	r3, [r3, #20]
 786 053e 03F02003 		and	r3, r3, #32
 787 0542 002B     		cmp	r3, #0
 788 0544 F9D0     		beq	.L53
 381:../src/lib/lpc177x_8x/Drivers/source/lpc177x_8x_uart.c **** 
 382:../src/lib/lpc177x_8x/Drivers/source/lpc177x_8x_uart.c ****             // Disable Tx
 383:../src/lib/lpc177x_8x/Drivers/source/lpc177x_8x_uart.c ****            // LPC_UART4->TER = 0;
 384:../src/lib/lpc177x_8x/Drivers/source/lpc177x_8x_uart.c **** 
 385:../src/lib/lpc177x_8x/Drivers/source/lpc177x_8x_uart.c ****             // Disable interrupt
 386:../src/lib/lpc177x_8x/Drivers/source/lpc177x_8x_uart.c ****             LPC_UART4->IER = 0;
 789              		.loc 1 386 0 is_stmt 1
 790 0546 584B     		ldr	r3, .L79+4
 791 0548 4FF00002 		mov	r2, #0
 792 054c 5A60     		str	r2, [r3, #4]
 387:../src/lib/lpc177x_8x/Drivers/source/lpc177x_8x_uart.c **** 
 388:../src/lib/lpc177x_8x/Drivers/source/lpc177x_8x_uart.c ****             // Set LCR to default state
 389:../src/lib/lpc177x_8x/Drivers/source/lpc177x_8x_uart.c ****             LPC_UART4->LCR = 0;
 793              		.loc 1 389 0
 794 054e 564B     		ldr	r3, .L79+4
 795 0550 4FF00002 		mov	r2, #0
 796 0554 DA60     		str	r2, [r3, #12]
 390:../src/lib/lpc177x_8x/Drivers/source/lpc177x_8x_uart.c **** 
 391:../src/lib/lpc177x_8x/Drivers/source/lpc177x_8x_uart.c ****             // Set ACR to default state
 392:../src/lib/lpc177x_8x/Drivers/source/lpc177x_8x_uart.c ****             LPC_UART4->ACR = 0;
 797              		.loc 1 392 0
 798 0556 544B     		ldr	r3, .L79+4
 799 0558 4FF00002 		mov	r2, #0
 800 055c 1A62     		str	r2, [r3, #32]
 393:../src/lib/lpc177x_8x/Drivers/source/lpc177x_8x_uart.c **** 
 394:../src/lib/lpc177x_8x/Drivers/source/lpc177x_8x_uart.c ****             // Set RS485 control to default state
 395:../src/lib/lpc177x_8x/Drivers/source/lpc177x_8x_uart.c ****             LPC_UART4->RS485CTRL = 0;
 801              		.loc 1 395 0
 802 055e 524B     		ldr	r3, .L79+4
 803 0560 4FF00002 		mov	r2, #0
 804 0564 DA64     		str	r2, [r3, #76]
 396:../src/lib/lpc177x_8x/Drivers/source/lpc177x_8x_uart.c **** 
 397:../src/lib/lpc177x_8x/Drivers/source/lpc177x_8x_uart.c ****             // Set RS485 delay timer to default state
 398:../src/lib/lpc177x_8x/Drivers/source/lpc177x_8x_uart.c ****             LPC_UART4->RS485DLY = 0;
 805              		.loc 1 398 0
 806 0566 504B     		ldr	r3, .L79+4
 807 0568 4FF00002 		mov	r2, #0
 808 056c 5A65     		str	r2, [r3, #84]
 399:../src/lib/lpc177x_8x/Drivers/source/lpc177x_8x_uart.c **** 
 400:../src/lib/lpc177x_8x/Drivers/source/lpc177x_8x_uart.c ****             // Set RS485 addr match to default state
 401:../src/lib/lpc177x_8x/Drivers/source/lpc177x_8x_uart.c ****             LPC_UART4->ADRMATCH = 0;
 809              		.loc 1 401 0
 810 056e 4E4B     		ldr	r3, .L79+4
 811 0570 4FF00002 		mov	r2, #0
 812 0574 1A65     		str	r2, [r3, #80]
 402:../src/lib/lpc177x_8x/Drivers/source/lpc177x_8x_uart.c **** 
 403:../src/lib/lpc177x_8x/Drivers/source/lpc177x_8x_uart.c ****             // Dummy reading
 404:../src/lib/lpc177x_8x/Drivers/source/lpc177x_8x_uart.c ****             tmp = LPC_UART4->LSR;
 813              		.loc 1 404 0
 814 0576 4C4B     		ldr	r3, .L79+4
 815 0578 5B69     		ldr	r3, [r3, #20]
 816 057a 7B61     		str	r3, [r7, #20]
 405:../src/lib/lpc177x_8x/Drivers/source/lpc177x_8x_uart.c **** 
 406:../src/lib/lpc177x_8x/Drivers/source/lpc177x_8x_uart.c ****             // Set IrDA Mode to default state
 407:../src/lib/lpc177x_8x/Drivers/source/lpc177x_8x_uart.c ****             LPC_UART4->ICR = 0;
 817              		.loc 1 407 0
 818 057c 4A4B     		ldr	r3, .L79+4
 819 057e 4FF00002 		mov	r2, #0
 820 0582 5A62     		str	r2, [r3, #36]
 408:../src/lib/lpc177x_8x/Drivers/source/lpc177x_8x_uart.c ****         }
 409:../src/lib/lpc177x_8x/Drivers/source/lpc177x_8x_uart.c ****         break;
 821              		.loc 1 409 0
 822 0584 00BF     		nop
 823              	.L37:
 410:../src/lib/lpc177x_8x/Drivers/source/lpc177x_8x_uart.c ****     }
 411:../src/lib/lpc177x_8x/Drivers/source/lpc177x_8x_uart.c **** 
 412:../src/lib/lpc177x_8x/Drivers/source/lpc177x_8x_uart.c ****     // Set Line Control register ----------------------------
 413:../src/lib/lpc177x_8x/Drivers/source/lpc177x_8x_uart.c **** 
 414:../src/lib/lpc177x_8x/Drivers/source/lpc177x_8x_uart.c ****     uart_set_divisors(UartID, (UART_ConfigStruct->Baud_rate));
 824              		.loc 1 414 0
 825 0586 3B68     		ldr	r3, [r7, #0]
 826 0588 1B68     		ldr	r3, [r3, #0]
 827 058a FA79     		ldrb	r2, [r7, #7]	@ zero_extendqisi2
 828 058c 1046     		mov	r0, r2
 829 058e 1946     		mov	r1, r3
 830 0590 FFF736FD 		bl	uart_set_divisors
 415:../src/lib/lpc177x_8x/Drivers/source/lpc177x_8x_uart.c **** 
 416:../src/lib/lpc177x_8x/Drivers/source/lpc177x_8x_uart.c ****     if (UartID == UART_1)
 831              		.loc 1 416 0
 832 0594 FB79     		ldrb	r3, [r7, #7]	@ zero_extendqisi2
 833 0596 012B     		cmp	r3, #1
 834 0598 06D1     		bne	.L54
 417:../src/lib/lpc177x_8x/Drivers/source/lpc177x_8x_uart.c ****     {
 418:../src/lib/lpc177x_8x/Drivers/source/lpc177x_8x_uart.c ****         tmp = (LPC_UART1->LCR & (UART_LCR_DLAB_EN | UART_LCR_BREAK_EN)) \
 835              		.loc 1 418 0
 836 059a 424B     		ldr	r3, .L79
 837 059c 1B7B     		ldrb	r3, [r3, #12]
 838 059e DBB2     		uxtb	r3, r3
 839 05a0 03F0C003 		and	r3, r3, #192
 840 05a4 7B61     		str	r3, [r7, #20]
 841 05a6 13E0     		b	.L55
 842              	.L54:
 419:../src/lib/lpc177x_8x/Drivers/source/lpc177x_8x_uart.c ****                                                     & UART_LCR_BITMASK;
 420:../src/lib/lpc177x_8x/Drivers/source/lpc177x_8x_uart.c ****     }
 421:../src/lib/lpc177x_8x/Drivers/source/lpc177x_8x_uart.c ****     else if (UartID == UART_4)
 843              		.loc 1 421 0
 844 05a8 FB79     		ldrb	r3, [r7, #7]	@ zero_extendqisi2
 845 05aa 042B     		cmp	r3, #4
 846 05ac 05D1     		bne	.L56
 422:../src/lib/lpc177x_8x/Drivers/source/lpc177x_8x_uart.c ****     {
 423:../src/lib/lpc177x_8x/Drivers/source/lpc177x_8x_uart.c ****         tmp = (LPC_UART4->LCR & (UART_LCR_DLAB_EN | UART_LCR_BREAK_EN)) \
 847              		.loc 1 423 0
 848 05ae 3E4B     		ldr	r3, .L79+4
 849 05b0 DB68     		ldr	r3, [r3, #12]
 850 05b2 03F0C003 		and	r3, r3, #192
 851 05b6 7B61     		str	r3, [r7, #20]
 852 05b8 0AE0     		b	.L55
 853              	.L56:
 854              	.LBB4:
 424:../src/lib/lpc177x_8x/Drivers/source/lpc177x_8x_uart.c ****                                                     & UART_LCR_BITMASK;
 425:../src/lib/lpc177x_8x/Drivers/source/lpc177x_8x_uart.c ****     }   
 426:../src/lib/lpc177x_8x/Drivers/source/lpc177x_8x_uart.c ****     else
 427:../src/lib/lpc177x_8x/Drivers/source/lpc177x_8x_uart.c ****     {
 428:../src/lib/lpc177x_8x/Drivers/source/lpc177x_8x_uart.c ****         LPC_UART_TypeDef *UARTx = uart_get_pointer(UartID);
 855              		.loc 1 428 0
 856 05ba FB79     		ldrb	r3, [r7, #7]	@ zero_extendqisi2
 857 05bc 1846     		mov	r0, r3
 858 05be FFF7A9FE 		bl	uart_get_pointer
 859 05c2 F860     		str	r0, [r7, #12]
 429:../src/lib/lpc177x_8x/Drivers/source/lpc177x_8x_uart.c ****         tmp = (UARTx->LCR & (UART_LCR_DLAB_EN | UART_LCR_BREAK_EN)) & UART_LCR_BITMASK;
 860              		.loc 1 429 0
 861 05c4 FB68     		ldr	r3, [r7, #12]
 862 05c6 1B7B     		ldrb	r3, [r3, #12]
 863 05c8 DBB2     		uxtb	r3, r3
 864 05ca 03F0C003 		and	r3, r3, #192
 865 05ce 7B61     		str	r3, [r7, #20]
 866              	.L55:
 867              	.LBE4:
 430:../src/lib/lpc177x_8x/Drivers/source/lpc177x_8x_uart.c ****     }
 431:../src/lib/lpc177x_8x/Drivers/source/lpc177x_8x_uart.c **** 
 432:../src/lib/lpc177x_8x/Drivers/source/lpc177x_8x_uart.c ****     switch (UART_ConfigStruct->Databits)
 868              		.loc 1 432 0
 869 05d0 3B68     		ldr	r3, [r7, #0]
 870 05d2 5B79     		ldrb	r3, [r3, #5]	@ zero_extendqisi2
 871 05d4 012B     		cmp	r3, #1
 872 05d6 04D0     		beq	.L59
 873 05d8 022B     		cmp	r3, #2
 874 05da 07D0     		beq	.L60
 875 05dc 002B     		cmp	r3, #0
 876 05de 0FD0     		beq	.L77
 877 05e0 09E0     		b	.L75
 878              	.L59:
 433:../src/lib/lpc177x_8x/Drivers/source/lpc177x_8x_uart.c ****     {
 434:../src/lib/lpc177x_8x/Drivers/source/lpc177x_8x_uart.c ****         case UART_DATABIT_5:
 435:../src/lib/lpc177x_8x/Drivers/source/lpc177x_8x_uart.c ****             tmp |= UART_LCR_WLEN5;
 436:../src/lib/lpc177x_8x/Drivers/source/lpc177x_8x_uart.c ****             break;
 437:../src/lib/lpc177x_8x/Drivers/source/lpc177x_8x_uart.c **** 
 438:../src/lib/lpc177x_8x/Drivers/source/lpc177x_8x_uart.c ****         case UART_DATABIT_6:
 439:../src/lib/lpc177x_8x/Drivers/source/lpc177x_8x_uart.c ****             tmp |= UART_LCR_WLEN6;
 879              		.loc 1 439 0
 880 05e2 7B69     		ldr	r3, [r7, #20]
 881 05e4 43F00103 		orr	r3, r3, #1
 882 05e8 7B61     		str	r3, [r7, #20]
 440:../src/lib/lpc177x_8x/Drivers/source/lpc177x_8x_uart.c ****             break;
 883              		.loc 1 440 0
 884 05ea 0AE0     		b	.L61
 885              	.L60:
 441:../src/lib/lpc177x_8x/Drivers/source/lpc177x_8x_uart.c **** 
 442:../src/lib/lpc177x_8x/Drivers/source/lpc177x_8x_uart.c ****         case UART_DATABIT_7:
 443:../src/lib/lpc177x_8x/Drivers/source/lpc177x_8x_uart.c ****             tmp |= UART_LCR_WLEN7;
 886              		.loc 1 443 0
 887 05ec 7B69     		ldr	r3, [r7, #20]
 888 05ee 43F00203 		orr	r3, r3, #2
 889 05f2 7B61     		str	r3, [r7, #20]
 444:../src/lib/lpc177x_8x/Drivers/source/lpc177x_8x_uart.c ****             break;
 890              		.loc 1 444 0
 891 05f4 05E0     		b	.L61
 892              	.L75:
 445:../src/lib/lpc177x_8x/Drivers/source/lpc177x_8x_uart.c **** 
 446:../src/lib/lpc177x_8x/Drivers/source/lpc177x_8x_uart.c ****         case UART_DATABIT_8:
 447:../src/lib/lpc177x_8x/Drivers/source/lpc177x_8x_uart.c **** 
 448:../src/lib/lpc177x_8x/Drivers/source/lpc177x_8x_uart.c ****         default:
 449:../src/lib/lpc177x_8x/Drivers/source/lpc177x_8x_uart.c ****             tmp |= UART_LCR_WLEN8;
 893              		.loc 1 449 0
 894 05f6 7B69     		ldr	r3, [r7, #20]
 895 05f8 43F00303 		orr	r3, r3, #3
 896 05fc 7B61     		str	r3, [r7, #20]
 450:../src/lib/lpc177x_8x/Drivers/source/lpc177x_8x_uart.c ****             break;
 897              		.loc 1 450 0
 898 05fe 00E0     		b	.L61
 899              	.L77:
 436:../src/lib/lpc177x_8x/Drivers/source/lpc177x_8x_uart.c ****             break;
 900              		.loc 1 436 0
 901 0600 00BF     		nop
 902              	.L61:
 451:../src/lib/lpc177x_8x/Drivers/source/lpc177x_8x_uart.c ****     }
 452:../src/lib/lpc177x_8x/Drivers/source/lpc177x_8x_uart.c **** 
 453:../src/lib/lpc177x_8x/Drivers/source/lpc177x_8x_uart.c ****     if (UART_ConfigStruct->Parity == UART_PARITY_NONE)
 903              		.loc 1 453 0
 904 0602 3B68     		ldr	r3, [r7, #0]
 905 0604 1B79     		ldrb	r3, [r3, #4]	@ zero_extendqisi2
 906 0606 002B     		cmp	r3, #0
 907 0608 24D0     		beq	.L62
 454:../src/lib/lpc177x_8x/Drivers/source/lpc177x_8x_uart.c ****     {
 455:../src/lib/lpc177x_8x/Drivers/source/lpc177x_8x_uart.c ****         // Do nothing...
 456:../src/lib/lpc177x_8x/Drivers/source/lpc177x_8x_uart.c ****     }
 457:../src/lib/lpc177x_8x/Drivers/source/lpc177x_8x_uart.c ****     else
 458:../src/lib/lpc177x_8x/Drivers/source/lpc177x_8x_uart.c ****     {
 459:../src/lib/lpc177x_8x/Drivers/source/lpc177x_8x_uart.c ****         tmp |= UART_LCR_PARITY_EN;
 908              		.loc 1 459 0
 909 060a 7B69     		ldr	r3, [r7, #20]
 910 060c 43F00803 		orr	r3, r3, #8
 911 0610 7B61     		str	r3, [r7, #20]
 460:../src/lib/lpc177x_8x/Drivers/source/lpc177x_8x_uart.c ****         switch (UART_ConfigStruct->Parity)
 912              		.loc 1 460 0
 913 0612 3B68     		ldr	r3, [r7, #0]
 914 0614 1B79     		ldrb	r3, [r3, #4]	@ zero_extendqisi2
 915 0616 03F1FF33 		add	r3, r3, #-1
 916 061a 032B     		cmp	r3, #3
 917 061c 19D8     		bhi	.L78
 918 061e 01A2     		adr	r2, .L68
 919 0620 52F823F0 		ldr	pc, [r2, r3, lsl #2]
 920              		.align	2
 921              	.L68:
 922 0624 53060000 		.word	.L78+1
 923 0628 35060000 		.word	.L65+1
 924 062c 3F060000 		.word	.L66+1
 925 0630 49060000 		.word	.L67+1
 926              	.L65:
 461:../src/lib/lpc177x_8x/Drivers/source/lpc177x_8x_uart.c ****         {
 462:../src/lib/lpc177x_8x/Drivers/source/lpc177x_8x_uart.c ****             case UART_PARITY_ODD:
 463:../src/lib/lpc177x_8x/Drivers/source/lpc177x_8x_uart.c ****                 tmp |= UART_LCR_PARITY_ODD;
 464:../src/lib/lpc177x_8x/Drivers/source/lpc177x_8x_uart.c ****                 break;
 465:../src/lib/lpc177x_8x/Drivers/source/lpc177x_8x_uart.c **** 
 466:../src/lib/lpc177x_8x/Drivers/source/lpc177x_8x_uart.c ****             case UART_PARITY_EVEN:
 467:../src/lib/lpc177x_8x/Drivers/source/lpc177x_8x_uart.c ****                 tmp |= UART_LCR_PARITY_EVEN;
 927              		.loc 1 467 0
 928 0634 7B69     		ldr	r3, [r7, #20]
 929 0636 43F01003 		orr	r3, r3, #16
 930 063a 7B61     		str	r3, [r7, #20]
 468:../src/lib/lpc177x_8x/Drivers/source/lpc177x_8x_uart.c ****                 break;
 931              		.loc 1 468 0
 932 063c 0AE0     		b	.L62
 933              	.L66:
 469:../src/lib/lpc177x_8x/Drivers/source/lpc177x_8x_uart.c **** 
 470:../src/lib/lpc177x_8x/Drivers/source/lpc177x_8x_uart.c ****             case UART_PARITY_SP_1:
 471:../src/lib/lpc177x_8x/Drivers/source/lpc177x_8x_uart.c ****                 tmp |= UART_LCR_PARITY_F_1;
 934              		.loc 1 471 0
 935 063e 7B69     		ldr	r3, [r7, #20]
 936 0640 43F02003 		orr	r3, r3, #32
 937 0644 7B61     		str	r3, [r7, #20]
 472:../src/lib/lpc177x_8x/Drivers/source/lpc177x_8x_uart.c ****                 break;
 938              		.loc 1 472 0
 939 0646 05E0     		b	.L62
 940              	.L67:
 473:../src/lib/lpc177x_8x/Drivers/source/lpc177x_8x_uart.c **** 
 474:../src/lib/lpc177x_8x/Drivers/source/lpc177x_8x_uart.c ****             case UART_PARITY_SP_0:
 475:../src/lib/lpc177x_8x/Drivers/source/lpc177x_8x_uart.c ****                 tmp |= UART_LCR_PARITY_F_0;
 941              		.loc 1 475 0
 942 0648 7B69     		ldr	r3, [r7, #20]
 943 064a 43F03003 		orr	r3, r3, #48
 944 064e 7B61     		str	r3, [r7, #20]
 476:../src/lib/lpc177x_8x/Drivers/source/lpc177x_8x_uart.c ****                 break;
 945              		.loc 1 476 0
 946 0650 00E0     		b	.L62
 947              	.L78:
 477:../src/lib/lpc177x_8x/Drivers/source/lpc177x_8x_uart.c **** 
 478:../src/lib/lpc177x_8x/Drivers/source/lpc177x_8x_uart.c ****             default:
 479:../src/lib/lpc177x_8x/Drivers/source/lpc177x_8x_uart.c ****                 break;
 948              		.loc 1 479 0
 949 0652 00BF     		nop
 950              	.L62:
 480:../src/lib/lpc177x_8x/Drivers/source/lpc177x_8x_uart.c ****         }
 481:../src/lib/lpc177x_8x/Drivers/source/lpc177x_8x_uart.c ****     }
 482:../src/lib/lpc177x_8x/Drivers/source/lpc177x_8x_uart.c **** 
 483:../src/lib/lpc177x_8x/Drivers/source/lpc177x_8x_uart.c ****     switch (UART_ConfigStruct->Stopbits)
 951              		.loc 1 483 0
 952 0654 3B68     		ldr	r3, [r7, #0]
 953 0656 9B79     		ldrb	r3, [r3, #6]	@ zero_extendqisi2
 954 0658 012B     		cmp	r3, #1
 955 065a 04D1     		bne	.L76
 956              	.L70:
 484:../src/lib/lpc177x_8x/Drivers/source/lpc177x_8x_uart.c ****     {
 485:../src/lib/lpc177x_8x/Drivers/source/lpc177x_8x_uart.c ****         case UART_STOPBIT_2:
 486:../src/lib/lpc177x_8x/Drivers/source/lpc177x_8x_uart.c ****             tmp |= UART_LCR_STOPBIT_SEL;
 957              		.loc 1 486 0
 958 065c 7B69     		ldr	r3, [r7, #20]
 959 065e 43F00403 		orr	r3, r3, #4
 960 0662 7B61     		str	r3, [r7, #20]
 487:../src/lib/lpc177x_8x/Drivers/source/lpc177x_8x_uart.c ****             break;
 961              		.loc 1 487 0
 962 0664 00E0     		b	.L71
 963              	.L76:
 488:../src/lib/lpc177x_8x/Drivers/source/lpc177x_8x_uart.c **** 
 489:../src/lib/lpc177x_8x/Drivers/source/lpc177x_8x_uart.c ****         case UART_STOPBIT_1:
 490:../src/lib/lpc177x_8x/Drivers/source/lpc177x_8x_uart.c **** 
 491:../src/lib/lpc177x_8x/Drivers/source/lpc177x_8x_uart.c ****         default:
 492:../src/lib/lpc177x_8x/Drivers/source/lpc177x_8x_uart.c ****             // Do no thing
 493:../src/lib/lpc177x_8x/Drivers/source/lpc177x_8x_uart.c ****             break;
 964              		.loc 1 493 0
 965 0666 00BF     		nop
 966              	.L71:
 494:../src/lib/lpc177x_8x/Drivers/source/lpc177x_8x_uart.c ****     }
 495:../src/lib/lpc177x_8x/Drivers/source/lpc177x_8x_uart.c **** 
 496:../src/lib/lpc177x_8x/Drivers/source/lpc177x_8x_uart.c **** 
 497:../src/lib/lpc177x_8x/Drivers/source/lpc177x_8x_uart.c ****     // Write back to LCR, configure FIFO and Disable Tx
 498:../src/lib/lpc177x_8x/Drivers/source/lpc177x_8x_uart.c ****     if (UartID == UART_1)
 967              		.loc 1 498 0
 968 0668 FB79     		ldrb	r3, [r7, #7]	@ zero_extendqisi2
 969 066a 012B     		cmp	r3, #1
 970 066c 04D1     		bne	.L72
 499:../src/lib/lpc177x_8x/Drivers/source/lpc177x_8x_uart.c ****     {
 500:../src/lib/lpc177x_8x/Drivers/source/lpc177x_8x_uart.c ****         LPC_UART1->LCR = (uint8_t)(tmp & UART_LCR_BITMASK);
 971              		.loc 1 500 0
 972 066e 0D4B     		ldr	r3, .L79
 973 0670 7A69     		ldr	r2, [r7, #20]
 974 0672 D2B2     		uxtb	r2, r2
 975 0674 1A73     		strb	r2, [r3, #12]
 976 0676 10E0     		b	.L36
 977              	.L72:
 501:../src/lib/lpc177x_8x/Drivers/source/lpc177x_8x_uart.c ****     }
 502:../src/lib/lpc177x_8x/Drivers/source/lpc177x_8x_uart.c ****     else if (UartID == UART_4)
 978              		.loc 1 502 0
 979 0678 FB79     		ldrb	r3, [r7, #7]	@ zero_extendqisi2
 980 067a 042B     		cmp	r3, #4
 981 067c 04D1     		bne	.L74
 503:../src/lib/lpc177x_8x/Drivers/source/lpc177x_8x_uart.c ****     {
 504:../src/lib/lpc177x_8x/Drivers/source/lpc177x_8x_uart.c ****         LPC_UART4->LCR = (uint8_t)(tmp & UART_LCR_BITMASK);
 982              		.loc 1 504 0
 983 067e 0A4B     		ldr	r3, .L79+4
 984 0680 7A69     		ldr	r2, [r7, #20]
 985 0682 D2B2     		uxtb	r2, r2
 986 0684 DA60     		str	r2, [r3, #12]
 987 0686 08E0     		b	.L36
 988              	.L74:
 989              	.LBB5:
 505:../src/lib/lpc177x_8x/Drivers/source/lpc177x_8x_uart.c ****     }   
 506:../src/lib/lpc177x_8x/Drivers/source/lpc177x_8x_uart.c ****     else
 507:../src/lib/lpc177x_8x/Drivers/source/lpc177x_8x_uart.c ****     {
 508:../src/lib/lpc177x_8x/Drivers/source/lpc177x_8x_uart.c ****         LPC_UART_TypeDef *UARTx = uart_get_pointer(UartID);
 990              		.loc 1 508 0
 991 0688 FB79     		ldrb	r3, [r7, #7]	@ zero_extendqisi2
 992 068a 1846     		mov	r0, r3
 993 068c FFF742FE 		bl	uart_get_pointer
 994 0690 B860     		str	r0, [r7, #8]
 509:../src/lib/lpc177x_8x/Drivers/source/lpc177x_8x_uart.c ****         UARTx->LCR = (uint8_t)(tmp & UART_LCR_BITMASK);
 995              		.loc 1 509 0
 996 0692 7B69     		ldr	r3, [r7, #20]
 997 0694 DAB2     		uxtb	r2, r3
 998 0696 BB68     		ldr	r3, [r7, #8]
 999 0698 1A73     		strb	r2, [r3, #12]
 1000              	.L36:
 1001              	.LBE5:
 510:../src/lib/lpc177x_8x/Drivers/source/lpc177x_8x_uart.c ****     }
 511:../src/lib/lpc177x_8x/Drivers/source/lpc177x_8x_uart.c **** }
 1002              		.loc 1 511 0
 1003 069a 07F11807 		add	r7, r7, #24
 1004 069e BD46     		mov	sp, r7
 1005 06a0 80BD     		pop	{r7, pc}
 1006              	.L80:
 1007 06a2 00BF     		.align	2
 1008              	.L79:
 1009 06a4 00000140 		.word	1073807360
 1010 06a8 00400A40 		.word	1074413568
 1011              		.cfi_endproc
 1012              	.LFE57:
 1014              		.align	2
 1015              		.global	UART_DeInit
 1016              		.thumb
 1017              		.thumb_func
 1019              	UART_DeInit:
 1020              	.LFB58:
 512:../src/lib/lpc177x_8x/Drivers/source/lpc177x_8x_uart.c **** 
 513:../src/lib/lpc177x_8x/Drivers/source/lpc177x_8x_uart.c **** /*********************************************************************//**
 514:../src/lib/lpc177x_8x/Drivers/source/lpc177x_8x_uart.c ****  * @brief       De-initializes the UARTx peripheral registers to their
 515:../src/lib/lpc177x_8x/Drivers/source/lpc177x_8x_uart.c ****  *                  default reset values.
 516:../src/lib/lpc177x_8x/Drivers/source/lpc177x_8x_uart.c ****  * @param[in]   UartID  UART peripheral selected, should be:
 517:../src/lib/lpc177x_8x/Drivers/source/lpc177x_8x_uart.c ****  *              - UART_0: UART0 peripheral
 518:../src/lib/lpc177x_8x/Drivers/source/lpc177x_8x_uart.c ****  *              - UART_1: UART1 peripheral
 519:../src/lib/lpc177x_8x/Drivers/source/lpc177x_8x_uart.c ****  *              - UART_2: UART2 peripheral
 520:../src/lib/lpc177x_8x/Drivers/source/lpc177x_8x_uart.c ****  *              - UART_3: UART3 peripheral
 521:../src/lib/lpc177x_8x/Drivers/source/lpc177x_8x_uart.c ****  *              - UART_4: UART4 peripheral
 522:../src/lib/lpc177x_8x/Drivers/source/lpc177x_8x_uart.c ****  * @return      None
 523:../src/lib/lpc177x_8x/Drivers/source/lpc177x_8x_uart.c ****  **********************************************************************/
 524:../src/lib/lpc177x_8x/Drivers/source/lpc177x_8x_uart.c **** void UART_DeInit(UART_ID_Type UartID)
 525:../src/lib/lpc177x_8x/Drivers/source/lpc177x_8x_uart.c **** {
 1021              		.loc 1 525 0
 1022              		.cfi_startproc
 1023              		@ args = 0, pretend = 0, frame = 8
 1024              		@ frame_needed = 1, uses_anonymous_args = 0
 1025 06ac 80B5     		push	{r7, lr}
 1026              	.LCFI9:
 1027              		.cfi_def_cfa_offset 8
 1028              		.cfi_offset 7, -8
 1029              		.cfi_offset 14, -4
 1030 06ae 82B0     		sub	sp, sp, #8
 1031              	.LCFI10:
 1032              		.cfi_def_cfa_offset 16
 1033 06b0 00AF     		add	r7, sp, #0
 1034              	.LCFI11:
 1035              		.cfi_def_cfa_register 7
 1036 06b2 0346     		mov	r3, r0
 1037 06b4 FB71     		strb	r3, [r7, #7]
 526:../src/lib/lpc177x_8x/Drivers/source/lpc177x_8x_uart.c ****     UART_TxCmd(UartID, DISABLE);
 1038              		.loc 1 526 0
 1039 06b6 FB79     		ldrb	r3, [r7, #7]	@ zero_extendqisi2
 1040 06b8 1846     		mov	r0, r3
 1041 06ba 4FF00001 		mov	r1, #0
 1042 06be FFF7FEFF 		bl	UART_TxCmd
 527:../src/lib/lpc177x_8x/Drivers/source/lpc177x_8x_uart.c ****     if (UartID == UART_0)
 1043              		.loc 1 527 0
 1044 06c2 FB79     		ldrb	r3, [r7, #7]	@ zero_extendqisi2
 1045 06c4 002B     		cmp	r3, #0
 1046 06c6 06D1     		bne	.L82
 528:../src/lib/lpc177x_8x/Drivers/source/lpc177x_8x_uart.c ****     {
 529:../src/lib/lpc177x_8x/Drivers/source/lpc177x_8x_uart.c ****         /* Set up clock and power for UART module */
 530:../src/lib/lpc177x_8x/Drivers/source/lpc177x_8x_uart.c ****         CLKPWR_ConfigPPWR (CLKPWR_PCONP_PCUART0, DISABLE);
 1047              		.loc 1 530 0
 1048 06c8 4FF00800 		mov	r0, #8
 1049 06cc 4FF00001 		mov	r1, #0
 1050 06d0 FFF7FEFF 		bl	CLKPWR_ConfigPPWR
 1051 06d4 26E0     		b	.L81
 1052              	.L82:
 531:../src/lib/lpc177x_8x/Drivers/source/lpc177x_8x_uart.c ****     }
 532:../src/lib/lpc177x_8x/Drivers/source/lpc177x_8x_uart.c **** 
 533:../src/lib/lpc177x_8x/Drivers/source/lpc177x_8x_uart.c ****     else if (UartID == UART_1)
 1053              		.loc 1 533 0
 1054 06d6 FB79     		ldrb	r3, [r7, #7]	@ zero_extendqisi2
 1055 06d8 012B     		cmp	r3, #1
 1056 06da 06D1     		bne	.L84
 534:../src/lib/lpc177x_8x/Drivers/source/lpc177x_8x_uart.c ****     {
 535:../src/lib/lpc177x_8x/Drivers/source/lpc177x_8x_uart.c ****         /* Set up clock and power for UART module */
 536:../src/lib/lpc177x_8x/Drivers/source/lpc177x_8x_uart.c ****         CLKPWR_ConfigPPWR (CLKPWR_PCONP_PCUART1, DISABLE);
 1057              		.loc 1 536 0
 1058 06dc 4FF01000 		mov	r0, #16
 1059 06e0 4FF00001 		mov	r1, #0
 1060 06e4 FFF7FEFF 		bl	CLKPWR_ConfigPPWR
 1061 06e8 1CE0     		b	.L81
 1062              	.L84:
 537:../src/lib/lpc177x_8x/Drivers/source/lpc177x_8x_uart.c ****     }
 538:../src/lib/lpc177x_8x/Drivers/source/lpc177x_8x_uart.c **** 
 539:../src/lib/lpc177x_8x/Drivers/source/lpc177x_8x_uart.c ****     else if (UartID == UART_2)
 1063              		.loc 1 539 0
 1064 06ea FB79     		ldrb	r3, [r7, #7]	@ zero_extendqisi2
 1065 06ec 022B     		cmp	r3, #2
 1066 06ee 06D1     		bne	.L85
 540:../src/lib/lpc177x_8x/Drivers/source/lpc177x_8x_uart.c ****     {
 541:../src/lib/lpc177x_8x/Drivers/source/lpc177x_8x_uart.c ****         /* Set up clock and power for UART module */
 542:../src/lib/lpc177x_8x/Drivers/source/lpc177x_8x_uart.c ****         CLKPWR_ConfigPPWR (CLKPWR_PCONP_PCUART2, DISABLE);
 1067              		.loc 1 542 0
 1068 06f0 4FF08070 		mov	r0, #16777216
 1069 06f4 4FF00001 		mov	r1, #0
 1070 06f8 FFF7FEFF 		bl	CLKPWR_ConfigPPWR
 1071 06fc 12E0     		b	.L81
 1072              	.L85:
 543:../src/lib/lpc177x_8x/Drivers/source/lpc177x_8x_uart.c ****     }
 544:../src/lib/lpc177x_8x/Drivers/source/lpc177x_8x_uart.c **** 
 545:../src/lib/lpc177x_8x/Drivers/source/lpc177x_8x_uart.c ****     else if (UartID == UART_3)
 1073              		.loc 1 545 0
 1074 06fe FB79     		ldrb	r3, [r7, #7]	@ zero_extendqisi2
 1075 0700 032B     		cmp	r3, #3
 1076 0702 06D1     		bne	.L86
 546:../src/lib/lpc177x_8x/Drivers/source/lpc177x_8x_uart.c ****     {
 547:../src/lib/lpc177x_8x/Drivers/source/lpc177x_8x_uart.c ****         /* Set up clock and power for UART module */
 548:../src/lib/lpc177x_8x/Drivers/source/lpc177x_8x_uart.c ****         CLKPWR_ConfigPPWR (CLKPWR_PCONP_PCUART3, DISABLE);
 1077              		.loc 1 548 0
 1078 0704 4FF00070 		mov	r0, #33554432
 1079 0708 4FF00001 		mov	r1, #0
 1080 070c FFF7FEFF 		bl	CLKPWR_ConfigPPWR
 1081 0710 08E0     		b	.L81
 1082              	.L86:
 549:../src/lib/lpc177x_8x/Drivers/source/lpc177x_8x_uart.c ****     }
 550:../src/lib/lpc177x_8x/Drivers/source/lpc177x_8x_uart.c ****     else if (UartID == UART_4)
 1083              		.loc 1 550 0
 1084 0712 FB79     		ldrb	r3, [r7, #7]	@ zero_extendqisi2
 1085 0714 042B     		cmp	r3, #4
 1086 0716 05D1     		bne	.L81
 551:../src/lib/lpc177x_8x/Drivers/source/lpc177x_8x_uart.c ****     {
 552:../src/lib/lpc177x_8x/Drivers/source/lpc177x_8x_uart.c ****         /* Set up clock and power for UART module */
 553:../src/lib/lpc177x_8x/Drivers/source/lpc177x_8x_uart.c ****         CLKPWR_ConfigPPWR (CLKPWR_PCONP_PCUART4, DISABLE);
 1087              		.loc 1 553 0
 1088 0718 4FF48070 		mov	r0, #256
 1089 071c 4FF00001 		mov	r1, #0
 1090 0720 FFF7FEFF 		bl	CLKPWR_ConfigPPWR
 1091              	.L81:
 554:../src/lib/lpc177x_8x/Drivers/source/lpc177x_8x_uart.c ****     }
 555:../src/lib/lpc177x_8x/Drivers/source/lpc177x_8x_uart.c **** }
 1092              		.loc 1 555 0
 1093 0724 07F10807 		add	r7, r7, #8
 1094 0728 BD46     		mov	sp, r7
 1095 072a 80BD     		pop	{r7, pc}
 1096              		.cfi_endproc
 1097              	.LFE58:
 1099              		.align	2
 1100              		.global	UART_ConfigStructInit
 1101              		.thumb
 1102              		.thumb_func
 1104              	UART_ConfigStructInit:
 1105              	.LFB59:
 556:../src/lib/lpc177x_8x/Drivers/source/lpc177x_8x_uart.c **** 
 557:../src/lib/lpc177x_8x/Drivers/source/lpc177x_8x_uart.c **** /*****************************************************************************//**
 558:../src/lib/lpc177x_8x/Drivers/source/lpc177x_8x_uart.c **** * @brief        Fills each UART_InitStruct member with its default value:
 559:../src/lib/lpc177x_8x/Drivers/source/lpc177x_8x_uart.c **** *               - 115200 bps
 560:../src/lib/lpc177x_8x/Drivers/source/lpc177x_8x_uart.c **** *               - 8-bit data
 561:../src/lib/lpc177x_8x/Drivers/source/lpc177x_8x_uart.c **** *               - 1 Stopbit
 562:../src/lib/lpc177x_8x/Drivers/source/lpc177x_8x_uart.c **** *               - None Parity
 563:../src/lib/lpc177x_8x/Drivers/source/lpc177x_8x_uart.c **** * @param[in]    UART_InitStruct Pointer to a UART_CFG_Type structure
 564:../src/lib/lpc177x_8x/Drivers/source/lpc177x_8x_uart.c **** *                    which will be initialized.
 565:../src/lib/lpc177x_8x/Drivers/source/lpc177x_8x_uart.c **** * @return       None
 566:../src/lib/lpc177x_8x/Drivers/source/lpc177x_8x_uart.c **** *******************************************************************************/
 567:../src/lib/lpc177x_8x/Drivers/source/lpc177x_8x_uart.c **** void UART_ConfigStructInit(UART_CFG_Type *UART_InitStruct)
 568:../src/lib/lpc177x_8x/Drivers/source/lpc177x_8x_uart.c **** {
 1106              		.loc 1 568 0
 1107              		.cfi_startproc
 1108              		@ args = 0, pretend = 0, frame = 8
 1109              		@ frame_needed = 1, uses_anonymous_args = 0
 1110              		@ link register save eliminated.
 1111 072c 80B4     		push	{r7}
 1112              	.LCFI12:
 1113              		.cfi_def_cfa_offset 4
 1114              		.cfi_offset 7, -4
 1115 072e 83B0     		sub	sp, sp, #12
 1116              	.LCFI13:
 1117              		.cfi_def_cfa_offset 16
 1118 0730 00AF     		add	r7, sp, #0
 1119              	.LCFI14:
 1120              		.cfi_def_cfa_register 7
 1121 0732 7860     		str	r0, [r7, #4]
 569:../src/lib/lpc177x_8x/Drivers/source/lpc177x_8x_uart.c ****     UART_InitStruct->Baud_rate = 115200;
 1122              		.loc 1 569 0
 1123 0734 7B68     		ldr	r3, [r7, #4]
 1124 0736 4FF4E132 		mov	r2, #115200
 1125 073a 1A60     		str	r2, [r3, #0]
 570:../src/lib/lpc177x_8x/Drivers/source/lpc177x_8x_uart.c **** 
 571:../src/lib/lpc177x_8x/Drivers/source/lpc177x_8x_uart.c ****     UART_InitStruct->Databits = UART_DATABIT_8;
 1126              		.loc 1 571 0
 1127 073c 7B68     		ldr	r3, [r7, #4]
 1128 073e 4FF00302 		mov	r2, #3
 1129 0742 5A71     		strb	r2, [r3, #5]
 572:../src/lib/lpc177x_8x/Drivers/source/lpc177x_8x_uart.c **** 
 573:../src/lib/lpc177x_8x/Drivers/source/lpc177x_8x_uart.c ****     UART_InitStruct->Parity = UART_PARITY_NONE;
 1130              		.loc 1 573 0
 1131 0744 7B68     		ldr	r3, [r7, #4]
 1132 0746 4FF00002 		mov	r2, #0
 1133 074a 1A71     		strb	r2, [r3, #4]
 574:../src/lib/lpc177x_8x/Drivers/source/lpc177x_8x_uart.c **** 
 575:../src/lib/lpc177x_8x/Drivers/source/lpc177x_8x_uart.c ****     UART_InitStruct->Stopbits = UART_STOPBIT_1;
 1134              		.loc 1 575 0
 1135 074c 7B68     		ldr	r3, [r7, #4]
 1136 074e 4FF00002 		mov	r2, #0
 1137 0752 9A71     		strb	r2, [r3, #6]
 576:../src/lib/lpc177x_8x/Drivers/source/lpc177x_8x_uart.c **** }
 1138              		.loc 1 576 0
 1139 0754 07F10C07 		add	r7, r7, #12
 1140 0758 BD46     		mov	sp, r7
 1141 075a 80BC     		pop	{r7}
 1142 075c 7047     		bx	lr
 1143              		.cfi_endproc
 1144              	.LFE59:
 1146 075e 00BF     		.align	2
 1147              		.global	UART_SendByte
 1148              		.thumb
 1149              		.thumb_func
 1151              	UART_SendByte:
 1152              	.LFB60:
 577:../src/lib/lpc177x_8x/Drivers/source/lpc177x_8x_uart.c **** 
 578:../src/lib/lpc177x_8x/Drivers/source/lpc177x_8x_uart.c **** /* UART Send/Recieve functions -------------------------------------------------*/
 579:../src/lib/lpc177x_8x/Drivers/source/lpc177x_8x_uart.c **** /*********************************************************************//**
 580:../src/lib/lpc177x_8x/Drivers/source/lpc177x_8x_uart.c ****  * @brief       Transmit a single data through UART peripheral
 581:../src/lib/lpc177x_8x/Drivers/source/lpc177x_8x_uart.c ****  * @param[in]   UARTx   UART peripheral selected, should be:
 582:../src/lib/lpc177x_8x/Drivers/source/lpc177x_8x_uart.c ****  *              - UART_0: UART0 peripheral
 583:../src/lib/lpc177x_8x/Drivers/source/lpc177x_8x_uart.c ****  *              - UART_1: UART1 peripheral
 584:../src/lib/lpc177x_8x/Drivers/source/lpc177x_8x_uart.c ****  *              - UART_2: UART2 peripheral
 585:../src/lib/lpc177x_8x/Drivers/source/lpc177x_8x_uart.c ****  *              - UART_3: UART3 peripheral
 586:../src/lib/lpc177x_8x/Drivers/source/lpc177x_8x_uart.c ****  *              - UART_4: UART4 peripheral
 587:../src/lib/lpc177x_8x/Drivers/source/lpc177x_8x_uart.c ****  * @param[in]   Data    Data to transmit (must be 8-bit long)
 588:../src/lib/lpc177x_8x/Drivers/source/lpc177x_8x_uart.c ****  * @return      None
 589:../src/lib/lpc177x_8x/Drivers/source/lpc177x_8x_uart.c ****  **********************************************************************/
 590:../src/lib/lpc177x_8x/Drivers/source/lpc177x_8x_uart.c **** void UART_SendByte(UART_ID_Type UartID, uint8_t Data)
 591:../src/lib/lpc177x_8x/Drivers/source/lpc177x_8x_uart.c **** {
 1153              		.loc 1 591 0
 1154              		.cfi_startproc
 1155              		@ args = 0, pretend = 0, frame = 8
 1156              		@ frame_needed = 1, uses_anonymous_args = 0
 1157              		@ link register save eliminated.
 1158 0760 80B4     		push	{r7}
 1159              	.LCFI15:
 1160              		.cfi_def_cfa_offset 4
 1161              		.cfi_offset 7, -4
 1162 0762 83B0     		sub	sp, sp, #12
 1163              	.LCFI16:
 1164              		.cfi_def_cfa_offset 16
 1165 0764 00AF     		add	r7, sp, #0
 1166              	.LCFI17:
 1167              		.cfi_def_cfa_register 7
 1168 0766 0246     		mov	r2, r0
 1169 0768 0B46     		mov	r3, r1
 1170 076a FA71     		strb	r2, [r7, #7]
 1171 076c BB71     		strb	r3, [r7, #6]
 592:../src/lib/lpc177x_8x/Drivers/source/lpc177x_8x_uart.c ****     switch (UartID)
 1172              		.loc 1 592 0
 1173 076e FB79     		ldrb	r3, [r7, #7]	@ zero_extendqisi2
 1174 0770 042B     		cmp	r3, #4
 1175 0772 21D8     		bhi	.L88
 1176 0774 01A2     		adr	r2, .L95
 1177 0776 52F823F0 		ldr	pc, [r2, r3, lsl #2]
 1178 077a 00BF     		.align	2
 1179              	.L95:
 1180 077c 91070000 		.word	.L90+1
 1181 0780 99070000 		.word	.L91+1
 1182 0784 A1070000 		.word	.L92+1
 1183 0788 A9070000 		.word	.L93+1
 1184 078c B1070000 		.word	.L94+1
 1185              	.L90:
 593:../src/lib/lpc177x_8x/Drivers/source/lpc177x_8x_uart.c ****     {
 594:../src/lib/lpc177x_8x/Drivers/source/lpc177x_8x_uart.c ****         case UART_0:
 595:../src/lib/lpc177x_8x/Drivers/source/lpc177x_8x_uart.c ****             LPC_UART0->THR = Data & UART_THR_MASKBIT;
 1186              		.loc 1 595 0
 1187 0790 0C4B     		ldr	r3, .L96
 1188 0792 BA79     		ldrb	r2, [r7, #6]
 1189 0794 1A70     		strb	r2, [r3, #0]
 596:../src/lib/lpc177x_8x/Drivers/source/lpc177x_8x_uart.c ****             break;
 1190              		.loc 1 596 0
 1191 0796 0FE0     		b	.L88
 1192              	.L91:
 597:../src/lib/lpc177x_8x/Drivers/source/lpc177x_8x_uart.c ****         case UART_1:
 598:../src/lib/lpc177x_8x/Drivers/source/lpc177x_8x_uart.c ****             LPC_UART1->THR = Data & UART_THR_MASKBIT;
 1193              		.loc 1 598 0
 1194 0798 0B4B     		ldr	r3, .L96+4
 1195 079a BA79     		ldrb	r2, [r7, #6]
 1196 079c 1A70     		strb	r2, [r3, #0]
 599:../src/lib/lpc177x_8x/Drivers/source/lpc177x_8x_uart.c ****             break;  
 1197              		.loc 1 599 0
 1198 079e 0BE0     		b	.L88
 1199              	.L92:
 600:../src/lib/lpc177x_8x/Drivers/source/lpc177x_8x_uart.c ****         case UART_2:
 601:../src/lib/lpc177x_8x/Drivers/source/lpc177x_8x_uart.c ****             LPC_UART2->THR = Data & UART_THR_MASKBIT;
 1200              		.loc 1 601 0
 1201 07a0 0A4B     		ldr	r3, .L96+8
 1202 07a2 BA79     		ldrb	r2, [r7, #6]
 1203 07a4 1A70     		strb	r2, [r3, #0]
 602:../src/lib/lpc177x_8x/Drivers/source/lpc177x_8x_uart.c ****             break;
 1204              		.loc 1 602 0
 1205 07a6 07E0     		b	.L88
 1206              	.L93:
 603:../src/lib/lpc177x_8x/Drivers/source/lpc177x_8x_uart.c ****         case UART_3:
 604:../src/lib/lpc177x_8x/Drivers/source/lpc177x_8x_uart.c ****             LPC_UART3->THR = Data & UART_THR_MASKBIT;
 1207              		.loc 1 604 0
 1208 07a8 094B     		ldr	r3, .L96+12
 1209 07aa BA79     		ldrb	r2, [r7, #6]
 1210 07ac 1A70     		strb	r2, [r3, #0]
 605:../src/lib/lpc177x_8x/Drivers/source/lpc177x_8x_uart.c ****             break;
 1211              		.loc 1 605 0
 1212 07ae 03E0     		b	.L88
 1213              	.L94:
 606:../src/lib/lpc177x_8x/Drivers/source/lpc177x_8x_uart.c ****         case UART_4:
 607:../src/lib/lpc177x_8x/Drivers/source/lpc177x_8x_uart.c ****             LPC_UART4->THR = Data & UART_THR_MASKBIT;
 1214              		.loc 1 607 0
 1215 07b0 084B     		ldr	r3, .L96+16
 1216 07b2 BA79     		ldrb	r2, [r7, #6]	@ zero_extendqisi2
 1217 07b4 1A60     		str	r2, [r3, #0]
 608:../src/lib/lpc177x_8x/Drivers/source/lpc177x_8x_uart.c ****             break;
 1218              		.loc 1 608 0
 1219 07b6 00BF     		nop
 1220              	.L88:
 609:../src/lib/lpc177x_8x/Drivers/source/lpc177x_8x_uart.c ****     }
 610:../src/lib/lpc177x_8x/Drivers/source/lpc177x_8x_uart.c **** 
 611:../src/lib/lpc177x_8x/Drivers/source/lpc177x_8x_uart.c **** }
 1221              		.loc 1 611 0
 1222 07b8 07F10C07 		add	r7, r7, #12
 1223 07bc BD46     		mov	sp, r7
 1224 07be 80BC     		pop	{r7}
 1225 07c0 7047     		bx	lr
 1226              	.L97:
 1227 07c2 00BF     		.align	2
 1228              	.L96:
 1229 07c4 00C00040 		.word	1073790976
 1230 07c8 00000140 		.word	1073807360
 1231 07cc 00800940 		.word	1074364416
 1232 07d0 00C00940 		.word	1074380800
 1233 07d4 00400A40 		.word	1074413568
 1234              		.cfi_endproc
 1235              	.LFE60:
 1237              		.align	2
 1238              		.global	UART_ReceiveByte
 1239              		.thumb
 1240              		.thumb_func
 1242              	UART_ReceiveByte:
 1243              	.LFB61:
 612:../src/lib/lpc177x_8x/Drivers/source/lpc177x_8x_uart.c **** 
 613:../src/lib/lpc177x_8x/Drivers/source/lpc177x_8x_uart.c **** 
 614:../src/lib/lpc177x_8x/Drivers/source/lpc177x_8x_uart.c **** /*********************************************************************//**
 615:../src/lib/lpc177x_8x/Drivers/source/lpc177x_8x_uart.c ****  * @brief       Receive a single data from UART peripheral
 616:../src/lib/lpc177x_8x/Drivers/source/lpc177x_8x_uart.c ****  * @param[in]   UARTx   UART peripheral selected, should be:
 617:../src/lib/lpc177x_8x/Drivers/source/lpc177x_8x_uart.c ****  *              - UART_0: UART0 peripheral
 618:../src/lib/lpc177x_8x/Drivers/source/lpc177x_8x_uart.c ****  *              - UART_1: UART1 peripheral
 619:../src/lib/lpc177x_8x/Drivers/source/lpc177x_8x_uart.c ****  *              - UART_2: UART2 peripheral
 620:../src/lib/lpc177x_8x/Drivers/source/lpc177x_8x_uart.c ****  *              - UART_3: UART3 peripheral
 621:../src/lib/lpc177x_8x/Drivers/source/lpc177x_8x_uart.c ****  *              - UART_4: UART4 peripheral
 622:../src/lib/lpc177x_8x/Drivers/source/lpc177x_8x_uart.c ****  * @return      Data received
 623:../src/lib/lpc177x_8x/Drivers/source/lpc177x_8x_uart.c ****  **********************************************************************/
 624:../src/lib/lpc177x_8x/Drivers/source/lpc177x_8x_uart.c **** uint8_t UART_ReceiveByte(UART_ID_Type UartID)
 625:../src/lib/lpc177x_8x/Drivers/source/lpc177x_8x_uart.c **** {
 1244              		.loc 1 625 0
 1245              		.cfi_startproc
 1246              		@ args = 0, pretend = 0, frame = 8
 1247              		@ frame_needed = 1, uses_anonymous_args = 0
 1248              		@ link register save eliminated.
 1249 07d8 80B4     		push	{r7}
 1250              	.LCFI18:
 1251              		.cfi_def_cfa_offset 4
 1252              		.cfi_offset 7, -4
 1253 07da 83B0     		sub	sp, sp, #12
 1254              	.LCFI19:
 1255              		.cfi_def_cfa_offset 16
 1256 07dc 00AF     		add	r7, sp, #0
 1257              	.LCFI20:
 1258              		.cfi_def_cfa_register 7
 1259 07de 0346     		mov	r3, r0
 1260 07e0 FB71     		strb	r3, [r7, #7]
 626:../src/lib/lpc177x_8x/Drivers/source/lpc177x_8x_uart.c ****     switch (UartID)
 1261              		.loc 1 626 0
 1262 07e2 FB79     		ldrb	r3, [r7, #7]	@ zero_extendqisi2
 1263 07e4 042B     		cmp	r3, #4
 1264 07e6 21D8     		bhi	.L99
 1265 07e8 01A2     		adr	r2, .L105
 1266 07ea 52F823F0 		ldr	pc, [r2, r3, lsl #2]
 1267 07ee 00BF     		.align	2
 1268              	.L105:
 1269 07f0 05080000 		.word	.L100+1
 1270 07f4 0D080000 		.word	.L101+1
 1271 07f8 15080000 		.word	.L102+1
 1272 07fc 1D080000 		.word	.L103+1
 1273 0800 25080000 		.word	.L104+1
 1274              	.L100:
 627:../src/lib/lpc177x_8x/Drivers/source/lpc177x_8x_uart.c ****     {
 628:../src/lib/lpc177x_8x/Drivers/source/lpc177x_8x_uart.c ****         case UART_0:
 629:../src/lib/lpc177x_8x/Drivers/source/lpc177x_8x_uart.c ****             return (LPC_UART0->RBR & UART_RBR_MASKBIT);
 1275              		.loc 1 629 0
 1276 0804 0D4B     		ldr	r3, .L107
 1277 0806 1B78     		ldrb	r3, [r3, #0]
 1278 0808 DBB2     		uxtb	r3, r3
 1279 080a 11E0     		b	.L106
 1280              	.L101:
 630:../src/lib/lpc177x_8x/Drivers/source/lpc177x_8x_uart.c ****         case UART_1:
 631:../src/lib/lpc177x_8x/Drivers/source/lpc177x_8x_uart.c ****             return (LPC_UART1->RBR & UART_RBR_MASKBIT); 
 1281              		.loc 1 631 0
 1282 080c 0C4B     		ldr	r3, .L107+4
 1283 080e 1B78     		ldrb	r3, [r3, #0]
 1284 0810 DBB2     		uxtb	r3, r3
 1285 0812 0DE0     		b	.L106
 1286              	.L102:
 632:../src/lib/lpc177x_8x/Drivers/source/lpc177x_8x_uart.c ****         case UART_2:
 633:../src/lib/lpc177x_8x/Drivers/source/lpc177x_8x_uart.c ****             return (LPC_UART2->RBR & UART_RBR_MASKBIT);
 1287              		.loc 1 633 0
 1288 0814 0B4B     		ldr	r3, .L107+8
 1289 0816 1B78     		ldrb	r3, [r3, #0]
 1290 0818 DBB2     		uxtb	r3, r3
 1291 081a 09E0     		b	.L106
 1292              	.L103:
 634:../src/lib/lpc177x_8x/Drivers/source/lpc177x_8x_uart.c ****         case UART_3:
 635:../src/lib/lpc177x_8x/Drivers/source/lpc177x_8x_uart.c ****             return (LPC_UART3->RBR & UART_RBR_MASKBIT);
 1293              		.loc 1 635 0
 1294 081c 0A4B     		ldr	r3, .L107+12
 1295 081e 1B78     		ldrb	r3, [r3, #0]
 1296 0820 DBB2     		uxtb	r3, r3
 1297 0822 05E0     		b	.L106
 1298              	.L104:
 636:../src/lib/lpc177x_8x/Drivers/source/lpc177x_8x_uart.c ****         case UART_4:
 637:../src/lib/lpc177x_8x/Drivers/source/lpc177x_8x_uart.c ****             return (LPC_UART4->RBR & UART_RBR_MASKBIT);
 1299              		.loc 1 637 0
 1300 0824 094B     		ldr	r3, .L107+16
 1301 0826 1B68     		ldr	r3, [r3, #0]
 1302 0828 DBB2     		uxtb	r3, r3
 1303 082a 01E0     		b	.L106
 1304              	.L99:
 638:../src/lib/lpc177x_8x/Drivers/source/lpc177x_8x_uart.c ****     }
 639:../src/lib/lpc177x_8x/Drivers/source/lpc177x_8x_uart.c ****     return 0x00;
 1305              		.loc 1 639 0
 1306 082c 4FF00003 		mov	r3, #0
 1307              	.L106:
 640:../src/lib/lpc177x_8x/Drivers/source/lpc177x_8x_uart.c **** }
 1308              		.loc 1 640 0
 1309 0830 1846     		mov	r0, r3
 1310 0832 07F10C07 		add	r7, r7, #12
 1311 0836 BD46     		mov	sp, r7
 1312 0838 80BC     		pop	{r7}
 1313 083a 7047     		bx	lr
 1314              	.L108:
 1315              		.align	2
 1316              	.L107:
 1317 083c 00C00040 		.word	1073790976
 1318 0840 00000140 		.word	1073807360
 1319 0844 00800940 		.word	1074364416
 1320 0848 00C00940 		.word	1074380800
 1321 084c 00400A40 		.word	1074413568
 1322              		.cfi_endproc
 1323              	.LFE61:
 1325              		.align	2
 1326              		.global	UART_Send
 1327              		.thumb
 1328              		.thumb_func
 1330              	UART_Send:
 1331              	.LFB62:
 641:../src/lib/lpc177x_8x/Drivers/source/lpc177x_8x_uart.c **** 
 642:../src/lib/lpc177x_8x/Drivers/source/lpc177x_8x_uart.c **** /*********************************************************************//**
 643:../src/lib/lpc177x_8x/Drivers/source/lpc177x_8x_uart.c ****  * @brief       Send a block of data via UART peripheral
 644:../src/lib/lpc177x_8x/Drivers/source/lpc177x_8x_uart.c ****  * @param[in]   UARTx   Selected UART peripheral used to send data, should be:
 645:../src/lib/lpc177x_8x/Drivers/source/lpc177x_8x_uart.c ****  *              - UART_0: UART0 peripheral
 646:../src/lib/lpc177x_8x/Drivers/source/lpc177x_8x_uart.c ****  *              - UART_1: UART1 peripheral
 647:../src/lib/lpc177x_8x/Drivers/source/lpc177x_8x_uart.c ****  *              - UART_2: UART2 peripheral
 648:../src/lib/lpc177x_8x/Drivers/source/lpc177x_8x_uart.c ****  *              - UART_3: UART3 peripheral
 649:../src/lib/lpc177x_8x/Drivers/source/lpc177x_8x_uart.c ****  *              - UART_4: UART4 peripheral
 650:../src/lib/lpc177x_8x/Drivers/source/lpc177x_8x_uart.c ****  * @param[in]   txbuf   Pointer to Transmit buffer
 651:../src/lib/lpc177x_8x/Drivers/source/lpc177x_8x_uart.c ****  * @param[in]   buflen  Length of Transmit buffer
 652:../src/lib/lpc177x_8x/Drivers/source/lpc177x_8x_uart.c ****  * @param[in]   flag    Flag used in  UART transfer, should be
 653:../src/lib/lpc177x_8x/Drivers/source/lpc177x_8x_uart.c ****  *                      NONE_BLOCKING or BLOCKING
 654:../src/lib/lpc177x_8x/Drivers/source/lpc177x_8x_uart.c ****  * @return      Number of bytes sent.
 655:../src/lib/lpc177x_8x/Drivers/source/lpc177x_8x_uart.c ****  *
 656:../src/lib/lpc177x_8x/Drivers/source/lpc177x_8x_uart.c ****  * Note: when using UART in BLOCKING mode, a time-out condition is used
 657:../src/lib/lpc177x_8x/Drivers/source/lpc177x_8x_uart.c ****  * via defined symbol UART_BLOCKING_TIMEOUT.
 658:../src/lib/lpc177x_8x/Drivers/source/lpc177x_8x_uart.c ****  **********************************************************************/
 659:../src/lib/lpc177x_8x/Drivers/source/lpc177x_8x_uart.c **** uint32_t UART_Send(UART_ID_Type UartID, uint8_t *txbuf,
 660:../src/lib/lpc177x_8x/Drivers/source/lpc177x_8x_uart.c ****                             uint32_t buflen, TRANSFER_BLOCK_Type flag)
 661:../src/lib/lpc177x_8x/Drivers/source/lpc177x_8x_uart.c **** {
 1332              		.loc 1 661 0
 1333              		.cfi_startproc
 1334              		@ args = 0, pretend = 0, frame = 40
 1335              		@ frame_needed = 1, uses_anonymous_args = 0
 1336 0850 80B5     		push	{r7, lr}
 1337              	.LCFI21:
 1338              		.cfi_def_cfa_offset 8
 1339              		.cfi_offset 7, -8
 1340              		.cfi_offset 14, -4
 1341 0852 8AB0     		sub	sp, sp, #40
 1342              	.LCFI22:
 1343              		.cfi_def_cfa_offset 48
 1344 0854 00AF     		add	r7, sp, #0
 1345              	.LCFI23:
 1346              		.cfi_def_cfa_register 7
 1347 0856 B960     		str	r1, [r7, #8]
 1348 0858 7A60     		str	r2, [r7, #4]
 1349 085a 0246     		mov	r2, r0
 1350 085c FA73     		strb	r2, [r7, #15]
 1351 085e BB73     		strb	r3, [r7, #14]
 662:../src/lib/lpc177x_8x/Drivers/source/lpc177x_8x_uart.c ****     uint32_t bToSend, bSent, timeOut, fifo_cnt;
 663:../src/lib/lpc177x_8x/Drivers/source/lpc177x_8x_uart.c ****     uint8_t *pChar = txbuf;
 1352              		.loc 1 663 0
 1353 0860 BB68     		ldr	r3, [r7, #8]
 1354 0862 7B61     		str	r3, [r7, #20]
 664:../src/lib/lpc177x_8x/Drivers/source/lpc177x_8x_uart.c ****     __IO uint32_t *LSR = NULL;
 1355              		.loc 1 664 0
 1356 0864 4FF00003 		mov	r3, #0
 1357 0868 3B61     		str	r3, [r7, #16]
 665:../src/lib/lpc177x_8x/Drivers/source/lpc177x_8x_uart.c **** 
 666:../src/lib/lpc177x_8x/Drivers/source/lpc177x_8x_uart.c ****     switch (UartID)
 1358              		.loc 1 666 0
 1359 086a FB7B     		ldrb	r3, [r7, #15]	@ zero_extendqisi2
 1360 086c 042B     		cmp	r3, #4
 1361 086e 1CD8     		bhi	.L110
 1362 0870 01A2     		adr	r2, .L116
 1363 0872 52F823F0 		ldr	pc, [r2, r3, lsl #2]
 1364 0876 00BF     		.align	2
 1365              	.L116:
 1366 0878 8D080000 		.word	.L111+1
 1367 087c 93080000 		.word	.L112+1
 1368 0880 99080000 		.word	.L113+1
 1369 0884 9F080000 		.word	.L114+1
 1370 0888 A5080000 		.word	.L115+1
 1371              	.L111:
 667:../src/lib/lpc177x_8x/Drivers/source/lpc177x_8x_uart.c ****     {
 668:../src/lib/lpc177x_8x/Drivers/source/lpc177x_8x_uart.c ****         case UART_0:
 669:../src/lib/lpc177x_8x/Drivers/source/lpc177x_8x_uart.c ****             LSR = (__IO uint32_t *)&LPC_UART0->LSR;
 1372              		.loc 1 669 0
 1373 088c 474B     		ldr	r3, .L140
 1374 088e 3B61     		str	r3, [r7, #16]
 670:../src/lib/lpc177x_8x/Drivers/source/lpc177x_8x_uart.c ****             break;
 1375              		.loc 1 670 0
 1376 0890 0BE0     		b	.L110
 1377              	.L112:
 671:../src/lib/lpc177x_8x/Drivers/source/lpc177x_8x_uart.c ****         case UART_1:
 672:../src/lib/lpc177x_8x/Drivers/source/lpc177x_8x_uart.c ****             LSR = (__IO uint32_t *)&LPC_UART1->LSR;
 1378              		.loc 1 672 0
 1379 0892 474B     		ldr	r3, .L140+4
 1380 0894 3B61     		str	r3, [r7, #16]
 673:../src/lib/lpc177x_8x/Drivers/source/lpc177x_8x_uart.c ****             break;
 1381              		.loc 1 673 0
 1382 0896 08E0     		b	.L110
 1383              	.L113:
 674:../src/lib/lpc177x_8x/Drivers/source/lpc177x_8x_uart.c ****         case UART_2:
 675:../src/lib/lpc177x_8x/Drivers/source/lpc177x_8x_uart.c ****             LSR = (__IO uint32_t *)&LPC_UART2->LSR;
 1384              		.loc 1 675 0
 1385 0898 464B     		ldr	r3, .L140+8
 1386 089a 3B61     		str	r3, [r7, #16]
 676:../src/lib/lpc177x_8x/Drivers/source/lpc177x_8x_uart.c ****             break;
 1387              		.loc 1 676 0
 1388 089c 05E0     		b	.L110
 1389              	.L114:
 677:../src/lib/lpc177x_8x/Drivers/source/lpc177x_8x_uart.c ****         case UART_3:
 678:../src/lib/lpc177x_8x/Drivers/source/lpc177x_8x_uart.c ****             LSR = (__IO uint32_t *)&LPC_UART3->LSR;
 1390              		.loc 1 678 0
 1391 089e 464B     		ldr	r3, .L140+12
 1392 08a0 3B61     		str	r3, [r7, #16]
 679:../src/lib/lpc177x_8x/Drivers/source/lpc177x_8x_uart.c ****             break;
 1393              		.loc 1 679 0
 1394 08a2 02E0     		b	.L110
 1395              	.L115:
 680:../src/lib/lpc177x_8x/Drivers/source/lpc177x_8x_uart.c ****         case UART_4:
 681:../src/lib/lpc177x_8x/Drivers/source/lpc177x_8x_uart.c ****             LSR = (__IO uint32_t *)&LPC_UART4->LSR;
 1396              		.loc 1 681 0
 1397 08a4 454B     		ldr	r3, .L140+16
 1398 08a6 3B61     		str	r3, [r7, #16]
 682:../src/lib/lpc177x_8x/Drivers/source/lpc177x_8x_uart.c ****             break;
 1399              		.loc 1 682 0
 1400 08a8 00BF     		nop
 1401              	.L110:
 683:../src/lib/lpc177x_8x/Drivers/source/lpc177x_8x_uart.c ****     }
 684:../src/lib/lpc177x_8x/Drivers/source/lpc177x_8x_uart.c **** 
 685:../src/lib/lpc177x_8x/Drivers/source/lpc177x_8x_uart.c ****     bToSend = buflen;
 1402              		.loc 1 685 0
 1403 08aa 7B68     		ldr	r3, [r7, #4]
 1404 08ac 7B62     		str	r3, [r7, #36]
 686:../src/lib/lpc177x_8x/Drivers/source/lpc177x_8x_uart.c **** 
 687:../src/lib/lpc177x_8x/Drivers/source/lpc177x_8x_uart.c ****     // blocking mode
 688:../src/lib/lpc177x_8x/Drivers/source/lpc177x_8x_uart.c ****     if (flag == BLOCKING)
 1405              		.loc 1 688 0
 1406 08ae BB7B     		ldrb	r3, [r7, #14]	@ zero_extendqisi2
 1407 08b0 012B     		cmp	r3, #1
 1408 08b2 3ED1     		bne	.L117
 689:../src/lib/lpc177x_8x/Drivers/source/lpc177x_8x_uart.c ****     {
 690:../src/lib/lpc177x_8x/Drivers/source/lpc177x_8x_uart.c ****         bSent = 0;
 1409              		.loc 1 690 0
 1410 08b4 4FF00003 		mov	r3, #0
 1411 08b8 3B62     		str	r3, [r7, #32]
 691:../src/lib/lpc177x_8x/Drivers/source/lpc177x_8x_uart.c ****         while (bToSend)
 1412              		.loc 1 691 0
 1413 08ba 36E0     		b	.L118
 1414              	.L127:
 692:../src/lib/lpc177x_8x/Drivers/source/lpc177x_8x_uart.c ****         {
 693:../src/lib/lpc177x_8x/Drivers/source/lpc177x_8x_uart.c ****             timeOut = UART_BLOCKING_TIMEOUT;
 1415              		.loc 1 693 0
 1416 08bc 4FF0FF33 		mov	r3, #-1
 1417 08c0 FB61     		str	r3, [r7, #28]
 694:../src/lib/lpc177x_8x/Drivers/source/lpc177x_8x_uart.c **** 
 695:../src/lib/lpc177x_8x/Drivers/source/lpc177x_8x_uart.c ****             // Wait for THR empty with timeout
 696:../src/lib/lpc177x_8x/Drivers/source/lpc177x_8x_uart.c ****             while (!(*LSR & UART_LSR_THRE))
 1418              		.loc 1 696 0
 1419 08c2 06E0     		b	.L119
 1420              	.L122:
 697:../src/lib/lpc177x_8x/Drivers/source/lpc177x_8x_uart.c ****             {
 698:../src/lib/lpc177x_8x/Drivers/source/lpc177x_8x_uart.c ****                 if (timeOut == 0)
 1421              		.loc 1 698 0
 1422 08c4 FB69     		ldr	r3, [r7, #28]
 1423 08c6 002B     		cmp	r3, #0
 1424 08c8 0AD0     		beq	.L136
 1425              	.L120:
 699:../src/lib/lpc177x_8x/Drivers/source/lpc177x_8x_uart.c ****                     break;
 700:../src/lib/lpc177x_8x/Drivers/source/lpc177x_8x_uart.c **** 
 701:../src/lib/lpc177x_8x/Drivers/source/lpc177x_8x_uart.c ****                 timeOut--;
 1426              		.loc 1 701 0
 1427 08ca FB69     		ldr	r3, [r7, #28]
 1428 08cc 03F1FF33 		add	r3, r3, #-1
 1429 08d0 FB61     		str	r3, [r7, #28]
 1430              	.L119:
 696:../src/lib/lpc177x_8x/Drivers/source/lpc177x_8x_uart.c ****             while (!(*LSR & UART_LSR_THRE))
 1431              		.loc 1 696 0 discriminator 1
 1432 08d2 3B69     		ldr	r3, [r7, #16]
 1433 08d4 1B68     		ldr	r3, [r3, #0]
 1434 08d6 03F02003 		and	r3, r3, #32
 1435 08da 002B     		cmp	r3, #0
 1436 08dc F2D0     		beq	.L122
 1437 08de 00E0     		b	.L121
 1438              	.L136:
 699:../src/lib/lpc177x_8x/Drivers/source/lpc177x_8x_uart.c ****                     break;
 1439              		.loc 1 699 0
 1440 08e0 00BF     		nop
 1441              	.L121:
 702:../src/lib/lpc177x_8x/Drivers/source/lpc177x_8x_uart.c ****             }
 703:../src/lib/lpc177x_8x/Drivers/source/lpc177x_8x_uart.c **** 
 704:../src/lib/lpc177x_8x/Drivers/source/lpc177x_8x_uart.c ****             // Time out!
 705:../src/lib/lpc177x_8x/Drivers/source/lpc177x_8x_uart.c ****             if(timeOut == 0)
 1442              		.loc 1 705 0
 1443 08e2 FB69     		ldr	r3, [r7, #28]
 1444 08e4 002B     		cmp	r3, #0
 1445 08e6 56D0     		beq	.L137
 1446              	.L123:
 706:../src/lib/lpc177x_8x/Drivers/source/lpc177x_8x_uart.c ****                 break;
 707:../src/lib/lpc177x_8x/Drivers/source/lpc177x_8x_uart.c **** 
 708:../src/lib/lpc177x_8x/Drivers/source/lpc177x_8x_uart.c ****             fifo_cnt = UART_TX_FIFO_SIZE;
 1447              		.loc 1 708 0
 1448 08e8 4FF01003 		mov	r3, #16
 1449 08ec BB61     		str	r3, [r7, #24]
 709:../src/lib/lpc177x_8x/Drivers/source/lpc177x_8x_uart.c **** 
 710:../src/lib/lpc177x_8x/Drivers/source/lpc177x_8x_uart.c ****             while (fifo_cnt && bToSend)
 1450              		.loc 1 710 0
 1451 08ee 16E0     		b	.L125
 1452              	.L126:
 711:../src/lib/lpc177x_8x/Drivers/source/lpc177x_8x_uart.c ****             {
 712:../src/lib/lpc177x_8x/Drivers/source/lpc177x_8x_uart.c ****                 UART_SendByte(UartID, (*pChar++));
 1453              		.loc 1 712 0
 1454 08f0 7B69     		ldr	r3, [r7, #20]
 1455 08f2 1B78     		ldrb	r3, [r3, #0]	@ zero_extendqisi2
 1456 08f4 7A69     		ldr	r2, [r7, #20]
 1457 08f6 02F10102 		add	r2, r2, #1
 1458 08fa 7A61     		str	r2, [r7, #20]
 1459 08fc FA7B     		ldrb	r2, [r7, #15]	@ zero_extendqisi2
 1460 08fe 1046     		mov	r0, r2
 1461 0900 1946     		mov	r1, r3
 1462 0902 FFF7FEFF 		bl	UART_SendByte
 713:../src/lib/lpc177x_8x/Drivers/source/lpc177x_8x_uart.c **** 
 714:../src/lib/lpc177x_8x/Drivers/source/lpc177x_8x_uart.c ****                 fifo_cnt--;
 1463              		.loc 1 714 0
 1464 0906 BB69     		ldr	r3, [r7, #24]
 1465 0908 03F1FF33 		add	r3, r3, #-1
 1466 090c BB61     		str	r3, [r7, #24]
 715:../src/lib/lpc177x_8x/Drivers/source/lpc177x_8x_uart.c **** 
 716:../src/lib/lpc177x_8x/Drivers/source/lpc177x_8x_uart.c ****                 bToSend--;
 1467              		.loc 1 716 0
 1468 090e 7B6A     		ldr	r3, [r7, #36]
 1469 0910 03F1FF33 		add	r3, r3, #-1
 1470 0914 7B62     		str	r3, [r7, #36]
 717:../src/lib/lpc177x_8x/Drivers/source/lpc177x_8x_uart.c **** 
 718:../src/lib/lpc177x_8x/Drivers/source/lpc177x_8x_uart.c ****                 bSent++;
 1471              		.loc 1 718 0
 1472 0916 3B6A     		ldr	r3, [r7, #32]
 1473 0918 03F10103 		add	r3, r3, #1
 1474 091c 3B62     		str	r3, [r7, #32]
 1475              	.L125:
 710:../src/lib/lpc177x_8x/Drivers/source/lpc177x_8x_uart.c ****             while (fifo_cnt && bToSend)
 1476              		.loc 1 710 0 discriminator 1
 1477 091e BB69     		ldr	r3, [r7, #24]
 1478 0920 002B     		cmp	r3, #0
 1479 0922 02D0     		beq	.L118
 710:../src/lib/lpc177x_8x/Drivers/source/lpc177x_8x_uart.c ****             while (fifo_cnt && bToSend)
 1480              		.loc 1 710 0 is_stmt 0 discriminator 2
 1481 0924 7B6A     		ldr	r3, [r7, #36]
 1482 0926 002B     		cmp	r3, #0
 1483 0928 E2D1     		bne	.L126
 1484              	.L118:
 691:../src/lib/lpc177x_8x/Drivers/source/lpc177x_8x_uart.c ****         while (bToSend)
 1485              		.loc 1 691 0 is_stmt 1 discriminator 1
 1486 092a 7B6A     		ldr	r3, [r7, #36]
 1487 092c 002B     		cmp	r3, #0
 1488 092e C5D1     		bne	.L127
 691:../src/lib/lpc177x_8x/Drivers/source/lpc177x_8x_uart.c ****         while (bToSend)
 1489              		.loc 1 691 0 is_stmt 0
 1490 0930 36E0     		b	.L128
 1491              	.L117:
 719:../src/lib/lpc177x_8x/Drivers/source/lpc177x_8x_uart.c ****             }
 720:../src/lib/lpc177x_8x/Drivers/source/lpc177x_8x_uart.c ****         }
 721:../src/lib/lpc177x_8x/Drivers/source/lpc177x_8x_uart.c ****     }
 722:../src/lib/lpc177x_8x/Drivers/source/lpc177x_8x_uart.c **** 
 723:../src/lib/lpc177x_8x/Drivers/source/lpc177x_8x_uart.c ****     // None blocking mode
 724:../src/lib/lpc177x_8x/Drivers/source/lpc177x_8x_uart.c ****     else
 725:../src/lib/lpc177x_8x/Drivers/source/lpc177x_8x_uart.c ****     {
 726:../src/lib/lpc177x_8x/Drivers/source/lpc177x_8x_uart.c ****         bSent = 0;
 1492              		.loc 1 726 0 is_stmt 1
 1493 0932 4FF00003 		mov	r3, #0
 1494 0936 3B62     		str	r3, [r7, #32]
 727:../src/lib/lpc177x_8x/Drivers/source/lpc177x_8x_uart.c ****         while (bToSend)
 1495              		.loc 1 727 0
 1496 0938 29E0     		b	.L129
 1497              	.L134:
 728:../src/lib/lpc177x_8x/Drivers/source/lpc177x_8x_uart.c ****         {
 729:../src/lib/lpc177x_8x/Drivers/source/lpc177x_8x_uart.c ****             if (bToSend == 0)
 1498              		.loc 1 729 0
 1499 093a 7B6A     		ldr	r3, [r7, #36]
 1500 093c 002B     		cmp	r3, #0
 1501 093e 2CD0     		beq	.L138
 1502              	.L130:
 730:../src/lib/lpc177x_8x/Drivers/source/lpc177x_8x_uart.c ****                 break;
 731:../src/lib/lpc177x_8x/Drivers/source/lpc177x_8x_uart.c **** 
 732:../src/lib/lpc177x_8x/Drivers/source/lpc177x_8x_uart.c ****             if (!(*LSR & UART_LSR_THRE))
 1503              		.loc 1 732 0
 1504 0940 3B69     		ldr	r3, [r7, #16]
 1505 0942 1B68     		ldr	r3, [r3, #0]
 1506 0944 03F02003 		and	r3, r3, #32
 1507 0948 002B     		cmp	r3, #0
 1508 094a 28D0     		beq	.L139
 1509              	.L131:
 733:../src/lib/lpc177x_8x/Drivers/source/lpc177x_8x_uart.c ****             {
 734:../src/lib/lpc177x_8x/Drivers/source/lpc177x_8x_uart.c ****                 break;
 735:../src/lib/lpc177x_8x/Drivers/source/lpc177x_8x_uart.c ****             }
 736:../src/lib/lpc177x_8x/Drivers/source/lpc177x_8x_uart.c **** 
 737:../src/lib/lpc177x_8x/Drivers/source/lpc177x_8x_uart.c ****             fifo_cnt = UART_TX_FIFO_SIZE;
 1510              		.loc 1 737 0
 1511 094c 4FF01003 		mov	r3, #16
 1512 0950 BB61     		str	r3, [r7, #24]
 738:../src/lib/lpc177x_8x/Drivers/source/lpc177x_8x_uart.c **** 
 739:../src/lib/lpc177x_8x/Drivers/source/lpc177x_8x_uart.c ****             while (fifo_cnt && bToSend)
 1513              		.loc 1 739 0
 1514 0952 16E0     		b	.L132
 1515              	.L133:
 740:../src/lib/lpc177x_8x/Drivers/source/lpc177x_8x_uart.c ****             {
 741:../src/lib/lpc177x_8x/Drivers/source/lpc177x_8x_uart.c ****                 UART_SendByte(UartID, (*pChar++));
 1516              		.loc 1 741 0
 1517 0954 7B69     		ldr	r3, [r7, #20]
 1518 0956 1B78     		ldrb	r3, [r3, #0]	@ zero_extendqisi2
 1519 0958 7A69     		ldr	r2, [r7, #20]
 1520 095a 02F10102 		add	r2, r2, #1
 1521 095e 7A61     		str	r2, [r7, #20]
 1522 0960 FA7B     		ldrb	r2, [r7, #15]	@ zero_extendqisi2
 1523 0962 1046     		mov	r0, r2
 1524 0964 1946     		mov	r1, r3
 1525 0966 FFF7FEFF 		bl	UART_SendByte
 742:../src/lib/lpc177x_8x/Drivers/source/lpc177x_8x_uart.c **** 
 743:../src/lib/lpc177x_8x/Drivers/source/lpc177x_8x_uart.c ****                 bToSend--;
 1526              		.loc 1 743 0
 1527 096a 7B6A     		ldr	r3, [r7, #36]
 1528 096c 03F1FF33 		add	r3, r3, #-1
 1529 0970 7B62     		str	r3, [r7, #36]
 744:../src/lib/lpc177x_8x/Drivers/source/lpc177x_8x_uart.c **** 
 745:../src/lib/lpc177x_8x/Drivers/source/lpc177x_8x_uart.c ****                 fifo_cnt--;
 1530              		.loc 1 745 0
 1531 0972 BB69     		ldr	r3, [r7, #24]
 1532 0974 03F1FF33 		add	r3, r3, #-1
 1533 0978 BB61     		str	r3, [r7, #24]
 746:../src/lib/lpc177x_8x/Drivers/source/lpc177x_8x_uart.c **** 
 747:../src/lib/lpc177x_8x/Drivers/source/lpc177x_8x_uart.c ****                 bSent++;
 1534              		.loc 1 747 0
 1535 097a 3B6A     		ldr	r3, [r7, #32]
 1536 097c 03F10103 		add	r3, r3, #1
 1537 0980 3B62     		str	r3, [r7, #32]
 1538              	.L132:
 739:../src/lib/lpc177x_8x/Drivers/source/lpc177x_8x_uart.c ****             while (fifo_cnt && bToSend)
 1539              		.loc 1 739 0 discriminator 1
 1540 0982 BB69     		ldr	r3, [r7, #24]
 1541 0984 002B     		cmp	r3, #0
 1542 0986 02D0     		beq	.L129
 739:../src/lib/lpc177x_8x/Drivers/source/lpc177x_8x_uart.c ****             while (fifo_cnt && bToSend)
 1543              		.loc 1 739 0 is_stmt 0 discriminator 2
 1544 0988 7B6A     		ldr	r3, [r7, #36]
 1545 098a 002B     		cmp	r3, #0
 1546 098c E2D1     		bne	.L133
 1547              	.L129:
 727:../src/lib/lpc177x_8x/Drivers/source/lpc177x_8x_uart.c ****         while (bToSend)
 1548              		.loc 1 727 0 is_stmt 1 discriminator 1
 1549 098e 7B6A     		ldr	r3, [r7, #36]
 1550 0990 002B     		cmp	r3, #0
 1551 0992 D2D1     		bne	.L134
 1552 0994 04E0     		b	.L128
 1553              	.L137:
 706:../src/lib/lpc177x_8x/Drivers/source/lpc177x_8x_uart.c ****                 break;
 1554              		.loc 1 706 0
 1555 0996 00BF     		nop
 1556 0998 02E0     		b	.L128
 1557              	.L138:
 730:../src/lib/lpc177x_8x/Drivers/source/lpc177x_8x_uart.c ****                 break;
 1558              		.loc 1 730 0
 1559 099a 00BF     		nop
 1560 099c 00E0     		b	.L128
 1561              	.L139:
 734:../src/lib/lpc177x_8x/Drivers/source/lpc177x_8x_uart.c ****                 break;
 1562              		.loc 1 734 0
 1563 099e 00BF     		nop
 1564              	.L128:
 748:../src/lib/lpc177x_8x/Drivers/source/lpc177x_8x_uart.c ****             }
 749:../src/lib/lpc177x_8x/Drivers/source/lpc177x_8x_uart.c ****         }
 750:../src/lib/lpc177x_8x/Drivers/source/lpc177x_8x_uart.c ****     }
 751:../src/lib/lpc177x_8x/Drivers/source/lpc177x_8x_uart.c **** 
 752:../src/lib/lpc177x_8x/Drivers/source/lpc177x_8x_uart.c ****     return bSent;
 1565              		.loc 1 752 0
 1566 09a0 3B6A     		ldr	r3, [r7, #32]
 753:../src/lib/lpc177x_8x/Drivers/source/lpc177x_8x_uart.c **** }
 1567              		.loc 1 753 0
 1568 09a2 1846     		mov	r0, r3
 1569 09a4 07F12807 		add	r7, r7, #40
 1570 09a8 BD46     		mov	sp, r7
 1571 09aa 80BD     		pop	{r7, pc}
 1572              	.L141:
 1573              		.align	2
 1574              	.L140:
 1575 09ac 14C00040 		.word	1073790996
 1576 09b0 14000140 		.word	1073807380
 1577 09b4 14800940 		.word	1074364436
 1578 09b8 14C00940 		.word	1074380820
 1579 09bc 14400A40 		.word	1074413588
 1580              		.cfi_endproc
 1581              	.LFE62:
 1583              		.align	2
 1584              		.global	UART_Receive
 1585              		.thumb
 1586              		.thumb_func
 1588              	UART_Receive:
 1589              	.LFB63:
 754:../src/lib/lpc177x_8x/Drivers/source/lpc177x_8x_uart.c **** 
 755:../src/lib/lpc177x_8x/Drivers/source/lpc177x_8x_uart.c **** /*********************************************************************//**
 756:../src/lib/lpc177x_8x/Drivers/source/lpc177x_8x_uart.c ****  * @brief       Receive a block of data via UART peripheral
 757:../src/lib/lpc177x_8x/Drivers/source/lpc177x_8x_uart.c ****  * @param[in]   UARTx   Selected UART peripheral used to send data,
 758:../src/lib/lpc177x_8x/Drivers/source/lpc177x_8x_uart.c ****  *              should be:
 759:../src/lib/lpc177x_8x/Drivers/source/lpc177x_8x_uart.c ****  *              - UART_0: UART0 peripheral
 760:../src/lib/lpc177x_8x/Drivers/source/lpc177x_8x_uart.c ****  *              - UART_1: UART1 peripheral
 761:../src/lib/lpc177x_8x/Drivers/source/lpc177x_8x_uart.c ****  *              - UART_2: UART2 peripheral
 762:../src/lib/lpc177x_8x/Drivers/source/lpc177x_8x_uart.c ****  *              - UART_3: UART3 peripheral
 763:../src/lib/lpc177x_8x/Drivers/source/lpc177x_8x_uart.c ****  *              - UART_4: UART4 peripheral
 764:../src/lib/lpc177x_8x/Drivers/source/lpc177x_8x_uart.c ****  * @param[out]  rxbuf   Pointer to Received buffer
 765:../src/lib/lpc177x_8x/Drivers/source/lpc177x_8x_uart.c ****  * @param[in]   buflen  Length of Received buffer
 766:../src/lib/lpc177x_8x/Drivers/source/lpc177x_8x_uart.c ****  * @param[in]   flag    Flag mode, should be NONE_BLOCKING or BLOCKING
 767:../src/lib/lpc177x_8x/Drivers/source/lpc177x_8x_uart.c **** 
 768:../src/lib/lpc177x_8x/Drivers/source/lpc177x_8x_uart.c ****  * @return      Number of bytes received
 769:../src/lib/lpc177x_8x/Drivers/source/lpc177x_8x_uart.c ****  *
 770:../src/lib/lpc177x_8x/Drivers/source/lpc177x_8x_uart.c ****  * Note: when using UART in BLOCKING mode, a time-out condition is used
 771:../src/lib/lpc177x_8x/Drivers/source/lpc177x_8x_uart.c ****  * via defined symbol UART_BLOCKING_TIMEOUT.
 772:../src/lib/lpc177x_8x/Drivers/source/lpc177x_8x_uart.c ****  **********************************************************************/
 773:../src/lib/lpc177x_8x/Drivers/source/lpc177x_8x_uart.c **** uint32_t UART_Receive(UART_ID_Type UartID, uint8_t *rxbuf,
 774:../src/lib/lpc177x_8x/Drivers/source/lpc177x_8x_uart.c ****                                 uint32_t buflen, TRANSFER_BLOCK_Type flag)
 775:../src/lib/lpc177x_8x/Drivers/source/lpc177x_8x_uart.c **** {
 1590              		.loc 1 775 0
 1591              		.cfi_startproc
 1592              		@ args = 0, pretend = 0, frame = 40
 1593              		@ frame_needed = 1, uses_anonymous_args = 0
 1594 09c0 80B5     		push	{r7, lr}
 1595              	.LCFI24:
 1596              		.cfi_def_cfa_offset 8
 1597              		.cfi_offset 7, -8
 1598              		.cfi_offset 14, -4
 1599 09c2 8AB0     		sub	sp, sp, #40
 1600              	.LCFI25:
 1601              		.cfi_def_cfa_offset 48
 1602 09c4 00AF     		add	r7, sp, #0
 1603              	.LCFI26:
 1604              		.cfi_def_cfa_register 7
 1605 09c6 B960     		str	r1, [r7, #8]
 1606 09c8 7A60     		str	r2, [r7, #4]
 1607 09ca 0246     		mov	r2, r0
 1608 09cc FA73     		strb	r2, [r7, #15]
 1609 09ce BB73     		strb	r3, [r7, #14]
 776:../src/lib/lpc177x_8x/Drivers/source/lpc177x_8x_uart.c ****     uint32_t bToRecv, bRecv, timeOut;
 777:../src/lib/lpc177x_8x/Drivers/source/lpc177x_8x_uart.c ****     uint8_t *pChar = rxbuf;
 1610              		.loc 1 777 0
 1611 09d0 BB68     		ldr	r3, [r7, #8]
 1612 09d2 BB61     		str	r3, [r7, #24]
 778:../src/lib/lpc177x_8x/Drivers/source/lpc177x_8x_uart.c ****     __IO uint32_t *LSR = NULL;
 1613              		.loc 1 778 0
 1614 09d4 4FF00003 		mov	r3, #0
 1615 09d8 7B61     		str	r3, [r7, #20]
 779:../src/lib/lpc177x_8x/Drivers/source/lpc177x_8x_uart.c **** 
 780:../src/lib/lpc177x_8x/Drivers/source/lpc177x_8x_uart.c ****     switch (UartID)
 1616              		.loc 1 780 0
 1617 09da FB7B     		ldrb	r3, [r7, #15]	@ zero_extendqisi2
 1618 09dc 042B     		cmp	r3, #4
 1619 09de 1CD8     		bhi	.L143
 1620 09e0 01A2     		adr	r2, .L149
 1621 09e2 52F823F0 		ldr	pc, [r2, r3, lsl #2]
 1622 09e6 00BF     		.align	2
 1623              	.L149:
 1624 09e8 FD090000 		.word	.L144+1
 1625 09ec 030A0000 		.word	.L145+1
 1626 09f0 090A0000 		.word	.L146+1
 1627 09f4 0F0A0000 		.word	.L147+1
 1628 09f8 150A0000 		.word	.L148+1
 1629              	.L144:
 781:../src/lib/lpc177x_8x/Drivers/source/lpc177x_8x_uart.c ****     {
 782:../src/lib/lpc177x_8x/Drivers/source/lpc177x_8x_uart.c ****         case UART_0:
 783:../src/lib/lpc177x_8x/Drivers/source/lpc177x_8x_uart.c ****             LSR = (__IO uint32_t *)&LPC_UART0->LSR;
 1630              		.loc 1 783 0
 1631 09fc 384B     		ldr	r3, .L167
 1632 09fe 7B61     		str	r3, [r7, #20]
 784:../src/lib/lpc177x_8x/Drivers/source/lpc177x_8x_uart.c ****             break;
 1633              		.loc 1 784 0
 1634 0a00 0BE0     		b	.L143
 1635              	.L145:
 785:../src/lib/lpc177x_8x/Drivers/source/lpc177x_8x_uart.c ****         case UART_1:
 786:../src/lib/lpc177x_8x/Drivers/source/lpc177x_8x_uart.c ****             LSR = (__IO uint32_t *)&LPC_UART1->LSR;
 1636              		.loc 1 786 0
 1637 0a02 384B     		ldr	r3, .L167+4
 1638 0a04 7B61     		str	r3, [r7, #20]
 787:../src/lib/lpc177x_8x/Drivers/source/lpc177x_8x_uart.c ****             break;
 1639              		.loc 1 787 0
 1640 0a06 08E0     		b	.L143
 1641              	.L146:
 788:../src/lib/lpc177x_8x/Drivers/source/lpc177x_8x_uart.c ****         case UART_2:
 789:../src/lib/lpc177x_8x/Drivers/source/lpc177x_8x_uart.c ****             LSR = (__IO uint32_t *)&LPC_UART2->LSR;
 1642              		.loc 1 789 0
 1643 0a08 374B     		ldr	r3, .L167+8
 1644 0a0a 7B61     		str	r3, [r7, #20]
 790:../src/lib/lpc177x_8x/Drivers/source/lpc177x_8x_uart.c ****             break;
 1645              		.loc 1 790 0
 1646 0a0c 05E0     		b	.L143
 1647              	.L147:
 791:../src/lib/lpc177x_8x/Drivers/source/lpc177x_8x_uart.c ****         case UART_3:
 792:../src/lib/lpc177x_8x/Drivers/source/lpc177x_8x_uart.c ****             LSR = (__IO uint32_t *)&LPC_UART3->LSR;
 1648              		.loc 1 792 0
 1649 0a0e 374B     		ldr	r3, .L167+12
 1650 0a10 7B61     		str	r3, [r7, #20]
 793:../src/lib/lpc177x_8x/Drivers/source/lpc177x_8x_uart.c ****             break;
 1651              		.loc 1 793 0
 1652 0a12 02E0     		b	.L143
 1653              	.L148:
 794:../src/lib/lpc177x_8x/Drivers/source/lpc177x_8x_uart.c ****         case UART_4:
 795:../src/lib/lpc177x_8x/Drivers/source/lpc177x_8x_uart.c ****             LSR = (__IO uint32_t *)&LPC_UART4->LSR;
 1654              		.loc 1 795 0
 1655 0a14 364B     		ldr	r3, .L167+16
 1656 0a16 7B61     		str	r3, [r7, #20]
 796:../src/lib/lpc177x_8x/Drivers/source/lpc177x_8x_uart.c ****             break;
 1657              		.loc 1 796 0
 1658 0a18 00BF     		nop
 1659              	.L143:
 797:../src/lib/lpc177x_8x/Drivers/source/lpc177x_8x_uart.c ****     }
 798:../src/lib/lpc177x_8x/Drivers/source/lpc177x_8x_uart.c ****     
 799:../src/lib/lpc177x_8x/Drivers/source/lpc177x_8x_uart.c ****     bToRecv = buflen;
 1660              		.loc 1 799 0
 1661 0a1a 7B68     		ldr	r3, [r7, #4]
 1662 0a1c 7B62     		str	r3, [r7, #36]
 800:../src/lib/lpc177x_8x/Drivers/source/lpc177x_8x_uart.c **** 
 801:../src/lib/lpc177x_8x/Drivers/source/lpc177x_8x_uart.c ****     // Blocking mode
 802:../src/lib/lpc177x_8x/Drivers/source/lpc177x_8x_uart.c ****     if (flag == BLOCKING)
 1663              		.loc 1 802 0
 1664 0a1e BB7B     		ldrb	r3, [r7, #14]	@ zero_extendqisi2
 1665 0a20 012B     		cmp	r3, #1
 1666 0a22 31D1     		bne	.L150
 803:../src/lib/lpc177x_8x/Drivers/source/lpc177x_8x_uart.c ****     {
 804:../src/lib/lpc177x_8x/Drivers/source/lpc177x_8x_uart.c ****         bRecv = 0;
 1667              		.loc 1 804 0
 1668 0a24 4FF00003 		mov	r3, #0
 1669 0a28 3B62     		str	r3, [r7, #32]
 805:../src/lib/lpc177x_8x/Drivers/source/lpc177x_8x_uart.c ****         while (bToRecv)
 1670              		.loc 1 805 0
 1671 0a2a 29E0     		b	.L151
 1672              	.L158:
 806:../src/lib/lpc177x_8x/Drivers/source/lpc177x_8x_uart.c ****         {
 807:../src/lib/lpc177x_8x/Drivers/source/lpc177x_8x_uart.c ****             timeOut = UART_BLOCKING_TIMEOUT;
 1673              		.loc 1 807 0
 1674 0a2c 4FF0FF33 		mov	r3, #-1
 1675 0a30 FB61     		str	r3, [r7, #28]
 808:../src/lib/lpc177x_8x/Drivers/source/lpc177x_8x_uart.c ****             while (!(*LSR & UART_LSR_RDR))
 1676              		.loc 1 808 0
 1677 0a32 06E0     		b	.L152
 1678              	.L155:
 809:../src/lib/lpc177x_8x/Drivers/source/lpc177x_8x_uart.c ****             {
 810:../src/lib/lpc177x_8x/Drivers/source/lpc177x_8x_uart.c ****                 if (timeOut == 0)
 1679              		.loc 1 810 0
 1680 0a34 FB69     		ldr	r3, [r7, #28]
 1681 0a36 002B     		cmp	r3, #0
 1682 0a38 0AD0     		beq	.L164
 1683              	.L153:
 811:../src/lib/lpc177x_8x/Drivers/source/lpc177x_8x_uart.c ****                     break;
 812:../src/lib/lpc177x_8x/Drivers/source/lpc177x_8x_uart.c **** 
 813:../src/lib/lpc177x_8x/Drivers/source/lpc177x_8x_uart.c ****                 timeOut--;
 1684              		.loc 1 813 0
 1685 0a3a FB69     		ldr	r3, [r7, #28]
 1686 0a3c 03F1FF33 		add	r3, r3, #-1
 1687 0a40 FB61     		str	r3, [r7, #28]
 1688              	.L152:
 808:../src/lib/lpc177x_8x/Drivers/source/lpc177x_8x_uart.c ****             while (!(*LSR & UART_LSR_RDR))
 1689              		.loc 1 808 0 discriminator 1
 1690 0a42 7B69     		ldr	r3, [r7, #20]
 1691 0a44 1B68     		ldr	r3, [r3, #0]
 1692 0a46 03F00103 		and	r3, r3, #1
 1693 0a4a 002B     		cmp	r3, #0
 1694 0a4c F2D0     		beq	.L155
 1695 0a4e 00E0     		b	.L154
 1696              	.L164:
 811:../src/lib/lpc177x_8x/Drivers/source/lpc177x_8x_uart.c ****                     break;
 1697              		.loc 1 811 0
 1698 0a50 00BF     		nop
 1699              	.L154:
 814:../src/lib/lpc177x_8x/Drivers/source/lpc177x_8x_uart.c ****             }
 815:../src/lib/lpc177x_8x/Drivers/source/lpc177x_8x_uart.c **** 
 816:../src/lib/lpc177x_8x/Drivers/source/lpc177x_8x_uart.c ****             // Time out!
 817:../src/lib/lpc177x_8x/Drivers/source/lpc177x_8x_uart.c ****             if(timeOut == 0)
 1700              		.loc 1 817 0
 1701 0a52 FB69     		ldr	r3, [r7, #28]
 1702 0a54 002B     		cmp	r3, #0
 1703 0a56 39D0     		beq	.L165
 1704              	.L156:
 818:../src/lib/lpc177x_8x/Drivers/source/lpc177x_8x_uart.c ****                 break;
 819:../src/lib/lpc177x_8x/Drivers/source/lpc177x_8x_uart.c **** 
 820:../src/lib/lpc177x_8x/Drivers/source/lpc177x_8x_uart.c ****             // Get data from the buffer
 821:../src/lib/lpc177x_8x/Drivers/source/lpc177x_8x_uart.c ****             (*pChar++) = UART_ReceiveByte(UartID);
 1705              		.loc 1 821 0
 1706 0a58 FB7B     		ldrb	r3, [r7, #15]	@ zero_extendqisi2
 1707 0a5a 1846     		mov	r0, r3
 1708 0a5c FFF7FEFF 		bl	UART_ReceiveByte
 1709 0a60 0346     		mov	r3, r0
 1710 0a62 1A46     		mov	r2, r3
 1711 0a64 BB69     		ldr	r3, [r7, #24]
 1712 0a66 1A70     		strb	r2, [r3, #0]
 1713 0a68 BB69     		ldr	r3, [r7, #24]
 1714 0a6a 03F10103 		add	r3, r3, #1
 1715 0a6e BB61     		str	r3, [r7, #24]
 822:../src/lib/lpc177x_8x/Drivers/source/lpc177x_8x_uart.c **** 
 823:../src/lib/lpc177x_8x/Drivers/source/lpc177x_8x_uart.c ****             bToRecv--;
 1716              		.loc 1 823 0
 1717 0a70 7B6A     		ldr	r3, [r7, #36]
 1718 0a72 03F1FF33 		add	r3, r3, #-1
 1719 0a76 7B62     		str	r3, [r7, #36]
 824:../src/lib/lpc177x_8x/Drivers/source/lpc177x_8x_uart.c **** 
 825:../src/lib/lpc177x_8x/Drivers/source/lpc177x_8x_uart.c ****             bRecv++;
 1720              		.loc 1 825 0
 1721 0a78 3B6A     		ldr	r3, [r7, #32]
 1722 0a7a 03F10103 		add	r3, r3, #1
 1723 0a7e 3B62     		str	r3, [r7, #32]
 1724              	.L151:
 805:../src/lib/lpc177x_8x/Drivers/source/lpc177x_8x_uart.c ****         while (bToRecv)
 1725              		.loc 1 805 0 discriminator 1
 1726 0a80 7B6A     		ldr	r3, [r7, #36]
 1727 0a82 002B     		cmp	r3, #0
 1728 0a84 D2D1     		bne	.L158
 805:../src/lib/lpc177x_8x/Drivers/source/lpc177x_8x_uart.c ****         while (bToRecv)
 1729              		.loc 1 805 0 is_stmt 0
 1730 0a86 24E0     		b	.L159
 1731              	.L150:
 826:../src/lib/lpc177x_8x/Drivers/source/lpc177x_8x_uart.c ****         }
 827:../src/lib/lpc177x_8x/Drivers/source/lpc177x_8x_uart.c ****     }
 828:../src/lib/lpc177x_8x/Drivers/source/lpc177x_8x_uart.c ****     // None blocking mode
 829:../src/lib/lpc177x_8x/Drivers/source/lpc177x_8x_uart.c ****     else
 830:../src/lib/lpc177x_8x/Drivers/source/lpc177x_8x_uart.c ****     {
 831:../src/lib/lpc177x_8x/Drivers/source/lpc177x_8x_uart.c ****         bRecv = 0;
 1732              		.loc 1 831 0 is_stmt 1
 1733 0a88 4FF00003 		mov	r3, #0
 1734 0a8c 3B62     		str	r3, [r7, #32]
 832:../src/lib/lpc177x_8x/Drivers/source/lpc177x_8x_uart.c ****         while (bToRecv)
 1735              		.loc 1 832 0
 1736 0a8e 19E0     		b	.L160
 1737              	.L162:
 833:../src/lib/lpc177x_8x/Drivers/source/lpc177x_8x_uart.c ****         {
 834:../src/lib/lpc177x_8x/Drivers/source/lpc177x_8x_uart.c ****             if (!(*LSR & UART_LSR_RDR))
 1738              		.loc 1 834 0
 1739 0a90 7B69     		ldr	r3, [r7, #20]
 1740 0a92 1B68     		ldr	r3, [r3, #0]
 1741 0a94 03F00103 		and	r3, r3, #1
 1742 0a98 002B     		cmp	r3, #0
 1743 0a9a 19D0     		beq	.L166
 1744              	.L161:
 835:../src/lib/lpc177x_8x/Drivers/source/lpc177x_8x_uart.c ****             {
 836:../src/lib/lpc177x_8x/Drivers/source/lpc177x_8x_uart.c ****                 break;
 837:../src/lib/lpc177x_8x/Drivers/source/lpc177x_8x_uart.c ****             }
 838:../src/lib/lpc177x_8x/Drivers/source/lpc177x_8x_uart.c ****             else
 839:../src/lib/lpc177x_8x/Drivers/source/lpc177x_8x_uart.c ****             {
 840:../src/lib/lpc177x_8x/Drivers/source/lpc177x_8x_uart.c ****                 (*pChar++) = UART_ReceiveByte(UartID);
 1745              		.loc 1 840 0
 1746 0a9c FB7B     		ldrb	r3, [r7, #15]	@ zero_extendqisi2
 1747 0a9e 1846     		mov	r0, r3
 1748 0aa0 FFF7FEFF 		bl	UART_ReceiveByte
 1749 0aa4 0346     		mov	r3, r0
 1750 0aa6 1A46     		mov	r2, r3
 1751 0aa8 BB69     		ldr	r3, [r7, #24]
 1752 0aaa 1A70     		strb	r2, [r3, #0]
 1753 0aac BB69     		ldr	r3, [r7, #24]
 1754 0aae 03F10103 		add	r3, r3, #1
 1755 0ab2 BB61     		str	r3, [r7, #24]
 841:../src/lib/lpc177x_8x/Drivers/source/lpc177x_8x_uart.c **** 
 842:../src/lib/lpc177x_8x/Drivers/source/lpc177x_8x_uart.c ****                 bRecv++;
 1756              		.loc 1 842 0
 1757 0ab4 3B6A     		ldr	r3, [r7, #32]
 1758 0ab6 03F10103 		add	r3, r3, #1
 1759 0aba 3B62     		str	r3, [r7, #32]
 843:../src/lib/lpc177x_8x/Drivers/source/lpc177x_8x_uart.c **** 
 844:../src/lib/lpc177x_8x/Drivers/source/lpc177x_8x_uart.c ****                 bToRecv--;
 1760              		.loc 1 844 0
 1761 0abc 7B6A     		ldr	r3, [r7, #36]
 1762 0abe 03F1FF33 		add	r3, r3, #-1
 1763 0ac2 7B62     		str	r3, [r7, #36]
 1764              	.L160:
 832:../src/lib/lpc177x_8x/Drivers/source/lpc177x_8x_uart.c ****         while (bToRecv)
 1765              		.loc 1 832 0 discriminator 1
 1766 0ac4 7B6A     		ldr	r3, [r7, #36]
 1767 0ac6 002B     		cmp	r3, #0
 1768 0ac8 E2D1     		bne	.L162
 1769 0aca 02E0     		b	.L159
 1770              	.L165:
 818:../src/lib/lpc177x_8x/Drivers/source/lpc177x_8x_uart.c ****                 break;
 1771              		.loc 1 818 0
 1772 0acc 00BF     		nop
 1773 0ace 00E0     		b	.L159
 1774              	.L166:
 836:../src/lib/lpc177x_8x/Drivers/source/lpc177x_8x_uart.c ****                 break;
 1775              		.loc 1 836 0
 1776 0ad0 00BF     		nop
 1777              	.L159:
 845:../src/lib/lpc177x_8x/Drivers/source/lpc177x_8x_uart.c ****             }
 846:../src/lib/lpc177x_8x/Drivers/source/lpc177x_8x_uart.c ****         }
 847:../src/lib/lpc177x_8x/Drivers/source/lpc177x_8x_uart.c ****     }
 848:../src/lib/lpc177x_8x/Drivers/source/lpc177x_8x_uart.c **** 
 849:../src/lib/lpc177x_8x/Drivers/source/lpc177x_8x_uart.c ****     return bRecv;
 1778              		.loc 1 849 0
 1779 0ad2 3B6A     		ldr	r3, [r7, #32]
 850:../src/lib/lpc177x_8x/Drivers/source/lpc177x_8x_uart.c **** }
 1780              		.loc 1 850 0
 1781 0ad4 1846     		mov	r0, r3
 1782 0ad6 07F12807 		add	r7, r7, #40
 1783 0ada BD46     		mov	sp, r7
 1784 0adc 80BD     		pop	{r7, pc}
 1785              	.L168:
 1786 0ade 00BF     		.align	2
 1787              	.L167:
 1788 0ae0 14C00040 		.word	1073790996
 1789 0ae4 14000140 		.word	1073807380
 1790 0ae8 14800940 		.word	1074364436
 1791 0aec 14C00940 		.word	1074380820
 1792 0af0 14400A40 		.word	1074413588
 1793              		.cfi_endproc
 1794              	.LFE63:
 1796              		.align	2
 1797              		.global	UART_ForceBreak
 1798              		.thumb
 1799              		.thumb_func
 1801              	UART_ForceBreak:
 1802              	.LFB64:
 851:../src/lib/lpc177x_8x/Drivers/source/lpc177x_8x_uart.c **** 
 852:../src/lib/lpc177x_8x/Drivers/source/lpc177x_8x_uart.c **** /*********************************************************************//**
 853:../src/lib/lpc177x_8x/Drivers/source/lpc177x_8x_uart.c ****  * @brief       Force BREAK character on UART line, output pin UARTx TXD is
 854:../src/lib/lpc177x_8x/Drivers/source/lpc177x_8x_uart.c ****                 forced to logic 0.
 855:../src/lib/lpc177x_8x/Drivers/source/lpc177x_8x_uart.c ****  * @param[in]   UARTx   UART peripheral selected, should be:
 856:../src/lib/lpc177x_8x/Drivers/source/lpc177x_8x_uart.c ****  *              - UART_0: UART0 peripheral
 857:../src/lib/lpc177x_8x/Drivers/source/lpc177x_8x_uart.c ****  *              - UART_1: UART1 peripheral
 858:../src/lib/lpc177x_8x/Drivers/source/lpc177x_8x_uart.c ****  *              - UART_2: UART2 peripheral
 859:../src/lib/lpc177x_8x/Drivers/source/lpc177x_8x_uart.c ****  *              - UART_3: UART3 peripheral
 860:../src/lib/lpc177x_8x/Drivers/source/lpc177x_8x_uart.c ****  *              - UART_4: UART4 peripheral
 861:../src/lib/lpc177x_8x/Drivers/source/lpc177x_8x_uart.c ****  * @return      None
 862:../src/lib/lpc177x_8x/Drivers/source/lpc177x_8x_uart.c ****  **********************************************************************/
 863:../src/lib/lpc177x_8x/Drivers/source/lpc177x_8x_uart.c **** void UART_ForceBreak(UART_ID_Type UartID)
 864:../src/lib/lpc177x_8x/Drivers/source/lpc177x_8x_uart.c **** {
 1803              		.loc 1 864 0
 1804              		.cfi_startproc
 1805              		@ args = 0, pretend = 0, frame = 8
 1806              		@ frame_needed = 1, uses_anonymous_args = 0
 1807              		@ link register save eliminated.
 1808 0af4 80B4     		push	{r7}
 1809              	.LCFI27:
 1810              		.cfi_def_cfa_offset 4
 1811              		.cfi_offset 7, -4
 1812 0af6 83B0     		sub	sp, sp, #12
 1813              	.LCFI28:
 1814              		.cfi_def_cfa_offset 16
 1815 0af8 00AF     		add	r7, sp, #0
 1816              	.LCFI29:
 1817              		.cfi_def_cfa_register 7
 1818 0afa 0346     		mov	r3, r0
 1819 0afc FB71     		strb	r3, [r7, #7]
 865:../src/lib/lpc177x_8x/Drivers/source/lpc177x_8x_uart.c ****     switch (UartID)
 1820              		.loc 1 865 0
 1821 0afe FB79     		ldrb	r3, [r7, #7]	@ zero_extendqisi2
 1822 0b00 042B     		cmp	r3, #4
 1823 0b02 38D8     		bhi	.L169
 1824 0b04 01A2     		adr	r2, .L176
 1825 0b06 52F823F0 		ldr	pc, [r2, r3, lsl #2]
 1826 0b0a 00BF     		.align	2
 1827              	.L176:
 1828 0b0c 210B0000 		.word	.L171+1
 1829 0b10 330B0000 		.word	.L172+1
 1830 0b14 450B0000 		.word	.L173+1
 1831 0b18 570B0000 		.word	.L174+1
 1832 0b1c 690B0000 		.word	.L175+1
 1833              	.L171:
 866:../src/lib/lpc177x_8x/Drivers/source/lpc177x_8x_uart.c ****     {
 867:../src/lib/lpc177x_8x/Drivers/source/lpc177x_8x_uart.c ****         case UART_0:
 868:../src/lib/lpc177x_8x/Drivers/source/lpc177x_8x_uart.c ****             LPC_UART0->LCR |= UART_LCR_BREAK_EN;
 1834              		.loc 1 868 0
 1835 0b20 174B     		ldr	r3, .L177
 1836 0b22 174A     		ldr	r2, .L177
 1837 0b24 127B     		ldrb	r2, [r2, #12]
 1838 0b26 D2B2     		uxtb	r2, r2
 1839 0b28 42F04002 		orr	r2, r2, #64
 1840 0b2c D2B2     		uxtb	r2, r2
 1841 0b2e 1A73     		strb	r2, [r3, #12]
 869:../src/lib/lpc177x_8x/Drivers/source/lpc177x_8x_uart.c ****             break;
 1842              		.loc 1 869 0
 1843 0b30 21E0     		b	.L169
 1844              	.L172:
 870:../src/lib/lpc177x_8x/Drivers/source/lpc177x_8x_uart.c ****         case UART_1:
 871:../src/lib/lpc177x_8x/Drivers/source/lpc177x_8x_uart.c ****             LPC_UART1->LCR |= UART_LCR_BREAK_EN;
 1845              		.loc 1 871 0
 1846 0b32 144B     		ldr	r3, .L177+4
 1847 0b34 134A     		ldr	r2, .L177+4
 1848 0b36 127B     		ldrb	r2, [r2, #12]
 1849 0b38 D2B2     		uxtb	r2, r2
 1850 0b3a 42F04002 		orr	r2, r2, #64
 1851 0b3e D2B2     		uxtb	r2, r2
 1852 0b40 1A73     		strb	r2, [r3, #12]
 872:../src/lib/lpc177x_8x/Drivers/source/lpc177x_8x_uart.c ****             break;
 1853              		.loc 1 872 0
 1854 0b42 18E0     		b	.L169
 1855              	.L173:
 873:../src/lib/lpc177x_8x/Drivers/source/lpc177x_8x_uart.c ****         case UART_2:
 874:../src/lib/lpc177x_8x/Drivers/source/lpc177x_8x_uart.c ****             LPC_UART2->LCR |= UART_LCR_BREAK_EN;
 1856              		.loc 1 874 0
 1857 0b44 104B     		ldr	r3, .L177+8
 1858 0b46 104A     		ldr	r2, .L177+8
 1859 0b48 127B     		ldrb	r2, [r2, #12]
 1860 0b4a D2B2     		uxtb	r2, r2
 1861 0b4c 42F04002 		orr	r2, r2, #64
 1862 0b50 D2B2     		uxtb	r2, r2
 1863 0b52 1A73     		strb	r2, [r3, #12]
 875:../src/lib/lpc177x_8x/Drivers/source/lpc177x_8x_uart.c ****             break;
 1864              		.loc 1 875 0
 1865 0b54 0FE0     		b	.L169
 1866              	.L174:
 876:../src/lib/lpc177x_8x/Drivers/source/lpc177x_8x_uart.c ****         case UART_3:
 877:../src/lib/lpc177x_8x/Drivers/source/lpc177x_8x_uart.c ****             LPC_UART3->LCR |= UART_LCR_BREAK_EN;
 1867              		.loc 1 877 0
 1868 0b56 0D4B     		ldr	r3, .L177+12
 1869 0b58 0C4A     		ldr	r2, .L177+12
 1870 0b5a 127B     		ldrb	r2, [r2, #12]
 1871 0b5c D2B2     		uxtb	r2, r2
 1872 0b5e 42F04002 		orr	r2, r2, #64
 1873 0b62 D2B2     		uxtb	r2, r2
 1874 0b64 1A73     		strb	r2, [r3, #12]
 878:../src/lib/lpc177x_8x/Drivers/source/lpc177x_8x_uart.c ****             break;
 1875              		.loc 1 878 0
 1876 0b66 06E0     		b	.L169
 1877              	.L175:
 879:../src/lib/lpc177x_8x/Drivers/source/lpc177x_8x_uart.c ****         case UART_4:
 880:../src/lib/lpc177x_8x/Drivers/source/lpc177x_8x_uart.c ****             LPC_UART4->LCR |= UART_LCR_BREAK_EN;
 1878              		.loc 1 880 0
 1879 0b68 094B     		ldr	r3, .L177+16
 1880 0b6a 094A     		ldr	r2, .L177+16
 1881 0b6c D268     		ldr	r2, [r2, #12]
 1882 0b6e 42F04002 		orr	r2, r2, #64
 1883 0b72 DA60     		str	r2, [r3, #12]
 881:../src/lib/lpc177x_8x/Drivers/source/lpc177x_8x_uart.c ****             break;
 1884              		.loc 1 881 0
 1885 0b74 00BF     		nop
 1886              	.L169:
 882:../src/lib/lpc177x_8x/Drivers/source/lpc177x_8x_uart.c ****     }
 883:../src/lib/lpc177x_8x/Drivers/source/lpc177x_8x_uart.c **** }
 1887              		.loc 1 883 0
 1888 0b76 07F10C07 		add	r7, r7, #12
 1889 0b7a BD46     		mov	sp, r7
 1890 0b7c 80BC     		pop	{r7}
 1891 0b7e 7047     		bx	lr
 1892              	.L178:
 1893              		.align	2
 1894              	.L177:
 1895 0b80 00C00040 		.word	1073790976
 1896 0b84 00000140 		.word	1073807360
 1897 0b88 00800940 		.word	1074364416
 1898 0b8c 00C00940 		.word	1074380800
 1899 0b90 00400A40 		.word	1074413568
 1900              		.cfi_endproc
 1901              	.LFE64:
 1903              		.align	2
 1904              		.global	UART_IntConfig
 1905              		.thumb
 1906              		.thumb_func
 1908              	UART_IntConfig:
 1909              	.LFB65:
 884:../src/lib/lpc177x_8x/Drivers/source/lpc177x_8x_uart.c **** 
 885:../src/lib/lpc177x_8x/Drivers/source/lpc177x_8x_uart.c **** 
 886:../src/lib/lpc177x_8x/Drivers/source/lpc177x_8x_uart.c **** /********************************************************************//**
 887:../src/lib/lpc177x_8x/Drivers/source/lpc177x_8x_uart.c ****  * @brief       Enable or disable specified UART interrupt.
 888:../src/lib/lpc177x_8x/Drivers/source/lpc177x_8x_uart.c ****  * @param[in]   UARTx   UART peripheral selected, should be
 889:../src/lib/lpc177x_8x/Drivers/source/lpc177x_8x_uart.c ****  *              - UART_0: UART0 peripheral
 890:../src/lib/lpc177x_8x/Drivers/source/lpc177x_8x_uart.c ****  *              - UART_1: UART1 peripheral
 891:../src/lib/lpc177x_8x/Drivers/source/lpc177x_8x_uart.c ****  *              - UART_2: UART2 peripheral
 892:../src/lib/lpc177x_8x/Drivers/source/lpc177x_8x_uart.c ****  *              - UART_3: UART3 peripheral
 893:../src/lib/lpc177x_8x/Drivers/source/lpc177x_8x_uart.c ****  *              - UART_4: UART4 peripheral
 894:../src/lib/lpc177x_8x/Drivers/source/lpc177x_8x_uart.c ****  * @param[in]   UARTIntCfg  Specifies the interrupt flag,
 895:../src/lib/lpc177x_8x/Drivers/source/lpc177x_8x_uart.c ****  *              should be one of the following:
 896:../src/lib/lpc177x_8x/Drivers/source/lpc177x_8x_uart.c ****                 - UART_INTCFG_RBR   :  RBR Interrupt enable
 897:../src/lib/lpc177x_8x/Drivers/source/lpc177x_8x_uart.c ****                 - UART_INTCFG_THRE  :  THR Interrupt enable
 898:../src/lib/lpc177x_8x/Drivers/source/lpc177x_8x_uart.c ****                 - UART_INTCFG_RLS   :  RX line status interrupt enable
 899:../src/lib/lpc177x_8x/Drivers/source/lpc177x_8x_uart.c ****                 - UART1_INTCFG_MS   :  Modem status interrupt enable (UART1 only)
 900:../src/lib/lpc177x_8x/Drivers/source/lpc177x_8x_uart.c ****                 - UART1_INTCFG_CTS  :  CTS1 signal transition interrupt enable (UART1 only)
 901:../src/lib/lpc177x_8x/Drivers/source/lpc177x_8x_uart.c ****                 - UART_INTCFG_ABEO  :  Enables the end of auto-baud interrupt
 902:../src/lib/lpc177x_8x/Drivers/source/lpc177x_8x_uart.c ****                 - UART_INTCFG_ABTO  :  Enables the auto-baud time-out interrupt
 903:../src/lib/lpc177x_8x/Drivers/source/lpc177x_8x_uart.c ****  * @param[in]   NewState New state of specified UART interrupt type,
 904:../src/lib/lpc177x_8x/Drivers/source/lpc177x_8x_uart.c ****  *              should be:
 905:../src/lib/lpc177x_8x/Drivers/source/lpc177x_8x_uart.c ****  *              - ENALBE: Enable this UART interrupt type.
 906:../src/lib/lpc177x_8x/Drivers/source/lpc177x_8x_uart.c **** *               - DISALBE: Disable this UART interrupt type.
 907:../src/lib/lpc177x_8x/Drivers/source/lpc177x_8x_uart.c ****  * @return      None
 908:../src/lib/lpc177x_8x/Drivers/source/lpc177x_8x_uart.c ****  *********************************************************************/
 909:../src/lib/lpc177x_8x/Drivers/source/lpc177x_8x_uart.c **** void UART_IntConfig(UART_ID_Type UartID, UART_INT_Type UARTIntCfg, FunctionalState NewState)
 910:../src/lib/lpc177x_8x/Drivers/source/lpc177x_8x_uart.c **** {
 1910              		.loc 1 910 0
 1911              		.cfi_startproc
 1912              		@ args = 0, pretend = 0, frame = 24
 1913              		@ frame_needed = 1, uses_anonymous_args = 0
 1914              		@ link register save eliminated.
 1915 0b94 80B4     		push	{r7}
 1916              	.LCFI30:
 1917              		.cfi_def_cfa_offset 4
 1918              		.cfi_offset 7, -4
 1919 0b96 87B0     		sub	sp, sp, #28
 1920              	.LCFI31:
 1921              		.cfi_def_cfa_offset 32
 1922 0b98 00AF     		add	r7, sp, #0
 1923              	.LCFI32:
 1924              		.cfi_def_cfa_register 7
 1925 0b9a 1346     		mov	r3, r2
 1926 0b9c 0246     		mov	r2, r0
 1927 0b9e FA71     		strb	r2, [r7, #7]
 1928 0ba0 0A46     		mov	r2, r1
 1929 0ba2 BA71     		strb	r2, [r7, #6]
 1930 0ba4 7B71     		strb	r3, [r7, #5]
 911:../src/lib/lpc177x_8x/Drivers/source/lpc177x_8x_uart.c ****     uint32_t tmp;
 912:../src/lib/lpc177x_8x/Drivers/source/lpc177x_8x_uart.c ****     __IO uint32_t *IER = NULL;
 1931              		.loc 1 912 0
 1932 0ba6 4FF00003 		mov	r3, #0
 1933 0baa 3B61     		str	r3, [r7, #16]
 913:../src/lib/lpc177x_8x/Drivers/source/lpc177x_8x_uart.c ****     uint32_t IERMask = 0;
 1934              		.loc 1 913 0
 1935 0bac 4FF00003 		mov	r3, #0
 1936 0bb0 FB60     		str	r3, [r7, #12]
 914:../src/lib/lpc177x_8x/Drivers/source/lpc177x_8x_uart.c **** 
 915:../src/lib/lpc177x_8x/Drivers/source/lpc177x_8x_uart.c ****     switch (UartID)
 1937              		.loc 1 915 0
 1938 0bb2 FB79     		ldrb	r3, [r7, #7]	@ zero_extendqisi2
 1939 0bb4 042B     		cmp	r3, #4
 1940 0bb6 2BD8     		bhi	.L180
 1941 0bb8 01A2     		adr	r2, .L186
 1942 0bba 52F823F0 		ldr	pc, [r2, r3, lsl #2]
 1943 0bbe 00BF     		.align	2
 1944              	.L186:
 1945 0bc0 D50B0000 		.word	.L181+1
 1946 0bc4 E10B0000 		.word	.L182+1
 1947 0bc8 ED0B0000 		.word	.L183+1
 1948 0bcc F90B0000 		.word	.L184+1
 1949 0bd0 050C0000 		.word	.L185+1
 1950              	.L181:
 916:../src/lib/lpc177x_8x/Drivers/source/lpc177x_8x_uart.c ****     {
 917:../src/lib/lpc177x_8x/Drivers/source/lpc177x_8x_uart.c ****         case UART_0:
 918:../src/lib/lpc177x_8x/Drivers/source/lpc177x_8x_uart.c ****             IER = &LPC_UART0->IER;
 1951              		.loc 1 918 0
 1952 0bd4 344B     		ldr	r3, .L198
 1953 0bd6 3B61     		str	r3, [r7, #16]
 919:../src/lib/lpc177x_8x/Drivers/source/lpc177x_8x_uart.c ****             IERMask = UART_IER_BITMASK;
 1954              		.loc 1 919 0
 1955 0bd8 40F20733 		movw	r3, #775
 1956 0bdc FB60     		str	r3, [r7, #12]
 920:../src/lib/lpc177x_8x/Drivers/source/lpc177x_8x_uart.c ****             break;
 1957              		.loc 1 920 0
 1958 0bde 17E0     		b	.L180
 1959              	.L182:
 921:../src/lib/lpc177x_8x/Drivers/source/lpc177x_8x_uart.c ****         case UART_1:
 922:../src/lib/lpc177x_8x/Drivers/source/lpc177x_8x_uart.c ****             IER = &LPC_UART1->IER;
 1960              		.loc 1 922 0
 1961 0be0 324B     		ldr	r3, .L198+4
 1962 0be2 3B61     		str	r3, [r7, #16]
 923:../src/lib/lpc177x_8x/Drivers/source/lpc177x_8x_uart.c ****             IERMask = UART1_IER_BITMASK;
 1963              		.loc 1 923 0
 1964 0be4 40F28F33 		movw	r3, #911
 1965 0be8 FB60     		str	r3, [r7, #12]
 924:../src/lib/lpc177x_8x/Drivers/source/lpc177x_8x_uart.c ****             break;
 1966              		.loc 1 924 0
 1967 0bea 11E0     		b	.L180
 1968              	.L183:
 925:../src/lib/lpc177x_8x/Drivers/source/lpc177x_8x_uart.c ****         case UART_2:
 926:../src/lib/lpc177x_8x/Drivers/source/lpc177x_8x_uart.c ****             IER = &LPC_UART2->IER;
 1969              		.loc 1 926 0
 1970 0bec 304B     		ldr	r3, .L198+8
 1971 0bee 3B61     		str	r3, [r7, #16]
 927:../src/lib/lpc177x_8x/Drivers/source/lpc177x_8x_uart.c ****             IERMask = UART_IER_BITMASK;
 1972              		.loc 1 927 0
 1973 0bf0 40F20733 		movw	r3, #775
 1974 0bf4 FB60     		str	r3, [r7, #12]
 928:../src/lib/lpc177x_8x/Drivers/source/lpc177x_8x_uart.c ****             break;
 1975              		.loc 1 928 0
 1976 0bf6 0BE0     		b	.L180
 1977              	.L184:
 929:../src/lib/lpc177x_8x/Drivers/source/lpc177x_8x_uart.c ****         case UART_3:
 930:../src/lib/lpc177x_8x/Drivers/source/lpc177x_8x_uart.c ****             IER = &LPC_UART3->IER;
 1978              		.loc 1 930 0
 1979 0bf8 2E4B     		ldr	r3, .L198+12
 1980 0bfa 3B61     		str	r3, [r7, #16]
 931:../src/lib/lpc177x_8x/Drivers/source/lpc177x_8x_uart.c ****             IERMask = UART_IER_BITMASK;
 1981              		.loc 1 931 0
 1982 0bfc 40F20733 		movw	r3, #775
 1983 0c00 FB60     		str	r3, [r7, #12]
 932:../src/lib/lpc177x_8x/Drivers/source/lpc177x_8x_uart.c ****             break;
 1984              		.loc 1 932 0
 1985 0c02 05E0     		b	.L180
 1986              	.L185:
 933:../src/lib/lpc177x_8x/Drivers/source/lpc177x_8x_uart.c ****         case UART_4:
 934:../src/lib/lpc177x_8x/Drivers/source/lpc177x_8x_uart.c ****             IER = &LPC_UART4->IER;
 1987              		.loc 1 934 0
 1988 0c04 2C4B     		ldr	r3, .L198+16
 1989 0c06 3B61     		str	r3, [r7, #16]
 935:../src/lib/lpc177x_8x/Drivers/source/lpc177x_8x_uart.c ****             IERMask = UART_IER_BITMASK;
 1990              		.loc 1 935 0
 1991 0c08 40F20733 		movw	r3, #775
 1992 0c0c FB60     		str	r3, [r7, #12]
 936:../src/lib/lpc177x_8x/Drivers/source/lpc177x_8x_uart.c ****             break;
 1993              		.loc 1 936 0
 1994 0c0e 00BF     		nop
 1995              	.L180:
 937:../src/lib/lpc177x_8x/Drivers/source/lpc177x_8x_uart.c ****     }
 938:../src/lib/lpc177x_8x/Drivers/source/lpc177x_8x_uart.c **** 
 939:../src/lib/lpc177x_8x/Drivers/source/lpc177x_8x_uart.c **** 
 940:../src/lib/lpc177x_8x/Drivers/source/lpc177x_8x_uart.c ****     switch(UARTIntCfg)
 1996              		.loc 1 940 0
 1997 0c10 BB79     		ldrb	r3, [r7, #6]	@ zero_extendqisi2
 1998 0c12 062B     		cmp	r3, #6
 1999 0c14 2CD8     		bhi	.L187
 2000 0c16 01A2     		adr	r2, .L195
 2001 0c18 52F823F0 		ldr	pc, [r2, r3, lsl #2]
 2002              		.align	2
 2003              	.L195:
 2004 0c1c 390C0000 		.word	.L188+1
 2005 0c20 410C0000 		.word	.L189+1
 2006 0c24 490C0000 		.word	.L190+1
 2007 0c28 510C0000 		.word	.L191+1
 2008 0c2c 590C0000 		.word	.L192+1
 2009 0c30 610C0000 		.word	.L193+1
 2010 0c34 690C0000 		.word	.L194+1
 2011              	.L188:
 941:../src/lib/lpc177x_8x/Drivers/source/lpc177x_8x_uart.c ****     {
 942:../src/lib/lpc177x_8x/Drivers/source/lpc177x_8x_uart.c ****         case UART_INTCFG_RBR:
 943:../src/lib/lpc177x_8x/Drivers/source/lpc177x_8x_uart.c ****             tmp = UART_IER_RBRINT_EN;
 2012              		.loc 1 943 0
 2013 0c38 4FF00103 		mov	r3, #1
 2014 0c3c 7B61     		str	r3, [r7, #20]
 944:../src/lib/lpc177x_8x/Drivers/source/lpc177x_8x_uart.c ****             break;
 2015              		.loc 1 944 0
 2016 0c3e 17E0     		b	.L187
 2017              	.L189:
 945:../src/lib/lpc177x_8x/Drivers/source/lpc177x_8x_uart.c **** 
 946:../src/lib/lpc177x_8x/Drivers/source/lpc177x_8x_uart.c ****         case UART_INTCFG_THRE:
 947:../src/lib/lpc177x_8x/Drivers/source/lpc177x_8x_uart.c ****             tmp = UART_IER_THREINT_EN;
 2018              		.loc 1 947 0
 2019 0c40 4FF00203 		mov	r3, #2
 2020 0c44 7B61     		str	r3, [r7, #20]
 948:../src/lib/lpc177x_8x/Drivers/source/lpc177x_8x_uart.c ****             break;
 2021              		.loc 1 948 0
 2022 0c46 13E0     		b	.L187
 2023              	.L190:
 949:../src/lib/lpc177x_8x/Drivers/source/lpc177x_8x_uart.c **** 
 950:../src/lib/lpc177x_8x/Drivers/source/lpc177x_8x_uart.c ****         case UART_INTCFG_RLS:
 951:../src/lib/lpc177x_8x/Drivers/source/lpc177x_8x_uart.c ****             tmp = UART_IER_RLSINT_EN;
 2024              		.loc 1 951 0
 2025 0c48 4FF00403 		mov	r3, #4
 2026 0c4c 7B61     		str	r3, [r7, #20]
 952:../src/lib/lpc177x_8x/Drivers/source/lpc177x_8x_uart.c ****             break;
 2027              		.loc 1 952 0
 2028 0c4e 0FE0     		b	.L187
 2029              	.L191:
 953:../src/lib/lpc177x_8x/Drivers/source/lpc177x_8x_uart.c **** 
 954:../src/lib/lpc177x_8x/Drivers/source/lpc177x_8x_uart.c ****         case UART_INTCFG_MS:
 955:../src/lib/lpc177x_8x/Drivers/source/lpc177x_8x_uart.c ****             tmp = UART1_IER_MSINT_EN;
 2030              		.loc 1 955 0
 2031 0c50 4FF00803 		mov	r3, #8
 2032 0c54 7B61     		str	r3, [r7, #20]
 956:../src/lib/lpc177x_8x/Drivers/source/lpc177x_8x_uart.c ****             break;
 2033              		.loc 1 956 0
 2034 0c56 0BE0     		b	.L187
 2035              	.L192:
 957:../src/lib/lpc177x_8x/Drivers/source/lpc177x_8x_uart.c **** 
 958:../src/lib/lpc177x_8x/Drivers/source/lpc177x_8x_uart.c ****         case UART_INTCFG_CTS:
 959:../src/lib/lpc177x_8x/Drivers/source/lpc177x_8x_uart.c ****             tmp = UART1_IER_CTSINT_EN;
 2036              		.loc 1 959 0
 2037 0c58 4FF08003 		mov	r3, #128
 2038 0c5c 7B61     		str	r3, [r7, #20]
 960:../src/lib/lpc177x_8x/Drivers/source/lpc177x_8x_uart.c ****             break;
 2039              		.loc 1 960 0
 2040 0c5e 07E0     		b	.L187
 2041              	.L193:
 961:../src/lib/lpc177x_8x/Drivers/source/lpc177x_8x_uart.c **** 
 962:../src/lib/lpc177x_8x/Drivers/source/lpc177x_8x_uart.c ****         case UART_INTCFG_ABEO:
 963:../src/lib/lpc177x_8x/Drivers/source/lpc177x_8x_uart.c ****             tmp = UART_IER_ABEOINT_EN;
 2042              		.loc 1 963 0
 2043 0c60 4FF48073 		mov	r3, #256
 2044 0c64 7B61     		str	r3, [r7, #20]
 964:../src/lib/lpc177x_8x/Drivers/source/lpc177x_8x_uart.c ****             break;
 2045              		.loc 1 964 0
 2046 0c66 03E0     		b	.L187
 2047              	.L194:
 965:../src/lib/lpc177x_8x/Drivers/source/lpc177x_8x_uart.c **** 
 966:../src/lib/lpc177x_8x/Drivers/source/lpc177x_8x_uart.c ****         case UART_INTCFG_ABTO:
 967:../src/lib/lpc177x_8x/Drivers/source/lpc177x_8x_uart.c ****             tmp = UART_IER_ABTOINT_EN;
 2048              		.loc 1 967 0
 2049 0c68 4FF40073 		mov	r3, #512
 2050 0c6c 7B61     		str	r3, [r7, #20]
 968:../src/lib/lpc177x_8x/Drivers/source/lpc177x_8x_uart.c ****             break;
 2051              		.loc 1 968 0
 2052 0c6e 00BF     		nop
 2053              	.L187:
 969:../src/lib/lpc177x_8x/Drivers/source/lpc177x_8x_uart.c ****     }
 970:../src/lib/lpc177x_8x/Drivers/source/lpc177x_8x_uart.c **** 
 971:../src/lib/lpc177x_8x/Drivers/source/lpc177x_8x_uart.c ****     if (NewState == ENABLE)
 2054              		.loc 1 971 0
 2055 0c70 7B79     		ldrb	r3, [r7, #5]	@ zero_extendqisi2
 2056 0c72 012B     		cmp	r3, #1
 2057 0c74 08D1     		bne	.L196
 972:../src/lib/lpc177x_8x/Drivers/source/lpc177x_8x_uart.c ****     {
 973:../src/lib/lpc177x_8x/Drivers/source/lpc177x_8x_uart.c ****         *IER |= tmp& IERMask;
 2058              		.loc 1 973 0
 2059 0c76 3B69     		ldr	r3, [r7, #16]
 2060 0c78 1A68     		ldr	r2, [r3, #0]
 2061 0c7a 7969     		ldr	r1, [r7, #20]
 2062 0c7c FB68     		ldr	r3, [r7, #12]
 2063 0c7e 0B40     		ands	r3, r3, r1
 2064 0c80 1A43     		orrs	r2, r2, r3
 2065 0c82 3B69     		ldr	r3, [r7, #16]
 2066 0c84 1A60     		str	r2, [r3, #0]
 2067 0c86 09E0     		b	.L179
 2068              	.L196:
 974:../src/lib/lpc177x_8x/Drivers/source/lpc177x_8x_uart.c ****     }
 975:../src/lib/lpc177x_8x/Drivers/source/lpc177x_8x_uart.c ****     else
 976:../src/lib/lpc177x_8x/Drivers/source/lpc177x_8x_uart.c ****     {
 977:../src/lib/lpc177x_8x/Drivers/source/lpc177x_8x_uart.c ****         *IER &= (~tmp) & IERMask;
 2069              		.loc 1 977 0
 2070 0c88 3B69     		ldr	r3, [r7, #16]
 2071 0c8a 1A68     		ldr	r2, [r3, #0]
 2072 0c8c 7B69     		ldr	r3, [r7, #20]
 2073 0c8e 6FEA0301 		mvn	r1, r3
 2074 0c92 FB68     		ldr	r3, [r7, #12]
 2075 0c94 0B40     		ands	r3, r3, r1
 2076 0c96 1A40     		ands	r2, r2, r3
 2077 0c98 3B69     		ldr	r3, [r7, #16]
 2078 0c9a 1A60     		str	r2, [r3, #0]
 2079              	.L179:
 978:../src/lib/lpc177x_8x/Drivers/source/lpc177x_8x_uart.c ****     }
 979:../src/lib/lpc177x_8x/Drivers/source/lpc177x_8x_uart.c **** }
 2080              		.loc 1 979 0
 2081 0c9c 07F11C07 		add	r7, r7, #28
 2082 0ca0 BD46     		mov	sp, r7
 2083 0ca2 80BC     		pop	{r7}
 2084 0ca4 7047     		bx	lr
 2085              	.L199:
 2086 0ca6 00BF     		.align	2
 2087              	.L198:
 2088 0ca8 04C00040 		.word	1073790980
 2089 0cac 04000140 		.word	1073807364
 2090 0cb0 04800940 		.word	1074364420
 2091 0cb4 04C00940 		.word	1074380804
 2092 0cb8 04400A40 		.word	1074413572
 2093              		.cfi_endproc
 2094              	.LFE65:
 2096              		.align	2
 2097              		.global	UART_GetLineStatus
 2098              		.thumb
 2099              		.thumb_func
 2101              	UART_GetLineStatus:
 2102              	.LFB66:
 980:../src/lib/lpc177x_8x/Drivers/source/lpc177x_8x_uart.c **** 
 981:../src/lib/lpc177x_8x/Drivers/source/lpc177x_8x_uart.c **** 
 982:../src/lib/lpc177x_8x/Drivers/source/lpc177x_8x_uart.c **** /********************************************************************//**
 983:../src/lib/lpc177x_8x/Drivers/source/lpc177x_8x_uart.c ****  * @brief       Get current value of Line Status register in UART peripheral.
 984:../src/lib/lpc177x_8x/Drivers/source/lpc177x_8x_uart.c ****  * @param[in]   UARTx   UART peripheral selected, should be:
 985:../src/lib/lpc177x_8x/Drivers/source/lpc177x_8x_uart.c ****  *              - UART_0: UART0 peripheral
 986:../src/lib/lpc177x_8x/Drivers/source/lpc177x_8x_uart.c ****  *              - UART_1: UART1 peripheral
 987:../src/lib/lpc177x_8x/Drivers/source/lpc177x_8x_uart.c ****  *              - UART_2: UART2 peripheral
 988:../src/lib/lpc177x_8x/Drivers/source/lpc177x_8x_uart.c ****  *              - UART_3: UART3 peripheral
 989:../src/lib/lpc177x_8x/Drivers/source/lpc177x_8x_uart.c ****  *              - UART_4: UART4 peripheral
 990:../src/lib/lpc177x_8x/Drivers/source/lpc177x_8x_uart.c ****  * @return      Current value of Line Status register in UART peripheral.
 991:../src/lib/lpc177x_8x/Drivers/source/lpc177x_8x_uart.c ****  * Note:    The return value of this function must be ANDed with each member in
 992:../src/lib/lpc177x_8x/Drivers/source/lpc177x_8x_uart.c ****  *          UART_LS_Type enumeration to determine current flag status
 993:../src/lib/lpc177x_8x/Drivers/source/lpc177x_8x_uart.c ****  *          corresponding to each Line status type. Because some flags in
 994:../src/lib/lpc177x_8x/Drivers/source/lpc177x_8x_uart.c ****  *          Line Status register will be cleared after reading, the next reading
 995:../src/lib/lpc177x_8x/Drivers/source/lpc177x_8x_uart.c ****  *          Line Status register could not be correct. So this function used to
 996:../src/lib/lpc177x_8x/Drivers/source/lpc177x_8x_uart.c ****  *          read Line status register in one time only, then the return value
 997:../src/lib/lpc177x_8x/Drivers/source/lpc177x_8x_uart.c ****  *          used to check all flags.
 998:../src/lib/lpc177x_8x/Drivers/source/lpc177x_8x_uart.c ****  *********************************************************************/
 999:../src/lib/lpc177x_8x/Drivers/source/lpc177x_8x_uart.c **** uint8_t UART_GetLineStatus(UART_ID_Type UartID)
1000:../src/lib/lpc177x_8x/Drivers/source/lpc177x_8x_uart.c **** {
 2103              		.loc 1 1000 0
 2104              		.cfi_startproc
 2105              		@ args = 0, pretend = 0, frame = 8
 2106              		@ frame_needed = 1, uses_anonymous_args = 0
 2107              		@ link register save eliminated.
 2108 0cbc 80B4     		push	{r7}
 2109              	.LCFI33:
 2110              		.cfi_def_cfa_offset 4
 2111              		.cfi_offset 7, -4
 2112 0cbe 83B0     		sub	sp, sp, #12
 2113              	.LCFI34:
 2114              		.cfi_def_cfa_offset 16
 2115 0cc0 00AF     		add	r7, sp, #0
 2116              	.LCFI35:
 2117              		.cfi_def_cfa_register 7
 2118 0cc2 0346     		mov	r3, r0
 2119 0cc4 FB71     		strb	r3, [r7, #7]
1001:../src/lib/lpc177x_8x/Drivers/source/lpc177x_8x_uart.c ****     switch (UartID)
 2120              		.loc 1 1001 0
 2121 0cc6 FB79     		ldrb	r3, [r7, #7]	@ zero_extendqisi2
 2122 0cc8 042B     		cmp	r3, #4
 2123 0cca 21D8     		bhi	.L201
 2124 0ccc 01A2     		adr	r2, .L207
 2125 0cce 52F823F0 		ldr	pc, [r2, r3, lsl #2]
 2126 0cd2 00BF     		.align	2
 2127              	.L207:
 2128 0cd4 E90C0000 		.word	.L202+1
 2129 0cd8 F10C0000 		.word	.L203+1
 2130 0cdc F90C0000 		.word	.L204+1
 2131 0ce0 010D0000 		.word	.L205+1
 2132 0ce4 090D0000 		.word	.L206+1
 2133              	.L202:
1002:../src/lib/lpc177x_8x/Drivers/source/lpc177x_8x_uart.c ****     {
1003:../src/lib/lpc177x_8x/Drivers/source/lpc177x_8x_uart.c ****         case UART_0:
1004:../src/lib/lpc177x_8x/Drivers/source/lpc177x_8x_uart.c ****             return ((LPC_UART0->LSR) & UART_LSR_BITMASK);
 2134              		.loc 1 1004 0
 2135 0ce8 0D4B     		ldr	r3, .L209
 2136 0cea 1B7D     		ldrb	r3, [r3, #20]
 2137 0cec DBB2     		uxtb	r3, r3
 2138 0cee 11E0     		b	.L208
 2139              	.L203:
1005:../src/lib/lpc177x_8x/Drivers/source/lpc177x_8x_uart.c ****         case UART_1:
1006:../src/lib/lpc177x_8x/Drivers/source/lpc177x_8x_uart.c ****             return ((LPC_UART1->LSR) & UART_LSR_BITMASK);
 2140              		.loc 1 1006 0
 2141 0cf0 0C4B     		ldr	r3, .L209+4
 2142 0cf2 1B7D     		ldrb	r3, [r3, #20]
 2143 0cf4 DBB2     		uxtb	r3, r3
 2144 0cf6 0DE0     		b	.L208
 2145              	.L204:
1007:../src/lib/lpc177x_8x/Drivers/source/lpc177x_8x_uart.c ****         case UART_2:
1008:../src/lib/lpc177x_8x/Drivers/source/lpc177x_8x_uart.c ****             return ((LPC_UART2->LSR) & UART_LSR_BITMASK);
 2146              		.loc 1 1008 0
 2147 0cf8 0B4B     		ldr	r3, .L209+8
 2148 0cfa 1B7D     		ldrb	r3, [r3, #20]
 2149 0cfc DBB2     		uxtb	r3, r3
 2150 0cfe 09E0     		b	.L208
 2151              	.L205:
1009:../src/lib/lpc177x_8x/Drivers/source/lpc177x_8x_uart.c ****         case UART_3:
1010:../src/lib/lpc177x_8x/Drivers/source/lpc177x_8x_uart.c ****             return ((LPC_UART3->LSR) & UART_LSR_BITMASK);
 2152              		.loc 1 1010 0
 2153 0d00 0A4B     		ldr	r3, .L209+12
 2154 0d02 1B7D     		ldrb	r3, [r3, #20]
 2155 0d04 DBB2     		uxtb	r3, r3
 2156 0d06 05E0     		b	.L208
 2157              	.L206:
1011:../src/lib/lpc177x_8x/Drivers/source/lpc177x_8x_uart.c ****         case UART_4:
1012:../src/lib/lpc177x_8x/Drivers/source/lpc177x_8x_uart.c ****             return ((LPC_UART4->LSR) & UART_LSR_BITMASK);
 2158              		.loc 1 1012 0
 2159 0d08 094B     		ldr	r3, .L209+16
 2160 0d0a 5B69     		ldr	r3, [r3, #20]
 2161 0d0c DBB2     		uxtb	r3, r3
 2162 0d0e 01E0     		b	.L208
 2163              	.L201:
1013:../src/lib/lpc177x_8x/Drivers/source/lpc177x_8x_uart.c ****     }
1014:../src/lib/lpc177x_8x/Drivers/source/lpc177x_8x_uart.c ****     return 0;
 2164              		.loc 1 1014 0
 2165 0d10 4FF00003 		mov	r3, #0
 2166              	.L208:
1015:../src/lib/lpc177x_8x/Drivers/source/lpc177x_8x_uart.c **** }
 2167              		.loc 1 1015 0
 2168 0d14 1846     		mov	r0, r3
 2169 0d16 07F10C07 		add	r7, r7, #12
 2170 0d1a BD46     		mov	sp, r7
 2171 0d1c 80BC     		pop	{r7}
 2172 0d1e 7047     		bx	lr
 2173              	.L210:
 2174              		.align	2
 2175              	.L209:
 2176 0d20 00C00040 		.word	1073790976
 2177 0d24 00000140 		.word	1073807360
 2178 0d28 00800940 		.word	1074364416
 2179 0d2c 00C00940 		.word	1074380800
 2180 0d30 00400A40 		.word	1074413568
 2181              		.cfi_endproc
 2182              	.LFE66:
 2184              		.align	2
 2185              		.global	UART_GetIntId
 2186              		.thumb
 2187              		.thumb_func
 2189              	UART_GetIntId:
 2190              	.LFB67:
1016:../src/lib/lpc177x_8x/Drivers/source/lpc177x_8x_uart.c **** 
1017:../src/lib/lpc177x_8x/Drivers/source/lpc177x_8x_uart.c **** /********************************************************************//**
1018:../src/lib/lpc177x_8x/Drivers/source/lpc177x_8x_uart.c ****  * @brief       Get Interrupt Identification value
1019:../src/lib/lpc177x_8x/Drivers/source/lpc177x_8x_uart.c ****  * @param[in]   UARTx   UART peripheral selected, should be:
1020:../src/lib/lpc177x_8x/Drivers/source/lpc177x_8x_uart.c ****  *              - UART_0: UART0 peripheral
1021:../src/lib/lpc177x_8x/Drivers/source/lpc177x_8x_uart.c ****  *              - UART_1: UART1 peripheral
1022:../src/lib/lpc177x_8x/Drivers/source/lpc177x_8x_uart.c ****  *              - UART_2: UART2 peripheral
1023:../src/lib/lpc177x_8x/Drivers/source/lpc177x_8x_uart.c ****  *              - UART_3: UART3 peripheral
1024:../src/lib/lpc177x_8x/Drivers/source/lpc177x_8x_uart.c ****  *              - UART_4: UART4 peripheral
1025:../src/lib/lpc177x_8x/Drivers/source/lpc177x_8x_uart.c ****  * @return      Current value of UART UIIR register in UART peripheral.
1026:../src/lib/lpc177x_8x/Drivers/source/lpc177x_8x_uart.c ****  *********************************************************************/
1027:../src/lib/lpc177x_8x/Drivers/source/lpc177x_8x_uart.c **** uint32_t UART_GetIntId(UART_ID_Type UartID)
1028:../src/lib/lpc177x_8x/Drivers/source/lpc177x_8x_uart.c **** {
 2191              		.loc 1 1028 0
 2192              		.cfi_startproc
 2193              		@ args = 0, pretend = 0, frame = 8
 2194              		@ frame_needed = 1, uses_anonymous_args = 0
 2195              		@ link register save eliminated.
 2196 0d34 80B4     		push	{r7}
 2197              	.LCFI36:
 2198              		.cfi_def_cfa_offset 4
 2199              		.cfi_offset 7, -4
 2200 0d36 83B0     		sub	sp, sp, #12
 2201              	.LCFI37:
 2202              		.cfi_def_cfa_offset 16
 2203 0d38 00AF     		add	r7, sp, #0
 2204              	.LCFI38:
 2205              		.cfi_def_cfa_register 7
 2206 0d3a 0346     		mov	r3, r0
 2207 0d3c FB71     		strb	r3, [r7, #7]
1029:../src/lib/lpc177x_8x/Drivers/source/lpc177x_8x_uart.c ****     switch (UartID)
 2208              		.loc 1 1029 0
 2209 0d3e FB79     		ldrb	r3, [r7, #7]	@ zero_extendqisi2
 2210 0d40 042B     		cmp	r3, #4
 2211 0d42 2BD8     		bhi	.L212
 2212 0d44 01A2     		adr	r2, .L218
 2213 0d46 52F823F0 		ldr	pc, [r2, r3, lsl #2]
 2214 0d4a 00BF     		.align	2
 2215              	.L218:
 2216 0d4c 610D0000 		.word	.L213+1
 2217 0d50 6D0D0000 		.word	.L214+1
 2218 0d54 790D0000 		.word	.L215+1
 2219 0d58 850D0000 		.word	.L216+1
 2220 0d5c 910D0000 		.word	.L217+1
 2221              	.L213:
1030:../src/lib/lpc177x_8x/Drivers/source/lpc177x_8x_uart.c ****     {
1031:../src/lib/lpc177x_8x/Drivers/source/lpc177x_8x_uart.c ****         case UART_0:
1032:../src/lib/lpc177x_8x/Drivers/source/lpc177x_8x_uart.c ****             return ((LPC_UART0->IIR) & UART_IIR_BITMASK);
 2222              		.loc 1 1032 0
 2223 0d60 124B     		ldr	r3, .L220
 2224 0d62 9A68     		ldr	r2, [r3, #8]
 2225 0d64 40F2CF33 		movw	r3, #975
 2226 0d68 1340     		ands	r3, r3, r2
 2227 0d6a 19E0     		b	.L219
 2228              	.L214:
1033:../src/lib/lpc177x_8x/Drivers/source/lpc177x_8x_uart.c ****         case UART_1:
1034:../src/lib/lpc177x_8x/Drivers/source/lpc177x_8x_uart.c ****             return ((LPC_UART1->IIR) & UART_IIR_BITMASK);
 2229              		.loc 1 1034 0
 2230 0d6c 104B     		ldr	r3, .L220+4
 2231 0d6e 9A68     		ldr	r2, [r3, #8]
 2232 0d70 40F2CF33 		movw	r3, #975
 2233 0d74 1340     		ands	r3, r3, r2
 2234 0d76 13E0     		b	.L219
 2235              	.L215:
1035:../src/lib/lpc177x_8x/Drivers/source/lpc177x_8x_uart.c ****         case UART_2:
1036:../src/lib/lpc177x_8x/Drivers/source/lpc177x_8x_uart.c ****             return ((LPC_UART2->IIR) & UART_IIR_BITMASK);
 2236              		.loc 1 1036 0
 2237 0d78 0E4B     		ldr	r3, .L220+8
 2238 0d7a 9A68     		ldr	r2, [r3, #8]
 2239 0d7c 40F2CF33 		movw	r3, #975
 2240 0d80 1340     		ands	r3, r3, r2
 2241 0d82 0DE0     		b	.L219
 2242              	.L216:
1037:../src/lib/lpc177x_8x/Drivers/source/lpc177x_8x_uart.c ****         case UART_3:
1038:../src/lib/lpc177x_8x/Drivers/source/lpc177x_8x_uart.c ****             return ((LPC_UART3->IIR) & UART_IIR_BITMASK);
 2243              		.loc 1 1038 0
 2244 0d84 0C4B     		ldr	r3, .L220+12
 2245 0d86 9A68     		ldr	r2, [r3, #8]
 2246 0d88 40F2CF33 		movw	r3, #975
 2247 0d8c 1340     		ands	r3, r3, r2
 2248 0d8e 07E0     		b	.L219
 2249              	.L217:
1039:../src/lib/lpc177x_8x/Drivers/source/lpc177x_8x_uart.c ****         case UART_4:
1040:../src/lib/lpc177x_8x/Drivers/source/lpc177x_8x_uart.c ****             return ((LPC_UART4->IIR) & UART_IIR_BITMASK);
 2250              		.loc 1 1040 0
 2251 0d90 0A4B     		ldr	r3, .L220+16
 2252 0d92 9A68     		ldr	r2, [r3, #8]
 2253 0d94 40F2CF33 		movw	r3, #975
 2254 0d98 1340     		ands	r3, r3, r2
 2255 0d9a 01E0     		b	.L219
 2256              	.L212:
1041:../src/lib/lpc177x_8x/Drivers/source/lpc177x_8x_uart.c ****     }
1042:../src/lib/lpc177x_8x/Drivers/source/lpc177x_8x_uart.c ****     return 0;
 2257              		.loc 1 1042 0
 2258 0d9c 4FF00003 		mov	r3, #0
 2259              	.L219:
1043:../src/lib/lpc177x_8x/Drivers/source/lpc177x_8x_uart.c **** }
 2260              		.loc 1 1043 0
 2261 0da0 1846     		mov	r0, r3
 2262 0da2 07F10C07 		add	r7, r7, #12
 2263 0da6 BD46     		mov	sp, r7
 2264 0da8 80BC     		pop	{r7}
 2265 0daa 7047     		bx	lr
 2266              	.L221:
 2267              		.align	2
 2268              	.L220:
 2269 0dac 00C00040 		.word	1073790976
 2270 0db0 00000140 		.word	1073807360
 2271 0db4 00800940 		.word	1074364416
 2272 0db8 00C00940 		.word	1074380800
 2273 0dbc 00400A40 		.word	1074413568
 2274              		.cfi_endproc
 2275              	.LFE67:
 2277              		.align	2
 2278              		.global	UART_CheckBusy
 2279              		.thumb
 2280              		.thumb_func
 2282              	UART_CheckBusy:
 2283              	.LFB68:
1044:../src/lib/lpc177x_8x/Drivers/source/lpc177x_8x_uart.c **** 
1045:../src/lib/lpc177x_8x/Drivers/source/lpc177x_8x_uart.c **** /*********************************************************************//**
1046:../src/lib/lpc177x_8x/Drivers/source/lpc177x_8x_uart.c ****  * @brief       Check whether if UART is busy or not
1047:../src/lib/lpc177x_8x/Drivers/source/lpc177x_8x_uart.c ****  * @param[in]   UARTx   UART peripheral selected, should be:
1048:../src/lib/lpc177x_8x/Drivers/source/lpc177x_8x_uart.c ****  *              - UART_0: UART0 peripheral
1049:../src/lib/lpc177x_8x/Drivers/source/lpc177x_8x_uart.c ****  *              - UART_1: UART1 peripheral
1050:../src/lib/lpc177x_8x/Drivers/source/lpc177x_8x_uart.c ****  *              - UART_2: UART2 peripheral
1051:../src/lib/lpc177x_8x/Drivers/source/lpc177x_8x_uart.c ****  *              - UART_3: UART3 peripheral
1052:../src/lib/lpc177x_8x/Drivers/source/lpc177x_8x_uart.c ****  *              - UART_4: UART4 peripheral
1053:../src/lib/lpc177x_8x/Drivers/source/lpc177x_8x_uart.c ****  * @return      RESET if UART is not busy, otherwise return SET.
1054:../src/lib/lpc177x_8x/Drivers/source/lpc177x_8x_uart.c ****  **********************************************************************/
1055:../src/lib/lpc177x_8x/Drivers/source/lpc177x_8x_uart.c **** FlagStatus UART_CheckBusy(UART_ID_Type UartID)
1056:../src/lib/lpc177x_8x/Drivers/source/lpc177x_8x_uart.c **** {
 2284              		.loc 1 1056 0
 2285              		.cfi_startproc
 2286              		@ args = 0, pretend = 0, frame = 16
 2287              		@ frame_needed = 1, uses_anonymous_args = 0
 2288              		@ link register save eliminated.
 2289 0dc0 80B4     		push	{r7}
 2290              	.LCFI39:
 2291              		.cfi_def_cfa_offset 4
 2292              		.cfi_offset 7, -4
 2293 0dc2 85B0     		sub	sp, sp, #20
 2294              	.LCFI40:
 2295              		.cfi_def_cfa_offset 24
 2296 0dc4 00AF     		add	r7, sp, #0
 2297              	.LCFI41:
 2298              		.cfi_def_cfa_register 7
 2299 0dc6 0346     		mov	r3, r0
 2300 0dc8 FB71     		strb	r3, [r7, #7]
1057:../src/lib/lpc177x_8x/Drivers/source/lpc177x_8x_uart.c ****     uint32_t LSR = 0;
 2301              		.loc 1 1057 0
 2302 0dca 4FF00003 		mov	r3, #0
 2303 0dce FB60     		str	r3, [r7, #12]
1058:../src/lib/lpc177x_8x/Drivers/source/lpc177x_8x_uart.c ****     switch (UartID)
 2304              		.loc 1 1058 0
 2305 0dd0 FB79     		ldrb	r3, [r7, #7]	@ zero_extendqisi2
 2306 0dd2 042B     		cmp	r3, #4
 2307 0dd4 2ED8     		bhi	.L223
 2308 0dd6 01A2     		adr	r2, .L229
 2309 0dd8 52F823F0 		ldr	pc, [r2, r3, lsl #2]
 2310              		.align	2
 2311              	.L229:
 2312 0ddc F10D0000 		.word	.L224+1
 2313 0de0 FF0D0000 		.word	.L225+1
 2314 0de4 0D0E0000 		.word	.L226+1
 2315 0de8 1B0E0000 		.word	.L227+1
 2316 0dec 290E0000 		.word	.L228+1
 2317              	.L224:
1059:../src/lib/lpc177x_8x/Drivers/source/lpc177x_8x_uart.c ****     {
1060:../src/lib/lpc177x_8x/Drivers/source/lpc177x_8x_uart.c ****         case UART_0:
1061:../src/lib/lpc177x_8x/Drivers/source/lpc177x_8x_uart.c ****             LSR = (LPC_UART0)->LSR & UART_LSR_TEMT;
 2318              		.loc 1 1061 0
 2319 0df0 184B     		ldr	r3, .L232
 2320 0df2 1B7D     		ldrb	r3, [r3, #20]
 2321 0df4 DBB2     		uxtb	r3, r3
 2322 0df6 03F04003 		and	r3, r3, #64
 2323 0dfa FB60     		str	r3, [r7, #12]
1062:../src/lib/lpc177x_8x/Drivers/source/lpc177x_8x_uart.c ****             break;
 2324              		.loc 1 1062 0
 2325 0dfc 1AE0     		b	.L223
 2326              	.L225:
1063:../src/lib/lpc177x_8x/Drivers/source/lpc177x_8x_uart.c ****         case UART_1:
1064:../src/lib/lpc177x_8x/Drivers/source/lpc177x_8x_uart.c ****             LSR = (LPC_UART1)->LSR & UART_LSR_TEMT;
 2327              		.loc 1 1064 0
 2328 0dfe 164B     		ldr	r3, .L232+4
 2329 0e00 1B7D     		ldrb	r3, [r3, #20]
 2330 0e02 DBB2     		uxtb	r3, r3
 2331 0e04 03F04003 		and	r3, r3, #64
 2332 0e08 FB60     		str	r3, [r7, #12]
1065:../src/lib/lpc177x_8x/Drivers/source/lpc177x_8x_uart.c ****             break;
 2333              		.loc 1 1065 0
 2334 0e0a 13E0     		b	.L223
 2335              	.L226:
1066:../src/lib/lpc177x_8x/Drivers/source/lpc177x_8x_uart.c ****         case UART_2:
1067:../src/lib/lpc177x_8x/Drivers/source/lpc177x_8x_uart.c ****             LSR = (LPC_UART2)->LSR & UART_LSR_TEMT;
 2336              		.loc 1 1067 0
 2337 0e0c 134B     		ldr	r3, .L232+8
 2338 0e0e 1B7D     		ldrb	r3, [r3, #20]
 2339 0e10 DBB2     		uxtb	r3, r3
 2340 0e12 03F04003 		and	r3, r3, #64
 2341 0e16 FB60     		str	r3, [r7, #12]
1068:../src/lib/lpc177x_8x/Drivers/source/lpc177x_8x_uart.c ****             break;
 2342              		.loc 1 1068 0
 2343 0e18 0CE0     		b	.L223
 2344              	.L227:
1069:../src/lib/lpc177x_8x/Drivers/source/lpc177x_8x_uart.c ****         case UART_3:
1070:../src/lib/lpc177x_8x/Drivers/source/lpc177x_8x_uart.c ****             LSR = (LPC_UART3)->LSR & UART_LSR_TEMT;
 2345              		.loc 1 1070 0
 2346 0e1a 114B     		ldr	r3, .L232+12
 2347 0e1c 1B7D     		ldrb	r3, [r3, #20]
 2348 0e1e DBB2     		uxtb	r3, r3
 2349 0e20 03F04003 		and	r3, r3, #64
 2350 0e24 FB60     		str	r3, [r7, #12]
1071:../src/lib/lpc177x_8x/Drivers/source/lpc177x_8x_uart.c ****             break;
 2351              		.loc 1 1071 0
 2352 0e26 05E0     		b	.L223
 2353              	.L228:
1072:../src/lib/lpc177x_8x/Drivers/source/lpc177x_8x_uart.c ****         case UART_4:
1073:../src/lib/lpc177x_8x/Drivers/source/lpc177x_8x_uart.c ****             LSR = (LPC_UART4)->LSR & UART_LSR_TEMT;
 2354              		.loc 1 1073 0
 2355 0e28 0E4B     		ldr	r3, .L232+16
 2356 0e2a 5B69     		ldr	r3, [r3, #20]
 2357 0e2c 03F04003 		and	r3, r3, #64
 2358 0e30 FB60     		str	r3, [r7, #12]
1074:../src/lib/lpc177x_8x/Drivers/source/lpc177x_8x_uart.c ****             break;
 2359              		.loc 1 1074 0
 2360 0e32 00BF     		nop
 2361              	.L223:
1075:../src/lib/lpc177x_8x/Drivers/source/lpc177x_8x_uart.c ****     }
1076:../src/lib/lpc177x_8x/Drivers/source/lpc177x_8x_uart.c ****     
1077:../src/lib/lpc177x_8x/Drivers/source/lpc177x_8x_uart.c ****     if (LSR & UART_LSR_TEMT)
 2362              		.loc 1 1077 0
 2363 0e34 FB68     		ldr	r3, [r7, #12]
 2364 0e36 03F04003 		and	r3, r3, #64
 2365 0e3a 002B     		cmp	r3, #0
 2366 0e3c 02D0     		beq	.L230
1078:../src/lib/lpc177x_8x/Drivers/source/lpc177x_8x_uart.c ****     {
1079:../src/lib/lpc177x_8x/Drivers/source/lpc177x_8x_uart.c ****         return RESET;
 2367              		.loc 1 1079 0
 2368 0e3e 4FF00003 		mov	r3, #0
 2369 0e42 01E0     		b	.L231
 2370              	.L230:
1080:../src/lib/lpc177x_8x/Drivers/source/lpc177x_8x_uart.c ****     }
1081:../src/lib/lpc177x_8x/Drivers/source/lpc177x_8x_uart.c ****     return SET;
 2371              		.loc 1 1081 0
 2372 0e44 4FF00103 		mov	r3, #1
 2373              	.L231:
1082:../src/lib/lpc177x_8x/Drivers/source/lpc177x_8x_uart.c **** }
 2374              		.loc 1 1082 0
 2375 0e48 1846     		mov	r0, r3
 2376 0e4a 07F11407 		add	r7, r7, #20
 2377 0e4e BD46     		mov	sp, r7
 2378 0e50 80BC     		pop	{r7}
 2379 0e52 7047     		bx	lr
 2380              	.L233:
 2381              		.align	2
 2382              	.L232:
 2383 0e54 00C00040 		.word	1073790976
 2384 0e58 00000140 		.word	1073807360
 2385 0e5c 00800940 		.word	1074364416
 2386 0e60 00C00940 		.word	1074380800
 2387 0e64 00400A40 		.word	1074413568
 2388              		.cfi_endproc
 2389              	.LFE68:
 2391              		.align	2
 2392              		.global	UART_FIFOConfig
 2393              		.thumb
 2394              		.thumb_func
 2396              	UART_FIFOConfig:
 2397              	.LFB69:
1083:../src/lib/lpc177x_8x/Drivers/source/lpc177x_8x_uart.c **** 
1084:../src/lib/lpc177x_8x/Drivers/source/lpc177x_8x_uart.c **** 
1085:../src/lib/lpc177x_8x/Drivers/source/lpc177x_8x_uart.c **** /*********************************************************************//**
1086:../src/lib/lpc177x_8x/Drivers/source/lpc177x_8x_uart.c ****  * @brief       Configure FIFO function on selected UART peripheral
1087:../src/lib/lpc177x_8x/Drivers/source/lpc177x_8x_uart.c ****  * @param[in]   UARTx   UART peripheral selected, should be:
1088:../src/lib/lpc177x_8x/Drivers/source/lpc177x_8x_uart.c ****  *              - UART_0: UART0 peripheral
1089:../src/lib/lpc177x_8x/Drivers/source/lpc177x_8x_uart.c ****  *              - UART_1: UART1 peripheral
1090:../src/lib/lpc177x_8x/Drivers/source/lpc177x_8x_uart.c ****  *              - UART_2: UART2 peripheral
1091:../src/lib/lpc177x_8x/Drivers/source/lpc177x_8x_uart.c ****  *              - UART_3: UART3 peripheral
1092:../src/lib/lpc177x_8x/Drivers/source/lpc177x_8x_uart.c ****  *              - UART_4: UART4 peripheral
1093:../src/lib/lpc177x_8x/Drivers/source/lpc177x_8x_uart.c ****  * @param[in]   FIFOCfg Pointer to a UART_FIFO_CFG_Type Structure that
1094:../src/lib/lpc177x_8x/Drivers/source/lpc177x_8x_uart.c ****  *                      contains specified information about FIFO configuration
1095:../src/lib/lpc177x_8x/Drivers/source/lpc177x_8x_uart.c ****  * @return      none
1096:../src/lib/lpc177x_8x/Drivers/source/lpc177x_8x_uart.c ****  **********************************************************************/
1097:../src/lib/lpc177x_8x/Drivers/source/lpc177x_8x_uart.c **** void UART_FIFOConfig(UART_ID_Type UartID, UART_FIFO_CFG_Type *FIFOCfg)
1098:../src/lib/lpc177x_8x/Drivers/source/lpc177x_8x_uart.c **** {
 2398              		.loc 1 1098 0
 2399              		.cfi_startproc
 2400              		@ args = 0, pretend = 0, frame = 16
 2401              		@ frame_needed = 1, uses_anonymous_args = 0
 2402              		@ link register save eliminated.
 2403 0e68 80B4     		push	{r7}
 2404              	.LCFI42:
 2405              		.cfi_def_cfa_offset 4
 2406              		.cfi_offset 7, -4
 2407 0e6a 85B0     		sub	sp, sp, #20
 2408              	.LCFI43:
 2409              		.cfi_def_cfa_offset 24
 2410 0e6c 00AF     		add	r7, sp, #0
 2411              	.LCFI44:
 2412              		.cfi_def_cfa_register 7
 2413 0e6e 0346     		mov	r3, r0
 2414 0e70 3960     		str	r1, [r7, #0]
 2415 0e72 FB71     		strb	r3, [r7, #7]
1099:../src/lib/lpc177x_8x/Drivers/source/lpc177x_8x_uart.c ****     uint8_t tmp = 0;
 2416              		.loc 1 1099 0
 2417 0e74 4FF00003 		mov	r3, #0
 2418 0e78 FB73     		strb	r3, [r7, #15]
1100:../src/lib/lpc177x_8x/Drivers/source/lpc177x_8x_uart.c **** 
1101:../src/lib/lpc177x_8x/Drivers/source/lpc177x_8x_uart.c ****     tmp |= UART_FCR_FIFO_EN;
 2419              		.loc 1 1101 0
 2420 0e7a FB7B     		ldrb	r3, [r7, #15]
 2421 0e7c 43F00103 		orr	r3, r3, #1
 2422 0e80 FB73     		strb	r3, [r7, #15]
1102:../src/lib/lpc177x_8x/Drivers/source/lpc177x_8x_uart.c **** 
1103:../src/lib/lpc177x_8x/Drivers/source/lpc177x_8x_uart.c ****     switch (FIFOCfg->FIFO_Level)
 2423              		.loc 1 1103 0
 2424 0e82 3B68     		ldr	r3, [r7, #0]
 2425 0e84 DB78     		ldrb	r3, [r3, #3]	@ zero_extendqisi2
 2426 0e86 012B     		cmp	r3, #1
 2427 0e88 04D0     		beq	.L237
 2428 0e8a 022B     		cmp	r3, #2
 2429 0e8c 07D0     		beq	.L238
 2430 0e8e 002B     		cmp	r3, #0
 2431 0e90 0FD0     		beq	.L251
 2432 0e92 09E0     		b	.L250
 2433              	.L237:
1104:../src/lib/lpc177x_8x/Drivers/source/lpc177x_8x_uart.c ****     {
1105:../src/lib/lpc177x_8x/Drivers/source/lpc177x_8x_uart.c ****         case UART_FIFO_TRGLEV0:
1106:../src/lib/lpc177x_8x/Drivers/source/lpc177x_8x_uart.c ****             tmp |= UART_FCR_TRG_LEV0;
1107:../src/lib/lpc177x_8x/Drivers/source/lpc177x_8x_uart.c ****             break;
1108:../src/lib/lpc177x_8x/Drivers/source/lpc177x_8x_uart.c **** 
1109:../src/lib/lpc177x_8x/Drivers/source/lpc177x_8x_uart.c ****         case UART_FIFO_TRGLEV1:
1110:../src/lib/lpc177x_8x/Drivers/source/lpc177x_8x_uart.c ****             tmp |= UART_FCR_TRG_LEV1;
 2434              		.loc 1 1110 0
 2435 0e94 FB7B     		ldrb	r3, [r7, #15]
 2436 0e96 43F04003 		orr	r3, r3, #64
 2437 0e9a FB73     		strb	r3, [r7, #15]
1111:../src/lib/lpc177x_8x/Drivers/source/lpc177x_8x_uart.c ****             break;
 2438              		.loc 1 1111 0
 2439 0e9c 0AE0     		b	.L239
 2440              	.L238:
1112:../src/lib/lpc177x_8x/Drivers/source/lpc177x_8x_uart.c **** 
1113:../src/lib/lpc177x_8x/Drivers/source/lpc177x_8x_uart.c ****         case UART_FIFO_TRGLEV2:
1114:../src/lib/lpc177x_8x/Drivers/source/lpc177x_8x_uart.c ****             tmp |= UART_FCR_TRG_LEV2;
 2441              		.loc 1 1114 0
 2442 0e9e FB7B     		ldrb	r3, [r7, #15]
 2443 0ea0 63F07F03 		orn	r3, r3, #127
 2444 0ea4 FB73     		strb	r3, [r7, #15]
1115:../src/lib/lpc177x_8x/Drivers/source/lpc177x_8x_uart.c ****             break;
 2445              		.loc 1 1115 0
 2446 0ea6 05E0     		b	.L239
 2447              	.L250:
1116:../src/lib/lpc177x_8x/Drivers/source/lpc177x_8x_uart.c **** 
1117:../src/lib/lpc177x_8x/Drivers/source/lpc177x_8x_uart.c ****         case UART_FIFO_TRGLEV3:
1118:../src/lib/lpc177x_8x/Drivers/source/lpc177x_8x_uart.c **** 
1119:../src/lib/lpc177x_8x/Drivers/source/lpc177x_8x_uart.c ****         default:
1120:../src/lib/lpc177x_8x/Drivers/source/lpc177x_8x_uart.c ****             tmp |= UART_FCR_TRG_LEV3;
 2448              		.loc 1 1120 0
 2449 0ea8 FB7B     		ldrb	r3, [r7, #15]
 2450 0eaa 63F03F03 		orn	r3, r3, #63
 2451 0eae FB73     		strb	r3, [r7, #15]
1121:../src/lib/lpc177x_8x/Drivers/source/lpc177x_8x_uart.c ****             break;
 2452              		.loc 1 1121 0
 2453 0eb0 00E0     		b	.L239
 2454              	.L251:
1107:../src/lib/lpc177x_8x/Drivers/source/lpc177x_8x_uart.c ****             break;
 2455              		.loc 1 1107 0
 2456 0eb2 00BF     		nop
 2457              	.L239:
1122:../src/lib/lpc177x_8x/Drivers/source/lpc177x_8x_uart.c ****     }
1123:../src/lib/lpc177x_8x/Drivers/source/lpc177x_8x_uart.c **** 
1124:../src/lib/lpc177x_8x/Drivers/source/lpc177x_8x_uart.c ****     if (FIFOCfg->FIFO_ResetTxBuf == ENABLE)
 2458              		.loc 1 1124 0
 2459 0eb4 3B68     		ldr	r3, [r7, #0]
 2460 0eb6 5B78     		ldrb	r3, [r3, #1]	@ zero_extendqisi2
 2461 0eb8 012B     		cmp	r3, #1
 2462 0eba 03D1     		bne	.L240
1125:../src/lib/lpc177x_8x/Drivers/source/lpc177x_8x_uart.c ****     {
1126:../src/lib/lpc177x_8x/Drivers/source/lpc177x_8x_uart.c ****         tmp |= UART_FCR_TX_RS;
 2463              		.loc 1 1126 0
 2464 0ebc FB7B     		ldrb	r3, [r7, #15]
 2465 0ebe 43F00403 		orr	r3, r3, #4
 2466 0ec2 FB73     		strb	r3, [r7, #15]
 2467              	.L240:
1127:../src/lib/lpc177x_8x/Drivers/source/lpc177x_8x_uart.c ****     }
1128:../src/lib/lpc177x_8x/Drivers/source/lpc177x_8x_uart.c **** 
1129:../src/lib/lpc177x_8x/Drivers/source/lpc177x_8x_uart.c ****     if (FIFOCfg->FIFO_ResetRxBuf == ENABLE)
 2468              		.loc 1 1129 0
 2469 0ec4 3B68     		ldr	r3, [r7, #0]
 2470 0ec6 1B78     		ldrb	r3, [r3, #0]	@ zero_extendqisi2
 2471 0ec8 012B     		cmp	r3, #1
 2472 0eca 03D1     		bne	.L241
1130:../src/lib/lpc177x_8x/Drivers/source/lpc177x_8x_uart.c ****     {
1131:../src/lib/lpc177x_8x/Drivers/source/lpc177x_8x_uart.c ****         tmp |= UART_FCR_RX_RS;
 2473              		.loc 1 1131 0
 2474 0ecc FB7B     		ldrb	r3, [r7, #15]
 2475 0ece 43F00203 		orr	r3, r3, #2
 2476 0ed2 FB73     		strb	r3, [r7, #15]
 2477              	.L241:
1132:../src/lib/lpc177x_8x/Drivers/source/lpc177x_8x_uart.c ****     }
1133:../src/lib/lpc177x_8x/Drivers/source/lpc177x_8x_uart.c **** 
1134:../src/lib/lpc177x_8x/Drivers/source/lpc177x_8x_uart.c ****     if (FIFOCfg->FIFO_DMAMode == ENABLE)
 2478              		.loc 1 1134 0
 2479 0ed4 3B68     		ldr	r3, [r7, #0]
 2480 0ed6 9B78     		ldrb	r3, [r3, #2]	@ zero_extendqisi2
 2481 0ed8 012B     		cmp	r3, #1
 2482 0eda 03D1     		bne	.L242
1135:../src/lib/lpc177x_8x/Drivers/source/lpc177x_8x_uart.c ****     {
1136:../src/lib/lpc177x_8x/Drivers/source/lpc177x_8x_uart.c ****         tmp |= UART_FCR_DMAMODE_SEL;
 2483              		.loc 1 1136 0
 2484 0edc FB7B     		ldrb	r3, [r7, #15]
 2485 0ede 43F00803 		orr	r3, r3, #8
 2486 0ee2 FB73     		strb	r3, [r7, #15]
 2487              	.L242:
1137:../src/lib/lpc177x_8x/Drivers/source/lpc177x_8x_uart.c ****     }
1138:../src/lib/lpc177x_8x/Drivers/source/lpc177x_8x_uart.c **** 
1139:../src/lib/lpc177x_8x/Drivers/source/lpc177x_8x_uart.c **** 
1140:../src/lib/lpc177x_8x/Drivers/source/lpc177x_8x_uart.c ****     //write to FIFO control register
1141:../src/lib/lpc177x_8x/Drivers/source/lpc177x_8x_uart.c ****     switch (UartID)
 2488              		.loc 1 1141 0
 2489 0ee4 FB79     		ldrb	r3, [r7, #7]	@ zero_extendqisi2
 2490 0ee6 042B     		cmp	r3, #4
 2491 0ee8 2ED8     		bhi	.L234
 2492 0eea 01A2     		adr	r2, .L249
 2493 0eec 52F823F0 		ldr	pc, [r2, r3, lsl #2]
 2494              		.align	2
 2495              	.L249:
 2496 0ef0 050F0000 		.word	.L244+1
 2497 0ef4 130F0000 		.word	.L245+1
 2498 0ef8 210F0000 		.word	.L246+1
 2499 0efc 2F0F0000 		.word	.L247+1
 2500 0f00 3D0F0000 		.word	.L248+1
 2501              	.L244:
1142:../src/lib/lpc177x_8x/Drivers/source/lpc177x_8x_uart.c ****     {
1143:../src/lib/lpc177x_8x/Drivers/source/lpc177x_8x_uart.c ****         case UART_0:
1144:../src/lib/lpc177x_8x/Drivers/source/lpc177x_8x_uart.c ****             LPC_UART0->FCR = tmp & UART_FCR_BITMASK;
 2502              		.loc 1 1144 0
 2503 0f04 134B     		ldr	r3, .L252
 2504 0f06 FA7B     		ldrb	r2, [r7, #15]
 2505 0f08 22F03002 		bic	r2, r2, #48
 2506 0f0c D2B2     		uxtb	r2, r2
 2507 0f0e 1A72     		strb	r2, [r3, #8]
1145:../src/lib/lpc177x_8x/Drivers/source/lpc177x_8x_uart.c ****             break;
 2508              		.loc 1 1145 0
 2509 0f10 1AE0     		b	.L234
 2510              	.L245:
1146:../src/lib/lpc177x_8x/Drivers/source/lpc177x_8x_uart.c ****         case UART_1:
1147:../src/lib/lpc177x_8x/Drivers/source/lpc177x_8x_uart.c ****             LPC_UART1->FCR = tmp & UART_FCR_BITMASK;
 2511              		.loc 1 1147 0
 2512 0f12 114B     		ldr	r3, .L252+4
 2513 0f14 FA7B     		ldrb	r2, [r7, #15]
 2514 0f16 22F03002 		bic	r2, r2, #48
 2515 0f1a D2B2     		uxtb	r2, r2
 2516 0f1c 1A72     		strb	r2, [r3, #8]
1148:../src/lib/lpc177x_8x/Drivers/source/lpc177x_8x_uart.c ****             break;
 2517              		.loc 1 1148 0
 2518 0f1e 13E0     		b	.L234
 2519              	.L246:
1149:../src/lib/lpc177x_8x/Drivers/source/lpc177x_8x_uart.c ****         case UART_2:
1150:../src/lib/lpc177x_8x/Drivers/source/lpc177x_8x_uart.c ****             LPC_UART2->FCR = tmp & UART_FCR_BITMASK;
 2520              		.loc 1 1150 0
 2521 0f20 0E4B     		ldr	r3, .L252+8
 2522 0f22 FA7B     		ldrb	r2, [r7, #15]
 2523 0f24 22F03002 		bic	r2, r2, #48
 2524 0f28 D2B2     		uxtb	r2, r2
 2525 0f2a 1A72     		strb	r2, [r3, #8]
1151:../src/lib/lpc177x_8x/Drivers/source/lpc177x_8x_uart.c ****             break;
 2526              		.loc 1 1151 0
 2527 0f2c 0CE0     		b	.L234
 2528              	.L247:
1152:../src/lib/lpc177x_8x/Drivers/source/lpc177x_8x_uart.c ****         case UART_3:
1153:../src/lib/lpc177x_8x/Drivers/source/lpc177x_8x_uart.c ****             LPC_UART3->FCR = tmp & UART_FCR_BITMASK;
 2529              		.loc 1 1153 0
 2530 0f2e 0C4B     		ldr	r3, .L252+12
 2531 0f30 FA7B     		ldrb	r2, [r7, #15]
 2532 0f32 22F03002 		bic	r2, r2, #48
 2533 0f36 D2B2     		uxtb	r2, r2
 2534 0f38 1A72     		strb	r2, [r3, #8]
1154:../src/lib/lpc177x_8x/Drivers/source/lpc177x_8x_uart.c ****             break;
 2535              		.loc 1 1154 0
 2536 0f3a 05E0     		b	.L234
 2537              	.L248:
1155:../src/lib/lpc177x_8x/Drivers/source/lpc177x_8x_uart.c ****         case UART_4:
1156:../src/lib/lpc177x_8x/Drivers/source/lpc177x_8x_uart.c ****             LPC_UART4->FCR = tmp & UART_FCR_BITMASK;
 2538              		.loc 1 1156 0
 2539 0f3c 094B     		ldr	r3, .L252+16
 2540 0f3e FA7B     		ldrb	r2, [r7, #15]	@ zero_extendqisi2
 2541 0f40 02F0CF02 		and	r2, r2, #207
 2542 0f44 9A60     		str	r2, [r3, #8]
1157:../src/lib/lpc177x_8x/Drivers/source/lpc177x_8x_uart.c ****             break;
 2543              		.loc 1 1157 0
 2544 0f46 00BF     		nop
 2545              	.L234:
1158:../src/lib/lpc177x_8x/Drivers/source/lpc177x_8x_uart.c ****     }
1159:../src/lib/lpc177x_8x/Drivers/source/lpc177x_8x_uart.c **** }
 2546              		.loc 1 1159 0
 2547 0f48 07F11407 		add	r7, r7, #20
 2548 0f4c BD46     		mov	sp, r7
 2549 0f4e 80BC     		pop	{r7}
 2550 0f50 7047     		bx	lr
 2551              	.L253:
 2552 0f52 00BF     		.align	2
 2553              	.L252:
 2554 0f54 00C00040 		.word	1073790976
 2555 0f58 00000140 		.word	1073807360
 2556 0f5c 00800940 		.word	1074364416
 2557 0f60 00C00940 		.word	1074380800
 2558 0f64 00400A40 		.word	1074413568
 2559              		.cfi_endproc
 2560              	.LFE69:
 2562              		.align	2
 2563              		.global	UART_FIFOConfigStructInit
 2564              		.thumb
 2565              		.thumb_func
 2567              	UART_FIFOConfigStructInit:
 2568              	.LFB70:
1160:../src/lib/lpc177x_8x/Drivers/source/lpc177x_8x_uart.c **** 
1161:../src/lib/lpc177x_8x/Drivers/source/lpc177x_8x_uart.c **** /*****************************************************************************//**
1162:../src/lib/lpc177x_8x/Drivers/source/lpc177x_8x_uart.c **** * @brief        Fills each UART_FIFOInitStruct member with its default value:
1163:../src/lib/lpc177x_8x/Drivers/source/lpc177x_8x_uart.c **** *               - FIFO_DMAMode = DISABLE
1164:../src/lib/lpc177x_8x/Drivers/source/lpc177x_8x_uart.c **** *               - FIFO_Level = UART_FIFO_TRGLEV0
1165:../src/lib/lpc177x_8x/Drivers/source/lpc177x_8x_uart.c **** *               - FIFO_ResetRxBuf = ENABLE
1166:../src/lib/lpc177x_8x/Drivers/source/lpc177x_8x_uart.c **** *               - FIFO_ResetTxBuf = ENABLE
1167:../src/lib/lpc177x_8x/Drivers/source/lpc177x_8x_uart.c **** *               - FIFO_State = ENABLE
1168:../src/lib/lpc177x_8x/Drivers/source/lpc177x_8x_uart.c **** * @param[in]    UART_FIFOInitStruct Pointer to a UART_FIFO_CFG_Type structure
1169:../src/lib/lpc177x_8x/Drivers/source/lpc177x_8x_uart.c **** *                    which will be initialized.
1170:../src/lib/lpc177x_8x/Drivers/source/lpc177x_8x_uart.c **** * @return       None
1171:../src/lib/lpc177x_8x/Drivers/source/lpc177x_8x_uart.c **** *******************************************************************************/
1172:../src/lib/lpc177x_8x/Drivers/source/lpc177x_8x_uart.c **** void UART_FIFOConfigStructInit(UART_FIFO_CFG_Type *UART_FIFOInitStruct)
1173:../src/lib/lpc177x_8x/Drivers/source/lpc177x_8x_uart.c **** {
 2569              		.loc 1 1173 0
 2570              		.cfi_startproc
 2571              		@ args = 0, pretend = 0, frame = 8
 2572              		@ frame_needed = 1, uses_anonymous_args = 0
 2573              		@ link register save eliminated.
 2574 0f68 80B4     		push	{r7}
 2575              	.LCFI45:
 2576              		.cfi_def_cfa_offset 4
 2577              		.cfi_offset 7, -4
 2578 0f6a 83B0     		sub	sp, sp, #12
 2579              	.LCFI46:
 2580              		.cfi_def_cfa_offset 16
 2581 0f6c 00AF     		add	r7, sp, #0
 2582              	.LCFI47:
 2583              		.cfi_def_cfa_register 7
 2584 0f6e 7860     		str	r0, [r7, #4]
1174:../src/lib/lpc177x_8x/Drivers/source/lpc177x_8x_uart.c ****     UART_FIFOInitStruct->FIFO_DMAMode = DISABLE;
 2585              		.loc 1 1174 0
 2586 0f70 7B68     		ldr	r3, [r7, #4]
 2587 0f72 4FF00002 		mov	r2, #0
 2588 0f76 9A70     		strb	r2, [r3, #2]
1175:../src/lib/lpc177x_8x/Drivers/source/lpc177x_8x_uart.c **** 
1176:../src/lib/lpc177x_8x/Drivers/source/lpc177x_8x_uart.c ****     UART_FIFOInitStruct->FIFO_Level = UART_FIFO_TRGLEV0;
 2589              		.loc 1 1176 0
 2590 0f78 7B68     		ldr	r3, [r7, #4]
 2591 0f7a 4FF00002 		mov	r2, #0
 2592 0f7e DA70     		strb	r2, [r3, #3]
1177:../src/lib/lpc177x_8x/Drivers/source/lpc177x_8x_uart.c **** 
1178:../src/lib/lpc177x_8x/Drivers/source/lpc177x_8x_uart.c ****     UART_FIFOInitStruct->FIFO_ResetRxBuf = ENABLE;
 2593              		.loc 1 1178 0
 2594 0f80 7B68     		ldr	r3, [r7, #4]
 2595 0f82 4FF00102 		mov	r2, #1
 2596 0f86 1A70     		strb	r2, [r3, #0]
1179:../src/lib/lpc177x_8x/Drivers/source/lpc177x_8x_uart.c **** 
1180:../src/lib/lpc177x_8x/Drivers/source/lpc177x_8x_uart.c ****     UART_FIFOInitStruct->FIFO_ResetTxBuf = ENABLE;
 2597              		.loc 1 1180 0
 2598 0f88 7B68     		ldr	r3, [r7, #4]
 2599 0f8a 4FF00102 		mov	r2, #1
 2600 0f8e 5A70     		strb	r2, [r3, #1]
1181:../src/lib/lpc177x_8x/Drivers/source/lpc177x_8x_uart.c **** }
 2601              		.loc 1 1181 0
 2602 0f90 07F10C07 		add	r7, r7, #12
 2603 0f94 BD46     		mov	sp, r7
 2604 0f96 80BC     		pop	{r7}
 2605 0f98 7047     		bx	lr
 2606              		.cfi_endproc
 2607              	.LFE70:
 2609 0f9a 00BF     		.align	2
 2610              		.global	UART_ABCmd
 2611              		.thumb
 2612              		.thumb_func
 2614              	UART_ABCmd:
 2615              	.LFB71:
1182:../src/lib/lpc177x_8x/Drivers/source/lpc177x_8x_uart.c **** 
1183:../src/lib/lpc177x_8x/Drivers/source/lpc177x_8x_uart.c **** 
1184:../src/lib/lpc177x_8x/Drivers/source/lpc177x_8x_uart.c **** /*********************************************************************//**
1185:../src/lib/lpc177x_8x/Drivers/source/lpc177x_8x_uart.c ****  * @brief       Start/Stop Auto Baudrate activity
1186:../src/lib/lpc177x_8x/Drivers/source/lpc177x_8x_uart.c ****  * @param[in]   UARTx   UART peripheral selected, should be
1187:../src/lib/lpc177x_8x/Drivers/source/lpc177x_8x_uart.c ****  *              - UART_0: UART0 peripheral
1188:../src/lib/lpc177x_8x/Drivers/source/lpc177x_8x_uart.c ****  *              - UART_1: UART1 peripheral
1189:../src/lib/lpc177x_8x/Drivers/source/lpc177x_8x_uart.c ****  *              - UART_2: UART2 peripheral
1190:../src/lib/lpc177x_8x/Drivers/source/lpc177x_8x_uart.c ****  *              - UART_3: UART3 peripheral
1191:../src/lib/lpc177x_8x/Drivers/source/lpc177x_8x_uart.c ****  *              - UART_4: UART4 peripheral
1192:../src/lib/lpc177x_8x/Drivers/source/lpc177x_8x_uart.c ****  * @param[in]   ABConfigStruct  A pointer to UART_AB_CFG_Type structure that
1193:../src/lib/lpc177x_8x/Drivers/source/lpc177x_8x_uart.c ****  *                              contains specified information about UART
1194:../src/lib/lpc177x_8x/Drivers/source/lpc177x_8x_uart.c ****  *                              auto baudrate configuration
1195:../src/lib/lpc177x_8x/Drivers/source/lpc177x_8x_uart.c ****  * @param[in]   NewState New State of Auto baudrate activity, should be:
1196:../src/lib/lpc177x_8x/Drivers/source/lpc177x_8x_uart.c ****  *              - ENABLE: Start this activity
1197:../src/lib/lpc177x_8x/Drivers/source/lpc177x_8x_uart.c ****  *              - DISABLE: Stop this activity
1198:../src/lib/lpc177x_8x/Drivers/source/lpc177x_8x_uart.c ****  * Note:        Auto-baudrate mode enable bit will be cleared once this mode
1199:../src/lib/lpc177x_8x/Drivers/source/lpc177x_8x_uart.c ****  *              completed.
1200:../src/lib/lpc177x_8x/Drivers/source/lpc177x_8x_uart.c ****  * @return      none
1201:../src/lib/lpc177x_8x/Drivers/source/lpc177x_8x_uart.c ****  **********************************************************************/
1202:../src/lib/lpc177x_8x/Drivers/source/lpc177x_8x_uart.c **** void UART_ABCmd(UART_ID_Type UartID, UART_AB_CFG_Type *ABConfigStruct,
1203:../src/lib/lpc177x_8x/Drivers/source/lpc177x_8x_uart.c ****                             FunctionalState NewState)
1204:../src/lib/lpc177x_8x/Drivers/source/lpc177x_8x_uart.c **** {
 2616              		.loc 1 1204 0
 2617              		.cfi_startproc
 2618              		@ args = 0, pretend = 0, frame = 16
 2619              		@ frame_needed = 1, uses_anonymous_args = 0
 2620 0f9c 80B5     		push	{r7, lr}
 2621              	.LCFI48:
 2622              		.cfi_def_cfa_offset 8
 2623              		.cfi_offset 7, -8
 2624              		.cfi_offset 14, -4
 2625 0f9e 84B0     		sub	sp, sp, #16
 2626              	.LCFI49:
 2627              		.cfi_def_cfa_offset 24
 2628 0fa0 00AF     		add	r7, sp, #0
 2629              	.LCFI50:
 2630              		.cfi_def_cfa_register 7
 2631 0fa2 3960     		str	r1, [r7, #0]
 2632 0fa4 1346     		mov	r3, r2
 2633 0fa6 0246     		mov	r2, r0
 2634 0fa8 FA71     		strb	r2, [r7, #7]
 2635 0faa BB71     		strb	r3, [r7, #6]
1205:../src/lib/lpc177x_8x/Drivers/source/lpc177x_8x_uart.c ****     uint32_t tmp;
1206:../src/lib/lpc177x_8x/Drivers/source/lpc177x_8x_uart.c **** 
1207:../src/lib/lpc177x_8x/Drivers/source/lpc177x_8x_uart.c ****     tmp = 0;
 2636              		.loc 1 1207 0
 2637 0fac 4FF00003 		mov	r3, #0
 2638 0fb0 FB60     		str	r3, [r7, #12]
1208:../src/lib/lpc177x_8x/Drivers/source/lpc177x_8x_uart.c ****     if (NewState == ENABLE)
 2639              		.loc 1 1208 0
 2640 0fb2 BB79     		ldrb	r3, [r7, #6]	@ zero_extendqisi2
 2641 0fb4 012B     		cmp	r3, #1
 2642 0fb6 0FD1     		bne	.L256
1209:../src/lib/lpc177x_8x/Drivers/source/lpc177x_8x_uart.c ****     {
1210:../src/lib/lpc177x_8x/Drivers/source/lpc177x_8x_uart.c ****         if (ABConfigStruct->ABMode == UART_AUTOBAUD_MODE1)
 2643              		.loc 1 1210 0
 2644 0fb8 3B68     		ldr	r3, [r7, #0]
 2645 0fba 1B78     		ldrb	r3, [r3, #0]	@ zero_extendqisi2
 2646 0fbc 012B     		cmp	r3, #1
 2647 0fbe 03D1     		bne	.L257
1211:../src/lib/lpc177x_8x/Drivers/source/lpc177x_8x_uart.c ****         {
1212:../src/lib/lpc177x_8x/Drivers/source/lpc177x_8x_uart.c ****             tmp |= UART_ACR_MODE;
 2648              		.loc 1 1212 0
 2649 0fc0 FB68     		ldr	r3, [r7, #12]
 2650 0fc2 43F00203 		orr	r3, r3, #2
 2651 0fc6 FB60     		str	r3, [r7, #12]
 2652              	.L257:
1213:../src/lib/lpc177x_8x/Drivers/source/lpc177x_8x_uart.c ****         }
1214:../src/lib/lpc177x_8x/Drivers/source/lpc177x_8x_uart.c ****         if (ABConfigStruct->AutoRestart == ENABLE)
 2653              		.loc 1 1214 0
 2654 0fc8 3B68     		ldr	r3, [r7, #0]
 2655 0fca 5B78     		ldrb	r3, [r3, #1]	@ zero_extendqisi2
 2656 0fcc 012B     		cmp	r3, #1
 2657 0fce 03D1     		bne	.L256
1215:../src/lib/lpc177x_8x/Drivers/source/lpc177x_8x_uart.c ****         {
1216:../src/lib/lpc177x_8x/Drivers/source/lpc177x_8x_uart.c ****             tmp |= UART_ACR_AUTO_RESTART;
 2658              		.loc 1 1216 0
 2659 0fd0 FB68     		ldr	r3, [r7, #12]
 2660 0fd2 43F00403 		orr	r3, r3, #4
 2661 0fd6 FB60     		str	r3, [r7, #12]
 2662              	.L256:
1217:../src/lib/lpc177x_8x/Drivers/source/lpc177x_8x_uart.c ****         }
1218:../src/lib/lpc177x_8x/Drivers/source/lpc177x_8x_uart.c ****     }
1219:../src/lib/lpc177x_8x/Drivers/source/lpc177x_8x_uart.c **** 
1220:../src/lib/lpc177x_8x/Drivers/source/lpc177x_8x_uart.c ****     if (UartID == UART_1)
 2663              		.loc 1 1220 0
 2664 0fd8 FB79     		ldrb	r3, [r7, #7]	@ zero_extendqisi2
 2665 0fda 012B     		cmp	r3, #1
 2666 0fdc 29D1     		bne	.L258
1221:../src/lib/lpc177x_8x/Drivers/source/lpc177x_8x_uart.c ****     {
1222:../src/lib/lpc177x_8x/Drivers/source/lpc177x_8x_uart.c ****         if (NewState == ENABLE)
 2667              		.loc 1 1222 0
 2668 0fde BB79     		ldrb	r3, [r7, #6]	@ zero_extendqisi2
 2669 0fe0 012B     		cmp	r3, #1
 2670 0fe2 21D1     		bne	.L259
1223:../src/lib/lpc177x_8x/Drivers/source/lpc177x_8x_uart.c ****         {
1224:../src/lib/lpc177x_8x/Drivers/source/lpc177x_8x_uart.c ****             // Clear DLL and DLM value
1225:../src/lib/lpc177x_8x/Drivers/source/lpc177x_8x_uart.c ****             LPC_UART1->LCR |= UART_LCR_DLAB_EN;
 2671              		.loc 1 1225 0
 2672 0fe4 414B     		ldr	r3, .L264
 2673 0fe6 414A     		ldr	r2, .L264
 2674 0fe8 127B     		ldrb	r2, [r2, #12]
 2675 0fea D2B2     		uxtb	r2, r2
 2676 0fec 62F07F02 		orn	r2, r2, #127
 2677 0ff0 D2B2     		uxtb	r2, r2
 2678 0ff2 1A73     		strb	r2, [r3, #12]
1226:../src/lib/lpc177x_8x/Drivers/source/lpc177x_8x_uart.c **** 
1227:../src/lib/lpc177x_8x/Drivers/source/lpc177x_8x_uart.c ****             LPC_UART1->DLL = 0;
 2679              		.loc 1 1227 0
 2680 0ff4 3D4B     		ldr	r3, .L264
 2681 0ff6 4FF00002 		mov	r2, #0
 2682 0ffa 1A70     		strb	r2, [r3, #0]
1228:../src/lib/lpc177x_8x/Drivers/source/lpc177x_8x_uart.c **** 
1229:../src/lib/lpc177x_8x/Drivers/source/lpc177x_8x_uart.c ****             LPC_UART1->DLM = 0;
 2683              		.loc 1 1229 0
 2684 0ffc 3B4B     		ldr	r3, .L264
 2685 0ffe 4FF00002 		mov	r2, #0
 2686 1002 1A71     		strb	r2, [r3, #4]
1230:../src/lib/lpc177x_8x/Drivers/source/lpc177x_8x_uart.c **** 
1231:../src/lib/lpc177x_8x/Drivers/source/lpc177x_8x_uart.c ****             LPC_UART1->LCR &= ~UART_LCR_DLAB_EN;
 2687              		.loc 1 1231 0
 2688 1004 394B     		ldr	r3, .L264
 2689 1006 394A     		ldr	r2, .L264
 2690 1008 127B     		ldrb	r2, [r2, #12]
 2691 100a D2B2     		uxtb	r2, r2
 2692 100c 02F07F02 		and	r2, r2, #127
 2693 1010 D2B2     		uxtb	r2, r2
 2694 1012 1A73     		strb	r2, [r3, #12]
1232:../src/lib/lpc177x_8x/Drivers/source/lpc177x_8x_uart.c **** 
1233:../src/lib/lpc177x_8x/Drivers/source/lpc177x_8x_uart.c ****             // FDR value must be reset to default value
1234:../src/lib/lpc177x_8x/Drivers/source/lpc177x_8x_uart.c ****             LPC_UART1->FDR = 0x10;
 2695              		.loc 1 1234 0
 2696 1014 354B     		ldr	r3, .L264
 2697 1016 4FF01002 		mov	r2, #16
 2698 101a 9A62     		str	r2, [r3, #40]
1235:../src/lib/lpc177x_8x/Drivers/source/lpc177x_8x_uart.c **** 
1236:../src/lib/lpc177x_8x/Drivers/source/lpc177x_8x_uart.c ****             LPC_UART1->ACR = UART_ACR_START | tmp;
 2699              		.loc 1 1236 0
 2700 101c 334B     		ldr	r3, .L264
 2701 101e FA68     		ldr	r2, [r7, #12]
 2702 1020 42F00102 		orr	r2, r2, #1
 2703 1024 1A62     		str	r2, [r3, #32]
 2704 1026 5CE0     		b	.L255
 2705              	.L259:
1237:../src/lib/lpc177x_8x/Drivers/source/lpc177x_8x_uart.c ****         }
1238:../src/lib/lpc177x_8x/Drivers/source/lpc177x_8x_uart.c ****         else
1239:../src/lib/lpc177x_8x/Drivers/source/lpc177x_8x_uart.c ****         {
1240:../src/lib/lpc177x_8x/Drivers/source/lpc177x_8x_uart.c ****             LPC_UART1->ACR = 0;
 2706              		.loc 1 1240 0
 2707 1028 304B     		ldr	r3, .L264
 2708 102a 4FF00002 		mov	r2, #0
 2709 102e 1A62     		str	r2, [r3, #32]
 2710 1030 57E0     		b	.L255
 2711              	.L258:
1241:../src/lib/lpc177x_8x/Drivers/source/lpc177x_8x_uart.c ****         }
1242:../src/lib/lpc177x_8x/Drivers/source/lpc177x_8x_uart.c ****     }
1243:../src/lib/lpc177x_8x/Drivers/source/lpc177x_8x_uart.c ****     else if (UartID == UART_4)
 2712              		.loc 1 1243 0
 2713 1032 FB79     		ldrb	r3, [r7, #7]	@ zero_extendqisi2
 2714 1034 042B     		cmp	r3, #4
 2715 1036 25D1     		bne	.L261
1244:../src/lib/lpc177x_8x/Drivers/source/lpc177x_8x_uart.c ****     {
1245:../src/lib/lpc177x_8x/Drivers/source/lpc177x_8x_uart.c ****         if (NewState == ENABLE)
 2716              		.loc 1 1245 0
 2717 1038 BB79     		ldrb	r3, [r7, #6]	@ zero_extendqisi2
 2718 103a 012B     		cmp	r3, #1
 2719 103c 1DD1     		bne	.L262
1246:../src/lib/lpc177x_8x/Drivers/source/lpc177x_8x_uart.c ****         {
1247:../src/lib/lpc177x_8x/Drivers/source/lpc177x_8x_uart.c ****             // Clear DLL and DLM value
1248:../src/lib/lpc177x_8x/Drivers/source/lpc177x_8x_uart.c ****             LPC_UART4->LCR |= UART_LCR_DLAB_EN;
 2720              		.loc 1 1248 0
 2721 103e 2C4B     		ldr	r3, .L264+4
 2722 1040 2B4A     		ldr	r2, .L264+4
 2723 1042 D268     		ldr	r2, [r2, #12]
 2724 1044 42F08002 		orr	r2, r2, #128
 2725 1048 DA60     		str	r2, [r3, #12]
1249:../src/lib/lpc177x_8x/Drivers/source/lpc177x_8x_uart.c **** 
1250:../src/lib/lpc177x_8x/Drivers/source/lpc177x_8x_uart.c ****             LPC_UART4->DLL = 0;
 2726              		.loc 1 1250 0
 2727 104a 294B     		ldr	r3, .L264+4
 2728 104c 4FF00002 		mov	r2, #0
 2729 1050 1A60     		str	r2, [r3, #0]
1251:../src/lib/lpc177x_8x/Drivers/source/lpc177x_8x_uart.c **** 
1252:../src/lib/lpc177x_8x/Drivers/source/lpc177x_8x_uart.c ****             LPC_UART4->DLM = 0;
 2730              		.loc 1 1252 0
 2731 1052 274B     		ldr	r3, .L264+4
 2732 1054 4FF00002 		mov	r2, #0
 2733 1058 5A60     		str	r2, [r3, #4]
1253:../src/lib/lpc177x_8x/Drivers/source/lpc177x_8x_uart.c **** 
1254:../src/lib/lpc177x_8x/Drivers/source/lpc177x_8x_uart.c ****             LPC_UART4->LCR &= ~UART_LCR_DLAB_EN;
 2734              		.loc 1 1254 0
 2735 105a 254B     		ldr	r3, .L264+4
 2736 105c 244A     		ldr	r2, .L264+4
 2737 105e D268     		ldr	r2, [r2, #12]
 2738 1060 22F08002 		bic	r2, r2, #128
 2739 1064 DA60     		str	r2, [r3, #12]
1255:../src/lib/lpc177x_8x/Drivers/source/lpc177x_8x_uart.c **** 
1256:../src/lib/lpc177x_8x/Drivers/source/lpc177x_8x_uart.c ****             // FDR value must be reset to default value
1257:../src/lib/lpc177x_8x/Drivers/source/lpc177x_8x_uart.c ****             LPC_UART4->FDR = 0x10;
 2740              		.loc 1 1257 0
 2741 1066 224B     		ldr	r3, .L264+4
 2742 1068 4FF01002 		mov	r2, #16
 2743 106c 9A62     		str	r2, [r3, #40]
1258:../src/lib/lpc177x_8x/Drivers/source/lpc177x_8x_uart.c **** 
1259:../src/lib/lpc177x_8x/Drivers/source/lpc177x_8x_uart.c ****             LPC_UART4->ACR = UART_ACR_START | tmp;
 2744              		.loc 1 1259 0
 2745 106e 204B     		ldr	r3, .L264+4
 2746 1070 FA68     		ldr	r2, [r7, #12]
 2747 1072 42F00102 		orr	r2, r2, #1
 2748 1076 1A62     		str	r2, [r3, #32]
 2749 1078 33E0     		b	.L255
 2750              	.L262:
1260:../src/lib/lpc177x_8x/Drivers/source/lpc177x_8x_uart.c ****         }
1261:../src/lib/lpc177x_8x/Drivers/source/lpc177x_8x_uart.c ****         else
1262:../src/lib/lpc177x_8x/Drivers/source/lpc177x_8x_uart.c ****         {
1263:../src/lib/lpc177x_8x/Drivers/source/lpc177x_8x_uart.c ****             LPC_UART4->ACR = 0;
 2751              		.loc 1 1263 0
 2752 107a 1D4B     		ldr	r3, .L264+4
 2753 107c 4FF00002 		mov	r2, #0
 2754 1080 1A62     		str	r2, [r3, #32]
 2755 1082 2EE0     		b	.L255
 2756              	.L261:
 2757              	.LBB6:
1264:../src/lib/lpc177x_8x/Drivers/source/lpc177x_8x_uart.c ****         }
1265:../src/lib/lpc177x_8x/Drivers/source/lpc177x_8x_uart.c ****     }
1266:../src/lib/lpc177x_8x/Drivers/source/lpc177x_8x_uart.c ****     else
1267:../src/lib/lpc177x_8x/Drivers/source/lpc177x_8x_uart.c ****     {
1268:../src/lib/lpc177x_8x/Drivers/source/lpc177x_8x_uart.c ****         LPC_UART_TypeDef *UARTx = uart_get_pointer(UartID);
 2758              		.loc 1 1268 0
 2759 1084 FB79     		ldrb	r3, [r7, #7]	@ zero_extendqisi2
 2760 1086 1846     		mov	r0, r3
 2761 1088 FFF744F9 		bl	uart_get_pointer
 2762 108c B860     		str	r0, [r7, #8]
1269:../src/lib/lpc177x_8x/Drivers/source/lpc177x_8x_uart.c ****         if (NewState == ENABLE)
 2763              		.loc 1 1269 0
 2764 108e BB79     		ldrb	r3, [r7, #6]	@ zero_extendqisi2
 2765 1090 012B     		cmp	r3, #1
 2766 1092 22D1     		bne	.L263
1270:../src/lib/lpc177x_8x/Drivers/source/lpc177x_8x_uart.c ****         {
1271:../src/lib/lpc177x_8x/Drivers/source/lpc177x_8x_uart.c ****             // Clear DLL and DLM value
1272:../src/lib/lpc177x_8x/Drivers/source/lpc177x_8x_uart.c ****             UARTx->LCR |= UART_LCR_DLAB_EN;
 2767              		.loc 1 1272 0
 2768 1094 BB68     		ldr	r3, [r7, #8]
 2769 1096 1B7B     		ldrb	r3, [r3, #12]
 2770 1098 DBB2     		uxtb	r3, r3
 2771 109a 63F07F03 		orn	r3, r3, #127
 2772 109e DAB2     		uxtb	r2, r3
 2773 10a0 BB68     		ldr	r3, [r7, #8]
 2774 10a2 1A73     		strb	r2, [r3, #12]
1273:../src/lib/lpc177x_8x/Drivers/source/lpc177x_8x_uart.c **** 
1274:../src/lib/lpc177x_8x/Drivers/source/lpc177x_8x_uart.c ****             UARTx->DLL = 0;
 2775              		.loc 1 1274 0
 2776 10a4 BB68     		ldr	r3, [r7, #8]
 2777 10a6 4FF00002 		mov	r2, #0
 2778 10aa 1A70     		strb	r2, [r3, #0]
1275:../src/lib/lpc177x_8x/Drivers/source/lpc177x_8x_uart.c **** 
1276:../src/lib/lpc177x_8x/Drivers/source/lpc177x_8x_uart.c ****             UARTx->DLM = 0;
 2779              		.loc 1 1276 0
 2780 10ac BB68     		ldr	r3, [r7, #8]
 2781 10ae 4FF00002 		mov	r2, #0
 2782 10b2 1A71     		strb	r2, [r3, #4]
1277:../src/lib/lpc177x_8x/Drivers/source/lpc177x_8x_uart.c **** 
1278:../src/lib/lpc177x_8x/Drivers/source/lpc177x_8x_uart.c ****             UARTx->LCR &= ~UART_LCR_DLAB_EN;
 2783              		.loc 1 1278 0
 2784 10b4 BB68     		ldr	r3, [r7, #8]
 2785 10b6 1B7B     		ldrb	r3, [r3, #12]
 2786 10b8 DBB2     		uxtb	r3, r3
 2787 10ba 03F07F03 		and	r3, r3, #127
 2788 10be DAB2     		uxtb	r2, r3
 2789 10c0 BB68     		ldr	r3, [r7, #8]
 2790 10c2 1A73     		strb	r2, [r3, #12]
1279:../src/lib/lpc177x_8x/Drivers/source/lpc177x_8x_uart.c **** 
1280:../src/lib/lpc177x_8x/Drivers/source/lpc177x_8x_uart.c ****             // FDR value must be reset to default value
1281:../src/lib/lpc177x_8x/Drivers/source/lpc177x_8x_uart.c ****             UARTx->FDR = 0x10;
 2791              		.loc 1 1281 0
 2792 10c4 BB68     		ldr	r3, [r7, #8]
 2793 10c6 4FF01002 		mov	r2, #16
 2794 10ca 83F82820 		strb	r2, [r3, #40]
1282:../src/lib/lpc177x_8x/Drivers/source/lpc177x_8x_uart.c **** 
1283:../src/lib/lpc177x_8x/Drivers/source/lpc177x_8x_uart.c ****             UARTx->ACR = UART_ACR_START | tmp;
 2795              		.loc 1 1283 0
 2796 10ce FB68     		ldr	r3, [r7, #12]
 2797 10d0 43F00102 		orr	r2, r3, #1
 2798 10d4 BB68     		ldr	r3, [r7, #8]
 2799 10d6 1A62     		str	r2, [r3, #32]
 2800 10d8 03E0     		b	.L255
 2801              	.L263:
1284:../src/lib/lpc177x_8x/Drivers/source/lpc177x_8x_uart.c ****         }
1285:../src/lib/lpc177x_8x/Drivers/source/lpc177x_8x_uart.c ****         else
1286:../src/lib/lpc177x_8x/Drivers/source/lpc177x_8x_uart.c ****         {
1287:../src/lib/lpc177x_8x/Drivers/source/lpc177x_8x_uart.c ****             UARTx->ACR = 0;
 2802              		.loc 1 1287 0
 2803 10da BB68     		ldr	r3, [r7, #8]
 2804 10dc 4FF00002 		mov	r2, #0
 2805 10e0 1A62     		str	r2, [r3, #32]
 2806              	.L255:
 2807              	.LBE6:
1288:../src/lib/lpc177x_8x/Drivers/source/lpc177x_8x_uart.c ****         }
1289:../src/lib/lpc177x_8x/Drivers/source/lpc177x_8x_uart.c ****     }
1290:../src/lib/lpc177x_8x/Drivers/source/lpc177x_8x_uart.c **** }
 2808              		.loc 1 1290 0
 2809 10e2 07F11007 		add	r7, r7, #16
 2810 10e6 BD46     		mov	sp, r7
 2811 10e8 80BD     		pop	{r7, pc}
 2812              	.L265:
 2813 10ea 00BF     		.align	2
 2814              	.L264:
 2815 10ec 00000140 		.word	1073807360
 2816 10f0 00400A40 		.word	1074413568
 2817              		.cfi_endproc
 2818              	.LFE71:
 2820              		.align	2
 2821              		.global	UART_ABClearIntPending
 2822              		.thumb
 2823              		.thumb_func
 2825              	UART_ABClearIntPending:
 2826              	.LFB72:
1291:../src/lib/lpc177x_8x/Drivers/source/lpc177x_8x_uart.c **** 
1292:../src/lib/lpc177x_8x/Drivers/source/lpc177x_8x_uart.c **** /*********************************************************************//**
1293:../src/lib/lpc177x_8x/Drivers/source/lpc177x_8x_uart.c ****  * @brief       Clear Autobaud Interrupt Pending
1294:../src/lib/lpc177x_8x/Drivers/source/lpc177x_8x_uart.c ****  * @param[in]   UARTx   UART peripheral selected, should be
1295:../src/lib/lpc177x_8x/Drivers/source/lpc177x_8x_uart.c ****  *              - UART_0: UART0 peripheral
1296:../src/lib/lpc177x_8x/Drivers/source/lpc177x_8x_uart.c ****  *              - UART_1: UART1 peripheral
1297:../src/lib/lpc177x_8x/Drivers/source/lpc177x_8x_uart.c ****  *              - UART_2: UART2 peripheral
1298:../src/lib/lpc177x_8x/Drivers/source/lpc177x_8x_uart.c ****  *              - UART_3: UART3 peripheral
1299:../src/lib/lpc177x_8x/Drivers/source/lpc177x_8x_uart.c ****  *              - UART_4: UART4 peripheral
1300:../src/lib/lpc177x_8x/Drivers/source/lpc177x_8x_uart.c ****  * @param[in]   ABIntType   type of auto-baud interrupt, should be:
1301:../src/lib/lpc177x_8x/Drivers/source/lpc177x_8x_uart.c ****  *              - UART_AUTOBAUD_INTSTAT_ABEO: End of Auto-baud interrupt
1302:../src/lib/lpc177x_8x/Drivers/source/lpc177x_8x_uart.c ****  *              - UART_AUTOBAUD_INTSTAT_ABTO: Auto-baud time out interrupt
1303:../src/lib/lpc177x_8x/Drivers/source/lpc177x_8x_uart.c ****  * @return      none
1304:../src/lib/lpc177x_8x/Drivers/source/lpc177x_8x_uart.c ****  **********************************************************************/
1305:../src/lib/lpc177x_8x/Drivers/source/lpc177x_8x_uart.c **** void UART_ABClearIntPending(UART_ID_Type UartID, UART_ABEO_Type ABIntType)
1306:../src/lib/lpc177x_8x/Drivers/source/lpc177x_8x_uart.c **** {
 2827              		.loc 1 1306 0
 2828              		.cfi_startproc
 2829              		@ args = 0, pretend = 0, frame = 16
 2830              		@ frame_needed = 1, uses_anonymous_args = 0
 2831 10f4 80B5     		push	{r7, lr}
 2832              	.LCFI51:
 2833              		.cfi_def_cfa_offset 8
 2834              		.cfi_offset 7, -8
 2835              		.cfi_offset 14, -4
 2836 10f6 84B0     		sub	sp, sp, #16
 2837              	.LCFI52:
 2838              		.cfi_def_cfa_offset 24
 2839 10f8 00AF     		add	r7, sp, #0
 2840              	.LCFI53:
 2841              		.cfi_def_cfa_register 7
 2842 10fa 0246     		mov	r2, r0
 2843 10fc 0B46     		mov	r3, r1
 2844 10fe FA71     		strb	r2, [r7, #7]
 2845 1100 BB80     		strh	r3, [r7, #4]	@ movhi
1307:../src/lib/lpc177x_8x/Drivers/source/lpc177x_8x_uart.c ****     if (UartID == UART_1)
 2846              		.loc 1 1307 0
 2847 1102 FB79     		ldrb	r3, [r7, #7]	@ zero_extendqisi2
 2848 1104 012B     		cmp	r3, #1
 2849 1106 06D1     		bne	.L267
1308:../src/lib/lpc177x_8x/Drivers/source/lpc177x_8x_uart.c ****     {
1309:../src/lib/lpc177x_8x/Drivers/source/lpc177x_8x_uart.c ****         LPC_UART1->ACR |= ABIntType;
 2850              		.loc 1 1309 0
 2851 1108 0F4B     		ldr	r3, .L270
 2852 110a 0F4A     		ldr	r2, .L270
 2853 110c 116A     		ldr	r1, [r2, #32]
 2854 110e BA88     		ldrh	r2, [r7, #4]
 2855 1110 0A43     		orrs	r2, r2, r1
 2856 1112 1A62     		str	r2, [r3, #32]
 2857 1114 14E0     		b	.L266
 2858              	.L267:
1310:../src/lib/lpc177x_8x/Drivers/source/lpc177x_8x_uart.c ****     }
1311:../src/lib/lpc177x_8x/Drivers/source/lpc177x_8x_uart.c ****     else if (UartID == UART_4)
 2859              		.loc 1 1311 0
 2860 1116 FB79     		ldrb	r3, [r7, #7]	@ zero_extendqisi2
 2861 1118 042B     		cmp	r3, #4
 2862 111a 06D1     		bne	.L269
1312:../src/lib/lpc177x_8x/Drivers/source/lpc177x_8x_uart.c ****     {
1313:../src/lib/lpc177x_8x/Drivers/source/lpc177x_8x_uart.c ****         LPC_UART4->ACR |= ABIntType;
 2863              		.loc 1 1313 0
 2864 111c 0B4B     		ldr	r3, .L270+4
 2865 111e 0B4A     		ldr	r2, .L270+4
 2866 1120 116A     		ldr	r1, [r2, #32]
 2867 1122 BA88     		ldrh	r2, [r7, #4]
 2868 1124 0A43     		orrs	r2, r2, r1
 2869 1126 1A62     		str	r2, [r3, #32]
 2870 1128 0AE0     		b	.L266
 2871              	.L269:
 2872              	.LBB7:
1314:../src/lib/lpc177x_8x/Drivers/source/lpc177x_8x_uart.c ****     }
1315:../src/lib/lpc177x_8x/Drivers/source/lpc177x_8x_uart.c ****     else
1316:../src/lib/lpc177x_8x/Drivers/source/lpc177x_8x_uart.c ****     {   
1317:../src/lib/lpc177x_8x/Drivers/source/lpc177x_8x_uart.c ****         LPC_UART_TypeDef *UARTx = uart_get_pointer(UartID);
 2873              		.loc 1 1317 0
 2874 112a FB79     		ldrb	r3, [r7, #7]	@ zero_extendqisi2
 2875 112c 1846     		mov	r0, r3
 2876 112e FFF7F1F8 		bl	uart_get_pointer
 2877 1132 F860     		str	r0, [r7, #12]
1318:../src/lib/lpc177x_8x/Drivers/source/lpc177x_8x_uart.c ****         UARTx->ACR |= ABIntType;
 2878              		.loc 1 1318 0
 2879 1134 FB68     		ldr	r3, [r7, #12]
 2880 1136 1A6A     		ldr	r2, [r3, #32]
 2881 1138 BB88     		ldrh	r3, [r7, #4]
 2882 113a 1A43     		orrs	r2, r2, r3
 2883 113c FB68     		ldr	r3, [r7, #12]
 2884 113e 1A62     		str	r2, [r3, #32]
 2885              	.L266:
 2886              	.LBE7:
1319:../src/lib/lpc177x_8x/Drivers/source/lpc177x_8x_uart.c ****     }
1320:../src/lib/lpc177x_8x/Drivers/source/lpc177x_8x_uart.c **** }
 2887              		.loc 1 1320 0
 2888 1140 07F11007 		add	r7, r7, #16
 2889 1144 BD46     		mov	sp, r7
 2890 1146 80BD     		pop	{r7, pc}
 2891              	.L271:
 2892              		.align	2
 2893              	.L270:
 2894 1148 00000140 		.word	1073807360
 2895 114c 00400A40 		.word	1074413568
 2896              		.cfi_endproc
 2897              	.LFE72:
 2899              		.align	2
 2900              		.global	UART_TxCmd
 2901              		.thumb
 2902              		.thumb_func
 2904              	UART_TxCmd:
 2905              	.LFB73:
1321:../src/lib/lpc177x_8x/Drivers/source/lpc177x_8x_uart.c **** 
1322:../src/lib/lpc177x_8x/Drivers/source/lpc177x_8x_uart.c **** /*********************************************************************//**
1323:../src/lib/lpc177x_8x/Drivers/source/lpc177x_8x_uart.c ****  * @brief       Enable/Disable transmission on UART TxD pin
1324:../src/lib/lpc177x_8x/Drivers/source/lpc177x_8x_uart.c ****  * @param[in]   UARTx   UART peripheral selected, should be:
1325:../src/lib/lpc177x_8x/Drivers/source/lpc177x_8x_uart.c ****  *              - UART_0: UART0 peripheral
1326:../src/lib/lpc177x_8x/Drivers/source/lpc177x_8x_uart.c ****  *              - UART_1: UART1 peripheral
1327:../src/lib/lpc177x_8x/Drivers/source/lpc177x_8x_uart.c ****  *              - UART_2: UART2 peripheral
1328:../src/lib/lpc177x_8x/Drivers/source/lpc177x_8x_uart.c ****  *              - UART_3: UART3 peripheral
1329:../src/lib/lpc177x_8x/Drivers/source/lpc177x_8x_uart.c ****  *              - UART_4: UART4 peripheral
1330:../src/lib/lpc177x_8x/Drivers/source/lpc177x_8x_uart.c ****  * @param[in]   NewState New State of Tx transmission function, should be:
1331:../src/lib/lpc177x_8x/Drivers/source/lpc177x_8x_uart.c ****  *              - ENABLE: Enable this function
1332:../src/lib/lpc177x_8x/Drivers/source/lpc177x_8x_uart.c ****                 - DISABLE: Disable this function
1333:../src/lib/lpc177x_8x/Drivers/source/lpc177x_8x_uart.c ****  * @return none
1334:../src/lib/lpc177x_8x/Drivers/source/lpc177x_8x_uart.c ****  **********************************************************************/
1335:../src/lib/lpc177x_8x/Drivers/source/lpc177x_8x_uart.c **** void UART_TxCmd(UART_ID_Type UartID, FunctionalState NewState)
1336:../src/lib/lpc177x_8x/Drivers/source/lpc177x_8x_uart.c **** {
 2906              		.loc 1 1336 0
 2907              		.cfi_startproc
 2908              		@ args = 0, pretend = 0, frame = 16
 2909              		@ frame_needed = 1, uses_anonymous_args = 0
 2910 1150 80B5     		push	{r7, lr}
 2911              	.LCFI54:
 2912              		.cfi_def_cfa_offset 8
 2913              		.cfi_offset 7, -8
 2914              		.cfi_offset 14, -4
 2915 1152 84B0     		sub	sp, sp, #16
 2916              	.LCFI55:
 2917              		.cfi_def_cfa_offset 24
 2918 1154 00AF     		add	r7, sp, #0
 2919              	.LCFI56:
 2920              		.cfi_def_cfa_register 7
 2921 1156 0246     		mov	r2, r0
 2922 1158 0B46     		mov	r3, r1
 2923 115a FA71     		strb	r2, [r7, #7]
 2924 115c BB71     		strb	r3, [r7, #6]
1337:../src/lib/lpc177x_8x/Drivers/source/lpc177x_8x_uart.c ****     if (NewState == ENABLE)
 2925              		.loc 1 1337 0
 2926 115e BB79     		ldrb	r3, [r7, #6]	@ zero_extendqisi2
 2927 1160 012B     		cmp	r3, #1
 2928 1162 20D1     		bne	.L273
1338:../src/lib/lpc177x_8x/Drivers/source/lpc177x_8x_uart.c ****     {
1339:../src/lib/lpc177x_8x/Drivers/source/lpc177x_8x_uart.c ****         if (UartID == UART_1)
 2929              		.loc 1 1339 0
 2930 1164 FB79     		ldrb	r3, [r7, #7]	@ zero_extendqisi2
 2931 1166 012B     		cmp	r3, #1
 2932 1168 0AD1     		bne	.L274
1340:../src/lib/lpc177x_8x/Drivers/source/lpc177x_8x_uart.c ****         {
1341:../src/lib/lpc177x_8x/Drivers/source/lpc177x_8x_uart.c ****             LPC_UART1->TER |= UART_TER_TXEN;
 2933              		.loc 1 1341 0
 2934 116a 1F4B     		ldr	r3, .L277
 2935 116c 1E4A     		ldr	r2, .L277
 2936 116e 92F83020 		ldrb	r2, [r2, #48]
 2937 1172 D2B2     		uxtb	r2, r2
 2938 1174 62F07F02 		orn	r2, r2, #127
 2939 1178 D2B2     		uxtb	r2, r2
 2940 117a 83F83020 		strb	r2, [r3, #48]
 2941 117e 2EE0     		b	.L272
 2942              	.L274:
1342:../src/lib/lpc177x_8x/Drivers/source/lpc177x_8x_uart.c ****         }
1343:../src/lib/lpc177x_8x/Drivers/source/lpc177x_8x_uart.c ****         else if (UartID == UART_4)
 2943              		.loc 1 1343 0
 2944 1180 FB79     		ldrb	r3, [r7, #7]	@ zero_extendqisi2
 2945 1182 042B     		cmp	r3, #4
 2946 1184 2BD0     		beq	.L272
 2947              	.LBB8:
1344:../src/lib/lpc177x_8x/Drivers/source/lpc177x_8x_uart.c ****         {
1345:../src/lib/lpc177x_8x/Drivers/source/lpc177x_8x_uart.c ****            // LPC_UART4->TER |= UART4_TER_TXEN;
1346:../src/lib/lpc177x_8x/Drivers/source/lpc177x_8x_uart.c ****         }
1347:../src/lib/lpc177x_8x/Drivers/source/lpc177x_8x_uart.c ****         else
1348:../src/lib/lpc177x_8x/Drivers/source/lpc177x_8x_uart.c ****         {
1349:../src/lib/lpc177x_8x/Drivers/source/lpc177x_8x_uart.c ****             LPC_UART_TypeDef *UARTx = uart_get_pointer(UartID);
 2948              		.loc 1 1349 0
 2949 1186 FB79     		ldrb	r3, [r7, #7]	@ zero_extendqisi2
 2950 1188 1846     		mov	r0, r3
 2951 118a FFF7C3F8 		bl	uart_get_pointer
 2952 118e F860     		str	r0, [r7, #12]
1350:../src/lib/lpc177x_8x/Drivers/source/lpc177x_8x_uart.c ****             UARTx->TER |= UART_TER_TXEN;
 2953              		.loc 1 1350 0
 2954 1190 FB68     		ldr	r3, [r7, #12]
 2955 1192 93F83030 		ldrb	r3, [r3, #48]
 2956 1196 DBB2     		uxtb	r3, r3
 2957 1198 63F07F03 		orn	r3, r3, #127
 2958 119c DAB2     		uxtb	r2, r3
 2959 119e FB68     		ldr	r3, [r7, #12]
 2960 11a0 83F83020 		strb	r2, [r3, #48]
 2961 11a4 1BE0     		b	.L272
 2962              	.L273:
 2963              	.LBE8:
1351:../src/lib/lpc177x_8x/Drivers/source/lpc177x_8x_uart.c ****         }
1352:../src/lib/lpc177x_8x/Drivers/source/lpc177x_8x_uart.c ****     }
1353:../src/lib/lpc177x_8x/Drivers/source/lpc177x_8x_uart.c ****     else
1354:../src/lib/lpc177x_8x/Drivers/source/lpc177x_8x_uart.c ****     {
1355:../src/lib/lpc177x_8x/Drivers/source/lpc177x_8x_uart.c ****         if (UartID == UART_1)                     
 2964              		.loc 1 1355 0
 2965 11a6 FB79     		ldrb	r3, [r7, #7]	@ zero_extendqisi2
 2966 11a8 012B     		cmp	r3, #1
 2967 11aa 08D1     		bne	.L276
1356:../src/lib/lpc177x_8x/Drivers/source/lpc177x_8x_uart.c ****         {
1357:../src/lib/lpc177x_8x/Drivers/source/lpc177x_8x_uart.c ****             LPC_UART1->TER &= (~UART_TER_TXEN) & UART_TER_BITMASK;
 2968              		.loc 1 1357 0
 2969 11ac 0E4B     		ldr	r3, .L277
 2970 11ae 93F83030 		ldrb	r3, [r3, #48]
 2971 11b2 0D4B     		ldr	r3, .L277
 2972 11b4 4FF00002 		mov	r2, #0
 2973 11b8 83F83020 		strb	r2, [r3, #48]
 2974 11bc 0FE0     		b	.L272
 2975              	.L276:
1358:../src/lib/lpc177x_8x/Drivers/source/lpc177x_8x_uart.c ****         }
1359:../src/lib/lpc177x_8x/Drivers/source/lpc177x_8x_uart.c ****         else if (UartID == UART_4)
 2976              		.loc 1 1359 0
 2977 11be FB79     		ldrb	r3, [r7, #7]	@ zero_extendqisi2
 2978 11c0 042B     		cmp	r3, #4
 2979 11c2 0CD0     		beq	.L272
 2980              	.LBB9:
1360:../src/lib/lpc177x_8x/Drivers/source/lpc177x_8x_uart.c ****         {
1361:../src/lib/lpc177x_8x/Drivers/source/lpc177x_8x_uart.c ****             //LPC_UART4->TER &= (~UART4_TER_TXEN) & UART4_TER_BITMASK;
1362:../src/lib/lpc177x_8x/Drivers/source/lpc177x_8x_uart.c ****         }
1363:../src/lib/lpc177x_8x/Drivers/source/lpc177x_8x_uart.c ****         else
1364:../src/lib/lpc177x_8x/Drivers/source/lpc177x_8x_uart.c ****         {
1365:../src/lib/lpc177x_8x/Drivers/source/lpc177x_8x_uart.c ****             LPC_UART_TypeDef *UARTx = uart_get_pointer(UartID);
 2981              		.loc 1 1365 0
 2982 11c4 FB79     		ldrb	r3, [r7, #7]	@ zero_extendqisi2
 2983 11c6 1846     		mov	r0, r3
 2984 11c8 FFF7A4F8 		bl	uart_get_pointer
 2985 11cc B860     		str	r0, [r7, #8]
1366:../src/lib/lpc177x_8x/Drivers/source/lpc177x_8x_uart.c ****             UARTx->TER &= (~UART_TER_TXEN) & UART_TER_BITMASK;
 2986              		.loc 1 1366 0
 2987 11ce BB68     		ldr	r3, [r7, #8]
 2988 11d0 93F83030 		ldrb	r3, [r3, #48]
 2989 11d4 BB68     		ldr	r3, [r7, #8]
 2990 11d6 4FF00002 		mov	r2, #0
 2991 11da 83F83020 		strb	r2, [r3, #48]
 2992              	.L272:
 2993              	.LBE9:
1367:../src/lib/lpc177x_8x/Drivers/source/lpc177x_8x_uart.c ****         }
1368:../src/lib/lpc177x_8x/Drivers/source/lpc177x_8x_uart.c ****     }
1369:../src/lib/lpc177x_8x/Drivers/source/lpc177x_8x_uart.c **** }
 2994              		.loc 1 1369 0
 2995 11de 07F11007 		add	r7, r7, #16
 2996 11e2 BD46     		mov	sp, r7
 2997 11e4 80BD     		pop	{r7, pc}
 2998              	.L278:
 2999 11e6 00BF     		.align	2
 3000              	.L277:
 3001 11e8 00000140 		.word	1073807360
 3002              		.cfi_endproc
 3003              	.LFE73:
 3005              		.align	2
 3006              		.global	UART_IrDAInvtInputCmd
 3007              		.thumb
 3008              		.thumb_func
 3010              	UART_IrDAInvtInputCmd:
 3011              	.LFB74:
1370:../src/lib/lpc177x_8x/Drivers/source/lpc177x_8x_uart.c **** 
1371:../src/lib/lpc177x_8x/Drivers/source/lpc177x_8x_uart.c **** /* UART IrDA functions ---------------------------------------------------*/
1372:../src/lib/lpc177x_8x/Drivers/source/lpc177x_8x_uart.c **** /*********************************************************************//**
1373:../src/lib/lpc177x_8x/Drivers/source/lpc177x_8x_uart.c ****  * @brief       Enable or disable inverting serial input function of IrDA
1374:../src/lib/lpc177x_8x/Drivers/source/lpc177x_8x_uart.c ****  *              on UART peripheral.
1375:../src/lib/lpc177x_8x/Drivers/source/lpc177x_8x_uart.c ****  * @param[in]   UARTx UART peripheral selected, should be LPC_UART4 (only)
1376:../src/lib/lpc177x_8x/Drivers/source/lpc177x_8x_uart.c ****  * @param[in]   NewState New state of inverting serial input, should be:
1377:../src/lib/lpc177x_8x/Drivers/source/lpc177x_8x_uart.c ****  *              - ENABLE: Enable this function.
1378:../src/lib/lpc177x_8x/Drivers/source/lpc177x_8x_uart.c ****  *              - DISABLE: Disable this function.
1379:../src/lib/lpc177x_8x/Drivers/source/lpc177x_8x_uart.c ****  * @return none
1380:../src/lib/lpc177x_8x/Drivers/source/lpc177x_8x_uart.c ****  **********************************************************************/
1381:../src/lib/lpc177x_8x/Drivers/source/lpc177x_8x_uart.c **** void UART_IrDAInvtInputCmd(UART_ID_Type UartID, FunctionalState NewState)
1382:../src/lib/lpc177x_8x/Drivers/source/lpc177x_8x_uart.c **** {
 3012              		.loc 1 1382 0
 3013              		.cfi_startproc
 3014              		@ args = 0, pretend = 0, frame = 8
 3015              		@ frame_needed = 1, uses_anonymous_args = 0
 3016              		@ link register save eliminated.
 3017 11ec 80B4     		push	{r7}
 3018              	.LCFI57:
 3019              		.cfi_def_cfa_offset 4
 3020              		.cfi_offset 7, -4
 3021 11ee 83B0     		sub	sp, sp, #12
 3022              	.LCFI58:
 3023              		.cfi_def_cfa_offset 16
 3024 11f0 00AF     		add	r7, sp, #0
 3025              	.LCFI59:
 3026              		.cfi_def_cfa_register 7
 3027 11f2 0246     		mov	r2, r0
 3028 11f4 0B46     		mov	r3, r1
 3029 11f6 FA71     		strb	r2, [r7, #7]
 3030 11f8 BB71     		strb	r3, [r7, #6]
1383:../src/lib/lpc177x_8x/Drivers/source/lpc177x_8x_uart.c ****     if (UartID != UART_4)
 3031              		.loc 1 1383 0
 3032 11fa FB79     		ldrb	r3, [r7, #7]	@ zero_extendqisi2
 3033 11fc 042B     		cmp	r3, #4
 3034 11fe 13D1     		bne	.L283
 3035              	.L280:
1384:../src/lib/lpc177x_8x/Drivers/source/lpc177x_8x_uart.c ****         return;
1385:../src/lib/lpc177x_8x/Drivers/source/lpc177x_8x_uart.c ****     
1386:../src/lib/lpc177x_8x/Drivers/source/lpc177x_8x_uart.c ****     if (NewState == ENABLE)
 3036              		.loc 1 1386 0
 3037 1200 BB79     		ldrb	r3, [r7, #6]	@ zero_extendqisi2
 3038 1202 012B     		cmp	r3, #1
 3039 1204 06D1     		bne	.L282
1387:../src/lib/lpc177x_8x/Drivers/source/lpc177x_8x_uart.c ****     {
1388:../src/lib/lpc177x_8x/Drivers/source/lpc177x_8x_uart.c ****         LPC_UART4->ICR |= UART_ICR_IRDAINV;
 3040              		.loc 1 1388 0
 3041 1206 0B4B     		ldr	r3, .L284
 3042 1208 0A4A     		ldr	r2, .L284
 3043 120a 526A     		ldr	r2, [r2, #36]
 3044 120c 42F00202 		orr	r2, r2, #2
 3045 1210 5A62     		str	r2, [r3, #36]
 3046 1212 0AE0     		b	.L279
 3047              	.L282:
1389:../src/lib/lpc177x_8x/Drivers/source/lpc177x_8x_uart.c ****     }
1390:../src/lib/lpc177x_8x/Drivers/source/lpc177x_8x_uart.c ****     else if (NewState == DISABLE)
 3048              		.loc 1 1390 0
 3049 1214 BB79     		ldrb	r3, [r7, #6]	@ zero_extendqisi2
 3050 1216 002B     		cmp	r3, #0
 3051 1218 07D1     		bne	.L279
1391:../src/lib/lpc177x_8x/Drivers/source/lpc177x_8x_uart.c ****     {
1392:../src/lib/lpc177x_8x/Drivers/source/lpc177x_8x_uart.c ****         LPC_UART4->ICR &= (~UART_ICR_IRDAINV) & UART_ICR_BITMASK;
 3052              		.loc 1 1392 0
 3053 121a 064B     		ldr	r3, .L284
 3054 121c 054A     		ldr	r2, .L284
 3055 121e 526A     		ldr	r2, [r2, #36]
 3056 1220 02F03D02 		and	r2, r2, #61
 3057 1224 5A62     		str	r2, [r3, #36]
 3058 1226 00E0     		b	.L279
 3059              	.L283:
1384:../src/lib/lpc177x_8x/Drivers/source/lpc177x_8x_uart.c ****         return;
 3060              		.loc 1 1384 0
 3061 1228 00BF     		nop
 3062              	.L279:
1393:../src/lib/lpc177x_8x/Drivers/source/lpc177x_8x_uart.c ****     }
1394:../src/lib/lpc177x_8x/Drivers/source/lpc177x_8x_uart.c ****     
1395:../src/lib/lpc177x_8x/Drivers/source/lpc177x_8x_uart.c **** }
 3063              		.loc 1 1395 0
 3064 122a 07F10C07 		add	r7, r7, #12
 3065 122e BD46     		mov	sp, r7
 3066 1230 80BC     		pop	{r7}
 3067 1232 7047     		bx	lr
 3068              	.L285:
 3069              		.align	2
 3070              	.L284:
 3071 1234 00400A40 		.word	1074413568
 3072              		.cfi_endproc
 3073              	.LFE74:
 3075              		.align	2
 3076              		.global	UART_IrDACmd
 3077              		.thumb
 3078              		.thumb_func
 3080              	UART_IrDACmd:
 3081              	.LFB75:
1396:../src/lib/lpc177x_8x/Drivers/source/lpc177x_8x_uart.c **** 
1397:../src/lib/lpc177x_8x/Drivers/source/lpc177x_8x_uart.c **** 
1398:../src/lib/lpc177x_8x/Drivers/source/lpc177x_8x_uart.c **** /*********************************************************************//**
1399:../src/lib/lpc177x_8x/Drivers/source/lpc177x_8x_uart.c ****  * @brief       Enable or disable IrDA function on UART peripheral.
1400:../src/lib/lpc177x_8x/Drivers/source/lpc177x_8x_uart.c ****  * @param[in]   UARTx UART peripheral selected, should be LPC_UART4 (only)
1401:../src/lib/lpc177x_8x/Drivers/source/lpc177x_8x_uart.c ****  * @param[in]   NewState New state of IrDA function, should be:
1402:../src/lib/lpc177x_8x/Drivers/source/lpc177x_8x_uart.c ****  *              - ENABLE: Enable this function.
1403:../src/lib/lpc177x_8x/Drivers/source/lpc177x_8x_uart.c ****  *              - DISABLE: Disable this function.
1404:../src/lib/lpc177x_8x/Drivers/source/lpc177x_8x_uart.c ****  * @return none
1405:../src/lib/lpc177x_8x/Drivers/source/lpc177x_8x_uart.c ****  **********************************************************************/
1406:../src/lib/lpc177x_8x/Drivers/source/lpc177x_8x_uart.c **** void UART_IrDACmd(UART_ID_Type UartID, FunctionalState NewState)
1407:../src/lib/lpc177x_8x/Drivers/source/lpc177x_8x_uart.c **** {
 3082              		.loc 1 1407 0
 3083              		.cfi_startproc
 3084              		@ args = 0, pretend = 0, frame = 8
 3085              		@ frame_needed = 1, uses_anonymous_args = 0
 3086              		@ link register save eliminated.
 3087 1238 80B4     		push	{r7}
 3088              	.LCFI60:
 3089              		.cfi_def_cfa_offset 4
 3090              		.cfi_offset 7, -4
 3091 123a 83B0     		sub	sp, sp, #12
 3092              	.LCFI61:
 3093              		.cfi_def_cfa_offset 16
 3094 123c 00AF     		add	r7, sp, #0
 3095              	.LCFI62:
 3096              		.cfi_def_cfa_register 7
 3097 123e 0246     		mov	r2, r0
 3098 1240 0B46     		mov	r3, r1
 3099 1242 FA71     		strb	r2, [r7, #7]
 3100 1244 BB71     		strb	r3, [r7, #6]
1408:../src/lib/lpc177x_8x/Drivers/source/lpc177x_8x_uart.c ****     if (UartID != UART_4)
 3101              		.loc 1 1408 0
 3102 1246 FB79     		ldrb	r3, [r7, #7]	@ zero_extendqisi2
 3103 1248 042B     		cmp	r3, #4
 3104 124a 10D1     		bne	.L290
 3105              	.L287:
1409:../src/lib/lpc177x_8x/Drivers/source/lpc177x_8x_uart.c ****         return;
1410:../src/lib/lpc177x_8x/Drivers/source/lpc177x_8x_uart.c ****     
1411:../src/lib/lpc177x_8x/Drivers/source/lpc177x_8x_uart.c ****     if (NewState == ENABLE)
 3106              		.loc 1 1411 0
 3107 124c BB79     		ldrb	r3, [r7, #6]	@ zero_extendqisi2
 3108 124e 012B     		cmp	r3, #1
 3109 1250 06D1     		bne	.L289
1412:../src/lib/lpc177x_8x/Drivers/source/lpc177x_8x_uart.c ****     {
1413:../src/lib/lpc177x_8x/Drivers/source/lpc177x_8x_uart.c ****         LPC_UART4->ICR |= UART_ICR_IRDAEN;
 3110              		.loc 1 1413 0
 3111 1252 0A4B     		ldr	r3, .L291
 3112 1254 094A     		ldr	r2, .L291
 3113 1256 526A     		ldr	r2, [r2, #36]
 3114 1258 42F00102 		orr	r2, r2, #1
 3115 125c 5A62     		str	r2, [r3, #36]
 3116 125e 07E0     		b	.L286
 3117              	.L289:
1414:../src/lib/lpc177x_8x/Drivers/source/lpc177x_8x_uart.c ****     }
1415:../src/lib/lpc177x_8x/Drivers/source/lpc177x_8x_uart.c ****     else
1416:../src/lib/lpc177x_8x/Drivers/source/lpc177x_8x_uart.c ****     {
1417:../src/lib/lpc177x_8x/Drivers/source/lpc177x_8x_uart.c ****         LPC_UART4->ICR &= (~UART_ICR_IRDAEN) & UART_ICR_BITMASK;
 3118              		.loc 1 1417 0
 3119 1260 064B     		ldr	r3, .L291
 3120 1262 064A     		ldr	r2, .L291
 3121 1264 526A     		ldr	r2, [r2, #36]
 3122 1266 02F03E02 		and	r2, r2, #62
 3123 126a 5A62     		str	r2, [r3, #36]
 3124 126c 00E0     		b	.L286
 3125              	.L290:
1409:../src/lib/lpc177x_8x/Drivers/source/lpc177x_8x_uart.c ****         return;
 3126              		.loc 1 1409 0
 3127 126e 00BF     		nop
 3128              	.L286:
1418:../src/lib/lpc177x_8x/Drivers/source/lpc177x_8x_uart.c ****     }
1419:../src/lib/lpc177x_8x/Drivers/source/lpc177x_8x_uart.c **** }
 3129              		.loc 1 1419 0
 3130 1270 07F10C07 		add	r7, r7, #12
 3131 1274 BD46     		mov	sp, r7
 3132 1276 80BC     		pop	{r7}
 3133 1278 7047     		bx	lr
 3134              	.L292:
 3135 127a 00BF     		.align	2
 3136              	.L291:
 3137 127c 00400A40 		.word	1074413568
 3138              		.cfi_endproc
 3139              	.LFE75:
 3141              		.align	2
 3142              		.global	UART_IrDAPulseDivConfig
 3143              		.thumb
 3144              		.thumb_func
 3146              	UART_IrDAPulseDivConfig:
 3147              	.LFB76:
1420:../src/lib/lpc177x_8x/Drivers/source/lpc177x_8x_uart.c **** 
