   1              		.syntax unified
   2              		.cpu cortex-m4
   3              		.fpu softvfp
   4              		.eabi_attribute 20, 1
   5              		.eabi_attribute 21, 1
   6              		.eabi_attribute 23, 3
   7              		.eabi_attribute 24, 1
   8              		.eabi_attribute 25, 1
   9              		.eabi_attribute 26, 1
  10              		.eabi_attribute 30, 6
  11              		.eabi_attribute 34, 1
  12              		.eabi_attribute 18, 4
  13              		.thumb
  14              		.file	"lpc177x_8x_timer.c"
  15              		.text
  16              	.Ltext0:
  17              		.cfi_sections	.debug_frame
  18              		.align	2
  19              		.thumb
  20              		.thumb_func
  22              	getPClock:
  23              	.LFB55:
  24              		.file 1 "../src/lib/lpc177x_8x/Drivers/source/lpc177x_8x_timer.c"
   1:../src/lib/lpc177x_8x/Drivers/source/lpc177x_8x_timer.c **** /**********************************************************************
   2:../src/lib/lpc177x_8x/Drivers/source/lpc177x_8x_timer.c **** * $Id$      lpc177x_8x_timer.c          2011-06-02
   3:../src/lib/lpc177x_8x/Drivers/source/lpc177x_8x_timer.c **** *//**
   4:../src/lib/lpc177x_8x/Drivers/source/lpc177x_8x_timer.c **** * @file     lpc177x_8x_timer.c
   5:../src/lib/lpc177x_8x/Drivers/source/lpc177x_8x_timer.c **** * @brief    Contains all functions support for Timer firmware library
   6:../src/lib/lpc177x_8x/Drivers/source/lpc177x_8x_timer.c **** *           on LPC177x_8x
   7:../src/lib/lpc177x_8x/Drivers/source/lpc177x_8x_timer.c **** * @version  1.0
   8:../src/lib/lpc177x_8x/Drivers/source/lpc177x_8x_timer.c **** * @date     02. June. 2011
   9:../src/lib/lpc177x_8x/Drivers/source/lpc177x_8x_timer.c **** * @author   NXP MCU SW Application Team
  10:../src/lib/lpc177x_8x/Drivers/source/lpc177x_8x_timer.c **** * 
  11:../src/lib/lpc177x_8x/Drivers/source/lpc177x_8x_timer.c **** * Copyright(C) 2011, NXP Semiconductor
  12:../src/lib/lpc177x_8x/Drivers/source/lpc177x_8x_timer.c **** * All rights reserved.
  13:../src/lib/lpc177x_8x/Drivers/source/lpc177x_8x_timer.c **** *
  14:../src/lib/lpc177x_8x/Drivers/source/lpc177x_8x_timer.c **** ***********************************************************************
  15:../src/lib/lpc177x_8x/Drivers/source/lpc177x_8x_timer.c **** * Software that is described herein is for illustrative purposes only
  16:../src/lib/lpc177x_8x/Drivers/source/lpc177x_8x_timer.c **** * which provides customers with programming information regarding the
  17:../src/lib/lpc177x_8x/Drivers/source/lpc177x_8x_timer.c **** * products. This software is supplied "AS IS" without any warranties.
  18:../src/lib/lpc177x_8x/Drivers/source/lpc177x_8x_timer.c **** * NXP Semiconductors assumes no responsibility or liability for the
  19:../src/lib/lpc177x_8x/Drivers/source/lpc177x_8x_timer.c **** * use of the software, conveys no license or title under any patent,
  20:../src/lib/lpc177x_8x/Drivers/source/lpc177x_8x_timer.c **** * copyright, or mask work right to the product. NXP Semiconductors
  21:../src/lib/lpc177x_8x/Drivers/source/lpc177x_8x_timer.c **** * reserves the right to make changes in the software without
  22:../src/lib/lpc177x_8x/Drivers/source/lpc177x_8x_timer.c **** * notification. NXP Semiconductors also make no representation or
  23:../src/lib/lpc177x_8x/Drivers/source/lpc177x_8x_timer.c **** * warranty that such application will be suitable for the specified
  24:../src/lib/lpc177x_8x/Drivers/source/lpc177x_8x_timer.c **** * use without further testing or modification.
  25:../src/lib/lpc177x_8x/Drivers/source/lpc177x_8x_timer.c **** * Permission to use, copy, modify, and distribute this software and its
  26:../src/lib/lpc177x_8x/Drivers/source/lpc177x_8x_timer.c **** * documentation is hereby granted, under NXP Semiconductors'
  27:../src/lib/lpc177x_8x/Drivers/source/lpc177x_8x_timer.c **** * relevant copyright in the software, without fee, provided that it
  28:../src/lib/lpc177x_8x/Drivers/source/lpc177x_8x_timer.c **** * is used in conjunction with NXP Semiconductors microcontrollers.  This
  29:../src/lib/lpc177x_8x/Drivers/source/lpc177x_8x_timer.c **** * copyright, permission, and disclaimer notice must appear in all copies of
  30:../src/lib/lpc177x_8x/Drivers/source/lpc177x_8x_timer.c **** * this code.
  31:../src/lib/lpc177x_8x/Drivers/source/lpc177x_8x_timer.c **** **********************************************************************/
  32:../src/lib/lpc177x_8x/Drivers/source/lpc177x_8x_timer.c **** 
  33:../src/lib/lpc177x_8x/Drivers/source/lpc177x_8x_timer.c **** /* Peripheral group ----------------------------------------------------------- */
  34:../src/lib/lpc177x_8x/Drivers/source/lpc177x_8x_timer.c **** /** @addtogroup TIMER
  35:../src/lib/lpc177x_8x/Drivers/source/lpc177x_8x_timer.c ****  * @{
  36:../src/lib/lpc177x_8x/Drivers/source/lpc177x_8x_timer.c ****  */
  37:../src/lib/lpc177x_8x/Drivers/source/lpc177x_8x_timer.c **** #ifdef __BUILD_WITH_EXAMPLE__
  38:../src/lib/lpc177x_8x/Drivers/source/lpc177x_8x_timer.c **** #include "lpc177x_8x_libcfg.h"
  39:../src/lib/lpc177x_8x/Drivers/source/lpc177x_8x_timer.c **** #else
  40:../src/lib/lpc177x_8x/Drivers/source/lpc177x_8x_timer.c **** #include "lpc177x_8x_libcfg_default.h"
  41:../src/lib/lpc177x_8x/Drivers/source/lpc177x_8x_timer.c **** #endif /* __BUILD_WITH_EXAMPLE__ */
  42:../src/lib/lpc177x_8x/Drivers/source/lpc177x_8x_timer.c **** #ifdef _TIM
  43:../src/lib/lpc177x_8x/Drivers/source/lpc177x_8x_timer.c **** 
  44:../src/lib/lpc177x_8x/Drivers/source/lpc177x_8x_timer.c **** /* Includes ------------------------------------------------------------------- */
  45:../src/lib/lpc177x_8x/Drivers/source/lpc177x_8x_timer.c **** #include "lpc177x_8x_timer.h"
  46:../src/lib/lpc177x_8x/Drivers/source/lpc177x_8x_timer.c **** #include "lpc177x_8x_clkpwr.h"
  47:../src/lib/lpc177x_8x/Drivers/source/lpc177x_8x_timer.c **** #include "lpc177x_8x_pinsel.h"
  48:../src/lib/lpc177x_8x/Drivers/source/lpc177x_8x_timer.c **** 
  49:../src/lib/lpc177x_8x/Drivers/source/lpc177x_8x_timer.c **** /* Private Functions ---------------------------------------------------------- */
  50:../src/lib/lpc177x_8x/Drivers/source/lpc177x_8x_timer.c **** 
  51:../src/lib/lpc177x_8x/Drivers/source/lpc177x_8x_timer.c **** static uint32_t getPClock (uint32_t timernum);
  52:../src/lib/lpc177x_8x/Drivers/source/lpc177x_8x_timer.c **** static uint32_t converUSecToVal (uint32_t timernum, uint32_t usec);
  53:../src/lib/lpc177x_8x/Drivers/source/lpc177x_8x_timer.c **** static int32_t converPtrToTimeNum (LPC_TIM_TypeDef *TIMx);
  54:../src/lib/lpc177x_8x/Drivers/source/lpc177x_8x_timer.c **** 
  55:../src/lib/lpc177x_8x/Drivers/source/lpc177x_8x_timer.c **** 
  56:../src/lib/lpc177x_8x/Drivers/source/lpc177x_8x_timer.c **** /*********************************************************************//**
  57:../src/lib/lpc177x_8x/Drivers/source/lpc177x_8x_timer.c ****  * @brief       Get peripheral clock of each timer controller
  58:../src/lib/lpc177x_8x/Drivers/source/lpc177x_8x_timer.c ****  * @param[in]   timernum Timer number
  59:../src/lib/lpc177x_8x/Drivers/source/lpc177x_8x_timer.c ****  * @return      Peripheral clock of timer
  60:../src/lib/lpc177x_8x/Drivers/source/lpc177x_8x_timer.c ****  **********************************************************************/
  61:../src/lib/lpc177x_8x/Drivers/source/lpc177x_8x_timer.c **** static uint32_t getPClock (uint32_t timernum)
  62:../src/lib/lpc177x_8x/Drivers/source/lpc177x_8x_timer.c **** {
  25              		.loc 1 62 0
  26              		.cfi_startproc
  27              		@ args = 0, pretend = 0, frame = 16
  28              		@ frame_needed = 1, uses_anonymous_args = 0
  29 0000 80B5     		push	{r7, lr}
  30              	.LCFI0:
  31              		.cfi_def_cfa_offset 8
  32              		.cfi_offset 7, -8
  33              		.cfi_offset 14, -4
  34 0002 84B0     		sub	sp, sp, #16
  35              	.LCFI1:
  36              		.cfi_def_cfa_offset 24
  37 0004 00AF     		add	r7, sp, #0
  38              	.LCFI2:
  39              		.cfi_def_cfa_register 7
  40 0006 7860     		str	r0, [r7, #4]
  63:../src/lib/lpc177x_8x/Drivers/source/lpc177x_8x_timer.c ****     uint32_t clkdlycnt;
  64:../src/lib/lpc177x_8x/Drivers/source/lpc177x_8x_timer.c ****     clkdlycnt = CLKPWR_GetCLK(CLKPWR_CLKTYPE_PER);
  41              		.loc 1 64 0
  42 0008 4FF00100 		mov	r0, #1
  43 000c FFF7FEFF 		bl	CLKPWR_GetCLK
  44 0010 F860     		str	r0, [r7, #12]
  65:../src/lib/lpc177x_8x/Drivers/source/lpc177x_8x_timer.c ****     return clkdlycnt;
  45              		.loc 1 65 0
  46 0012 FB68     		ldr	r3, [r7, #12]
  66:../src/lib/lpc177x_8x/Drivers/source/lpc177x_8x_timer.c **** }
  47              		.loc 1 66 0
  48 0014 1846     		mov	r0, r3
  49 0016 07F11007 		add	r7, r7, #16
  50 001a BD46     		mov	sp, r7
  51 001c 80BD     		pop	{r7, pc}
  52              		.cfi_endproc
  53              	.LFE55:
  55              		.global	__aeabi_uldivmod
  56 001e 00BF     		.align	2
  57              		.thumb
  58              		.thumb_func
  60              	converUSecToVal:
  61              	.LFB56:
  67:../src/lib/lpc177x_8x/Drivers/source/lpc177x_8x_timer.c **** 
  68:../src/lib/lpc177x_8x/Drivers/source/lpc177x_8x_timer.c **** 
  69:../src/lib/lpc177x_8x/Drivers/source/lpc177x_8x_timer.c **** /*********************************************************************//**
  70:../src/lib/lpc177x_8x/Drivers/source/lpc177x_8x_timer.c ****  * @brief       Convert a time to a timer count value
  71:../src/lib/lpc177x_8x/Drivers/source/lpc177x_8x_timer.c ****  * @param[in]   timernum Timer number
  72:../src/lib/lpc177x_8x/Drivers/source/lpc177x_8x_timer.c ****  * @param[in]   usec Time in microseconds
  73:../src/lib/lpc177x_8x/Drivers/source/lpc177x_8x_timer.c ****  * @return      The number of required clock ticks to give the time delay
  74:../src/lib/lpc177x_8x/Drivers/source/lpc177x_8x_timer.c ****  **********************************************************************/
  75:../src/lib/lpc177x_8x/Drivers/source/lpc177x_8x_timer.c **** uint32_t converUSecToVal (uint32_t timernum, uint32_t usec)
  76:../src/lib/lpc177x_8x/Drivers/source/lpc177x_8x_timer.c **** {
  62              		.loc 1 76 0
  63              		.cfi_startproc
  64              		@ args = 0, pretend = 0, frame = 16
  65              		@ frame_needed = 1, uses_anonymous_args = 0
  66 0020 80B5     		push	{r7, lr}
  67              	.LCFI3:
  68              		.cfi_def_cfa_offset 8
  69              		.cfi_offset 7, -8
  70              		.cfi_offset 14, -4
  71 0022 84B0     		sub	sp, sp, #16
  72              	.LCFI4:
  73              		.cfi_def_cfa_offset 24
  74 0024 00AF     		add	r7, sp, #0
  75              	.LCFI5:
  76              		.cfi_def_cfa_register 7
  77 0026 7860     		str	r0, [r7, #4]
  78 0028 3960     		str	r1, [r7, #0]
  77:../src/lib/lpc177x_8x/Drivers/source/lpc177x_8x_timer.c ****     uint64_t clkdlycnt;
  78:../src/lib/lpc177x_8x/Drivers/source/lpc177x_8x_timer.c **** 
  79:../src/lib/lpc177x_8x/Drivers/source/lpc177x_8x_timer.c ****     // Get Pclock of timer
  80:../src/lib/lpc177x_8x/Drivers/source/lpc177x_8x_timer.c ****     clkdlycnt = (uint64_t) getPClock(timernum);
  79              		.loc 1 80 0
  80 002a 7868     		ldr	r0, [r7, #4]
  81 002c FFF7E8FF 		bl	getPClock
  82 0030 0146     		mov	r1, r0
  83 0032 0A46     		mov	r2, r1
  84 0034 4FF00003 		mov	r3, #0
  85 0038 C7E90223 		strd	r2, [r7, #8]
  81:../src/lib/lpc177x_8x/Drivers/source/lpc177x_8x_timer.c **** 
  82:../src/lib/lpc177x_8x/Drivers/source/lpc177x_8x_timer.c ****     clkdlycnt = (clkdlycnt * usec) / 1000000;
  86              		.loc 1 82 0
  87 003c 3968     		ldr	r1, [r7, #0]
  88 003e 0A46     		mov	r2, r1
  89 0040 4FF00003 		mov	r3, #0
  90 0044 B968     		ldr	r1, [r7, #8]
  91 0046 03FB01F0 		mul	r0, r3, r1
  92 004a F968     		ldr	r1, [r7, #12]
  93 004c 02FB01F1 		mul	r1, r2, r1
  94 0050 4118     		adds	r1, r0, r1
  95 0052 B868     		ldr	r0, [r7, #8]
  96 0054 A0FB0223 		umull	r2, r3, r0, r2
  97 0058 C918     		adds	r1, r1, r3
  98 005a 0B46     		mov	r3, r1
  99 005c 1046     		mov	r0, r2
 100 005e 1946     		mov	r1, r3
 101 0060 4FF47422 		mov	r2, #999424
 102 0064 02F51072 		add	r2, r2, #576
 103 0068 4FF00003 		mov	r3, #0
 104 006c FFF7FEFF 		bl	__aeabi_uldivmod
 105 0070 0246     		mov	r2, r0
 106 0072 0B46     		mov	r3, r1
 107 0074 C7E90223 		strd	r2, [r7, #8]
  83:../src/lib/lpc177x_8x/Drivers/source/lpc177x_8x_timer.c ****     return (uint32_t) clkdlycnt;
 108              		.loc 1 83 0
 109 0078 BB68     		ldr	r3, [r7, #8]
  84:../src/lib/lpc177x_8x/Drivers/source/lpc177x_8x_timer.c **** }
 110              		.loc 1 84 0
 111 007a 1846     		mov	r0, r3
 112 007c 07F11007 		add	r7, r7, #16
 113 0080 BD46     		mov	sp, r7
 114 0082 80BD     		pop	{r7, pc}
 115              		.cfi_endproc
 116              	.LFE56:
 118              		.align	2
 119              		.thumb
 120              		.thumb_func
 122              	converPtrToTimeNum:
 123              	.LFB57:
  85:../src/lib/lpc177x_8x/Drivers/source/lpc177x_8x_timer.c **** 
  86:../src/lib/lpc177x_8x/Drivers/source/lpc177x_8x_timer.c **** 
  87:../src/lib/lpc177x_8x/Drivers/source/lpc177x_8x_timer.c **** /*********************************************************************//**
  88:../src/lib/lpc177x_8x/Drivers/source/lpc177x_8x_timer.c ****  * @brief       Convert a timer register pointer to a timer number
  89:../src/lib/lpc177x_8x/Drivers/source/lpc177x_8x_timer.c ****  * @param[in]   TIMx Pointer to LPC_TIM_TypeDef, should be:
  90:../src/lib/lpc177x_8x/Drivers/source/lpc177x_8x_timer.c ****  *              - LPC_TIM0: TIMER0 peripheral
  91:../src/lib/lpc177x_8x/Drivers/source/lpc177x_8x_timer.c ****  *              - LPC_TIM1: TIMER1 peripheral
  92:../src/lib/lpc177x_8x/Drivers/source/lpc177x_8x_timer.c ****  *              - LPC_TIM2: TIMER2 peripheral
  93:../src/lib/lpc177x_8x/Drivers/source/lpc177x_8x_timer.c ****  *              - LPC_TIM3: TIMER3 peripheral
  94:../src/lib/lpc177x_8x/Drivers/source/lpc177x_8x_timer.c ****  * @return      The timer number (0 to 3) or -1 if register pointer is bad
  95:../src/lib/lpc177x_8x/Drivers/source/lpc177x_8x_timer.c ****  **********************************************************************/
  96:../src/lib/lpc177x_8x/Drivers/source/lpc177x_8x_timer.c **** int32_t converPtrToTimeNum (LPC_TIM_TypeDef *TIMx)
  97:../src/lib/lpc177x_8x/Drivers/source/lpc177x_8x_timer.c **** {
 124              		.loc 1 97 0
 125              		.cfi_startproc
 126              		@ args = 0, pretend = 0, frame = 16
 127              		@ frame_needed = 1, uses_anonymous_args = 0
 128              		@ link register save eliminated.
 129 0084 80B4     		push	{r7}
 130              	.LCFI6:
 131              		.cfi_def_cfa_offset 4
 132              		.cfi_offset 7, -4
 133 0086 85B0     		sub	sp, sp, #20
 134              	.LCFI7:
 135              		.cfi_def_cfa_offset 24
 136 0088 00AF     		add	r7, sp, #0
 137              	.LCFI8:
 138              		.cfi_def_cfa_register 7
 139 008a 7860     		str	r0, [r7, #4]
  98:../src/lib/lpc177x_8x/Drivers/source/lpc177x_8x_timer.c ****     int32_t tnum = -1;
 140              		.loc 1 98 0
 141 008c 4FF0FF33 		mov	r3, #-1
 142 0090 FB60     		str	r3, [r7, #12]
  99:../src/lib/lpc177x_8x/Drivers/source/lpc177x_8x_timer.c **** 
 100:../src/lib/lpc177x_8x/Drivers/source/lpc177x_8x_timer.c ****     if (TIMx == LPC_TIM0)
 143              		.loc 1 100 0
 144 0092 7B68     		ldr	r3, [r7, #4]
 145 0094 B3F1402F 		cmp	r3, #1073758208
 146 0098 03D1     		bne	.L6
 101:../src/lib/lpc177x_8x/Drivers/source/lpc177x_8x_timer.c ****     {
 102:../src/lib/lpc177x_8x/Drivers/source/lpc177x_8x_timer.c ****         tnum = 0;
 147              		.loc 1 102 0
 148 009a 4FF00003 		mov	r3, #0
 149 009e FB60     		str	r3, [r7, #12]
 150 00a0 16E0     		b	.L7
 151              	.L6:
 103:../src/lib/lpc177x_8x/Drivers/source/lpc177x_8x_timer.c ****     }
 104:../src/lib/lpc177x_8x/Drivers/source/lpc177x_8x_timer.c ****     else if (TIMx == LPC_TIM1)
 152              		.loc 1 104 0
 153 00a2 7A68     		ldr	r2, [r7, #4]
 154 00a4 0E4B     		ldr	r3, .L11
 155 00a6 9A42     		cmp	r2, r3
 156 00a8 03D1     		bne	.L8
 105:../src/lib/lpc177x_8x/Drivers/source/lpc177x_8x_timer.c ****     {
 106:../src/lib/lpc177x_8x/Drivers/source/lpc177x_8x_timer.c ****         tnum = 1;
 157              		.loc 1 106 0
 158 00aa 4FF00103 		mov	r3, #1
 159 00ae FB60     		str	r3, [r7, #12]
 160 00b0 0EE0     		b	.L7
 161              	.L8:
 107:../src/lib/lpc177x_8x/Drivers/source/lpc177x_8x_timer.c ****     }
 108:../src/lib/lpc177x_8x/Drivers/source/lpc177x_8x_timer.c ****     else if (TIMx == LPC_TIM2)
 162              		.loc 1 108 0
 163 00b2 7A68     		ldr	r2, [r7, #4]
 164 00b4 0B4B     		ldr	r3, .L11+4
 165 00b6 9A42     		cmp	r2, r3
 166 00b8 03D1     		bne	.L9
 109:../src/lib/lpc177x_8x/Drivers/source/lpc177x_8x_timer.c ****     {
 110:../src/lib/lpc177x_8x/Drivers/source/lpc177x_8x_timer.c ****         tnum = 2;
 167              		.loc 1 110 0
 168 00ba 4FF00203 		mov	r3, #2
 169 00be FB60     		str	r3, [r7, #12]
 170 00c0 06E0     		b	.L7
 171              	.L9:
 111:../src/lib/lpc177x_8x/Drivers/source/lpc177x_8x_timer.c ****     }
 112:../src/lib/lpc177x_8x/Drivers/source/lpc177x_8x_timer.c ****     else if (TIMx == LPC_TIM3)
 172              		.loc 1 112 0
 173 00c2 7A68     		ldr	r2, [r7, #4]
 174 00c4 084B     		ldr	r3, .L11+8
 175 00c6 9A42     		cmp	r2, r3
 176 00c8 02D1     		bne	.L7
 113:../src/lib/lpc177x_8x/Drivers/source/lpc177x_8x_timer.c ****     {
 114:../src/lib/lpc177x_8x/Drivers/source/lpc177x_8x_timer.c ****         tnum = 3;
 177              		.loc 1 114 0
 178 00ca 4FF00303 		mov	r3, #3
 179 00ce FB60     		str	r3, [r7, #12]
 180              	.L7:
 115:../src/lib/lpc177x_8x/Drivers/source/lpc177x_8x_timer.c ****     }
 116:../src/lib/lpc177x_8x/Drivers/source/lpc177x_8x_timer.c **** 
 117:../src/lib/lpc177x_8x/Drivers/source/lpc177x_8x_timer.c ****     return tnum;
 181              		.loc 1 117 0
 182 00d0 FB68     		ldr	r3, [r7, #12]
 118:../src/lib/lpc177x_8x/Drivers/source/lpc177x_8x_timer.c **** }
 183              		.loc 1 118 0
 184 00d2 1846     		mov	r0, r3
 185 00d4 07F11407 		add	r7, r7, #20
 186 00d8 BD46     		mov	sp, r7
 187 00da 80BC     		pop	{r7}
 188 00dc 7047     		bx	lr
 189              	.L12:
 190 00de 00BF     		.align	2
 191              	.L11:
 192 00e0 00800040 		.word	1073774592
 193 00e4 00000940 		.word	1074331648
 194 00e8 00400940 		.word	1074348032
 195              		.cfi_endproc
 196              	.LFE57:
 198              		.align	2
 199              		.global	TIM_GetIntStatus
 200              		.thumb
 201              		.thumb_func
 203              	TIM_GetIntStatus:
 204              	.LFB58:
 119:../src/lib/lpc177x_8x/Drivers/source/lpc177x_8x_timer.c **** 
 120:../src/lib/lpc177x_8x/Drivers/source/lpc177x_8x_timer.c **** /* End of Private Functions ---------------------------------------------------- */
 121:../src/lib/lpc177x_8x/Drivers/source/lpc177x_8x_timer.c **** 
 122:../src/lib/lpc177x_8x/Drivers/source/lpc177x_8x_timer.c **** 
 123:../src/lib/lpc177x_8x/Drivers/source/lpc177x_8x_timer.c **** /* Public Functions ----------------------------------------------------------- */
 124:../src/lib/lpc177x_8x/Drivers/source/lpc177x_8x_timer.c **** /** @addtogroup TIM_Public_Functions
 125:../src/lib/lpc177x_8x/Drivers/source/lpc177x_8x_timer.c ****  * @{
 126:../src/lib/lpc177x_8x/Drivers/source/lpc177x_8x_timer.c ****  */
 127:../src/lib/lpc177x_8x/Drivers/source/lpc177x_8x_timer.c **** 
 128:../src/lib/lpc177x_8x/Drivers/source/lpc177x_8x_timer.c **** /*********************************************************************//**
 129:../src/lib/lpc177x_8x/Drivers/source/lpc177x_8x_timer.c ****  * @brief       Get Interrupt Status
 130:../src/lib/lpc177x_8x/Drivers/source/lpc177x_8x_timer.c ****  * @param[in]   TIMx Timer selection, should be:
 131:../src/lib/lpc177x_8x/Drivers/source/lpc177x_8x_timer.c ****  *              - LPC_TIM0: TIMER0 peripheral
 132:../src/lib/lpc177x_8x/Drivers/source/lpc177x_8x_timer.c ****  *              - LPC_TIM1: TIMER1 peripheral
 133:../src/lib/lpc177x_8x/Drivers/source/lpc177x_8x_timer.c ****  *              - LPC_TIM2: TIMER2 peripheral
 134:../src/lib/lpc177x_8x/Drivers/source/lpc177x_8x_timer.c ****  *              - LPC_TIM3: TIMER3 peripheral
 135:../src/lib/lpc177x_8x/Drivers/source/lpc177x_8x_timer.c ****  * @param[in]   IntFlag Interrupt type, should be:
 136:../src/lib/lpc177x_8x/Drivers/source/lpc177x_8x_timer.c ****  *              - TIM_MR0_INT: Interrupt for Match channel 0
 137:../src/lib/lpc177x_8x/Drivers/source/lpc177x_8x_timer.c ****  *              - TIM_MR1_INT: Interrupt for Match channel 1
 138:../src/lib/lpc177x_8x/Drivers/source/lpc177x_8x_timer.c ****  *              - TIM_MR2_INT: Interrupt for Match channel 2
 139:../src/lib/lpc177x_8x/Drivers/source/lpc177x_8x_timer.c ****  *              - TIM_MR3_INT: Interrupt for Match channel 3
 140:../src/lib/lpc177x_8x/Drivers/source/lpc177x_8x_timer.c ****  *              - TIM_CR0_INT: Interrupt for Capture channel 0
 141:../src/lib/lpc177x_8x/Drivers/source/lpc177x_8x_timer.c ****  *              - TIM_CR1_INT: Interrupt for Capture channel 1
 142:../src/lib/lpc177x_8x/Drivers/source/lpc177x_8x_timer.c ****  * @return      Flag Status for required interrupt
 143:../src/lib/lpc177x_8x/Drivers/source/lpc177x_8x_timer.c ****  *              - SET : interrupt
 144:../src/lib/lpc177x_8x/Drivers/source/lpc177x_8x_timer.c ****  *              - RESET : no interrupt
 145:../src/lib/lpc177x_8x/Drivers/source/lpc177x_8x_timer.c ****  **********************************************************************/
 146:../src/lib/lpc177x_8x/Drivers/source/lpc177x_8x_timer.c **** FlagStatus TIM_GetIntStatus(LPC_TIM_TypeDef *TIMx, TIM_INT_TYPE IntFlag)
 147:../src/lib/lpc177x_8x/Drivers/source/lpc177x_8x_timer.c **** {
 205              		.loc 1 147 0
 206              		.cfi_startproc
 207              		@ args = 0, pretend = 0, frame = 16
 208              		@ frame_needed = 1, uses_anonymous_args = 0
 209              		@ link register save eliminated.
 210 00ec 80B4     		push	{r7}
 211              	.LCFI9:
 212              		.cfi_def_cfa_offset 4
 213              		.cfi_offset 7, -4
 214 00ee 85B0     		sub	sp, sp, #20
 215              	.LCFI10:
 216              		.cfi_def_cfa_offset 24
 217 00f0 00AF     		add	r7, sp, #0
 218              	.LCFI11:
 219              		.cfi_def_cfa_register 7
 220 00f2 7860     		str	r0, [r7, #4]
 221 00f4 0B46     		mov	r3, r1
 222 00f6 FB70     		strb	r3, [r7, #3]
 148:../src/lib/lpc177x_8x/Drivers/source/lpc177x_8x_timer.c ****     uint8_t temp;
 149:../src/lib/lpc177x_8x/Drivers/source/lpc177x_8x_timer.c ****     temp = (TIMx->IR)& TIM_IR_CLR(IntFlag);
 223              		.loc 1 149 0
 224 00f8 7B68     		ldr	r3, [r7, #4]
 225 00fa 1B68     		ldr	r3, [r3, #0]
 226 00fc DAB2     		uxtb	r2, r3
 227 00fe FB78     		ldrb	r3, [r7, #3]	@ zero_extendqisi2
 228 0100 4FF00101 		mov	r1, #1
 229 0104 01FA03F3 		lsl	r3, r1, r3
 230 0108 DBB2     		uxtb	r3, r3
 231 010a 1340     		ands	r3, r3, r2
 232 010c FB73     		strb	r3, [r7, #15]
 150:../src/lib/lpc177x_8x/Drivers/source/lpc177x_8x_timer.c ****     if (temp)
 233              		.loc 1 150 0
 234 010e FB7B     		ldrb	r3, [r7, #15]	@ zero_extendqisi2
 235 0110 002B     		cmp	r3, #0
 236 0112 02D0     		beq	.L14
 151:../src/lib/lpc177x_8x/Drivers/source/lpc177x_8x_timer.c ****         return SET;
 237              		.loc 1 151 0
 238 0114 4FF00103 		mov	r3, #1
 239 0118 01E0     		b	.L15
 240              	.L14:
 152:../src/lib/lpc177x_8x/Drivers/source/lpc177x_8x_timer.c **** 
 153:../src/lib/lpc177x_8x/Drivers/source/lpc177x_8x_timer.c ****     return RESET;
 241              		.loc 1 153 0
 242 011a 4FF00003 		mov	r3, #0
 243              	.L15:
 154:../src/lib/lpc177x_8x/Drivers/source/lpc177x_8x_timer.c **** 
 155:../src/lib/lpc177x_8x/Drivers/source/lpc177x_8x_timer.c **** }
 244              		.loc 1 155 0
 245 011e 1846     		mov	r0, r3
 246 0120 07F11407 		add	r7, r7, #20
 247 0124 BD46     		mov	sp, r7
 248 0126 80BC     		pop	{r7}
 249 0128 7047     		bx	lr
 250              		.cfi_endproc
 251              	.LFE58:
 253 012a 00BF     		.align	2
 254              		.global	TIM_ClearIntPending
 255              		.thumb
 256              		.thumb_func
 258              	TIM_ClearIntPending:
 259              	.LFB59:
 156:../src/lib/lpc177x_8x/Drivers/source/lpc177x_8x_timer.c **** 
 157:../src/lib/lpc177x_8x/Drivers/source/lpc177x_8x_timer.c **** /*********************************************************************//**
 158:../src/lib/lpc177x_8x/Drivers/source/lpc177x_8x_timer.c ****  * @brief       Clear Interrupt pending
 159:../src/lib/lpc177x_8x/Drivers/source/lpc177x_8x_timer.c ****  * @param[in]   TIMx Timer selection, should be:
 160:../src/lib/lpc177x_8x/Drivers/source/lpc177x_8x_timer.c ****  *              - LPC_TIM0: TIMER0 peripheral
 161:../src/lib/lpc177x_8x/Drivers/source/lpc177x_8x_timer.c ****  *              - LPC_TIM1: TIMER1 peripheral
 162:../src/lib/lpc177x_8x/Drivers/source/lpc177x_8x_timer.c ****  *              - LPC_TIM2: TIMER2 peripheral
 163:../src/lib/lpc177x_8x/Drivers/source/lpc177x_8x_timer.c ****  *              - LPC_TIM3: TIMER3 peripheral
 164:../src/lib/lpc177x_8x/Drivers/source/lpc177x_8x_timer.c ****  * @param[in]   IntFlag: interrupt type, should be:
 165:../src/lib/lpc177x_8x/Drivers/source/lpc177x_8x_timer.c ****  *              - TIM_MR0_INT: Interrupt for Match channel 0
 166:../src/lib/lpc177x_8x/Drivers/source/lpc177x_8x_timer.c ****  *              - TIM_MR1_INT: Interrupt for Match channel 1
 167:../src/lib/lpc177x_8x/Drivers/source/lpc177x_8x_timer.c ****  *              - TIM_MR2_INT: Interrupt for Match channel 2
 168:../src/lib/lpc177x_8x/Drivers/source/lpc177x_8x_timer.c ****  *              - TIM_MR3_INT: Interrupt for Match channel 3
 169:../src/lib/lpc177x_8x/Drivers/source/lpc177x_8x_timer.c ****  *              - TIM_CR0_INT: Interrupt for Capture channel 0
 170:../src/lib/lpc177x_8x/Drivers/source/lpc177x_8x_timer.c ****  *              - TIM_CR1_INT: Interrupt for Capture channel 1
 171:../src/lib/lpc177x_8x/Drivers/source/lpc177x_8x_timer.c ****  * @return      None
 172:../src/lib/lpc177x_8x/Drivers/source/lpc177x_8x_timer.c ****  **********************************************************************/
 173:../src/lib/lpc177x_8x/Drivers/source/lpc177x_8x_timer.c **** void TIM_ClearIntPending(LPC_TIM_TypeDef *TIMx, TIM_INT_TYPE IntFlag)
 174:../src/lib/lpc177x_8x/Drivers/source/lpc177x_8x_timer.c **** {
 260              		.loc 1 174 0
 261              		.cfi_startproc
 262              		@ args = 0, pretend = 0, frame = 8
 263              		@ frame_needed = 1, uses_anonymous_args = 0
 264              		@ link register save eliminated.
 265 012c 80B4     		push	{r7}
 266              	.LCFI12:
 267              		.cfi_def_cfa_offset 4
 268              		.cfi_offset 7, -4
 269 012e 83B0     		sub	sp, sp, #12
 270              	.LCFI13:
 271              		.cfi_def_cfa_offset 16
 272 0130 00AF     		add	r7, sp, #0
 273              	.LCFI14:
 274              		.cfi_def_cfa_register 7
 275 0132 7860     		str	r0, [r7, #4]
 276 0134 0B46     		mov	r3, r1
 277 0136 FB70     		strb	r3, [r7, #3]
 175:../src/lib/lpc177x_8x/Drivers/source/lpc177x_8x_timer.c ****     TIMx->IR = TIM_IR_CLR(IntFlag);
 278              		.loc 1 175 0
 279 0138 FB78     		ldrb	r3, [r7, #3]	@ zero_extendqisi2
 280 013a 4FF00102 		mov	r2, #1
 281 013e 02FA03F3 		lsl	r3, r2, r3
 282 0142 1A46     		mov	r2, r3
 283 0144 7B68     		ldr	r3, [r7, #4]
 284 0146 1A60     		str	r2, [r3, #0]
 176:../src/lib/lpc177x_8x/Drivers/source/lpc177x_8x_timer.c **** }
 285              		.loc 1 176 0
 286 0148 07F10C07 		add	r7, r7, #12
 287 014c BD46     		mov	sp, r7
 288 014e 80BC     		pop	{r7}
 289 0150 7047     		bx	lr
 290              		.cfi_endproc
 291              	.LFE59:
 293 0152 00BF     		.align	2
 294              		.global	TIM_ConfigStructInit
 295              		.thumb
 296              		.thumb_func
 298              	TIM_ConfigStructInit:
 299              	.LFB60:
 177:../src/lib/lpc177x_8x/Drivers/source/lpc177x_8x_timer.c **** 
 178:../src/lib/lpc177x_8x/Drivers/source/lpc177x_8x_timer.c **** 
 179:../src/lib/lpc177x_8x/Drivers/source/lpc177x_8x_timer.c **** /*********************************************************************//**
 180:../src/lib/lpc177x_8x/Drivers/source/lpc177x_8x_timer.c ****  * @brief       Configuration for Timer at initial time
 181:../src/lib/lpc177x_8x/Drivers/source/lpc177x_8x_timer.c ****  * @param[in]   TimerCounterMode timer counter mode, should be:
 182:../src/lib/lpc177x_8x/Drivers/source/lpc177x_8x_timer.c ****  *              - TIM_TIMER_MODE: Timer mode
 183:../src/lib/lpc177x_8x/Drivers/source/lpc177x_8x_timer.c ****  *              - TIM_COUNTER_RISING_MODE: Counter rising mode
 184:../src/lib/lpc177x_8x/Drivers/source/lpc177x_8x_timer.c ****  *              - TIM_COUNTER_FALLING_MODE: Counter falling mode
 185:../src/lib/lpc177x_8x/Drivers/source/lpc177x_8x_timer.c ****  *              - TIM_COUNTER_ANY_MODE:Counter on both edges
 186:../src/lib/lpc177x_8x/Drivers/source/lpc177x_8x_timer.c ****  * @param[in]   TIM_ConfigStruct pointer to TIM_TIMERCFG_Type or
 187:../src/lib/lpc177x_8x/Drivers/source/lpc177x_8x_timer.c ****  *              TIM_COUNTERCFG_Type
 188:../src/lib/lpc177x_8x/Drivers/source/lpc177x_8x_timer.c ****  * @return      None
 189:../src/lib/lpc177x_8x/Drivers/source/lpc177x_8x_timer.c ****  **********************************************************************/
 190:../src/lib/lpc177x_8x/Drivers/source/lpc177x_8x_timer.c **** void TIM_ConfigStructInit(TIM_MODE_OPT TimerCounterMode, void *TIM_ConfigStruct)
 191:../src/lib/lpc177x_8x/Drivers/source/lpc177x_8x_timer.c **** {
 300              		.loc 1 191 0
 301              		.cfi_startproc
 302              		@ args = 0, pretend = 0, frame = 16
 303              		@ frame_needed = 1, uses_anonymous_args = 0
 304              		@ link register save eliminated.
 305 0154 80B4     		push	{r7}
 306              	.LCFI15:
 307              		.cfi_def_cfa_offset 4
 308              		.cfi_offset 7, -4
 309 0156 85B0     		sub	sp, sp, #20
 310              	.LCFI16:
 311              		.cfi_def_cfa_offset 24
 312 0158 00AF     		add	r7, sp, #0
 313              	.LCFI17:
 314              		.cfi_def_cfa_register 7
 315 015a 0346     		mov	r3, r0
 316 015c 3960     		str	r1, [r7, #0]
 317 015e FB71     		strb	r3, [r7, #7]
 192:../src/lib/lpc177x_8x/Drivers/source/lpc177x_8x_timer.c ****     if (TimerCounterMode == TIM_TIMER_MODE )
 318              		.loc 1 192 0
 319 0160 FB79     		ldrb	r3, [r7, #7]	@ zero_extendqisi2
 320 0162 002B     		cmp	r3, #0
 321 0164 0AD1     		bne	.L18
 322              	.LBB2:
 193:../src/lib/lpc177x_8x/Drivers/source/lpc177x_8x_timer.c ****     {
 194:../src/lib/lpc177x_8x/Drivers/source/lpc177x_8x_timer.c ****         TIM_TIMERCFG_Type * pTimeCfg = (TIM_TIMERCFG_Type *)TIM_ConfigStruct;
 323              		.loc 1 194 0
 324 0166 3B68     		ldr	r3, [r7, #0]
 325 0168 FB60     		str	r3, [r7, #12]
 195:../src/lib/lpc177x_8x/Drivers/source/lpc177x_8x_timer.c ****         pTimeCfg->PrescaleOption = TIM_PRESCALE_USVAL;
 326              		.loc 1 195 0
 327 016a FB68     		ldr	r3, [r7, #12]
 328 016c 4FF00102 		mov	r2, #1
 329 0170 1A70     		strb	r2, [r3, #0]
 196:../src/lib/lpc177x_8x/Drivers/source/lpc177x_8x_timer.c ****         pTimeCfg->PrescaleValue = 1;
 330              		.loc 1 196 0
 331 0172 FB68     		ldr	r3, [r7, #12]
 332 0174 4FF00102 		mov	r2, #1
 333 0178 5A60     		str	r2, [r3, #4]
 334 017a 05E0     		b	.L17
 335              	.L18:
 336              	.LBE2:
 337              	.LBB3:
 197:../src/lib/lpc177x_8x/Drivers/source/lpc177x_8x_timer.c ****     }
 198:../src/lib/lpc177x_8x/Drivers/source/lpc177x_8x_timer.c ****     else
 199:../src/lib/lpc177x_8x/Drivers/source/lpc177x_8x_timer.c ****     {
 200:../src/lib/lpc177x_8x/Drivers/source/lpc177x_8x_timer.c ****         TIM_COUNTERCFG_Type * pCounterCfg = (TIM_COUNTERCFG_Type *)TIM_ConfigStruct;
 338              		.loc 1 200 0
 339 017c 3B68     		ldr	r3, [r7, #0]
 340 017e BB60     		str	r3, [r7, #8]
 201:../src/lib/lpc177x_8x/Drivers/source/lpc177x_8x_timer.c ****         pCounterCfg->CountInputSelect = TIM_COUNTER_INCAP0;
 341              		.loc 1 201 0
 342 0180 BB68     		ldr	r3, [r7, #8]
 343 0182 4FF00002 		mov	r2, #0
 344 0186 5A70     		strb	r2, [r3, #1]
 345              	.L17:
 346              	.LBE3:
 202:../src/lib/lpc177x_8x/Drivers/source/lpc177x_8x_timer.c ****     }
 203:../src/lib/lpc177x_8x/Drivers/source/lpc177x_8x_timer.c **** }
 347              		.loc 1 203 0
 348 0188 07F11407 		add	r7, r7, #20
 349 018c BD46     		mov	sp, r7
 350 018e 80BC     		pop	{r7}
 351 0190 7047     		bx	lr
 352              		.cfi_endproc
 353              	.LFE60:
 355 0192 00BF     		.align	2
 356              		.global	TIM_Init
 357              		.thumb
 358              		.thumb_func
 360              	TIM_Init:
 361              	.LFB61:
 204:../src/lib/lpc177x_8x/Drivers/source/lpc177x_8x_timer.c **** 
 205:../src/lib/lpc177x_8x/Drivers/source/lpc177x_8x_timer.c **** /*********************************************************************//**
 206:../src/lib/lpc177x_8x/Drivers/source/lpc177x_8x_timer.c ****  * @brief       Initial Timer/Counter device
 207:../src/lib/lpc177x_8x/Drivers/source/lpc177x_8x_timer.c ****  *                  Set Clock frequency for Timer
 208:../src/lib/lpc177x_8x/Drivers/source/lpc177x_8x_timer.c ****  *                  Set initial configuration for Timer
 209:../src/lib/lpc177x_8x/Drivers/source/lpc177x_8x_timer.c ****  * @param[in]   TIMx  Timer selection, should be:
 210:../src/lib/lpc177x_8x/Drivers/source/lpc177x_8x_timer.c ****  *              - LPC_TIM0: TIMER0 peripheral
 211:../src/lib/lpc177x_8x/Drivers/source/lpc177x_8x_timer.c ****  *              - LPC_TIM1: TIMER1 peripheral
 212:../src/lib/lpc177x_8x/Drivers/source/lpc177x_8x_timer.c ****  *              - LPC_TIM2: TIMER2 peripheral
 213:../src/lib/lpc177x_8x/Drivers/source/lpc177x_8x_timer.c ****  *              - LPC_TIM3: TIMER3 peripheral
 214:../src/lib/lpc177x_8x/Drivers/source/lpc177x_8x_timer.c ****  * @param[in]   TimerCounterMode Timer counter mode, should be:
 215:../src/lib/lpc177x_8x/Drivers/source/lpc177x_8x_timer.c ****  *              - TIM_TIMER_MODE: Timer mode
 216:../src/lib/lpc177x_8x/Drivers/source/lpc177x_8x_timer.c ****  *              - TIM_COUNTER_RISING_MODE: Counter rising mode
 217:../src/lib/lpc177x_8x/Drivers/source/lpc177x_8x_timer.c ****  *              - TIM_COUNTER_FALLING_MODE: Counter falling mode
 218:../src/lib/lpc177x_8x/Drivers/source/lpc177x_8x_timer.c ****  *              - TIM_COUNTER_ANY_MODE:Counter on both edges
 219:../src/lib/lpc177x_8x/Drivers/source/lpc177x_8x_timer.c ****  * @param[in]   TIM_ConfigStruct pointer to TIM_TIMERCFG_Type
 220:../src/lib/lpc177x_8x/Drivers/source/lpc177x_8x_timer.c ****  *              that contains the configuration information for the
 221:../src/lib/lpc177x_8x/Drivers/source/lpc177x_8x_timer.c ****  *                    specified Timer peripheral.
 222:../src/lib/lpc177x_8x/Drivers/source/lpc177x_8x_timer.c ****  * @return      None
 223:../src/lib/lpc177x_8x/Drivers/source/lpc177x_8x_timer.c ****  **********************************************************************/
 224:../src/lib/lpc177x_8x/Drivers/source/lpc177x_8x_timer.c **** void TIM_Init(LPC_TIM_TypeDef *TIMx, TIM_MODE_OPT TimerCounterMode, void *TIM_ConfigStruct)
 225:../src/lib/lpc177x_8x/Drivers/source/lpc177x_8x_timer.c **** {
 362              		.loc 1 225 0
 363              		.cfi_startproc
 364              		@ args = 0, pretend = 0, frame = 24
 365              		@ frame_needed = 1, uses_anonymous_args = 0
 366 0194 80B5     		push	{r7, lr}
 367              	.LCFI18:
 368              		.cfi_def_cfa_offset 8
 369              		.cfi_offset 7, -8
 370              		.cfi_offset 14, -4
 371 0196 86B0     		sub	sp, sp, #24
 372              	.LCFI19:
 373              		.cfi_def_cfa_offset 32
 374 0198 00AF     		add	r7, sp, #0
 375              	.LCFI20:
 376              		.cfi_def_cfa_register 7
 377 019a F860     		str	r0, [r7, #12]
 378 019c 0B46     		mov	r3, r1
 379 019e 7A60     		str	r2, [r7, #4]
 380 01a0 FB72     		strb	r3, [r7, #11]
 226:../src/lib/lpc177x_8x/Drivers/source/lpc177x_8x_timer.c ****     TIM_TIMERCFG_Type *pTimeCfg;
 227:../src/lib/lpc177x_8x/Drivers/source/lpc177x_8x_timer.c ****     TIM_COUNTERCFG_Type *pCounterCfg;
 228:../src/lib/lpc177x_8x/Drivers/source/lpc177x_8x_timer.c **** 
 229:../src/lib/lpc177x_8x/Drivers/source/lpc177x_8x_timer.c ****     //set power
 230:../src/lib/lpc177x_8x/Drivers/source/lpc177x_8x_timer.c ****     if (TIMx== LPC_TIM0)
 381              		.loc 1 230 0
 382 01a2 FB68     		ldr	r3, [r7, #12]
 383 01a4 B3F1402F 		cmp	r3, #1073758208
 384 01a8 06D1     		bne	.L21
 231:../src/lib/lpc177x_8x/Drivers/source/lpc177x_8x_timer.c ****     {
 232:../src/lib/lpc177x_8x/Drivers/source/lpc177x_8x_timer.c ****         CLKPWR_ConfigPPWR (CLKPWR_PCONP_PCTIM0, ENABLE);
 385              		.loc 1 232 0
 386 01aa 4FF00200 		mov	r0, #2
 387 01ae 4FF00101 		mov	r1, #1
 388 01b2 FFF7FEFF 		bl	CLKPWR_ConfigPPWR
 389 01b6 1FE0     		b	.L22
 390              	.L21:
 233:../src/lib/lpc177x_8x/Drivers/source/lpc177x_8x_timer.c ****     }
 234:../src/lib/lpc177x_8x/Drivers/source/lpc177x_8x_timer.c ****     else if (TIMx== LPC_TIM1)
 391              		.loc 1 234 0
 392 01b8 FA68     		ldr	r2, [r7, #12]
 393 01ba 3E4B     		ldr	r3, .L28
 394 01bc 9A42     		cmp	r2, r3
 395 01be 06D1     		bne	.L23
 235:../src/lib/lpc177x_8x/Drivers/source/lpc177x_8x_timer.c ****     {
 236:../src/lib/lpc177x_8x/Drivers/source/lpc177x_8x_timer.c ****         CLKPWR_ConfigPPWR (CLKPWR_PCONP_PCTIM1, ENABLE);
 396              		.loc 1 236 0
 397 01c0 4FF00400 		mov	r0, #4
 398 01c4 4FF00101 		mov	r1, #1
 399 01c8 FFF7FEFF 		bl	CLKPWR_ConfigPPWR
 400 01cc 14E0     		b	.L22
 401              	.L23:
 237:../src/lib/lpc177x_8x/Drivers/source/lpc177x_8x_timer.c ****     }
 238:../src/lib/lpc177x_8x/Drivers/source/lpc177x_8x_timer.c **** 
 239:../src/lib/lpc177x_8x/Drivers/source/lpc177x_8x_timer.c ****     else if (TIMx== LPC_TIM2)
 402              		.loc 1 239 0
 403 01ce FA68     		ldr	r2, [r7, #12]
 404 01d0 394B     		ldr	r3, .L28+4
 405 01d2 9A42     		cmp	r2, r3
 406 01d4 06D1     		bne	.L24
 240:../src/lib/lpc177x_8x/Drivers/source/lpc177x_8x_timer.c ****     {
 241:../src/lib/lpc177x_8x/Drivers/source/lpc177x_8x_timer.c ****         CLKPWR_ConfigPPWR (CLKPWR_PCONP_PCTIM2, ENABLE);
 407              		.loc 1 241 0
 408 01d6 4FF48000 		mov	r0, #4194304
 409 01da 4FF00101 		mov	r1, #1
 410 01de FFF7FEFF 		bl	CLKPWR_ConfigPPWR
 411 01e2 09E0     		b	.L22
 412              	.L24:
 242:../src/lib/lpc177x_8x/Drivers/source/lpc177x_8x_timer.c ****     }
 243:../src/lib/lpc177x_8x/Drivers/source/lpc177x_8x_timer.c ****     else if (TIMx== LPC_TIM3)
 413              		.loc 1 243 0
 414 01e4 FA68     		ldr	r2, [r7, #12]
 415 01e6 354B     		ldr	r3, .L28+8
 416 01e8 9A42     		cmp	r2, r3
 417 01ea 05D1     		bne	.L22
 244:../src/lib/lpc177x_8x/Drivers/source/lpc177x_8x_timer.c ****     {
 245:../src/lib/lpc177x_8x/Drivers/source/lpc177x_8x_timer.c ****         CLKPWR_ConfigPPWR (CLKPWR_PCONP_PCTIM3, ENABLE);
 418              		.loc 1 245 0
 419 01ec 4FF40000 		mov	r0, #8388608
 420 01f0 4FF00101 		mov	r1, #1
 421 01f4 FFF7FEFF 		bl	CLKPWR_ConfigPPWR
 422              	.L22:
 246:../src/lib/lpc177x_8x/Drivers/source/lpc177x_8x_timer.c ****     }
 247:../src/lib/lpc177x_8x/Drivers/source/lpc177x_8x_timer.c **** 
 248:../src/lib/lpc177x_8x/Drivers/source/lpc177x_8x_timer.c ****     TIMx->CTCR &= ~TIM_CTCR_MODE_MASK;
 423              		.loc 1 248 0
 424 01f8 FB68     		ldr	r3, [r7, #12]
 425 01fa 1B6F     		ldr	r3, [r3, #112]
 426 01fc 23F00302 		bic	r2, r3, #3
 427 0200 FB68     		ldr	r3, [r7, #12]
 428 0202 1A67     		str	r2, [r3, #112]
 249:../src/lib/lpc177x_8x/Drivers/source/lpc177x_8x_timer.c ****     TIMx->CTCR |= TIM_TIMER_MODE;
 429              		.loc 1 249 0
 430 0204 FB68     		ldr	r3, [r7, #12]
 431 0206 1A6F     		ldr	r2, [r3, #112]
 432 0208 FB68     		ldr	r3, [r7, #12]
 433 020a 1A67     		str	r2, [r3, #112]
 250:../src/lib/lpc177x_8x/Drivers/source/lpc177x_8x_timer.c **** 
 251:../src/lib/lpc177x_8x/Drivers/source/lpc177x_8x_timer.c ****     TIMx->TC =0;
 434              		.loc 1 251 0
 435 020c FB68     		ldr	r3, [r7, #12]
 436 020e 4FF00002 		mov	r2, #0
 437 0212 9A60     		str	r2, [r3, #8]
 252:../src/lib/lpc177x_8x/Drivers/source/lpc177x_8x_timer.c ****     TIMx->PC =0;
 438              		.loc 1 252 0
 439 0214 FB68     		ldr	r3, [r7, #12]
 440 0216 4FF00002 		mov	r2, #0
 441 021a 1A61     		str	r2, [r3, #16]
 253:../src/lib/lpc177x_8x/Drivers/source/lpc177x_8x_timer.c ****     TIMx->PR =0;
 442              		.loc 1 253 0
 443 021c FB68     		ldr	r3, [r7, #12]
 444 021e 4FF00002 		mov	r2, #0
 445 0222 DA60     		str	r2, [r3, #12]
 254:../src/lib/lpc177x_8x/Drivers/source/lpc177x_8x_timer.c ****     TIMx->TCR |= (1<<1); //Reset Counter
 446              		.loc 1 254 0
 447 0224 FB68     		ldr	r3, [r7, #12]
 448 0226 5B68     		ldr	r3, [r3, #4]
 449 0228 43F00202 		orr	r2, r3, #2
 450 022c FB68     		ldr	r3, [r7, #12]
 451 022e 5A60     		str	r2, [r3, #4]
 255:../src/lib/lpc177x_8x/Drivers/source/lpc177x_8x_timer.c ****     TIMx->TCR &= ~(1<<1); //release reset
 452              		.loc 1 255 0
 453 0230 FB68     		ldr	r3, [r7, #12]
 454 0232 5B68     		ldr	r3, [r3, #4]
 455 0234 23F00202 		bic	r2, r3, #2
 456 0238 FB68     		ldr	r3, [r7, #12]
 457 023a 5A60     		str	r2, [r3, #4]
 256:../src/lib/lpc177x_8x/Drivers/source/lpc177x_8x_timer.c ****     if (TimerCounterMode == TIM_TIMER_MODE )
 458              		.loc 1 256 0
 459 023c FB7A     		ldrb	r3, [r7, #11]	@ zero_extendqisi2
 460 023e 002B     		cmp	r3, #0
 461 0240 1DD1     		bne	.L25
 257:../src/lib/lpc177x_8x/Drivers/source/lpc177x_8x_timer.c ****     {
 258:../src/lib/lpc177x_8x/Drivers/source/lpc177x_8x_timer.c ****         pTimeCfg = (TIM_TIMERCFG_Type *)TIM_ConfigStruct;
 462              		.loc 1 258 0
 463 0242 7B68     		ldr	r3, [r7, #4]
 464 0244 7B61     		str	r3, [r7, #20]
 259:../src/lib/lpc177x_8x/Drivers/source/lpc177x_8x_timer.c ****         if (pTimeCfg->PrescaleOption  == TIM_PRESCALE_TICKVAL)
 465              		.loc 1 259 0
 466 0246 7B69     		ldr	r3, [r7, #20]
 467 0248 1B78     		ldrb	r3, [r3, #0]	@ zero_extendqisi2
 468 024a 002B     		cmp	r3, #0
 469 024c 06D1     		bne	.L26
 260:../src/lib/lpc177x_8x/Drivers/source/lpc177x_8x_timer.c ****         {
 261:../src/lib/lpc177x_8x/Drivers/source/lpc177x_8x_timer.c ****             TIMx->PR   = pTimeCfg->PrescaleValue -1  ;
 470              		.loc 1 261 0
 471 024e 7B69     		ldr	r3, [r7, #20]
 472 0250 5B68     		ldr	r3, [r3, #4]
 473 0252 03F1FF32 		add	r2, r3, #-1
 474 0256 FB68     		ldr	r3, [r7, #12]
 475 0258 DA60     		str	r2, [r3, #12]
 476 025a 22E0     		b	.L27
 477              	.L26:
 262:../src/lib/lpc177x_8x/Drivers/source/lpc177x_8x_timer.c ****         }
 263:../src/lib/lpc177x_8x/Drivers/source/lpc177x_8x_timer.c ****         else
 264:../src/lib/lpc177x_8x/Drivers/source/lpc177x_8x_timer.c ****         {
 265:../src/lib/lpc177x_8x/Drivers/source/lpc177x_8x_timer.c ****             TIMx->PR   = converUSecToVal (converPtrToTimeNum(TIMx),pTimeCfg->PrescaleValue)-1;
 478              		.loc 1 265 0
 479 025c F868     		ldr	r0, [r7, #12]
 480 025e FFF711FF 		bl	converPtrToTimeNum
 481 0262 0346     		mov	r3, r0
 482 0264 1A46     		mov	r2, r3
 483 0266 7B69     		ldr	r3, [r7, #20]
 484 0268 5B68     		ldr	r3, [r3, #4]
 485 026a 1046     		mov	r0, r2
 486 026c 1946     		mov	r1, r3
 487 026e FFF7D7FE 		bl	converUSecToVal
 488 0272 0346     		mov	r3, r0
 489 0274 03F1FF32 		add	r2, r3, #-1
 490 0278 FB68     		ldr	r3, [r7, #12]
 491 027a DA60     		str	r2, [r3, #12]
 492 027c 11E0     		b	.L27
 493              	.L25:
 266:../src/lib/lpc177x_8x/Drivers/source/lpc177x_8x_timer.c ****         }
 267:../src/lib/lpc177x_8x/Drivers/source/lpc177x_8x_timer.c ****     }
 268:../src/lib/lpc177x_8x/Drivers/source/lpc177x_8x_timer.c ****     else
 269:../src/lib/lpc177x_8x/Drivers/source/lpc177x_8x_timer.c ****     {
 270:../src/lib/lpc177x_8x/Drivers/source/lpc177x_8x_timer.c **** 
 271:../src/lib/lpc177x_8x/Drivers/source/lpc177x_8x_timer.c ****         pCounterCfg = (TIM_COUNTERCFG_Type *)TIM_ConfigStruct;
 494              		.loc 1 271 0
 495 027e 7B68     		ldr	r3, [r7, #4]
 496 0280 3B61     		str	r3, [r7, #16]
 272:../src/lib/lpc177x_8x/Drivers/source/lpc177x_8x_timer.c ****         TIMx->CTCR  &= ~TIM_CTCR_INPUT_MASK;
 497              		.loc 1 272 0
 498 0282 FB68     		ldr	r3, [r7, #12]
 499 0284 1B6F     		ldr	r3, [r3, #112]
 500 0286 23F00C02 		bic	r2, r3, #12
 501 028a FB68     		ldr	r3, [r7, #12]
 502 028c 1A67     		str	r2, [r3, #112]
 273:../src/lib/lpc177x_8x/Drivers/source/lpc177x_8x_timer.c ****         if (pCounterCfg->CountInputSelect == TIM_COUNTER_INCAP1)
 503              		.loc 1 273 0
 504 028e 3B69     		ldr	r3, [r7, #16]
 505 0290 5B78     		ldrb	r3, [r3, #1]	@ zero_extendqisi2
 506 0292 012B     		cmp	r3, #1
 507 0294 05D1     		bne	.L27
 274:../src/lib/lpc177x_8x/Drivers/source/lpc177x_8x_timer.c ****             TIMx->CCR |= _BIT(2);
 508              		.loc 1 274 0
 509 0296 FB68     		ldr	r3, [r7, #12]
 510 0298 9B6A     		ldr	r3, [r3, #40]
 511 029a 43F00402 		orr	r2, r3, #4
 512 029e FB68     		ldr	r3, [r7, #12]
 513 02a0 9A62     		str	r2, [r3, #40]
 514              	.L27:
 275:../src/lib/lpc177x_8x/Drivers/source/lpc177x_8x_timer.c ****     }
 276:../src/lib/lpc177x_8x/Drivers/source/lpc177x_8x_timer.c **** 
 277:../src/lib/lpc177x_8x/Drivers/source/lpc177x_8x_timer.c ****     // Clear interrupt pending
 278:../src/lib/lpc177x_8x/Drivers/source/lpc177x_8x_timer.c ****     TIMx->IR = 0xFFFFFFFF;
 515              		.loc 1 278 0
 516 02a2 FB68     		ldr	r3, [r7, #12]
 517 02a4 4FF0FF32 		mov	r2, #-1
 518 02a8 1A60     		str	r2, [r3, #0]
 279:../src/lib/lpc177x_8x/Drivers/source/lpc177x_8x_timer.c **** 
 280:../src/lib/lpc177x_8x/Drivers/source/lpc177x_8x_timer.c **** }
 519              		.loc 1 280 0
 520 02aa 07F11807 		add	r7, r7, #24
 521 02ae BD46     		mov	sp, r7
 522 02b0 80BD     		pop	{r7, pc}
 523              	.L29:
 524 02b2 00BF     		.align	2
 525              	.L28:
 526 02b4 00800040 		.word	1073774592
 527 02b8 00000940 		.word	1074331648
 528 02bc 00400940 		.word	1074348032
 529              		.cfi_endproc
 530              	.LFE61:
 532              		.align	2
 533              		.global	TIM_DeInit
 534              		.thumb
 535              		.thumb_func
 537              	TIM_DeInit:
 538              	.LFB62:
 281:../src/lib/lpc177x_8x/Drivers/source/lpc177x_8x_timer.c **** 
 282:../src/lib/lpc177x_8x/Drivers/source/lpc177x_8x_timer.c **** /*********************************************************************//**
 283:../src/lib/lpc177x_8x/Drivers/source/lpc177x_8x_timer.c ****  * @brief       Close Timer/Counter device
 284:../src/lib/lpc177x_8x/Drivers/source/lpc177x_8x_timer.c ****  * @param[in]   TIMx  Pointer to timer device, should be:
 285:../src/lib/lpc177x_8x/Drivers/source/lpc177x_8x_timer.c ****  *              - LPC_TIM0: TIMER0 peripheral
 286:../src/lib/lpc177x_8x/Drivers/source/lpc177x_8x_timer.c ****  *              - LPC_TIM1: TIMER1 peripheral
 287:../src/lib/lpc177x_8x/Drivers/source/lpc177x_8x_timer.c ****  *              - LPC_TIM2: TIMER2 peripheral
 288:../src/lib/lpc177x_8x/Drivers/source/lpc177x_8x_timer.c ****  *              - LPC_TIM3: TIMER3 peripheral
 289:../src/lib/lpc177x_8x/Drivers/source/lpc177x_8x_timer.c ****  * @return      None
 290:../src/lib/lpc177x_8x/Drivers/source/lpc177x_8x_timer.c ****  **********************************************************************/
 291:../src/lib/lpc177x_8x/Drivers/source/lpc177x_8x_timer.c **** void TIM_DeInit (LPC_TIM_TypeDef *TIMx)
 292:../src/lib/lpc177x_8x/Drivers/source/lpc177x_8x_timer.c **** {
 539              		.loc 1 292 0
 540              		.cfi_startproc
 541              		@ args = 0, pretend = 0, frame = 8
 542              		@ frame_needed = 1, uses_anonymous_args = 0
 543 02c0 80B5     		push	{r7, lr}
 544              	.LCFI21:
 545              		.cfi_def_cfa_offset 8
 546              		.cfi_offset 7, -8
 547              		.cfi_offset 14, -4
 548 02c2 82B0     		sub	sp, sp, #8
 549              	.LCFI22:
 550              		.cfi_def_cfa_offset 16
 551 02c4 00AF     		add	r7, sp, #0
 552              	.LCFI23:
 553              		.cfi_def_cfa_register 7
 554 02c6 7860     		str	r0, [r7, #4]
 293:../src/lib/lpc177x_8x/Drivers/source/lpc177x_8x_timer.c ****     // Disable timer/counter
 294:../src/lib/lpc177x_8x/Drivers/source/lpc177x_8x_timer.c ****     TIMx->TCR = 0x00;
 555              		.loc 1 294 0
 556 02c8 7B68     		ldr	r3, [r7, #4]
 557 02ca 4FF00002 		mov	r2, #0
 558 02ce 5A60     		str	r2, [r3, #4]
 295:../src/lib/lpc177x_8x/Drivers/source/lpc177x_8x_timer.c **** 
 296:../src/lib/lpc177x_8x/Drivers/source/lpc177x_8x_timer.c ****     // Disable power
 297:../src/lib/lpc177x_8x/Drivers/source/lpc177x_8x_timer.c ****     if (TIMx== LPC_TIM0)
 559              		.loc 1 297 0
 560 02d0 7B68     		ldr	r3, [r7, #4]
 561 02d2 B3F1402F 		cmp	r3, #1073758208
 562 02d6 06D1     		bne	.L31
 298:../src/lib/lpc177x_8x/Drivers/source/lpc177x_8x_timer.c ****         CLKPWR_ConfigPPWR (CLKPWR_PCONP_PCTIM0, DISABLE);
 563              		.loc 1 298 0
 564 02d8 4FF00200 		mov	r0, #2
 565 02dc 4FF00001 		mov	r1, #0
 566 02e0 FFF7FEFF 		bl	CLKPWR_ConfigPPWR
 567 02e4 1FE0     		b	.L30
 568              	.L31:
 299:../src/lib/lpc177x_8x/Drivers/source/lpc177x_8x_timer.c **** 
 300:../src/lib/lpc177x_8x/Drivers/source/lpc177x_8x_timer.c ****     else if (TIMx== LPC_TIM1)
 569              		.loc 1 300 0
 570 02e6 7A68     		ldr	r2, [r7, #4]
 571 02e8 114B     		ldr	r3, .L35
 572 02ea 9A42     		cmp	r2, r3
 573 02ec 06D1     		bne	.L33
 301:../src/lib/lpc177x_8x/Drivers/source/lpc177x_8x_timer.c ****         CLKPWR_ConfigPPWR (CLKPWR_PCONP_PCTIM1, DISABLE);
 574              		.loc 1 301 0
 575 02ee 4FF00400 		mov	r0, #4
 576 02f2 4FF00001 		mov	r1, #0
 577 02f6 FFF7FEFF 		bl	CLKPWR_ConfigPPWR
 578 02fa 14E0     		b	.L30
 579              	.L33:
 302:../src/lib/lpc177x_8x/Drivers/source/lpc177x_8x_timer.c **** 
 303:../src/lib/lpc177x_8x/Drivers/source/lpc177x_8x_timer.c ****     else if (TIMx== LPC_TIM2)
 580              		.loc 1 303 0
 581 02fc 7A68     		ldr	r2, [r7, #4]
 582 02fe 0D4B     		ldr	r3, .L35+4
 583 0300 9A42     		cmp	r2, r3
 584 0302 06D1     		bne	.L34
 304:../src/lib/lpc177x_8x/Drivers/source/lpc177x_8x_timer.c ****         CLKPWR_ConfigPPWR (CLKPWR_PCONP_PCTIM2, DISABLE);
 585              		.loc 1 304 0
 586 0304 4FF48000 		mov	r0, #4194304
 587 0308 4FF00001 		mov	r1, #0
 588 030c FFF7FEFF 		bl	CLKPWR_ConfigPPWR
 589 0310 09E0     		b	.L30
 590              	.L34:
 305:../src/lib/lpc177x_8x/Drivers/source/lpc177x_8x_timer.c **** 
 306:../src/lib/lpc177x_8x/Drivers/source/lpc177x_8x_timer.c ****     else if (TIMx== LPC_TIM3)
 591              		.loc 1 306 0
 592 0312 7A68     		ldr	r2, [r7, #4]
 593 0314 084B     		ldr	r3, .L35+8
 594 0316 9A42     		cmp	r2, r3
 595 0318 05D1     		bne	.L30
 307:../src/lib/lpc177x_8x/Drivers/source/lpc177x_8x_timer.c ****         CLKPWR_ConfigPPWR (CLKPWR_PCONP_PCTIM2, DISABLE);
 596              		.loc 1 307 0
 597 031a 4FF48000 		mov	r0, #4194304
 598 031e 4FF00001 		mov	r1, #0
 599 0322 FFF7FEFF 		bl	CLKPWR_ConfigPPWR
 600              	.L30:
 308:../src/lib/lpc177x_8x/Drivers/source/lpc177x_8x_timer.c **** 
 309:../src/lib/lpc177x_8x/Drivers/source/lpc177x_8x_timer.c **** }
 601              		.loc 1 309 0
 602 0326 07F10807 		add	r7, r7, #8
 603 032a BD46     		mov	sp, r7
 604 032c 80BD     		pop	{r7, pc}
 605              	.L36:
 606 032e 00BF     		.align	2
 607              	.L35:
 608 0330 00800040 		.word	1073774592
 609 0334 00000940 		.word	1074331648
 610 0338 00400940 		.word	1074348032
 611              		.cfi_endproc
 612              	.LFE62:
 614              		.align	2
 615              		.global	TIM_Cmd
 616              		.thumb
 617              		.thumb_func
 619              	TIM_Cmd:
 620              	.LFB63:
 310:../src/lib/lpc177x_8x/Drivers/source/lpc177x_8x_timer.c **** 
 311:../src/lib/lpc177x_8x/Drivers/source/lpc177x_8x_timer.c **** /*********************************************************************//**
 312:../src/lib/lpc177x_8x/Drivers/source/lpc177x_8x_timer.c ****  * @brief       Start/Stop Timer/Counter device
 313:../src/lib/lpc177x_8x/Drivers/source/lpc177x_8x_timer.c ****  * @param[in]   TIMx Pointer to timer device, should be:
 314:../src/lib/lpc177x_8x/Drivers/source/lpc177x_8x_timer.c ****  *              - LPC_TIM0: TIMER0 peripheral
 315:../src/lib/lpc177x_8x/Drivers/source/lpc177x_8x_timer.c ****  *              - LPC_TIM1: TIMER1 peripheral
 316:../src/lib/lpc177x_8x/Drivers/source/lpc177x_8x_timer.c ****  *              - LPC_TIM2: TIMER2 peripheral
 317:../src/lib/lpc177x_8x/Drivers/source/lpc177x_8x_timer.c ****  *              - LPC_TIM3: TIMER3 peripheral
 318:../src/lib/lpc177x_8x/Drivers/source/lpc177x_8x_timer.c ****  * @param[in]   NewState
 319:../src/lib/lpc177x_8x/Drivers/source/lpc177x_8x_timer.c ****  *              -   ENABLE  : set timer enable
 320:../src/lib/lpc177x_8x/Drivers/source/lpc177x_8x_timer.c ****  *              -   DISABLE : disable timer
 321:../src/lib/lpc177x_8x/Drivers/source/lpc177x_8x_timer.c ****  * @return      None
 322:../src/lib/lpc177x_8x/Drivers/source/lpc177x_8x_timer.c ****  **********************************************************************/
 323:../src/lib/lpc177x_8x/Drivers/source/lpc177x_8x_timer.c **** void TIM_Cmd(LPC_TIM_TypeDef *TIMx, FunctionalState NewState)
 324:../src/lib/lpc177x_8x/Drivers/source/lpc177x_8x_timer.c **** {
 621              		.loc 1 324 0
 622              		.cfi_startproc
 623              		@ args = 0, pretend = 0, frame = 8
 624              		@ frame_needed = 1, uses_anonymous_args = 0
 625              		@ link register save eliminated.
 626 033c 80B4     		push	{r7}
 627              	.LCFI24:
 628              		.cfi_def_cfa_offset 4
 629              		.cfi_offset 7, -4
 630 033e 83B0     		sub	sp, sp, #12
 631              	.LCFI25:
 632              		.cfi_def_cfa_offset 16
 633 0340 00AF     		add	r7, sp, #0
 634              	.LCFI26:
 635              		.cfi_def_cfa_register 7
 636 0342 7860     		str	r0, [r7, #4]
 637 0344 0B46     		mov	r3, r1
 638 0346 FB70     		strb	r3, [r7, #3]
 325:../src/lib/lpc177x_8x/Drivers/source/lpc177x_8x_timer.c ****     if (NewState == ENABLE)
 639              		.loc 1 325 0
 640 0348 FB78     		ldrb	r3, [r7, #3]	@ zero_extendqisi2
 641 034a 012B     		cmp	r3, #1
 642 034c 06D1     		bne	.L38
 326:../src/lib/lpc177x_8x/Drivers/source/lpc177x_8x_timer.c ****     {
 327:../src/lib/lpc177x_8x/Drivers/source/lpc177x_8x_timer.c ****         TIMx->TCR   |=  TIM_ENABLE;
 643              		.loc 1 327 0
 644 034e 7B68     		ldr	r3, [r7, #4]
 645 0350 5B68     		ldr	r3, [r3, #4]
 646 0352 43F00102 		orr	r2, r3, #1
 647 0356 7B68     		ldr	r3, [r7, #4]
 648 0358 5A60     		str	r2, [r3, #4]
 649 035a 05E0     		b	.L37
 650              	.L38:
 328:../src/lib/lpc177x_8x/Drivers/source/lpc177x_8x_timer.c ****     }
 329:../src/lib/lpc177x_8x/Drivers/source/lpc177x_8x_timer.c ****     else
 330:../src/lib/lpc177x_8x/Drivers/source/lpc177x_8x_timer.c ****     {
 331:../src/lib/lpc177x_8x/Drivers/source/lpc177x_8x_timer.c ****         TIMx->TCR &= ~TIM_ENABLE;
 651              		.loc 1 331 0
 652 035c 7B68     		ldr	r3, [r7, #4]
 653 035e 5B68     		ldr	r3, [r3, #4]
 654 0360 23F00102 		bic	r2, r3, #1
 655 0364 7B68     		ldr	r3, [r7, #4]
 656 0366 5A60     		str	r2, [r3, #4]
 657              	.L37:
 332:../src/lib/lpc177x_8x/Drivers/source/lpc177x_8x_timer.c ****     }
 333:../src/lib/lpc177x_8x/Drivers/source/lpc177x_8x_timer.c **** }
 658              		.loc 1 333 0
 659 0368 07F10C07 		add	r7, r7, #12
 660 036c BD46     		mov	sp, r7
 661 036e 80BC     		pop	{r7}
 662 0370 7047     		bx	lr
 663              		.cfi_endproc
 664              	.LFE63:
 666 0372 00BF     		.align	2
 667              		.global	TIM_ResetCounter
 668              		.thumb
 669              		.thumb_func
 671              	TIM_ResetCounter:
 672              	.LFB64:
 334:../src/lib/lpc177x_8x/Drivers/source/lpc177x_8x_timer.c **** 
 335:../src/lib/lpc177x_8x/Drivers/source/lpc177x_8x_timer.c **** /*********************************************************************//**
 336:../src/lib/lpc177x_8x/Drivers/source/lpc177x_8x_timer.c ****  * @brief       Reset Timer/Counter device,
 337:../src/lib/lpc177x_8x/Drivers/source/lpc177x_8x_timer.c ****  *                  Make TC and PC are synchronously reset on the next
 338:../src/lib/lpc177x_8x/Drivers/source/lpc177x_8x_timer.c ****  *                  positive edge of PCLK
 339:../src/lib/lpc177x_8x/Drivers/source/lpc177x_8x_timer.c ****  * @param[in]   TIMx Pointer to timer device, should be:
 340:../src/lib/lpc177x_8x/Drivers/source/lpc177x_8x_timer.c ****  *              - LPC_TIM0: TIMER0 peripheral
 341:../src/lib/lpc177x_8x/Drivers/source/lpc177x_8x_timer.c ****  *              - LPC_TIM1: TIMER1 peripheral
 342:../src/lib/lpc177x_8x/Drivers/source/lpc177x_8x_timer.c ****  *              - LPC_TIM2: TIMER2 peripheral
 343:../src/lib/lpc177x_8x/Drivers/source/lpc177x_8x_timer.c ****  *              - LPC_TIM3: TIMER3 peripheral
 344:../src/lib/lpc177x_8x/Drivers/source/lpc177x_8x_timer.c ****  * @return      None
 345:../src/lib/lpc177x_8x/Drivers/source/lpc177x_8x_timer.c ****  **********************************************************************/
 346:../src/lib/lpc177x_8x/Drivers/source/lpc177x_8x_timer.c **** void TIM_ResetCounter(LPC_TIM_TypeDef *TIMx)
 347:../src/lib/lpc177x_8x/Drivers/source/lpc177x_8x_timer.c **** {
 673              		.loc 1 347 0
 674              		.cfi_startproc
 675              		@ args = 0, pretend = 0, frame = 8
 676              		@ frame_needed = 1, uses_anonymous_args = 0
 677              		@ link register save eliminated.
 678 0374 80B4     		push	{r7}
 679              	.LCFI27:
 680              		.cfi_def_cfa_offset 4
 681              		.cfi_offset 7, -4
 682 0376 83B0     		sub	sp, sp, #12
 683              	.LCFI28:
 684              		.cfi_def_cfa_offset 16
 685 0378 00AF     		add	r7, sp, #0
 686              	.LCFI29:
 687              		.cfi_def_cfa_register 7
 688 037a 7860     		str	r0, [r7, #4]
 348:../src/lib/lpc177x_8x/Drivers/source/lpc177x_8x_timer.c ****     TIMx->TCR |= TIM_RESET;
 689              		.loc 1 348 0
 690 037c 7B68     		ldr	r3, [r7, #4]
 691 037e 5B68     		ldr	r3, [r3, #4]
 692 0380 43F00202 		orr	r2, r3, #2
 693 0384 7B68     		ldr	r3, [r7, #4]
 694 0386 5A60     		str	r2, [r3, #4]
 349:../src/lib/lpc177x_8x/Drivers/source/lpc177x_8x_timer.c ****     TIMx->TCR &= ~TIM_RESET;
 695              		.loc 1 349 0
 696 0388 7B68     		ldr	r3, [r7, #4]
 697 038a 5B68     		ldr	r3, [r3, #4]
 698 038c 23F00202 		bic	r2, r3, #2
 699 0390 7B68     		ldr	r3, [r7, #4]
 700 0392 5A60     		str	r2, [r3, #4]
 350:../src/lib/lpc177x_8x/Drivers/source/lpc177x_8x_timer.c **** }
 701              		.loc 1 350 0
 702 0394 07F10C07 		add	r7, r7, #12
 703 0398 BD46     		mov	sp, r7
 704 039a 80BC     		pop	{r7}
 705 039c 7047     		bx	lr
 706              		.cfi_endproc
 707              	.LFE64:
 709 039e 00BF     		.align	2
 710              		.global	TIM_ConfigMatch
 711              		.thumb
 712              		.thumb_func
 714              	TIM_ConfigMatch:
 715              	.LFB65:
 351:../src/lib/lpc177x_8x/Drivers/source/lpc177x_8x_timer.c **** 
 352:../src/lib/lpc177x_8x/Drivers/source/lpc177x_8x_timer.c **** /*********************************************************************//**
 353:../src/lib/lpc177x_8x/Drivers/source/lpc177x_8x_timer.c ****  * @brief       Configuration for Match register
 354:../src/lib/lpc177x_8x/Drivers/source/lpc177x_8x_timer.c ****  * @param[in]   TIMx Pointer to timer device, should be:
 355:../src/lib/lpc177x_8x/Drivers/source/lpc177x_8x_timer.c ****  *              - LPC_TIM0: TIMER0 peripheral
 356:../src/lib/lpc177x_8x/Drivers/source/lpc177x_8x_timer.c ****  *              - LPC_TIM1: TIMER1 peripheral
 357:../src/lib/lpc177x_8x/Drivers/source/lpc177x_8x_timer.c ****  *              - LPC_TIM2: TIMER2 peripheral
 358:../src/lib/lpc177x_8x/Drivers/source/lpc177x_8x_timer.c ****  *              - LPC_TIM3: TIMER3 peripheral
 359:../src/lib/lpc177x_8x/Drivers/source/lpc177x_8x_timer.c ****  * @param[in]   TIM_MatchConfigStruct Pointer to TIM_MATCHCFG_Type
 360:../src/lib/lpc177x_8x/Drivers/source/lpc177x_8x_timer.c ****  *                  - MatchChannel : choose channel 0 or 1
 361:../src/lib/lpc177x_8x/Drivers/source/lpc177x_8x_timer.c ****  *                  - IntOnMatch     : if SET, interrupt will be generated when MRxx match
 362:../src/lib/lpc177x_8x/Drivers/source/lpc177x_8x_timer.c ****  *                                  the value in TC
 363:../src/lib/lpc177x_8x/Drivers/source/lpc177x_8x_timer.c ****  *                  - StopOnMatch    : if SET, TC and PC will be stopped whenM Rxx match
 364:../src/lib/lpc177x_8x/Drivers/source/lpc177x_8x_timer.c ****  *                                  the value in TC
 365:../src/lib/lpc177x_8x/Drivers/source/lpc177x_8x_timer.c ****  *                  - ResetOnMatch : if SET, Reset on MR0 when MRxx match
 366:../src/lib/lpc177x_8x/Drivers/source/lpc177x_8x_timer.c ****  *                                  the value in TC
 367:../src/lib/lpc177x_8x/Drivers/source/lpc177x_8x_timer.c ****  *                  -ExtMatchOutputType: Select output for external match
 368:../src/lib/lpc177x_8x/Drivers/source/lpc177x_8x_timer.c ****  *                       +   0: Do nothing for external output pin if match
 369:../src/lib/lpc177x_8x/Drivers/source/lpc177x_8x_timer.c ****  *                       +   1: Force external output pin to low if match
 370:../src/lib/lpc177x_8x/Drivers/source/lpc177x_8x_timer.c ****  *                       +   2: Force external output pin to high if match
 371:../src/lib/lpc177x_8x/Drivers/source/lpc177x_8x_timer.c ****  *                       +   3: Toggle external output pin if match
 372:../src/lib/lpc177x_8x/Drivers/source/lpc177x_8x_timer.c ****  *                  MatchValue: Set the value to be compared with TC value
 373:../src/lib/lpc177x_8x/Drivers/source/lpc177x_8x_timer.c ****  * @return      None
 374:../src/lib/lpc177x_8x/Drivers/source/lpc177x_8x_timer.c ****  **********************************************************************/
 375:../src/lib/lpc177x_8x/Drivers/source/lpc177x_8x_timer.c **** void TIM_ConfigMatch(LPC_TIM_TypeDef *TIMx, TIM_MATCHCFG_Type *TIM_MatchConfigStruct)
 376:../src/lib/lpc177x_8x/Drivers/source/lpc177x_8x_timer.c **** {
 716              		.loc 1 376 0
 717              		.cfi_startproc
 718              		@ args = 0, pretend = 0, frame = 8
 719              		@ frame_needed = 1, uses_anonymous_args = 0
 720              		@ link register save eliminated.
 721 03a0 80B4     		push	{r7}
 722              	.LCFI30:
 723              		.cfi_def_cfa_offset 4
 724              		.cfi_offset 7, -4
 725 03a2 83B0     		sub	sp, sp, #12
 726              	.LCFI31:
 727              		.cfi_def_cfa_offset 16
 728 03a4 00AF     		add	r7, sp, #0
 729              	.LCFI32:
 730              		.cfi_def_cfa_register 7
 731 03a6 7860     		str	r0, [r7, #4]
 732 03a8 3960     		str	r1, [r7, #0]
 377:../src/lib/lpc177x_8x/Drivers/source/lpc177x_8x_timer.c ****     switch(TIM_MatchConfigStruct->MatchChannel)
 733              		.loc 1 377 0
 734 03aa 3B68     		ldr	r3, [r7, #0]
 735 03ac 1B78     		ldrb	r3, [r3, #0]	@ zero_extendqisi2
 736 03ae 032B     		cmp	r3, #3
 737 03b0 1ED8     		bhi	.L42
 738 03b2 01A2     		adr	r2, .L47
 739 03b4 52F823F0 		ldr	pc, [r2, r3, lsl #2]
 740              		.align	2
 741              	.L47:
 742 03b8 C9030000 		.word	.L43+1
 743 03bc D3030000 		.word	.L44+1
 744 03c0 DD030000 		.word	.L45+1
 745 03c4 E7030000 		.word	.L46+1
 746              	.L43:
 378:../src/lib/lpc177x_8x/Drivers/source/lpc177x_8x_timer.c ****     {
 379:../src/lib/lpc177x_8x/Drivers/source/lpc177x_8x_timer.c ****     case 0:
 380:../src/lib/lpc177x_8x/Drivers/source/lpc177x_8x_timer.c ****         TIMx->MR0 = TIM_MatchConfigStruct->MatchValue;
 747              		.loc 1 380 0
 748 03c8 3B68     		ldr	r3, [r7, #0]
 749 03ca 9A68     		ldr	r2, [r3, #8]
 750 03cc 7B68     		ldr	r3, [r7, #4]
 751 03ce 9A61     		str	r2, [r3, #24]
 381:../src/lib/lpc177x_8x/Drivers/source/lpc177x_8x_timer.c ****         break;
 752              		.loc 1 381 0
 753 03d0 0FE0     		b	.L48
 754              	.L44:
 382:../src/lib/lpc177x_8x/Drivers/source/lpc177x_8x_timer.c ****     case 1:
 383:../src/lib/lpc177x_8x/Drivers/source/lpc177x_8x_timer.c ****         TIMx->MR1 = TIM_MatchConfigStruct->MatchValue;
 755              		.loc 1 383 0
 756 03d2 3B68     		ldr	r3, [r7, #0]
 757 03d4 9A68     		ldr	r2, [r3, #8]
 758 03d6 7B68     		ldr	r3, [r7, #4]
 759 03d8 DA61     		str	r2, [r3, #28]
 384:../src/lib/lpc177x_8x/Drivers/source/lpc177x_8x_timer.c ****         break;
 760              		.loc 1 384 0
 761 03da 0AE0     		b	.L48
 762              	.L45:
 385:../src/lib/lpc177x_8x/Drivers/source/lpc177x_8x_timer.c ****     case 2:
 386:../src/lib/lpc177x_8x/Drivers/source/lpc177x_8x_timer.c ****         TIMx->MR2 = TIM_MatchConfigStruct->MatchValue;
 763              		.loc 1 386 0
 764 03dc 3B68     		ldr	r3, [r7, #0]
 765 03de 9A68     		ldr	r2, [r3, #8]
 766 03e0 7B68     		ldr	r3, [r7, #4]
 767 03e2 1A62     		str	r2, [r3, #32]
 387:../src/lib/lpc177x_8x/Drivers/source/lpc177x_8x_timer.c ****         break;
 768              		.loc 1 387 0
 769 03e4 05E0     		b	.L48
 770              	.L46:
 388:../src/lib/lpc177x_8x/Drivers/source/lpc177x_8x_timer.c ****     case 3:
 389:../src/lib/lpc177x_8x/Drivers/source/lpc177x_8x_timer.c ****         TIMx->MR3 = TIM_MatchConfigStruct->MatchValue;
 771              		.loc 1 389 0
 772 03e6 3B68     		ldr	r3, [r7, #0]
 773 03e8 9A68     		ldr	r2, [r3, #8]
 774 03ea 7B68     		ldr	r3, [r7, #4]
 775 03ec 5A62     		str	r2, [r3, #36]
 390:../src/lib/lpc177x_8x/Drivers/source/lpc177x_8x_timer.c ****         break;
 776              		.loc 1 390 0
 777 03ee 00E0     		b	.L48
 778              	.L42:
 391:../src/lib/lpc177x_8x/Drivers/source/lpc177x_8x_timer.c ****     default:
 392:../src/lib/lpc177x_8x/Drivers/source/lpc177x_8x_timer.c ****         //Error match value
 393:../src/lib/lpc177x_8x/Drivers/source/lpc177x_8x_timer.c ****         //Error loop
 394:../src/lib/lpc177x_8x/Drivers/source/lpc177x_8x_timer.c ****         while(1);
 779              		.loc 1 394 0 discriminator 1
 780 03f0 FEE7     		b	.L42
 781              	.L48:
 395:../src/lib/lpc177x_8x/Drivers/source/lpc177x_8x_timer.c ****     }
 396:../src/lib/lpc177x_8x/Drivers/source/lpc177x_8x_timer.c ****     //interrupt on MRn
 397:../src/lib/lpc177x_8x/Drivers/source/lpc177x_8x_timer.c ****     TIMx->MCR &= ~ TIM_MCR_CHANNEL_MASKBIT(TIM_MatchConfigStruct->MatchChannel);
 782              		.loc 1 397 0
 783 03f2 7B68     		ldr	r3, [r7, #4]
 784 03f4 5969     		ldr	r1, [r3, #20]
 785 03f6 3B68     		ldr	r3, [r7, #0]
 786 03f8 1B78     		ldrb	r3, [r3, #0]	@ zero_extendqisi2
 787 03fa 1A46     		mov	r2, r3
 788 03fc 1346     		mov	r3, r2
 789 03fe 4FEA4303 		lsl	r3, r3, #1
 790 0402 9B18     		adds	r3, r3, r2
 791 0404 4FF00702 		mov	r2, #7
 792 0408 02FA03F3 		lsl	r3, r2, r3
 793 040c 6FEA0303 		mvn	r3, r3
 794 0410 01EA0302 		and	r2, r1, r3
 795 0414 7B68     		ldr	r3, [r7, #4]
 796 0416 5A61     		str	r2, [r3, #20]
 398:../src/lib/lpc177x_8x/Drivers/source/lpc177x_8x_timer.c **** 
 399:../src/lib/lpc177x_8x/Drivers/source/lpc177x_8x_timer.c ****     if (TIM_MatchConfigStruct->IntOnMatch)
 797              		.loc 1 399 0
 798 0418 3B68     		ldr	r3, [r7, #0]
 799 041a 5B78     		ldrb	r3, [r3, #1]	@ zero_extendqisi2
 800 041c 002B     		cmp	r3, #0
 801 041e 10D0     		beq	.L49
 400:../src/lib/lpc177x_8x/Drivers/source/lpc177x_8x_timer.c ****         TIMx->MCR |= TIM_INT_ON_MATCH(TIM_MatchConfigStruct->MatchChannel);
 802              		.loc 1 400 0
 803 0420 7B68     		ldr	r3, [r7, #4]
 804 0422 5969     		ldr	r1, [r3, #20]
 805 0424 3B68     		ldr	r3, [r7, #0]
 806 0426 1B78     		ldrb	r3, [r3, #0]	@ zero_extendqisi2
 807 0428 1A46     		mov	r2, r3
 808 042a 1346     		mov	r3, r2
 809 042c 4FEA4303 		lsl	r3, r3, #1
 810 0430 9B18     		adds	r3, r3, r2
 811 0432 4FF00102 		mov	r2, #1
 812 0436 02FA03F3 		lsl	r3, r2, r3
 813 043a 41EA0302 		orr	r2, r1, r3
 814 043e 7B68     		ldr	r3, [r7, #4]
 815 0440 5A61     		str	r2, [r3, #20]
 816              	.L49:
 401:../src/lib/lpc177x_8x/Drivers/source/lpc177x_8x_timer.c **** 
 402:../src/lib/lpc177x_8x/Drivers/source/lpc177x_8x_timer.c ****     //reset on MRn
 403:../src/lib/lpc177x_8x/Drivers/source/lpc177x_8x_timer.c ****     if (TIM_MatchConfigStruct->ResetOnMatch)
 817              		.loc 1 403 0
 818 0442 3B68     		ldr	r3, [r7, #0]
 819 0444 DB78     		ldrb	r3, [r3, #3]	@ zero_extendqisi2
 820 0446 002B     		cmp	r3, #0
 821 0448 12D0     		beq	.L50
 404:../src/lib/lpc177x_8x/Drivers/source/lpc177x_8x_timer.c ****         TIMx->MCR |= TIM_RESET_ON_MATCH(TIM_MatchConfigStruct->MatchChannel);
 822              		.loc 1 404 0
 823 044a 7B68     		ldr	r3, [r7, #4]
 824 044c 5969     		ldr	r1, [r3, #20]
 825 044e 3B68     		ldr	r3, [r7, #0]
 826 0450 1B78     		ldrb	r3, [r3, #0]	@ zero_extendqisi2
 827 0452 1A46     		mov	r2, r3
 828 0454 1346     		mov	r3, r2
 829 0456 4FEA4303 		lsl	r3, r3, #1
 830 045a 9B18     		adds	r3, r3, r2
 831 045c 03F10103 		add	r3, r3, #1
 832 0460 4FF00102 		mov	r2, #1
 833 0464 02FA03F3 		lsl	r3, r2, r3
 834 0468 41EA0302 		orr	r2, r1, r3
 835 046c 7B68     		ldr	r3, [r7, #4]
 836 046e 5A61     		str	r2, [r3, #20]
 837              	.L50:
 405:../src/lib/lpc177x_8x/Drivers/source/lpc177x_8x_timer.c **** 
 406:../src/lib/lpc177x_8x/Drivers/source/lpc177x_8x_timer.c ****     //stop on MRn
 407:../src/lib/lpc177x_8x/Drivers/source/lpc177x_8x_timer.c ****     if (TIM_MatchConfigStruct->StopOnMatch)
 838              		.loc 1 407 0
 839 0470 3B68     		ldr	r3, [r7, #0]
 840 0472 9B78     		ldrb	r3, [r3, #2]	@ zero_extendqisi2
 841 0474 002B     		cmp	r3, #0
 842 0476 12D0     		beq	.L51
 408:../src/lib/lpc177x_8x/Drivers/source/lpc177x_8x_timer.c ****         TIMx->MCR |= TIM_STOP_ON_MATCH(TIM_MatchConfigStruct->MatchChannel);
 843              		.loc 1 408 0
 844 0478 7B68     		ldr	r3, [r7, #4]
 845 047a 5969     		ldr	r1, [r3, #20]
 846 047c 3B68     		ldr	r3, [r7, #0]
 847 047e 1B78     		ldrb	r3, [r3, #0]	@ zero_extendqisi2
 848 0480 1A46     		mov	r2, r3
 849 0482 1346     		mov	r3, r2
 850 0484 4FEA4303 		lsl	r3, r3, #1
 851 0488 9B18     		adds	r3, r3, r2
 852 048a 03F10203 		add	r3, r3, #2
 853 048e 4FF00102 		mov	r2, #1
 854 0492 02FA03F3 		lsl	r3, r2, r3
 855 0496 41EA0302 		orr	r2, r1, r3
 856 049a 7B68     		ldr	r3, [r7, #4]
 857 049c 5A61     		str	r2, [r3, #20]
 858              	.L51:
 409:../src/lib/lpc177x_8x/Drivers/source/lpc177x_8x_timer.c **** 
 410:../src/lib/lpc177x_8x/Drivers/source/lpc177x_8x_timer.c ****     // match output type
 411:../src/lib/lpc177x_8x/Drivers/source/lpc177x_8x_timer.c **** 
 412:../src/lib/lpc177x_8x/Drivers/source/lpc177x_8x_timer.c ****     TIMx->EMR   &= ~ TIM_EM_MASK(TIM_MatchConfigStruct->MatchChannel);
 859              		.loc 1 412 0
 860 049e 7B68     		ldr	r3, [r7, #4]
 861 04a0 DA6B     		ldr	r2, [r3, #60]
 862 04a2 3B68     		ldr	r3, [r7, #0]
 863 04a4 1B78     		ldrb	r3, [r3, #0]	@ zero_extendqisi2
 864 04a6 4FEA4303 		lsl	r3, r3, #1
 865 04aa 03F10403 		add	r3, r3, #4
 866 04ae 4FF00301 		mov	r1, #3
 867 04b2 01FA03F3 		lsl	r3, r1, r3
 868 04b6 6FEA0303 		mvn	r3, r3
 869 04ba 1A40     		ands	r2, r2, r3
 870 04bc 7B68     		ldr	r3, [r7, #4]
 871 04be DA63     		str	r2, [r3, #60]
 413:../src/lib/lpc177x_8x/Drivers/source/lpc177x_8x_timer.c ****     TIMx->EMR   |= TIM_EM_SET(TIM_MatchConfigStruct->MatchChannel,TIM_MatchConfigStruct->ExtMatchOu
 872              		.loc 1 413 0
 873 04c0 7B68     		ldr	r3, [r7, #4]
 874 04c2 DA6B     		ldr	r2, [r3, #60]
 875 04c4 3B68     		ldr	r3, [r7, #0]
 876 04c6 1B79     		ldrb	r3, [r3, #4]	@ zero_extendqisi2
 877 04c8 03F00301 		and	r1, r3, #3
 878 04cc 3B68     		ldr	r3, [r7, #0]
 879 04ce 1B78     		ldrb	r3, [r3, #0]	@ zero_extendqisi2
 880 04d0 4FEA4303 		lsl	r3, r3, #1
 881 04d4 03F10403 		add	r3, r3, #4
 882 04d8 01FA03F3 		lsl	r3, r1, r3
 883 04dc 1A43     		orrs	r2, r2, r3
 884 04de 7B68     		ldr	r3, [r7, #4]
 885 04e0 DA63     		str	r2, [r3, #60]
 414:../src/lib/lpc177x_8x/Drivers/source/lpc177x_8x_timer.c **** }
 886              		.loc 1 414 0
 887 04e2 07F10C07 		add	r7, r7, #12
 888 04e6 BD46     		mov	sp, r7
 889 04e8 80BC     		pop	{r7}
 890 04ea 7047     		bx	lr
 891              		.cfi_endproc
 892              	.LFE65:
 894              		.align	2
 895              		.global	TIM_UpdateMatchValue
 896              		.thumb
 897              		.thumb_func
 899              	TIM_UpdateMatchValue:
 900              	.LFB66:
 415:../src/lib/lpc177x_8x/Drivers/source/lpc177x_8x_timer.c **** /*********************************************************************//**
 416:../src/lib/lpc177x_8x/Drivers/source/lpc177x_8x_timer.c ****  * @brief       Update Match value
 417:../src/lib/lpc177x_8x/Drivers/source/lpc177x_8x_timer.c ****  * @param[in]   TIMx Pointer to timer device, should be:
 418:../src/lib/lpc177x_8x/Drivers/source/lpc177x_8x_timer.c ****  *              - LPC_TIM0: TIMER0 peripheral
 419:../src/lib/lpc177x_8x/Drivers/source/lpc177x_8x_timer.c ****  *              - LPC_TIM1: TIMER1 peripheral
 420:../src/lib/lpc177x_8x/Drivers/source/lpc177x_8x_timer.c ****  *              - LPC_TIM2: TIMER2 peripheral
 421:../src/lib/lpc177x_8x/Drivers/source/lpc177x_8x_timer.c ****  *              - LPC_TIM3: TIMER3 peripheral
 422:../src/lib/lpc177x_8x/Drivers/source/lpc177x_8x_timer.c ****  * @param[in]   MatchChannel    Match channel, should be: 0..3
 423:../src/lib/lpc177x_8x/Drivers/source/lpc177x_8x_timer.c ****  * @param[in]   MatchValue      updated match value
 424:../src/lib/lpc177x_8x/Drivers/source/lpc177x_8x_timer.c ****  * @return      None
 425:../src/lib/lpc177x_8x/Drivers/source/lpc177x_8x_timer.c ****  **********************************************************************/
 426:../src/lib/lpc177x_8x/Drivers/source/lpc177x_8x_timer.c **** void TIM_UpdateMatchValue(LPC_TIM_TypeDef *TIMx,uint8_t MatchChannel, uint32_t MatchValue)
 427:../src/lib/lpc177x_8x/Drivers/source/lpc177x_8x_timer.c **** {
 901              		.loc 1 427 0
 902              		.cfi_startproc
 903              		@ args = 0, pretend = 0, frame = 16
 904              		@ frame_needed = 1, uses_anonymous_args = 0
 905              		@ link register save eliminated.
 906 04ec 80B4     		push	{r7}
 907              	.LCFI33:
 908              		.cfi_def_cfa_offset 4
 909              		.cfi_offset 7, -4
 910 04ee 85B0     		sub	sp, sp, #20
 911              	.LCFI34:
 912              		.cfi_def_cfa_offset 24
 913 04f0 00AF     		add	r7, sp, #0
 914              	.LCFI35:
 915              		.cfi_def_cfa_register 7
 916 04f2 F860     		str	r0, [r7, #12]
 917 04f4 0B46     		mov	r3, r1
 918 04f6 7A60     		str	r2, [r7, #4]
 919 04f8 FB72     		strb	r3, [r7, #11]
 428:../src/lib/lpc177x_8x/Drivers/source/lpc177x_8x_timer.c ****     switch(MatchChannel)
 920              		.loc 1 428 0
 921 04fa FB7A     		ldrb	r3, [r7, #11]	@ zero_extendqisi2
 922 04fc 032B     		cmp	r3, #3
 923 04fe 1CD8     		bhi	.L53
 924 0500 01A2     		adr	r2, .L58
 925 0502 52F823F0 		ldr	pc, [r2, r3, lsl #2]
 926 0506 00BF     		.align	2
 927              	.L58:
 928 0508 19050000 		.word	.L54+1
 929 050c 21050000 		.word	.L55+1
 930 0510 29050000 		.word	.L56+1
 931 0514 31050000 		.word	.L57+1
 932              	.L54:
 429:../src/lib/lpc177x_8x/Drivers/source/lpc177x_8x_timer.c ****     {
 430:../src/lib/lpc177x_8x/Drivers/source/lpc177x_8x_timer.c ****     case 0:
 431:../src/lib/lpc177x_8x/Drivers/source/lpc177x_8x_timer.c ****         TIMx->MR0 = MatchValue;
 933              		.loc 1 431 0
 934 0518 FB68     		ldr	r3, [r7, #12]
 935 051a 7A68     		ldr	r2, [r7, #4]
 936 051c 9A61     		str	r2, [r3, #24]
 432:../src/lib/lpc177x_8x/Drivers/source/lpc177x_8x_timer.c ****         break;
 937              		.loc 1 432 0
 938 051e 0DE0     		b	.L52
 939              	.L55:
 433:../src/lib/lpc177x_8x/Drivers/source/lpc177x_8x_timer.c ****     case 1:
 434:../src/lib/lpc177x_8x/Drivers/source/lpc177x_8x_timer.c ****         TIMx->MR1 = MatchValue;
 940              		.loc 1 434 0
 941 0520 FB68     		ldr	r3, [r7, #12]
 942 0522 7A68     		ldr	r2, [r7, #4]
 943 0524 DA61     		str	r2, [r3, #28]
 435:../src/lib/lpc177x_8x/Drivers/source/lpc177x_8x_timer.c ****         break;
 944              		.loc 1 435 0
 945 0526 09E0     		b	.L52
 946              	.L56:
 436:../src/lib/lpc177x_8x/Drivers/source/lpc177x_8x_timer.c ****     case 2:
 437:../src/lib/lpc177x_8x/Drivers/source/lpc177x_8x_timer.c ****         TIMx->MR2 = MatchValue;
 947              		.loc 1 437 0
 948 0528 FB68     		ldr	r3, [r7, #12]
 949 052a 7A68     		ldr	r2, [r7, #4]
 950 052c 1A62     		str	r2, [r3, #32]
 438:../src/lib/lpc177x_8x/Drivers/source/lpc177x_8x_timer.c ****         break;
 951              		.loc 1 438 0
 952 052e 05E0     		b	.L52
 953              	.L57:
 439:../src/lib/lpc177x_8x/Drivers/source/lpc177x_8x_timer.c ****     case 3:
 440:../src/lib/lpc177x_8x/Drivers/source/lpc177x_8x_timer.c ****         TIMx->MR3 = MatchValue;
 954              		.loc 1 440 0
 955 0530 FB68     		ldr	r3, [r7, #12]
 956 0532 7A68     		ldr	r2, [r7, #4]
 957 0534 5A62     		str	r2, [r3, #36]
 441:../src/lib/lpc177x_8x/Drivers/source/lpc177x_8x_timer.c ****         break;
 958              		.loc 1 441 0
 959 0536 00BF     		nop
 960 0538 00E0     		b	.L52
 961              	.L53:
 442:../src/lib/lpc177x_8x/Drivers/source/lpc177x_8x_timer.c ****     default:
 443:../src/lib/lpc177x_8x/Drivers/source/lpc177x_8x_timer.c ****         //Error Loop
 444:../src/lib/lpc177x_8x/Drivers/source/lpc177x_8x_timer.c ****         while(1);
 962              		.loc 1 444 0 discriminator 1
 963 053a FEE7     		b	.L53
 964              	.L52:
 445:../src/lib/lpc177x_8x/Drivers/source/lpc177x_8x_timer.c ****     }
 446:../src/lib/lpc177x_8x/Drivers/source/lpc177x_8x_timer.c **** }
 965              		.loc 1 446 0
 966 053c 07F11407 		add	r7, r7, #20
 967 0540 BD46     		mov	sp, r7
 968 0542 80BC     		pop	{r7}
 969 0544 7047     		bx	lr
 970              		.cfi_endproc
 971              	.LFE66:
 973 0546 00BF     		.align	2
 974              		.global	TIM_ConfigCapture
 975              		.thumb
 976              		.thumb_func
 978              	TIM_ConfigCapture:
 979              	.LFB67:
 447:../src/lib/lpc177x_8x/Drivers/source/lpc177x_8x_timer.c **** 
 448:../src/lib/lpc177x_8x/Drivers/source/lpc177x_8x_timer.c **** /*********************************************************************//**
 449:../src/lib/lpc177x_8x/Drivers/source/lpc177x_8x_timer.c ****  * @brief       Configuration for Capture register
 450:../src/lib/lpc177x_8x/Drivers/source/lpc177x_8x_timer.c ****  * @param[in]   TIMx Pointer to timer device, should be:
 451:../src/lib/lpc177x_8x/Drivers/source/lpc177x_8x_timer.c ****  *              - LPC_TIM0: TIMER0 peripheral
 452:../src/lib/lpc177x_8x/Drivers/source/lpc177x_8x_timer.c ****  *              - LPC_TIM1: TIMER1 peripheral
 453:../src/lib/lpc177x_8x/Drivers/source/lpc177x_8x_timer.c ****  *              - LPC_TIM2: TIMER2 peripheral
 454:../src/lib/lpc177x_8x/Drivers/source/lpc177x_8x_timer.c ****  *              - LPC_TIM3: TIMER3 peripheral
 455:../src/lib/lpc177x_8x/Drivers/source/lpc177x_8x_timer.c ****  * @param[in]   TIM_CaptureConfigStruct Pointer to TIM_CAPTURECFG_Type
 456:../src/lib/lpc177x_8x/Drivers/source/lpc177x_8x_timer.c ****  *              - CaptureChannel: set the channel to capture data
 457:../src/lib/lpc177x_8x/Drivers/source/lpc177x_8x_timer.c ****  *              - RisingEdge    : if SET, Capture at rising edge
 458:../src/lib/lpc177x_8x/Drivers/source/lpc177x_8x_timer.c ****  *              - FallingEdge   : if SET, Capture at falling edge
 459:../src/lib/lpc177x_8x/Drivers/source/lpc177x_8x_timer.c ****  *              - IntOnCaption  : if SET, Capture generate interrupt 
 460:../src/lib/lpc177x_8x/Drivers/source/lpc177x_8x_timer.c ****  * @return      None
 461:../src/lib/lpc177x_8x/Drivers/source/lpc177x_8x_timer.c ****  **********************************************************************/
 462:../src/lib/lpc177x_8x/Drivers/source/lpc177x_8x_timer.c **** void TIM_ConfigCapture(LPC_TIM_TypeDef *TIMx, TIM_CAPTURECFG_Type *TIM_CaptureConfigStruct)
 463:../src/lib/lpc177x_8x/Drivers/source/lpc177x_8x_timer.c **** {
 980              		.loc 1 463 0
 981              		.cfi_startproc
 982              		@ args = 0, pretend = 0, frame = 8
 983              		@ frame_needed = 1, uses_anonymous_args = 0
 984              		@ link register save eliminated.
 985 0548 80B4     		push	{r7}
 986              	.LCFI36:
 987              		.cfi_def_cfa_offset 4
 988              		.cfi_offset 7, -4
 989 054a 83B0     		sub	sp, sp, #12
 990              	.LCFI37:
 991              		.cfi_def_cfa_offset 16
 992 054c 00AF     		add	r7, sp, #0
 993              	.LCFI38:
 994              		.cfi_def_cfa_register 7
 995 054e 7860     		str	r0, [r7, #4]
 996 0550 3960     		str	r1, [r7, #0]
 464:../src/lib/lpc177x_8x/Drivers/source/lpc177x_8x_timer.c ****     TIMx->CCR &= ~TIM_CCR_CHANNEL_MASKBIT(TIM_CaptureConfigStruct->CaptureChannel);
 997              		.loc 1 464 0
 998 0552 7B68     		ldr	r3, [r7, #4]
 999 0554 996A     		ldr	r1, [r3, #40]
 1000 0556 3B68     		ldr	r3, [r7, #0]
 1001 0558 1B78     		ldrb	r3, [r3, #0]	@ zero_extendqisi2
 1002 055a 1A46     		mov	r2, r3
 1003 055c 1346     		mov	r3, r2
 1004 055e 4FEA4303 		lsl	r3, r3, #1
 1005 0562 9B18     		adds	r3, r3, r2
 1006 0564 4FF00702 		mov	r2, #7
 1007 0568 02FA03F3 		lsl	r3, r2, r3
 1008 056c 6FEA0303 		mvn	r3, r3
 1009 0570 01EA0302 		and	r2, r1, r3
 1010 0574 7B68     		ldr	r3, [r7, #4]
 1011 0576 9A62     		str	r2, [r3, #40]
 465:../src/lib/lpc177x_8x/Drivers/source/lpc177x_8x_timer.c **** 
 466:../src/lib/lpc177x_8x/Drivers/source/lpc177x_8x_timer.c ****     if (TIM_CaptureConfigStruct->RisingEdge)
 1012              		.loc 1 466 0
 1013 0578 3B68     		ldr	r3, [r7, #0]
 1014 057a 5B78     		ldrb	r3, [r3, #1]	@ zero_extendqisi2
 1015 057c 002B     		cmp	r3, #0
 1016 057e 10D0     		beq	.L61
 467:../src/lib/lpc177x_8x/Drivers/source/lpc177x_8x_timer.c ****         TIMx->CCR |= TIM_CAP_RISING(TIM_CaptureConfigStruct->CaptureChannel);
 1017              		.loc 1 467 0
 1018 0580 7B68     		ldr	r3, [r7, #4]
 1019 0582 996A     		ldr	r1, [r3, #40]
 1020 0584 3B68     		ldr	r3, [r7, #0]
 1021 0586 1B78     		ldrb	r3, [r3, #0]	@ zero_extendqisi2
 1022 0588 1A46     		mov	r2, r3
 1023 058a 1346     		mov	r3, r2
 1024 058c 4FEA4303 		lsl	r3, r3, #1
 1025 0590 9B18     		adds	r3, r3, r2
 1026 0592 4FF00102 		mov	r2, #1
 1027 0596 02FA03F3 		lsl	r3, r2, r3
 1028 059a 41EA0302 		orr	r2, r1, r3
 1029 059e 7B68     		ldr	r3, [r7, #4]
 1030 05a0 9A62     		str	r2, [r3, #40]
 1031              	.L61:
 468:../src/lib/lpc177x_8x/Drivers/source/lpc177x_8x_timer.c **** 
 469:../src/lib/lpc177x_8x/Drivers/source/lpc177x_8x_timer.c ****     if (TIM_CaptureConfigStruct->FallingEdge)
 1032              		.loc 1 469 0
 1033 05a2 3B68     		ldr	r3, [r7, #0]
 1034 05a4 9B78     		ldrb	r3, [r3, #2]	@ zero_extendqisi2
 1035 05a6 002B     		cmp	r3, #0
 1036 05a8 12D0     		beq	.L62
 470:../src/lib/lpc177x_8x/Drivers/source/lpc177x_8x_timer.c ****         TIMx->CCR |= TIM_CAP_FALLING(TIM_CaptureConfigStruct->CaptureChannel);
 1037              		.loc 1 470 0
 1038 05aa 7B68     		ldr	r3, [r7, #4]
 1039 05ac 996A     		ldr	r1, [r3, #40]
 1040 05ae 3B68     		ldr	r3, [r7, #0]
 1041 05b0 1B78     		ldrb	r3, [r3, #0]	@ zero_extendqisi2
 1042 05b2 1A46     		mov	r2, r3
 1043 05b4 1346     		mov	r3, r2
 1044 05b6 4FEA4303 		lsl	r3, r3, #1
 1045 05ba 9B18     		adds	r3, r3, r2
 1046 05bc 03F10103 		add	r3, r3, #1
 1047 05c0 4FF00102 		mov	r2, #1
 1048 05c4 02FA03F3 		lsl	r3, r2, r3
 1049 05c8 41EA0302 		orr	r2, r1, r3
 1050 05cc 7B68     		ldr	r3, [r7, #4]
 1051 05ce 9A62     		str	r2, [r3, #40]
 1052              	.L62:
 471:../src/lib/lpc177x_8x/Drivers/source/lpc177x_8x_timer.c **** 
 472:../src/lib/lpc177x_8x/Drivers/source/lpc177x_8x_timer.c ****     if (TIM_CaptureConfigStruct->IntOnCaption)
 1053              		.loc 1 472 0
 1054 05d0 3B68     		ldr	r3, [r7, #0]
 1055 05d2 DB78     		ldrb	r3, [r3, #3]	@ zero_extendqisi2
 1056 05d4 002B     		cmp	r3, #0
 1057 05d6 12D0     		beq	.L60
 473:../src/lib/lpc177x_8x/Drivers/source/lpc177x_8x_timer.c ****         TIMx->CCR |= TIM_INT_ON_CAP(TIM_CaptureConfigStruct->CaptureChannel);
 1058              		.loc 1 473 0
 1059 05d8 7B68     		ldr	r3, [r7, #4]
 1060 05da 996A     		ldr	r1, [r3, #40]
 1061 05dc 3B68     		ldr	r3, [r7, #0]
 1062 05de 1B78     		ldrb	r3, [r3, #0]	@ zero_extendqisi2
 1063 05e0 1A46     		mov	r2, r3
 1064 05e2 1346     		mov	r3, r2
 1065 05e4 4FEA4303 		lsl	r3, r3, #1
 1066 05e8 9B18     		adds	r3, r3, r2
 1067 05ea 03F10203 		add	r3, r3, #2
 1068 05ee 4FF00102 		mov	r2, #1
 1069 05f2 02FA03F3 		lsl	r3, r2, r3
 1070 05f6 41EA0302 		orr	r2, r1, r3
 1071 05fa 7B68     		ldr	r3, [r7, #4]
 1072 05fc 9A62     		str	r2, [r3, #40]
 1073              	.L60:
 474:../src/lib/lpc177x_8x/Drivers/source/lpc177x_8x_timer.c **** }
 1074              		.loc 1 474 0
 1075 05fe 07F10C07 		add	r7, r7, #12
 1076 0602 BD46     		mov	sp, r7
 1077 0604 80BC     		pop	{r7}
 1078 0606 7047     		bx	lr
 1079              		.cfi_endproc
 1080              	.LFE67:
 1082              		.align	2
 1083              		.global	TIM_GetCaptureValue
 1084              		.thumb
 1085              		.thumb_func
 1087              	TIM_GetCaptureValue:
 1088              	.LFB68:
 475:../src/lib/lpc177x_8x/Drivers/source/lpc177x_8x_timer.c **** 
 476:../src/lib/lpc177x_8x/Drivers/source/lpc177x_8x_timer.c **** /*********************************************************************//**
 477:../src/lib/lpc177x_8x/Drivers/source/lpc177x_8x_timer.c ****  * @brief       Read value of capture register in timer/counter device
 478:../src/lib/lpc177x_8x/Drivers/source/lpc177x_8x_timer.c ****  * @param[in]   TIMx Pointer to timer/counter device, should be:
 479:../src/lib/lpc177x_8x/Drivers/source/lpc177x_8x_timer.c ****  *              - LPC_TIM0: TIMER0 peripheral
 480:../src/lib/lpc177x_8x/Drivers/source/lpc177x_8x_timer.c ****  *              - LPC_TIM1: TIMER1 peripheral
 481:../src/lib/lpc177x_8x/Drivers/source/lpc177x_8x_timer.c ****  *              - LPC_TIM2: TIMER2 peripheral
 482:../src/lib/lpc177x_8x/Drivers/source/lpc177x_8x_timer.c ****  *              - LPC_TIM3: TIMER3 peripheral
 483:../src/lib/lpc177x_8x/Drivers/source/lpc177x_8x_timer.c ****  * @param[in]   CaptureChannel: capture channel number, should be:
 484:../src/lib/lpc177x_8x/Drivers/source/lpc177x_8x_timer.c ****  *              - TIM_COUNTER_INCAP0: CAPn.0 input pin for TIMERn
 485:../src/lib/lpc177x_8x/Drivers/source/lpc177x_8x_timer.c ****  *              - TIM_COUNTER_INCAP1: CAPn.1 input pin for TIMERn
 486:../src/lib/lpc177x_8x/Drivers/source/lpc177x_8x_timer.c ****  * @return      Value of capture register
 487:../src/lib/lpc177x_8x/Drivers/source/lpc177x_8x_timer.c ****  **********************************************************************/
 488:../src/lib/lpc177x_8x/Drivers/source/lpc177x_8x_timer.c **** uint32_t TIM_GetCaptureValue(LPC_TIM_TypeDef *TIMx, TIM_COUNTER_INPUT_OPT CaptureChannel)
 489:../src/lib/lpc177x_8x/Drivers/source/lpc177x_8x_timer.c **** {
 1089              		.loc 1 489 0
 1090              		.cfi_startproc
 1091              		@ args = 0, pretend = 0, frame = 8
 1092              		@ frame_needed = 1, uses_anonymous_args = 0
 1093              		@ link register save eliminated.
 1094 0608 80B4     		push	{r7}
 1095              	.LCFI39:
 1096              		.cfi_def_cfa_offset 4
 1097              		.cfi_offset 7, -4
 1098 060a 83B0     		sub	sp, sp, #12
 1099              	.LCFI40:
 1100              		.cfi_def_cfa_offset 16
 1101 060c 00AF     		add	r7, sp, #0
 1102              	.LCFI41:
 1103              		.cfi_def_cfa_register 7
 1104 060e 7860     		str	r0, [r7, #4]
 1105 0610 0B46     		mov	r3, r1
 1106 0612 FB70     		strb	r3, [r7, #3]
 490:../src/lib/lpc177x_8x/Drivers/source/lpc177x_8x_timer.c ****     if(CaptureChannel==0)
 1107              		.loc 1 490 0
 1108 0614 FB78     		ldrb	r3, [r7, #3]	@ zero_extendqisi2
 1109 0616 002B     		cmp	r3, #0
 1110 0618 02D1     		bne	.L65
 491:../src/lib/lpc177x_8x/Drivers/source/lpc177x_8x_timer.c ****         return TIMx->CR0;
 1111              		.loc 1 491 0
 1112 061a 7B68     		ldr	r3, [r7, #4]
 1113 061c DB6A     		ldr	r3, [r3, #44]
 1114 061e 01E0     		b	.L66
 1115              	.L65:
 492:../src/lib/lpc177x_8x/Drivers/source/lpc177x_8x_timer.c ****     else
 493:../src/lib/lpc177x_8x/Drivers/source/lpc177x_8x_timer.c ****         return TIMx->CR1;
 1116              		.loc 1 493 0
 1117 0620 7B68     		ldr	r3, [r7, #4]
 1118 0622 1B6B     		ldr	r3, [r3, #48]
 1119              	.L66:
 494:../src/lib/lpc177x_8x/Drivers/source/lpc177x_8x_timer.c **** }
 1120              		.loc 1 494 0
 1121 0624 1846     		mov	r0, r3
 1122 0626 07F10C07 		add	r7, r7, #12
 1123 062a BD46     		mov	sp, r7
 1124 062c 80BC     		pop	{r7}
 1125 062e 7047     		bx	lr
 1126              		.cfi_endproc
 1127              	.LFE68:
 1129              		.align	2
 1130              		.global	TIM_Waitus
 1131              		.thumb
 1132              		.thumb_func
 1134              	TIM_Waitus:
 1135              	.LFB69:
 495:../src/lib/lpc177x_8x/Drivers/source/lpc177x_8x_timer.c **** 
 496:../src/lib/lpc177x_8x/Drivers/source/lpc177x_8x_timer.c **** /*---------------Advanced TIMER functions -----------------------------------------*/
 497:../src/lib/lpc177x_8x/Drivers/source/lpc177x_8x_timer.c **** /*********************************************************************//**
 498:../src/lib/lpc177x_8x/Drivers/source/lpc177x_8x_timer.c ****  * @brief       Timer wait (microseconds)
 499:../src/lib/lpc177x_8x/Drivers/source/lpc177x_8x_timer.c ****  * @param[in]   time    number of microseconds waiting
 500:../src/lib/lpc177x_8x/Drivers/source/lpc177x_8x_timer.c ****  * @return      None
 501:../src/lib/lpc177x_8x/Drivers/source/lpc177x_8x_timer.c ****  **********************************************************************/
 502:../src/lib/lpc177x_8x/Drivers/source/lpc177x_8x_timer.c **** void TIM_Waitus(uint32_t time)
 503:../src/lib/lpc177x_8x/Drivers/source/lpc177x_8x_timer.c **** {
 1136              		.loc 1 503 0
 1137              		.cfi_startproc
 1138              		@ args = 0, pretend = 0, frame = 24
 1139              		@ frame_needed = 1, uses_anonymous_args = 0
 1140 0630 80B5     		push	{r7, lr}
 1141              	.LCFI42:
 1142              		.cfi_def_cfa_offset 8
 1143              		.cfi_offset 7, -8
 1144              		.cfi_offset 14, -4
 1145 0632 86B0     		sub	sp, sp, #24
 1146              	.LCFI43:
 1147              		.cfi_def_cfa_offset 32
 1148 0634 00AF     		add	r7, sp, #0
 1149              	.LCFI44:
 1150              		.cfi_def_cfa_register 7
 1151 0636 7860     		str	r0, [r7, #4]
 504:../src/lib/lpc177x_8x/Drivers/source/lpc177x_8x_timer.c ****     TIM_MATCHCFG_Type MatchConfigStruct;
 505:../src/lib/lpc177x_8x/Drivers/source/lpc177x_8x_timer.c ****     LPC_TIM0->IR = 0xFFFFFFFF;
 1152              		.loc 1 505 0
 1153 0638 4FF04023 		mov	r3, #1073758208
 1154 063c 4FF0FF32 		mov	r2, #-1
 1155 0640 1A60     		str	r2, [r3, #0]
 506:../src/lib/lpc177x_8x/Drivers/source/lpc177x_8x_timer.c **** 
 507:../src/lib/lpc177x_8x/Drivers/source/lpc177x_8x_timer.c ****     MatchConfigStruct.MatchChannel = 0;
 1156              		.loc 1 507 0
 1157 0642 4FF00003 		mov	r3, #0
 1158 0646 3B73     		strb	r3, [r7, #12]
 508:../src/lib/lpc177x_8x/Drivers/source/lpc177x_8x_timer.c ****     MatchConfigStruct.IntOnMatch = ENABLE;
 1159              		.loc 1 508 0
 1160 0648 4FF00103 		mov	r3, #1
 1161 064c 7B73     		strb	r3, [r7, #13]
 509:../src/lib/lpc177x_8x/Drivers/source/lpc177x_8x_timer.c ****     MatchConfigStruct.ResetOnMatch = ENABLE;
 1162              		.loc 1 509 0
 1163 064e 4FF00103 		mov	r3, #1
 1164 0652 FB73     		strb	r3, [r7, #15]
 510:../src/lib/lpc177x_8x/Drivers/source/lpc177x_8x_timer.c ****     MatchConfigStruct.StopOnMatch = ENABLE;
 1165              		.loc 1 510 0
 1166 0654 4FF00103 		mov	r3, #1
 1167 0658 BB73     		strb	r3, [r7, #14]
 511:../src/lib/lpc177x_8x/Drivers/source/lpc177x_8x_timer.c ****     MatchConfigStruct.ExtMatchOutputType = 0;
 1168              		.loc 1 511 0
 1169 065a 4FF00003 		mov	r3, #0
 1170 065e 3B74     		strb	r3, [r7, #16]
 512:../src/lib/lpc177x_8x/Drivers/source/lpc177x_8x_timer.c ****     MatchConfigStruct.MatchValue = time;
 1171              		.loc 1 512 0
 1172 0660 7B68     		ldr	r3, [r7, #4]
 1173 0662 7B61     		str	r3, [r7, #20]
 513:../src/lib/lpc177x_8x/Drivers/source/lpc177x_8x_timer.c **** 
 514:../src/lib/lpc177x_8x/Drivers/source/lpc177x_8x_timer.c ****     TIM_ConfigMatch(LPC_TIM0, &MatchConfigStruct);
 1174              		.loc 1 514 0
 1175 0664 07F10C03 		add	r3, r7, #12
 1176 0668 4FF04020 		mov	r0, #1073758208
 1177 066c 1946     		mov	r1, r3
 1178 066e FFF7FEFF 		bl	TIM_ConfigMatch
 515:../src/lib/lpc177x_8x/Drivers/source/lpc177x_8x_timer.c ****     TIM_Cmd(LPC_TIM0,ENABLE);
 1179              		.loc 1 515 0
 1180 0672 4FF04020 		mov	r0, #1073758208
 1181 0676 4FF00101 		mov	r1, #1
 1182 067a FFF7FEFF 		bl	TIM_Cmd
 516:../src/lib/lpc177x_8x/Drivers/source/lpc177x_8x_timer.c ****     //wait until interrupt flag occur
 517:../src/lib/lpc177x_8x/Drivers/source/lpc177x_8x_timer.c ****     while(!(LPC_TIM0->IR & 0x01));
 1183              		.loc 1 517 0
 1184 067e 00BF     		nop
 1185              	.L68:
 1186              		.loc 1 517 0 is_stmt 0 discriminator 1
 1187 0680 4FF04023 		mov	r3, #1073758208
 1188 0684 1B68     		ldr	r3, [r3, #0]
 1189 0686 03F00103 		and	r3, r3, #1
 1190 068a 002B     		cmp	r3, #0
 1191 068c F8D0     		beq	.L68
 518:../src/lib/lpc177x_8x/Drivers/source/lpc177x_8x_timer.c ****     TIM_ResetCounter(LPC_TIM0);
 1192              		.loc 1 518 0 is_stmt 1
 1193 068e 4FF04020 		mov	r0, #1073758208
 1194 0692 FFF7FEFF 		bl	TIM_ResetCounter
 519:../src/lib/lpc177x_8x/Drivers/source/lpc177x_8x_timer.c **** }
 1195              		.loc 1 519 0
 1196 0696 07F11807 		add	r7, r7, #24
 1197 069a BD46     		mov	sp, r7
 1198 069c 80BD     		pop	{r7, pc}
 1199              		.cfi_endproc
 1200              	.LFE69:
 1202 069e 00BF     		.align	2
 1203              		.global	TIM_Waitms
 1204              		.thumb
 1205              		.thumb_func
 1207              	TIM_Waitms:
 1208              	.LFB70:
 520:../src/lib/lpc177x_8x/Drivers/source/lpc177x_8x_timer.c **** /*********************************************************************//**
 521:../src/lib/lpc177x_8x/Drivers/source/lpc177x_8x_timer.c ****  * @brief       Timer wait (milliseconds)
 522:../src/lib/lpc177x_8x/Drivers/source/lpc177x_8x_timer.c ****  * @param[in]   time    number of millisecond waiting
 523:../src/lib/lpc177x_8x/Drivers/source/lpc177x_8x_timer.c ****  * @return      None
 524:../src/lib/lpc177x_8x/Drivers/source/lpc177x_8x_timer.c ****  **********************************************************************/
 525:../src/lib/lpc177x_8x/Drivers/source/lpc177x_8x_timer.c **** void TIM_Waitms(uint32_t time)
 526:../src/lib/lpc177x_8x/Drivers/source/lpc177x_8x_timer.c **** {
 1209              		.loc 1 526 0
 1210              		.cfi_startproc
 1211              		@ args = 0, pretend = 0, frame = 8
 1212              		@ frame_needed = 1, uses_anonymous_args = 0
 1213 06a0 80B5     		push	{r7, lr}
 1214              	.LCFI45:
 1215              		.cfi_def_cfa_offset 8
 1216              		.cfi_offset 7, -8
 1217              		.cfi_offset 14, -4
 1218 06a2 82B0     		sub	sp, sp, #8
 1219              	.LCFI46:
 1220              		.cfi_def_cfa_offset 16
 1221 06a4 00AF     		add	r7, sp, #0
 1222              	.LCFI47:
 1223              		.cfi_def_cfa_register 7
 1224 06a6 7860     		str	r0, [r7, #4]
 527:../src/lib/lpc177x_8x/Drivers/source/lpc177x_8x_timer.c ****     TIM_Waitus(time * 1000);
 1225              		.loc 1 527 0
 1226 06a8 7B68     		ldr	r3, [r7, #4]
 1227 06aa 4FF47A72 		mov	r2, #1000
 1228 06ae 02FB03F3 		mul	r3, r2, r3
 1229 06b2 1846     		mov	r0, r3
 1230 06b4 FFF7FEFF 		bl	TIM_Waitus
 528:../src/lib/lpc177x_8x/Drivers/source/lpc177x_8x_timer.c **** }
 1231              		.loc 1 528 0
 1232 06b8 07F10807 		add	r7, r7, #8
 1233 06bc BD46     		mov	sp, r7
 1234 06be 80BD     		pop	{r7, pc}
 1235              		.cfi_endproc
 1236              	.LFE70:
 1238              	.Letext0:
 1239              		.file 2 "g:\\program files\\codesourcery\\sourcery_codebench_lite_for_arm_eabi\\bin\\../lib/gcc/ar
 1240              		.file 3 "D:\\workspace_gnu\\RTT_Demo0\\src\\lib\\lpc177x_8x\\Drivers\\include/lpc_types.h"
 1241              		.file 4 "D:\\workspace_gnu\\RTT_Demo0\\src\\lib\\lpc177x_8x\\Core\\Device\\NXP\\LPC177x_8x\\Includ
 1242              		.file 5 "D:\\workspace_gnu\\RTT_Demo0\\src\\lib\\lpc177x_8x\\Drivers\\include/lpc177x_8x_timer.h"
 1243              		.file 6 "D:\\workspace_gnu\\RTT_Demo0\\src\\lib\\lpc177x_8x\\Core\\CMSIS\\Include/core_cm3.h"