   1              		.syntax unified
   2              		.cpu cortex-m4
   3              		.fpu softvfp
   4              		.eabi_attribute 20, 1
   5              		.eabi_attribute 21, 1
   6              		.eabi_attribute 23, 3
   7              		.eabi_attribute 24, 1
   8              		.eabi_attribute 25, 1
   9              		.eabi_attribute 26, 1
  10              		.eabi_attribute 30, 6
  11              		.eabi_attribute 34, 1
  12              		.eabi_attribute 18, 4
  13              		.thumb
  14              		.file	"lpc177x_8x_mci.c"
  15              		.text
  16              	.Ltext0:
  17              		.cfi_sections	.debug_frame
  18              		.align	2
  19              		.thumb
  20              		.thumb_func
  22              	NVIC_EnableIRQ:
  23              	.LFB40:
  24              		.file 1 "D:\\workspace_gnu\\RTT_Demo0\\src\\lib\\lpc177x_8x\\Core\\CMSIS\\Include/core_cm3.h"
   1:D:\workspace_gnu\RTT_Demo0\src\lib\lpc177x_8x\Core\CMSIS\Include\core_cm3.h **** /**************************************************************************//**
   2:D:\workspace_gnu\RTT_Demo0\src\lib\lpc177x_8x\Core\CMSIS\Include\core_cm3.h ****  * @file     core_cm3.h
   3:D:\workspace_gnu\RTT_Demo0\src\lib\lpc177x_8x\Core\CMSIS\Include\core_cm3.h ****  * @brief    CMSIS Cortex-M3 Core Peripheral Access Layer Header File
   4:D:\workspace_gnu\RTT_Demo0\src\lib\lpc177x_8x\Core\CMSIS\Include\core_cm3.h ****  * @version  V2.10
   5:D:\workspace_gnu\RTT_Demo0\src\lib\lpc177x_8x\Core\CMSIS\Include\core_cm3.h ****  * @date     19. July 2011
   6:D:\workspace_gnu\RTT_Demo0\src\lib\lpc177x_8x\Core\CMSIS\Include\core_cm3.h ****  *
   7:D:\workspace_gnu\RTT_Demo0\src\lib\lpc177x_8x\Core\CMSIS\Include\core_cm3.h ****  * @note
   8:D:\workspace_gnu\RTT_Demo0\src\lib\lpc177x_8x\Core\CMSIS\Include\core_cm3.h ****  * Copyright (C) 2009-2011 ARM Limited. All rights reserved.
   9:D:\workspace_gnu\RTT_Demo0\src\lib\lpc177x_8x\Core\CMSIS\Include\core_cm3.h ****  *
  10:D:\workspace_gnu\RTT_Demo0\src\lib\lpc177x_8x\Core\CMSIS\Include\core_cm3.h ****  * @par
  11:D:\workspace_gnu\RTT_Demo0\src\lib\lpc177x_8x\Core\CMSIS\Include\core_cm3.h ****  * ARM Limited (ARM) is supplying this software for use with Cortex-M
  12:D:\workspace_gnu\RTT_Demo0\src\lib\lpc177x_8x\Core\CMSIS\Include\core_cm3.h ****  * processor based microcontrollers.  This file can be freely distributed
  13:D:\workspace_gnu\RTT_Demo0\src\lib\lpc177x_8x\Core\CMSIS\Include\core_cm3.h ****  * within development tools that are supporting such ARM based processors.
  14:D:\workspace_gnu\RTT_Demo0\src\lib\lpc177x_8x\Core\CMSIS\Include\core_cm3.h ****  *
  15:D:\workspace_gnu\RTT_Demo0\src\lib\lpc177x_8x\Core\CMSIS\Include\core_cm3.h ****  * @par
  16:D:\workspace_gnu\RTT_Demo0\src\lib\lpc177x_8x\Core\CMSIS\Include\core_cm3.h ****  * THIS SOFTWARE IS PROVIDED "AS IS".  NO WARRANTIES, WHETHER EXPRESS, IMPLIED
  17:D:\workspace_gnu\RTT_Demo0\src\lib\lpc177x_8x\Core\CMSIS\Include\core_cm3.h ****  * OR STATUTORY, INCLUDING, BUT NOT LIMITED TO, IMPLIED WARRANTIES OF
  18:D:\workspace_gnu\RTT_Demo0\src\lib\lpc177x_8x\Core\CMSIS\Include\core_cm3.h ****  * MERCHANTABILITY AND FITNESS FOR A PARTICULAR PURPOSE APPLY TO THIS SOFTWARE.
  19:D:\workspace_gnu\RTT_Demo0\src\lib\lpc177x_8x\Core\CMSIS\Include\core_cm3.h ****  * ARM SHALL NOT, IN ANY CIRCUMSTANCES, BE LIABLE FOR SPECIAL, INCIDENTAL, OR
  20:D:\workspace_gnu\RTT_Demo0\src\lib\lpc177x_8x\Core\CMSIS\Include\core_cm3.h ****  * CONSEQUENTIAL DAMAGES, FOR ANY REASON WHATSOEVER.
  21:D:\workspace_gnu\RTT_Demo0\src\lib\lpc177x_8x\Core\CMSIS\Include\core_cm3.h ****  *
  22:D:\workspace_gnu\RTT_Demo0\src\lib\lpc177x_8x\Core\CMSIS\Include\core_cm3.h ****  ******************************************************************************/
  23:D:\workspace_gnu\RTT_Demo0\src\lib\lpc177x_8x\Core\CMSIS\Include\core_cm3.h **** #if defined ( __ICCARM__ )
  24:D:\workspace_gnu\RTT_Demo0\src\lib\lpc177x_8x\Core\CMSIS\Include\core_cm3.h ****  #pragma system_include  /* treat file as system include file for MISRA check */
  25:D:\workspace_gnu\RTT_Demo0\src\lib\lpc177x_8x\Core\CMSIS\Include\core_cm3.h **** #endif
  26:D:\workspace_gnu\RTT_Demo0\src\lib\lpc177x_8x\Core\CMSIS\Include\core_cm3.h **** 
  27:D:\workspace_gnu\RTT_Demo0\src\lib\lpc177x_8x\Core\CMSIS\Include\core_cm3.h **** #ifdef __cplusplus
  28:D:\workspace_gnu\RTT_Demo0\src\lib\lpc177x_8x\Core\CMSIS\Include\core_cm3.h ****  extern "C" {
  29:D:\workspace_gnu\RTT_Demo0\src\lib\lpc177x_8x\Core\CMSIS\Include\core_cm3.h **** #endif
  30:D:\workspace_gnu\RTT_Demo0\src\lib\lpc177x_8x\Core\CMSIS\Include\core_cm3.h **** 
  31:D:\workspace_gnu\RTT_Demo0\src\lib\lpc177x_8x\Core\CMSIS\Include\core_cm3.h **** #ifndef __CORE_CM3_H_GENERIC
  32:D:\workspace_gnu\RTT_Demo0\src\lib\lpc177x_8x\Core\CMSIS\Include\core_cm3.h **** #define __CORE_CM3_H_GENERIC
  33:D:\workspace_gnu\RTT_Demo0\src\lib\lpc177x_8x\Core\CMSIS\Include\core_cm3.h **** 
  34:D:\workspace_gnu\RTT_Demo0\src\lib\lpc177x_8x\Core\CMSIS\Include\core_cm3.h **** 
  35:D:\workspace_gnu\RTT_Demo0\src\lib\lpc177x_8x\Core\CMSIS\Include\core_cm3.h **** /** \mainpage CMSIS Cortex-M3
  36:D:\workspace_gnu\RTT_Demo0\src\lib\lpc177x_8x\Core\CMSIS\Include\core_cm3.h **** 
  37:D:\workspace_gnu\RTT_Demo0\src\lib\lpc177x_8x\Core\CMSIS\Include\core_cm3.h ****   This documentation describes the CMSIS Cortex-M Core Peripheral Access Layer.
  38:D:\workspace_gnu\RTT_Demo0\src\lib\lpc177x_8x\Core\CMSIS\Include\core_cm3.h ****   It consists of:
  39:D:\workspace_gnu\RTT_Demo0\src\lib\lpc177x_8x\Core\CMSIS\Include\core_cm3.h **** 
  40:D:\workspace_gnu\RTT_Demo0\src\lib\lpc177x_8x\Core\CMSIS\Include\core_cm3.h ****      - Cortex-M Core Register Definitions
  41:D:\workspace_gnu\RTT_Demo0\src\lib\lpc177x_8x\Core\CMSIS\Include\core_cm3.h ****      - Cortex-M functions
  42:D:\workspace_gnu\RTT_Demo0\src\lib\lpc177x_8x\Core\CMSIS\Include\core_cm3.h ****      - Cortex-M instructions
  43:D:\workspace_gnu\RTT_Demo0\src\lib\lpc177x_8x\Core\CMSIS\Include\core_cm3.h **** 
  44:D:\workspace_gnu\RTT_Demo0\src\lib\lpc177x_8x\Core\CMSIS\Include\core_cm3.h ****   The CMSIS Cortex-M3 Core Peripheral Access Layer contains C and assembly functions that ease
  45:D:\workspace_gnu\RTT_Demo0\src\lib\lpc177x_8x\Core\CMSIS\Include\core_cm3.h ****   access to the Cortex-M Core
  46:D:\workspace_gnu\RTT_Demo0\src\lib\lpc177x_8x\Core\CMSIS\Include\core_cm3.h ****  */
  47:D:\workspace_gnu\RTT_Demo0\src\lib\lpc177x_8x\Core\CMSIS\Include\core_cm3.h **** 
  48:D:\workspace_gnu\RTT_Demo0\src\lib\lpc177x_8x\Core\CMSIS\Include\core_cm3.h **** /** \defgroup CMSIS_MISRA_Exceptions  CMSIS MISRA-C:2004 Compliance Exceptions
  49:D:\workspace_gnu\RTT_Demo0\src\lib\lpc177x_8x\Core\CMSIS\Include\core_cm3.h ****   * @ingroup CMSIS_Core
  50:D:\workspace_gnu\RTT_Demo0\src\lib\lpc177x_8x\Core\CMSIS\Include\core_cm3.h ****   CMSIS violates following MISRA-C2004 Rules:
  51:D:\workspace_gnu\RTT_Demo0\src\lib\lpc177x_8x\Core\CMSIS\Include\core_cm3.h ****   
  52:D:\workspace_gnu\RTT_Demo0\src\lib\lpc177x_8x\Core\CMSIS\Include\core_cm3.h ****    - Violates MISRA 2004 Required Rule 8.5, object/function definition in header file.<br>
  53:D:\workspace_gnu\RTT_Demo0\src\lib\lpc177x_8x\Core\CMSIS\Include\core_cm3.h ****      Function definitions in header files are used to allow 'inlining'. 
  54:D:\workspace_gnu\RTT_Demo0\src\lib\lpc177x_8x\Core\CMSIS\Include\core_cm3.h **** 
  55:D:\workspace_gnu\RTT_Demo0\src\lib\lpc177x_8x\Core\CMSIS\Include\core_cm3.h ****    - Violates MISRA 2004 Required Rule 18.4, declaration of union type or object of union type: '{.
  56:D:\workspace_gnu\RTT_Demo0\src\lib\lpc177x_8x\Core\CMSIS\Include\core_cm3.h ****      Unions are used for effective representation of core registers.
  57:D:\workspace_gnu\RTT_Demo0\src\lib\lpc177x_8x\Core\CMSIS\Include\core_cm3.h ****    
  58:D:\workspace_gnu\RTT_Demo0\src\lib\lpc177x_8x\Core\CMSIS\Include\core_cm3.h ****    - Violates MISRA 2004 Advisory Rule 19.7, Function-like macro defined.<br>
  59:D:\workspace_gnu\RTT_Demo0\src\lib\lpc177x_8x\Core\CMSIS\Include\core_cm3.h ****      Function-like macros are used to allow more efficient code. 
  60:D:\workspace_gnu\RTT_Demo0\src\lib\lpc177x_8x\Core\CMSIS\Include\core_cm3.h **** 
  61:D:\workspace_gnu\RTT_Demo0\src\lib\lpc177x_8x\Core\CMSIS\Include\core_cm3.h ****  */
  62:D:\workspace_gnu\RTT_Demo0\src\lib\lpc177x_8x\Core\CMSIS\Include\core_cm3.h **** 
  63:D:\workspace_gnu\RTT_Demo0\src\lib\lpc177x_8x\Core\CMSIS\Include\core_cm3.h **** 
  64:D:\workspace_gnu\RTT_Demo0\src\lib\lpc177x_8x\Core\CMSIS\Include\core_cm3.h **** /*******************************************************************************
  65:D:\workspace_gnu\RTT_Demo0\src\lib\lpc177x_8x\Core\CMSIS\Include\core_cm3.h ****  *                 CMSIS definitions
  66:D:\workspace_gnu\RTT_Demo0\src\lib\lpc177x_8x\Core\CMSIS\Include\core_cm3.h ****  ******************************************************************************/
  67:D:\workspace_gnu\RTT_Demo0\src\lib\lpc177x_8x\Core\CMSIS\Include\core_cm3.h **** /** \defgroup CMSIS_core_definitions CMSIS Core Definitions
  68:D:\workspace_gnu\RTT_Demo0\src\lib\lpc177x_8x\Core\CMSIS\Include\core_cm3.h ****   * @ingroup CMSIS_Core
  69:D:\workspace_gnu\RTT_Demo0\src\lib\lpc177x_8x\Core\CMSIS\Include\core_cm3.h ****   This file defines all structures and symbols for CMSIS core:
  70:D:\workspace_gnu\RTT_Demo0\src\lib\lpc177x_8x\Core\CMSIS\Include\core_cm3.h ****    - CMSIS version number
  71:D:\workspace_gnu\RTT_Demo0\src\lib\lpc177x_8x\Core\CMSIS\Include\core_cm3.h ****    - Cortex-M core
  72:D:\workspace_gnu\RTT_Demo0\src\lib\lpc177x_8x\Core\CMSIS\Include\core_cm3.h ****    - Cortex-M core Revision Number
  73:D:\workspace_gnu\RTT_Demo0\src\lib\lpc177x_8x\Core\CMSIS\Include\core_cm3.h ****   @{
  74:D:\workspace_gnu\RTT_Demo0\src\lib\lpc177x_8x\Core\CMSIS\Include\core_cm3.h ****  */
  75:D:\workspace_gnu\RTT_Demo0\src\lib\lpc177x_8x\Core\CMSIS\Include\core_cm3.h **** 
  76:D:\workspace_gnu\RTT_Demo0\src\lib\lpc177x_8x\Core\CMSIS\Include\core_cm3.h **** /*  CMSIS CM3 definitions */
  77:D:\workspace_gnu\RTT_Demo0\src\lib\lpc177x_8x\Core\CMSIS\Include\core_cm3.h **** #define __CM3_CMSIS_VERSION_MAIN  (0x02)                                                       /*!<
  78:D:\workspace_gnu\RTT_Demo0\src\lib\lpc177x_8x\Core\CMSIS\Include\core_cm3.h **** #define __CM3_CMSIS_VERSION_SUB   (0x10)                                                       /*!<
  79:D:\workspace_gnu\RTT_Demo0\src\lib\lpc177x_8x\Core\CMSIS\Include\core_cm3.h **** #define __CM3_CMSIS_VERSION       ((__CM3_CMSIS_VERSION_MAIN << 16) | __CM3_CMSIS_VERSION_SUB) /*!<
  80:D:\workspace_gnu\RTT_Demo0\src\lib\lpc177x_8x\Core\CMSIS\Include\core_cm3.h **** 
  81:D:\workspace_gnu\RTT_Demo0\src\lib\lpc177x_8x\Core\CMSIS\Include\core_cm3.h **** #define __CORTEX_M                (0x03)                                                       /*!<
  82:D:\workspace_gnu\RTT_Demo0\src\lib\lpc177x_8x\Core\CMSIS\Include\core_cm3.h **** 
  83:D:\workspace_gnu\RTT_Demo0\src\lib\lpc177x_8x\Core\CMSIS\Include\core_cm3.h **** 
  84:D:\workspace_gnu\RTT_Demo0\src\lib\lpc177x_8x\Core\CMSIS\Include\core_cm3.h **** #if   defined ( __CC_ARM )
  85:D:\workspace_gnu\RTT_Demo0\src\lib\lpc177x_8x\Core\CMSIS\Include\core_cm3.h ****   #define __ASM            __asm                                      /*!< asm keyword for ARM Comp
  86:D:\workspace_gnu\RTT_Demo0\src\lib\lpc177x_8x\Core\CMSIS\Include\core_cm3.h ****   #define __INLINE         __inline                                   /*!< inline keyword for ARM C
  87:D:\workspace_gnu\RTT_Demo0\src\lib\lpc177x_8x\Core\CMSIS\Include\core_cm3.h **** 
  88:D:\workspace_gnu\RTT_Demo0\src\lib\lpc177x_8x\Core\CMSIS\Include\core_cm3.h **** #elif defined ( __ICCARM__ )
  89:D:\workspace_gnu\RTT_Demo0\src\lib\lpc177x_8x\Core\CMSIS\Include\core_cm3.h ****   #define __ASM           __asm                                       /*!< asm keyword for IAR Comp
  90:D:\workspace_gnu\RTT_Demo0\src\lib\lpc177x_8x\Core\CMSIS\Include\core_cm3.h ****   #define __INLINE        inline                                      /*!< inline keyword for IAR C
  91:D:\workspace_gnu\RTT_Demo0\src\lib\lpc177x_8x\Core\CMSIS\Include\core_cm3.h **** 
  92:D:\workspace_gnu\RTT_Demo0\src\lib\lpc177x_8x\Core\CMSIS\Include\core_cm3.h **** #elif defined ( __GNUC__ )
  93:D:\workspace_gnu\RTT_Demo0\src\lib\lpc177x_8x\Core\CMSIS\Include\core_cm3.h ****   #define __ASM            __asm                                      /*!< asm keyword for GNU Comp
  94:D:\workspace_gnu\RTT_Demo0\src\lib\lpc177x_8x\Core\CMSIS\Include\core_cm3.h ****   #define __INLINE         inline                                     /*!< inline keyword for GNU C
  95:D:\workspace_gnu\RTT_Demo0\src\lib\lpc177x_8x\Core\CMSIS\Include\core_cm3.h **** 
  96:D:\workspace_gnu\RTT_Demo0\src\lib\lpc177x_8x\Core\CMSIS\Include\core_cm3.h **** #elif defined ( __TASKING__ )
  97:D:\workspace_gnu\RTT_Demo0\src\lib\lpc177x_8x\Core\CMSIS\Include\core_cm3.h ****   #define __ASM            __asm                                      /*!< asm keyword for TASKING 
  98:D:\workspace_gnu\RTT_Demo0\src\lib\lpc177x_8x\Core\CMSIS\Include\core_cm3.h ****   #define __INLINE         inline                                     /*!< inline keyword for TASKI
  99:D:\workspace_gnu\RTT_Demo0\src\lib\lpc177x_8x\Core\CMSIS\Include\core_cm3.h **** 
 100:D:\workspace_gnu\RTT_Demo0\src\lib\lpc177x_8x\Core\CMSIS\Include\core_cm3.h **** #endif
 101:D:\workspace_gnu\RTT_Demo0\src\lib\lpc177x_8x\Core\CMSIS\Include\core_cm3.h **** 
 102:D:\workspace_gnu\RTT_Demo0\src\lib\lpc177x_8x\Core\CMSIS\Include\core_cm3.h **** /*!< __FPU_USED to be checked prior to making use of FPU specific registers and functions */
 103:D:\workspace_gnu\RTT_Demo0\src\lib\lpc177x_8x\Core\CMSIS\Include\core_cm3.h **** #define __FPU_USED       0
 104:D:\workspace_gnu\RTT_Demo0\src\lib\lpc177x_8x\Core\CMSIS\Include\core_cm3.h **** 
 105:D:\workspace_gnu\RTT_Demo0\src\lib\lpc177x_8x\Core\CMSIS\Include\core_cm3.h **** #if defined ( __CC_ARM )
 106:D:\workspace_gnu\RTT_Demo0\src\lib\lpc177x_8x\Core\CMSIS\Include\core_cm3.h ****   #if defined __TARGET_FPU_VFP
 107:D:\workspace_gnu\RTT_Demo0\src\lib\lpc177x_8x\Core\CMSIS\Include\core_cm3.h ****     #warning "Compiler generates FPU instructions for a device without an FPU (check __FPU_PRESENT)
 108:D:\workspace_gnu\RTT_Demo0\src\lib\lpc177x_8x\Core\CMSIS\Include\core_cm3.h ****   #endif
 109:D:\workspace_gnu\RTT_Demo0\src\lib\lpc177x_8x\Core\CMSIS\Include\core_cm3.h **** #elif defined ( __ICCARM__ )
 110:D:\workspace_gnu\RTT_Demo0\src\lib\lpc177x_8x\Core\CMSIS\Include\core_cm3.h ****   #if defined __ARMVFP__
 111:D:\workspace_gnu\RTT_Demo0\src\lib\lpc177x_8x\Core\CMSIS\Include\core_cm3.h ****     #warning "Compiler generates FPU instructions for a device without an FPU (check __FPU_PRESENT)
 112:D:\workspace_gnu\RTT_Demo0\src\lib\lpc177x_8x\Core\CMSIS\Include\core_cm3.h ****   #endif
 113:D:\workspace_gnu\RTT_Demo0\src\lib\lpc177x_8x\Core\CMSIS\Include\core_cm3.h **** 
 114:D:\workspace_gnu\RTT_Demo0\src\lib\lpc177x_8x\Core\CMSIS\Include\core_cm3.h **** #elif defined ( __GNUC__ )
 115:D:\workspace_gnu\RTT_Demo0\src\lib\lpc177x_8x\Core\CMSIS\Include\core_cm3.h ****   #if defined (__VFP_FP__) && !defined(__SOFTFP__)
 116:D:\workspace_gnu\RTT_Demo0\src\lib\lpc177x_8x\Core\CMSIS\Include\core_cm3.h ****     #warning "Compiler generates FPU instructions for a device without an FPU (check __FPU_PRESENT)
 117:D:\workspace_gnu\RTT_Demo0\src\lib\lpc177x_8x\Core\CMSIS\Include\core_cm3.h ****   #endif
 118:D:\workspace_gnu\RTT_Demo0\src\lib\lpc177x_8x\Core\CMSIS\Include\core_cm3.h **** 
 119:D:\workspace_gnu\RTT_Demo0\src\lib\lpc177x_8x\Core\CMSIS\Include\core_cm3.h **** #elif defined ( __TASKING__ )
 120:D:\workspace_gnu\RTT_Demo0\src\lib\lpc177x_8x\Core\CMSIS\Include\core_cm3.h ****     /* add preprocessor checks */
 121:D:\workspace_gnu\RTT_Demo0\src\lib\lpc177x_8x\Core\CMSIS\Include\core_cm3.h **** #endif
 122:D:\workspace_gnu\RTT_Demo0\src\lib\lpc177x_8x\Core\CMSIS\Include\core_cm3.h **** 
 123:D:\workspace_gnu\RTT_Demo0\src\lib\lpc177x_8x\Core\CMSIS\Include\core_cm3.h **** #include <stdint.h>                      /*!< standard types definitions                      */
 124:D:\workspace_gnu\RTT_Demo0\src\lib\lpc177x_8x\Core\CMSIS\Include\core_cm3.h **** #include "core_cmInstr.h"                /*!< Core Instruction Access                         */
 125:D:\workspace_gnu\RTT_Demo0\src\lib\lpc177x_8x\Core\CMSIS\Include\core_cm3.h **** #include "core_cmFunc.h"                 /*!< Core Function Access                            */
 126:D:\workspace_gnu\RTT_Demo0\src\lib\lpc177x_8x\Core\CMSIS\Include\core_cm3.h **** 
 127:D:\workspace_gnu\RTT_Demo0\src\lib\lpc177x_8x\Core\CMSIS\Include\core_cm3.h **** #endif /* __CORE_CM3_H_GENERIC */
 128:D:\workspace_gnu\RTT_Demo0\src\lib\lpc177x_8x\Core\CMSIS\Include\core_cm3.h **** 
 129:D:\workspace_gnu\RTT_Demo0\src\lib\lpc177x_8x\Core\CMSIS\Include\core_cm3.h **** #ifndef __CMSIS_GENERIC
 130:D:\workspace_gnu\RTT_Demo0\src\lib\lpc177x_8x\Core\CMSIS\Include\core_cm3.h **** 
 131:D:\workspace_gnu\RTT_Demo0\src\lib\lpc177x_8x\Core\CMSIS\Include\core_cm3.h **** #ifndef __CORE_CM3_H_DEPENDANT
 132:D:\workspace_gnu\RTT_Demo0\src\lib\lpc177x_8x\Core\CMSIS\Include\core_cm3.h **** #define __CORE_CM3_H_DEPENDANT
 133:D:\workspace_gnu\RTT_Demo0\src\lib\lpc177x_8x\Core\CMSIS\Include\core_cm3.h **** 
 134:D:\workspace_gnu\RTT_Demo0\src\lib\lpc177x_8x\Core\CMSIS\Include\core_cm3.h **** /* check device defines and use defaults */
 135:D:\workspace_gnu\RTT_Demo0\src\lib\lpc177x_8x\Core\CMSIS\Include\core_cm3.h **** #if defined __CHECK_DEVICE_DEFINES
 136:D:\workspace_gnu\RTT_Demo0\src\lib\lpc177x_8x\Core\CMSIS\Include\core_cm3.h ****   #ifndef __CM3_REV
 137:D:\workspace_gnu\RTT_Demo0\src\lib\lpc177x_8x\Core\CMSIS\Include\core_cm3.h ****     #define __CM3_REV               0x0200
 138:D:\workspace_gnu\RTT_Demo0\src\lib\lpc177x_8x\Core\CMSIS\Include\core_cm3.h ****     #warning "__CM3_REV not defined in device header file; using default!"
 139:D:\workspace_gnu\RTT_Demo0\src\lib\lpc177x_8x\Core\CMSIS\Include\core_cm3.h ****   #endif
 140:D:\workspace_gnu\RTT_Demo0\src\lib\lpc177x_8x\Core\CMSIS\Include\core_cm3.h **** 
 141:D:\workspace_gnu\RTT_Demo0\src\lib\lpc177x_8x\Core\CMSIS\Include\core_cm3.h ****   #ifndef __MPU_PRESENT
 142:D:\workspace_gnu\RTT_Demo0\src\lib\lpc177x_8x\Core\CMSIS\Include\core_cm3.h ****     #define __MPU_PRESENT             0
 143:D:\workspace_gnu\RTT_Demo0\src\lib\lpc177x_8x\Core\CMSIS\Include\core_cm3.h ****     #warning "__MPU_PRESENT not defined in device header file; using default!"
 144:D:\workspace_gnu\RTT_Demo0\src\lib\lpc177x_8x\Core\CMSIS\Include\core_cm3.h ****   #endif
 145:D:\workspace_gnu\RTT_Demo0\src\lib\lpc177x_8x\Core\CMSIS\Include\core_cm3.h **** 
 146:D:\workspace_gnu\RTT_Demo0\src\lib\lpc177x_8x\Core\CMSIS\Include\core_cm3.h ****   #ifndef __NVIC_PRIO_BITS
 147:D:\workspace_gnu\RTT_Demo0\src\lib\lpc177x_8x\Core\CMSIS\Include\core_cm3.h ****     #define __NVIC_PRIO_BITS          4
 148:D:\workspace_gnu\RTT_Demo0\src\lib\lpc177x_8x\Core\CMSIS\Include\core_cm3.h ****     #warning "__NVIC_PRIO_BITS not defined in device header file; using default!"
 149:D:\workspace_gnu\RTT_Demo0\src\lib\lpc177x_8x\Core\CMSIS\Include\core_cm3.h ****   #endif
 150:D:\workspace_gnu\RTT_Demo0\src\lib\lpc177x_8x\Core\CMSIS\Include\core_cm3.h **** 
 151:D:\workspace_gnu\RTT_Demo0\src\lib\lpc177x_8x\Core\CMSIS\Include\core_cm3.h ****   #ifndef __Vendor_SysTickConfig
 152:D:\workspace_gnu\RTT_Demo0\src\lib\lpc177x_8x\Core\CMSIS\Include\core_cm3.h ****     #define __Vendor_SysTickConfig    0
 153:D:\workspace_gnu\RTT_Demo0\src\lib\lpc177x_8x\Core\CMSIS\Include\core_cm3.h ****     #warning "__Vendor_SysTickConfig not defined in device header file; using default!"
 154:D:\workspace_gnu\RTT_Demo0\src\lib\lpc177x_8x\Core\CMSIS\Include\core_cm3.h ****   #endif
 155:D:\workspace_gnu\RTT_Demo0\src\lib\lpc177x_8x\Core\CMSIS\Include\core_cm3.h **** #endif
 156:D:\workspace_gnu\RTT_Demo0\src\lib\lpc177x_8x\Core\CMSIS\Include\core_cm3.h **** 
 157:D:\workspace_gnu\RTT_Demo0\src\lib\lpc177x_8x\Core\CMSIS\Include\core_cm3.h **** /* IO definitions (access restrictions to peripheral registers) */
 158:D:\workspace_gnu\RTT_Demo0\src\lib\lpc177x_8x\Core\CMSIS\Include\core_cm3.h **** #ifdef __cplusplus
 159:D:\workspace_gnu\RTT_Demo0\src\lib\lpc177x_8x\Core\CMSIS\Include\core_cm3.h ****   #define   __I     volatile             /*!< defines 'read only' permissions                 */
 160:D:\workspace_gnu\RTT_Demo0\src\lib\lpc177x_8x\Core\CMSIS\Include\core_cm3.h **** #else
 161:D:\workspace_gnu\RTT_Demo0\src\lib\lpc177x_8x\Core\CMSIS\Include\core_cm3.h ****   #define   __I     volatile const       /*!< defines 'read only' permissions                 */
 162:D:\workspace_gnu\RTT_Demo0\src\lib\lpc177x_8x\Core\CMSIS\Include\core_cm3.h **** #endif
 163:D:\workspace_gnu\RTT_Demo0\src\lib\lpc177x_8x\Core\CMSIS\Include\core_cm3.h **** #define     __O     volatile             /*!< defines 'write only' permissions                */
 164:D:\workspace_gnu\RTT_Demo0\src\lib\lpc177x_8x\Core\CMSIS\Include\core_cm3.h **** #define     __IO    volatile             /*!< defines 'read / write' permissions              */
 165:D:\workspace_gnu\RTT_Demo0\src\lib\lpc177x_8x\Core\CMSIS\Include\core_cm3.h **** 
 166:D:\workspace_gnu\RTT_Demo0\src\lib\lpc177x_8x\Core\CMSIS\Include\core_cm3.h **** /*@} end of group CMSIS_core_definitions */
 167:D:\workspace_gnu\RTT_Demo0\src\lib\lpc177x_8x\Core\CMSIS\Include\core_cm3.h **** 
 168:D:\workspace_gnu\RTT_Demo0\src\lib\lpc177x_8x\Core\CMSIS\Include\core_cm3.h **** 
 169:D:\workspace_gnu\RTT_Demo0\src\lib\lpc177x_8x\Core\CMSIS\Include\core_cm3.h **** 
 170:D:\workspace_gnu\RTT_Demo0\src\lib\lpc177x_8x\Core\CMSIS\Include\core_cm3.h **** /*******************************************************************************
 171:D:\workspace_gnu\RTT_Demo0\src\lib\lpc177x_8x\Core\CMSIS\Include\core_cm3.h ****  *                 Register Abstraction
 172:D:\workspace_gnu\RTT_Demo0\src\lib\lpc177x_8x\Core\CMSIS\Include\core_cm3.h ****  ******************************************************************************/
 173:D:\workspace_gnu\RTT_Demo0\src\lib\lpc177x_8x\Core\CMSIS\Include\core_cm3.h **** /** \defgroup CMSIS_core_register CMSIS Core Register
 174:D:\workspace_gnu\RTT_Demo0\src\lib\lpc177x_8x\Core\CMSIS\Include\core_cm3.h ****   * @ingroup CMSIS_Core
 175:D:\workspace_gnu\RTT_Demo0\src\lib\lpc177x_8x\Core\CMSIS\Include\core_cm3.h ****   Core Register contain:
 176:D:\workspace_gnu\RTT_Demo0\src\lib\lpc177x_8x\Core\CMSIS\Include\core_cm3.h ****   - Core Register
 177:D:\workspace_gnu\RTT_Demo0\src\lib\lpc177x_8x\Core\CMSIS\Include\core_cm3.h ****   - Core NVIC Register
 178:D:\workspace_gnu\RTT_Demo0\src\lib\lpc177x_8x\Core\CMSIS\Include\core_cm3.h ****   - Core SCB Register
 179:D:\workspace_gnu\RTT_Demo0\src\lib\lpc177x_8x\Core\CMSIS\Include\core_cm3.h ****   - Core SysTick Register
 180:D:\workspace_gnu\RTT_Demo0\src\lib\lpc177x_8x\Core\CMSIS\Include\core_cm3.h ****   - Core Debug Register
 181:D:\workspace_gnu\RTT_Demo0\src\lib\lpc177x_8x\Core\CMSIS\Include\core_cm3.h ****   - Core MPU Register
 182:D:\workspace_gnu\RTT_Demo0\src\lib\lpc177x_8x\Core\CMSIS\Include\core_cm3.h **** */
 183:D:\workspace_gnu\RTT_Demo0\src\lib\lpc177x_8x\Core\CMSIS\Include\core_cm3.h **** 
 184:D:\workspace_gnu\RTT_Demo0\src\lib\lpc177x_8x\Core\CMSIS\Include\core_cm3.h **** /** \ingroup  CMSIS_core_register
 185:D:\workspace_gnu\RTT_Demo0\src\lib\lpc177x_8x\Core\CMSIS\Include\core_cm3.h ****     \defgroup CMSIS_CORE CMSIS Core
 186:D:\workspace_gnu\RTT_Demo0\src\lib\lpc177x_8x\Core\CMSIS\Include\core_cm3.h ****   Type definitions for the Cortex-M Core Registers
 187:D:\workspace_gnu\RTT_Demo0\src\lib\lpc177x_8x\Core\CMSIS\Include\core_cm3.h ****   @{
 188:D:\workspace_gnu\RTT_Demo0\src\lib\lpc177x_8x\Core\CMSIS\Include\core_cm3.h ****  */
 189:D:\workspace_gnu\RTT_Demo0\src\lib\lpc177x_8x\Core\CMSIS\Include\core_cm3.h **** 
 190:D:\workspace_gnu\RTT_Demo0\src\lib\lpc177x_8x\Core\CMSIS\Include\core_cm3.h **** /** \brief  Union type to access the Application Program Status Register (APSR).
 191:D:\workspace_gnu\RTT_Demo0\src\lib\lpc177x_8x\Core\CMSIS\Include\core_cm3.h ****  */
 192:D:\workspace_gnu\RTT_Demo0\src\lib\lpc177x_8x\Core\CMSIS\Include\core_cm3.h **** typedef union
 193:D:\workspace_gnu\RTT_Demo0\src\lib\lpc177x_8x\Core\CMSIS\Include\core_cm3.h **** {
 194:D:\workspace_gnu\RTT_Demo0\src\lib\lpc177x_8x\Core\CMSIS\Include\core_cm3.h ****   struct
 195:D:\workspace_gnu\RTT_Demo0\src\lib\lpc177x_8x\Core\CMSIS\Include\core_cm3.h ****   {
 196:D:\workspace_gnu\RTT_Demo0\src\lib\lpc177x_8x\Core\CMSIS\Include\core_cm3.h **** #if (__CORTEX_M != 0x04)
 197:D:\workspace_gnu\RTT_Demo0\src\lib\lpc177x_8x\Core\CMSIS\Include\core_cm3.h ****     uint32_t _reserved0:27;              /*!< bit:  0..26  Reserved                           */
 198:D:\workspace_gnu\RTT_Demo0\src\lib\lpc177x_8x\Core\CMSIS\Include\core_cm3.h **** #else
 199:D:\workspace_gnu\RTT_Demo0\src\lib\lpc177x_8x\Core\CMSIS\Include\core_cm3.h ****     uint32_t _reserved0:16;              /*!< bit:  0..15  Reserved                           */
 200:D:\workspace_gnu\RTT_Demo0\src\lib\lpc177x_8x\Core\CMSIS\Include\core_cm3.h ****     uint32_t GE:4;                       /*!< bit: 16..19  Greater than or Equal flags        */
 201:D:\workspace_gnu\RTT_Demo0\src\lib\lpc177x_8x\Core\CMSIS\Include\core_cm3.h ****     uint32_t _reserved1:7;               /*!< bit: 20..26  Reserved                           */
 202:D:\workspace_gnu\RTT_Demo0\src\lib\lpc177x_8x\Core\CMSIS\Include\core_cm3.h **** #endif
 203:D:\workspace_gnu\RTT_Demo0\src\lib\lpc177x_8x\Core\CMSIS\Include\core_cm3.h ****     uint32_t Q:1;                        /*!< bit:     27  Saturation condition flag          */
 204:D:\workspace_gnu\RTT_Demo0\src\lib\lpc177x_8x\Core\CMSIS\Include\core_cm3.h ****     uint32_t V:1;                        /*!< bit:     28  Overflow condition code flag       */
 205:D:\workspace_gnu\RTT_Demo0\src\lib\lpc177x_8x\Core\CMSIS\Include\core_cm3.h ****     uint32_t C:1;                        /*!< bit:     29  Carry condition code flag          */
 206:D:\workspace_gnu\RTT_Demo0\src\lib\lpc177x_8x\Core\CMSIS\Include\core_cm3.h ****     uint32_t Z:1;                        /*!< bit:     30  Zero condition code flag           */
 207:D:\workspace_gnu\RTT_Demo0\src\lib\lpc177x_8x\Core\CMSIS\Include\core_cm3.h ****     uint32_t N:1;                        /*!< bit:     31  Negative condition code flag       */
 208:D:\workspace_gnu\RTT_Demo0\src\lib\lpc177x_8x\Core\CMSIS\Include\core_cm3.h ****   } b;                                   /*!< Structure used for bit  access                  */
 209:D:\workspace_gnu\RTT_Demo0\src\lib\lpc177x_8x\Core\CMSIS\Include\core_cm3.h ****   uint32_t w;                            /*!< Type      used for word access                  */
 210:D:\workspace_gnu\RTT_Demo0\src\lib\lpc177x_8x\Core\CMSIS\Include\core_cm3.h **** } APSR_Type;
 211:D:\workspace_gnu\RTT_Demo0\src\lib\lpc177x_8x\Core\CMSIS\Include\core_cm3.h **** 
 212:D:\workspace_gnu\RTT_Demo0\src\lib\lpc177x_8x\Core\CMSIS\Include\core_cm3.h **** 
 213:D:\workspace_gnu\RTT_Demo0\src\lib\lpc177x_8x\Core\CMSIS\Include\core_cm3.h **** /** \brief  Union type to access the Interrupt Program Status Register (IPSR).
 214:D:\workspace_gnu\RTT_Demo0\src\lib\lpc177x_8x\Core\CMSIS\Include\core_cm3.h ****  */
 215:D:\workspace_gnu\RTT_Demo0\src\lib\lpc177x_8x\Core\CMSIS\Include\core_cm3.h **** typedef union
 216:D:\workspace_gnu\RTT_Demo0\src\lib\lpc177x_8x\Core\CMSIS\Include\core_cm3.h **** {
 217:D:\workspace_gnu\RTT_Demo0\src\lib\lpc177x_8x\Core\CMSIS\Include\core_cm3.h ****   struct
 218:D:\workspace_gnu\RTT_Demo0\src\lib\lpc177x_8x\Core\CMSIS\Include\core_cm3.h ****   {
 219:D:\workspace_gnu\RTT_Demo0\src\lib\lpc177x_8x\Core\CMSIS\Include\core_cm3.h ****     uint32_t ISR:9;                      /*!< bit:  0.. 8  Exception number                   */
 220:D:\workspace_gnu\RTT_Demo0\src\lib\lpc177x_8x\Core\CMSIS\Include\core_cm3.h ****     uint32_t _reserved0:23;              /*!< bit:  9..31  Reserved                           */
 221:D:\workspace_gnu\RTT_Demo0\src\lib\lpc177x_8x\Core\CMSIS\Include\core_cm3.h ****   } b;                                   /*!< Structure used for bit  access                  */
 222:D:\workspace_gnu\RTT_Demo0\src\lib\lpc177x_8x\Core\CMSIS\Include\core_cm3.h ****   uint32_t w;                            /*!< Type      used for word access                  */
 223:D:\workspace_gnu\RTT_Demo0\src\lib\lpc177x_8x\Core\CMSIS\Include\core_cm3.h **** } IPSR_Type;
 224:D:\workspace_gnu\RTT_Demo0\src\lib\lpc177x_8x\Core\CMSIS\Include\core_cm3.h **** 
 225:D:\workspace_gnu\RTT_Demo0\src\lib\lpc177x_8x\Core\CMSIS\Include\core_cm3.h **** 
 226:D:\workspace_gnu\RTT_Demo0\src\lib\lpc177x_8x\Core\CMSIS\Include\core_cm3.h **** /** \brief  Union type to access the Special-Purpose Program Status Registers (xPSR).
 227:D:\workspace_gnu\RTT_Demo0\src\lib\lpc177x_8x\Core\CMSIS\Include\core_cm3.h ****  */
 228:D:\workspace_gnu\RTT_Demo0\src\lib\lpc177x_8x\Core\CMSIS\Include\core_cm3.h **** typedef union
 229:D:\workspace_gnu\RTT_Demo0\src\lib\lpc177x_8x\Core\CMSIS\Include\core_cm3.h **** {
 230:D:\workspace_gnu\RTT_Demo0\src\lib\lpc177x_8x\Core\CMSIS\Include\core_cm3.h ****   struct
 231:D:\workspace_gnu\RTT_Demo0\src\lib\lpc177x_8x\Core\CMSIS\Include\core_cm3.h ****   {
 232:D:\workspace_gnu\RTT_Demo0\src\lib\lpc177x_8x\Core\CMSIS\Include\core_cm3.h ****     uint32_t ISR:9;                      /*!< bit:  0.. 8  Exception number                   */
 233:D:\workspace_gnu\RTT_Demo0\src\lib\lpc177x_8x\Core\CMSIS\Include\core_cm3.h **** #if (__CORTEX_M != 0x04)
 234:D:\workspace_gnu\RTT_Demo0\src\lib\lpc177x_8x\Core\CMSIS\Include\core_cm3.h ****     uint32_t _reserved0:15;              /*!< bit:  9..23  Reserved                           */
 235:D:\workspace_gnu\RTT_Demo0\src\lib\lpc177x_8x\Core\CMSIS\Include\core_cm3.h **** #else
 236:D:\workspace_gnu\RTT_Demo0\src\lib\lpc177x_8x\Core\CMSIS\Include\core_cm3.h ****     uint32_t _reserved0:7;               /*!< bit:  9..15  Reserved                           */
 237:D:\workspace_gnu\RTT_Demo0\src\lib\lpc177x_8x\Core\CMSIS\Include\core_cm3.h ****     uint32_t GE:4;                       /*!< bit: 16..19  Greater than or Equal flags        */
 238:D:\workspace_gnu\RTT_Demo0\src\lib\lpc177x_8x\Core\CMSIS\Include\core_cm3.h ****     uint32_t _reserved1:4;               /*!< bit: 20..23  Reserved                           */
 239:D:\workspace_gnu\RTT_Demo0\src\lib\lpc177x_8x\Core\CMSIS\Include\core_cm3.h **** #endif
 240:D:\workspace_gnu\RTT_Demo0\src\lib\lpc177x_8x\Core\CMSIS\Include\core_cm3.h ****     uint32_t T:1;                        /*!< bit:     24  Thumb bit        (read 0)          */
 241:D:\workspace_gnu\RTT_Demo0\src\lib\lpc177x_8x\Core\CMSIS\Include\core_cm3.h ****     uint32_t IT:2;                       /*!< bit: 25..26  saved IT state   (read 0)          */
 242:D:\workspace_gnu\RTT_Demo0\src\lib\lpc177x_8x\Core\CMSIS\Include\core_cm3.h ****     uint32_t Q:1;                        /*!< bit:     27  Saturation condition flag          */
 243:D:\workspace_gnu\RTT_Demo0\src\lib\lpc177x_8x\Core\CMSIS\Include\core_cm3.h ****     uint32_t V:1;                        /*!< bit:     28  Overflow condition code flag       */
 244:D:\workspace_gnu\RTT_Demo0\src\lib\lpc177x_8x\Core\CMSIS\Include\core_cm3.h ****     uint32_t C:1;                        /*!< bit:     29  Carry condition code flag          */
 245:D:\workspace_gnu\RTT_Demo0\src\lib\lpc177x_8x\Core\CMSIS\Include\core_cm3.h ****     uint32_t Z:1;                        /*!< bit:     30  Zero condition code flag           */
 246:D:\workspace_gnu\RTT_Demo0\src\lib\lpc177x_8x\Core\CMSIS\Include\core_cm3.h ****     uint32_t N:1;                        /*!< bit:     31  Negative condition code flag       */
 247:D:\workspace_gnu\RTT_Demo0\src\lib\lpc177x_8x\Core\CMSIS\Include\core_cm3.h ****   } b;                                   /*!< Structure used for bit  access                  */
 248:D:\workspace_gnu\RTT_Demo0\src\lib\lpc177x_8x\Core\CMSIS\Include\core_cm3.h ****   uint32_t w;                            /*!< Type      used for word access                  */
 249:D:\workspace_gnu\RTT_Demo0\src\lib\lpc177x_8x\Core\CMSIS\Include\core_cm3.h **** } xPSR_Type;
 250:D:\workspace_gnu\RTT_Demo0\src\lib\lpc177x_8x\Core\CMSIS\Include\core_cm3.h **** 
 251:D:\workspace_gnu\RTT_Demo0\src\lib\lpc177x_8x\Core\CMSIS\Include\core_cm3.h **** 
 252:D:\workspace_gnu\RTT_Demo0\src\lib\lpc177x_8x\Core\CMSIS\Include\core_cm3.h **** /** \brief  Union type to access the Control Registers (CONTROL).
 253:D:\workspace_gnu\RTT_Demo0\src\lib\lpc177x_8x\Core\CMSIS\Include\core_cm3.h ****  */
 254:D:\workspace_gnu\RTT_Demo0\src\lib\lpc177x_8x\Core\CMSIS\Include\core_cm3.h **** typedef union
 255:D:\workspace_gnu\RTT_Demo0\src\lib\lpc177x_8x\Core\CMSIS\Include\core_cm3.h **** {
 256:D:\workspace_gnu\RTT_Demo0\src\lib\lpc177x_8x\Core\CMSIS\Include\core_cm3.h ****   struct
 257:D:\workspace_gnu\RTT_Demo0\src\lib\lpc177x_8x\Core\CMSIS\Include\core_cm3.h ****   {
 258:D:\workspace_gnu\RTT_Demo0\src\lib\lpc177x_8x\Core\CMSIS\Include\core_cm3.h ****     uint32_t nPRIV:1;                    /*!< bit:      0  Execution privilege in Thread mode */
 259:D:\workspace_gnu\RTT_Demo0\src\lib\lpc177x_8x\Core\CMSIS\Include\core_cm3.h ****     uint32_t SPSEL:1;                    /*!< bit:      1  Stack to be used                   */
 260:D:\workspace_gnu\RTT_Demo0\src\lib\lpc177x_8x\Core\CMSIS\Include\core_cm3.h ****     uint32_t FPCA:1;                     /*!< bit:      2  FP extension active flag           */
 261:D:\workspace_gnu\RTT_Demo0\src\lib\lpc177x_8x\Core\CMSIS\Include\core_cm3.h ****     uint32_t _reserved0:29;              /*!< bit:  3..31  Reserved                           */
 262:D:\workspace_gnu\RTT_Demo0\src\lib\lpc177x_8x\Core\CMSIS\Include\core_cm3.h ****   } b;                                   /*!< Structure used for bit  access                  */
 263:D:\workspace_gnu\RTT_Demo0\src\lib\lpc177x_8x\Core\CMSIS\Include\core_cm3.h ****   uint32_t w;                            /*!< Type      used for word access                  */
 264:D:\workspace_gnu\RTT_Demo0\src\lib\lpc177x_8x\Core\CMSIS\Include\core_cm3.h **** } CONTROL_Type;
 265:D:\workspace_gnu\RTT_Demo0\src\lib\lpc177x_8x\Core\CMSIS\Include\core_cm3.h **** 
 266:D:\workspace_gnu\RTT_Demo0\src\lib\lpc177x_8x\Core\CMSIS\Include\core_cm3.h **** /*@} end of group CMSIS_CORE */
 267:D:\workspace_gnu\RTT_Demo0\src\lib\lpc177x_8x\Core\CMSIS\Include\core_cm3.h **** 
 268:D:\workspace_gnu\RTT_Demo0\src\lib\lpc177x_8x\Core\CMSIS\Include\core_cm3.h **** 
 269:D:\workspace_gnu\RTT_Demo0\src\lib\lpc177x_8x\Core\CMSIS\Include\core_cm3.h **** /** \ingroup  CMSIS_core_register
 270:D:\workspace_gnu\RTT_Demo0\src\lib\lpc177x_8x\Core\CMSIS\Include\core_cm3.h ****     \defgroup CMSIS_NVIC CMSIS NVIC
 271:D:\workspace_gnu\RTT_Demo0\src\lib\lpc177x_8x\Core\CMSIS\Include\core_cm3.h ****   Type definitions for the Cortex-M NVIC Registers
 272:D:\workspace_gnu\RTT_Demo0\src\lib\lpc177x_8x\Core\CMSIS\Include\core_cm3.h ****   @{
 273:D:\workspace_gnu\RTT_Demo0\src\lib\lpc177x_8x\Core\CMSIS\Include\core_cm3.h ****  */
 274:D:\workspace_gnu\RTT_Demo0\src\lib\lpc177x_8x\Core\CMSIS\Include\core_cm3.h **** 
 275:D:\workspace_gnu\RTT_Demo0\src\lib\lpc177x_8x\Core\CMSIS\Include\core_cm3.h **** /** \brief  Structure type to access the Nested Vectored Interrupt Controller (NVIC).
 276:D:\workspace_gnu\RTT_Demo0\src\lib\lpc177x_8x\Core\CMSIS\Include\core_cm3.h ****  */
 277:D:\workspace_gnu\RTT_Demo0\src\lib\lpc177x_8x\Core\CMSIS\Include\core_cm3.h **** typedef struct
 278:D:\workspace_gnu\RTT_Demo0\src\lib\lpc177x_8x\Core\CMSIS\Include\core_cm3.h **** {
 279:D:\workspace_gnu\RTT_Demo0\src\lib\lpc177x_8x\Core\CMSIS\Include\core_cm3.h ****   __IO uint32_t ISER[8];                 /*!< Offset: 0x000 (R/W)  Interrupt Set Enable Register   
 280:D:\workspace_gnu\RTT_Demo0\src\lib\lpc177x_8x\Core\CMSIS\Include\core_cm3.h ****        uint32_t RESERVED0[24];
 281:D:\workspace_gnu\RTT_Demo0\src\lib\lpc177x_8x\Core\CMSIS\Include\core_cm3.h ****   __IO uint32_t ICER[8];                 /*!< Offset: 0x080 (R/W)  Interrupt Clear Enable Register 
 282:D:\workspace_gnu\RTT_Demo0\src\lib\lpc177x_8x\Core\CMSIS\Include\core_cm3.h ****        uint32_t RSERVED1[24];
 283:D:\workspace_gnu\RTT_Demo0\src\lib\lpc177x_8x\Core\CMSIS\Include\core_cm3.h ****   __IO uint32_t ISPR[8];                 /*!< Offset: 0x100 (R/W)  Interrupt Set Pending Register  
 284:D:\workspace_gnu\RTT_Demo0\src\lib\lpc177x_8x\Core\CMSIS\Include\core_cm3.h ****        uint32_t RESERVED2[24];
 285:D:\workspace_gnu\RTT_Demo0\src\lib\lpc177x_8x\Core\CMSIS\Include\core_cm3.h ****   __IO uint32_t ICPR[8];                 /*!< Offset: 0x180 (R/W)  Interrupt Clear Pending Register
 286:D:\workspace_gnu\RTT_Demo0\src\lib\lpc177x_8x\Core\CMSIS\Include\core_cm3.h ****        uint32_t RESERVED3[24];
 287:D:\workspace_gnu\RTT_Demo0\src\lib\lpc177x_8x\Core\CMSIS\Include\core_cm3.h ****   __IO uint32_t IABR[8];                 /*!< Offset: 0x200 (R/W)  Interrupt Active bit Register   
 288:D:\workspace_gnu\RTT_Demo0\src\lib\lpc177x_8x\Core\CMSIS\Include\core_cm3.h ****        uint32_t RESERVED4[56];
 289:D:\workspace_gnu\RTT_Demo0\src\lib\lpc177x_8x\Core\CMSIS\Include\core_cm3.h ****   __IO uint8_t  IP[240];                 /*!< Offset: 0x300 (R/W)  Interrupt Priority Register (8Bi
 290:D:\workspace_gnu\RTT_Demo0\src\lib\lpc177x_8x\Core\CMSIS\Include\core_cm3.h ****        uint32_t RESERVED5[644];
 291:D:\workspace_gnu\RTT_Demo0\src\lib\lpc177x_8x\Core\CMSIS\Include\core_cm3.h ****   __O  uint32_t STIR;                    /*!< Offset: 0xE00 ( /W)  Software Trigger Interrupt Regis
 292:D:\workspace_gnu\RTT_Demo0\src\lib\lpc177x_8x\Core\CMSIS\Include\core_cm3.h **** }  NVIC_Type;
 293:D:\workspace_gnu\RTT_Demo0\src\lib\lpc177x_8x\Core\CMSIS\Include\core_cm3.h **** 
 294:D:\workspace_gnu\RTT_Demo0\src\lib\lpc177x_8x\Core\CMSIS\Include\core_cm3.h **** /* Software Triggered Interrupt Register Definitions */
 295:D:\workspace_gnu\RTT_Demo0\src\lib\lpc177x_8x\Core\CMSIS\Include\core_cm3.h **** #define NVIC_STIR_INTID_Pos                 0                                          /*!< STIR: I
 296:D:\workspace_gnu\RTT_Demo0\src\lib\lpc177x_8x\Core\CMSIS\Include\core_cm3.h **** #define NVIC_STIR_INTID_Msk                (0x1FFUL << NVIC_STIR_INTID_Pos)            /*!< STIR: I
 297:D:\workspace_gnu\RTT_Demo0\src\lib\lpc177x_8x\Core\CMSIS\Include\core_cm3.h **** 
 298:D:\workspace_gnu\RTT_Demo0\src\lib\lpc177x_8x\Core\CMSIS\Include\core_cm3.h **** /*@} end of group CMSIS_NVIC */
 299:D:\workspace_gnu\RTT_Demo0\src\lib\lpc177x_8x\Core\CMSIS\Include\core_cm3.h **** 
 300:D:\workspace_gnu\RTT_Demo0\src\lib\lpc177x_8x\Core\CMSIS\Include\core_cm3.h **** 
 301:D:\workspace_gnu\RTT_Demo0\src\lib\lpc177x_8x\Core\CMSIS\Include\core_cm3.h **** /** \ingroup  CMSIS_core_register
 302:D:\workspace_gnu\RTT_Demo0\src\lib\lpc177x_8x\Core\CMSIS\Include\core_cm3.h ****     \defgroup CMSIS_SCB CMSIS SCB
 303:D:\workspace_gnu\RTT_Demo0\src\lib\lpc177x_8x\Core\CMSIS\Include\core_cm3.h ****   Type definitions for the Cortex-M System Control Block Registers
 304:D:\workspace_gnu\RTT_Demo0\src\lib\lpc177x_8x\Core\CMSIS\Include\core_cm3.h ****   @{
 305:D:\workspace_gnu\RTT_Demo0\src\lib\lpc177x_8x\Core\CMSIS\Include\core_cm3.h ****  */
 306:D:\workspace_gnu\RTT_Demo0\src\lib\lpc177x_8x\Core\CMSIS\Include\core_cm3.h **** 
 307:D:\workspace_gnu\RTT_Demo0\src\lib\lpc177x_8x\Core\CMSIS\Include\core_cm3.h **** /** \brief  Structure type to access the System Control Block (SCB).
 308:D:\workspace_gnu\RTT_Demo0\src\lib\lpc177x_8x\Core\CMSIS\Include\core_cm3.h ****  */
 309:D:\workspace_gnu\RTT_Demo0\src\lib\lpc177x_8x\Core\CMSIS\Include\core_cm3.h **** typedef struct
 310:D:\workspace_gnu\RTT_Demo0\src\lib\lpc177x_8x\Core\CMSIS\Include\core_cm3.h **** {
 311:D:\workspace_gnu\RTT_Demo0\src\lib\lpc177x_8x\Core\CMSIS\Include\core_cm3.h ****   __I  uint32_t CPUID;                   /*!< Offset: 0x000 (R/ )  CPUID Base Register             
 312:D:\workspace_gnu\RTT_Demo0\src\lib\lpc177x_8x\Core\CMSIS\Include\core_cm3.h ****   __IO uint32_t ICSR;                    /*!< Offset: 0x004 (R/W)  Interrupt Control and State Regi
 313:D:\workspace_gnu\RTT_Demo0\src\lib\lpc177x_8x\Core\CMSIS\Include\core_cm3.h ****   __IO uint32_t VTOR;                    /*!< Offset: 0x008 (R/W)  Vector Table Offset Register    
 314:D:\workspace_gnu\RTT_Demo0\src\lib\lpc177x_8x\Core\CMSIS\Include\core_cm3.h ****   __IO uint32_t AIRCR;                   /*!< Offset: 0x00C (R/W)  Application Interrupt and Reset 
 315:D:\workspace_gnu\RTT_Demo0\src\lib\lpc177x_8x\Core\CMSIS\Include\core_cm3.h ****   __IO uint32_t SCR;                     /*!< Offset: 0x010 (R/W)  System Control Register         
 316:D:\workspace_gnu\RTT_Demo0\src\lib\lpc177x_8x\Core\CMSIS\Include\core_cm3.h ****   __IO uint32_t CCR;                     /*!< Offset: 0x014 (R/W)  Configuration Control Register  
 317:D:\workspace_gnu\RTT_Demo0\src\lib\lpc177x_8x\Core\CMSIS\Include\core_cm3.h ****   __IO uint8_t  SHP[12];                 /*!< Offset: 0x018 (R/W)  System Handlers Priority Registe
 318:D:\workspace_gnu\RTT_Demo0\src\lib\lpc177x_8x\Core\CMSIS\Include\core_cm3.h ****   __IO uint32_t SHCSR;                   /*!< Offset: 0x024 (R/W)  System Handler Control and State
 319:D:\workspace_gnu\RTT_Demo0\src\lib\lpc177x_8x\Core\CMSIS\Include\core_cm3.h ****   __IO uint32_t CFSR;                    /*!< Offset: 0x028 (R/W)  Configurable Fault Status Regist
 320:D:\workspace_gnu\RTT_Demo0\src\lib\lpc177x_8x\Core\CMSIS\Include\core_cm3.h ****   __IO uint32_t HFSR;                    /*!< Offset: 0x02C (R/W)  HardFault Status Register       
 321:D:\workspace_gnu\RTT_Demo0\src\lib\lpc177x_8x\Core\CMSIS\Include\core_cm3.h ****   __IO uint32_t DFSR;                    /*!< Offset: 0x030 (R/W)  Debug Fault Status Register     
 322:D:\workspace_gnu\RTT_Demo0\src\lib\lpc177x_8x\Core\CMSIS\Include\core_cm3.h ****   __IO uint32_t MMFAR;                   /*!< Offset: 0x034 (R/W)  MemManage Fault Address Register
 323:D:\workspace_gnu\RTT_Demo0\src\lib\lpc177x_8x\Core\CMSIS\Include\core_cm3.h ****   __IO uint32_t BFAR;                    /*!< Offset: 0x038 (R/W)  BusFault Address Register       
 324:D:\workspace_gnu\RTT_Demo0\src\lib\lpc177x_8x\Core\CMSIS\Include\core_cm3.h ****   __IO uint32_t AFSR;                    /*!< Offset: 0x03C (R/W)  Auxiliary Fault Status Register 
 325:D:\workspace_gnu\RTT_Demo0\src\lib\lpc177x_8x\Core\CMSIS\Include\core_cm3.h ****   __I  uint32_t PFR[2];                  /*!< Offset: 0x040 (R/ )  Processor Feature Register      
 326:D:\workspace_gnu\RTT_Demo0\src\lib\lpc177x_8x\Core\CMSIS\Include\core_cm3.h ****   __I  uint32_t DFR;                     /*!< Offset: 0x048 (R/ )  Debug Feature Register          
 327:D:\workspace_gnu\RTT_Demo0\src\lib\lpc177x_8x\Core\CMSIS\Include\core_cm3.h ****   __I  uint32_t ADR;                     /*!< Offset: 0x04C (R/ )  Auxiliary Feature Register      
 328:D:\workspace_gnu\RTT_Demo0\src\lib\lpc177x_8x\Core\CMSIS\Include\core_cm3.h ****   __I  uint32_t MMFR[4];                 /*!< Offset: 0x050 (R/ )  Memory Model Feature Register   
 329:D:\workspace_gnu\RTT_Demo0\src\lib\lpc177x_8x\Core\CMSIS\Include\core_cm3.h ****   __I  uint32_t ISAR[5];                 /*!< Offset: 0x060 (R/ )  Instruction Set Attributes Regis
 330:D:\workspace_gnu\RTT_Demo0\src\lib\lpc177x_8x\Core\CMSIS\Include\core_cm3.h ****        uint32_t RESERVED0[5];
 331:D:\workspace_gnu\RTT_Demo0\src\lib\lpc177x_8x\Core\CMSIS\Include\core_cm3.h ****   __IO uint32_t CPACR;                   /*!< Offset: 0x088 (R/W)  Coprocessor Access Control Regis
 332:D:\workspace_gnu\RTT_Demo0\src\lib\lpc177x_8x\Core\CMSIS\Include\core_cm3.h **** } SCB_Type;
 333:D:\workspace_gnu\RTT_Demo0\src\lib\lpc177x_8x\Core\CMSIS\Include\core_cm3.h **** 
 334:D:\workspace_gnu\RTT_Demo0\src\lib\lpc177x_8x\Core\CMSIS\Include\core_cm3.h **** /* SCB CPUID Register Definitions */
 335:D:\workspace_gnu\RTT_Demo0\src\lib\lpc177x_8x\Core\CMSIS\Include\core_cm3.h **** #define SCB_CPUID_IMPLEMENTER_Pos          24                                             /*!< SCB 
 336:D:\workspace_gnu\RTT_Demo0\src\lib\lpc177x_8x\Core\CMSIS\Include\core_cm3.h **** #define SCB_CPUID_IMPLEMENTER_Msk          (0xFFUL << SCB_CPUID_IMPLEMENTER_Pos)          /*!< SCB 
 337:D:\workspace_gnu\RTT_Demo0\src\lib\lpc177x_8x\Core\CMSIS\Include\core_cm3.h **** 
 338:D:\workspace_gnu\RTT_Demo0\src\lib\lpc177x_8x\Core\CMSIS\Include\core_cm3.h **** #define SCB_CPUID_VARIANT_Pos              20                                             /*!< SCB 
 339:D:\workspace_gnu\RTT_Demo0\src\lib\lpc177x_8x\Core\CMSIS\Include\core_cm3.h **** #define SCB_CPUID_VARIANT_Msk              (0xFUL << SCB_CPUID_VARIANT_Pos)               /*!< SCB 
 340:D:\workspace_gnu\RTT_Demo0\src\lib\lpc177x_8x\Core\CMSIS\Include\core_cm3.h **** 
 341:D:\workspace_gnu\RTT_Demo0\src\lib\lpc177x_8x\Core\CMSIS\Include\core_cm3.h **** #define SCB_CPUID_ARCHITECTURE_Pos         16                                             /*!< SCB 
 342:D:\workspace_gnu\RTT_Demo0\src\lib\lpc177x_8x\Core\CMSIS\Include\core_cm3.h **** #define SCB_CPUID_ARCHITECTURE_Msk         (0xFUL << SCB_CPUID_ARCHITECTURE_Pos)          /*!< SCB 
 343:D:\workspace_gnu\RTT_Demo0\src\lib\lpc177x_8x\Core\CMSIS\Include\core_cm3.h **** 
 344:D:\workspace_gnu\RTT_Demo0\src\lib\lpc177x_8x\Core\CMSIS\Include\core_cm3.h **** #define SCB_CPUID_PARTNO_Pos                4                                             /*!< SCB 
 345:D:\workspace_gnu\RTT_Demo0\src\lib\lpc177x_8x\Core\CMSIS\Include\core_cm3.h **** #define SCB_CPUID_PARTNO_Msk               (0xFFFUL << SCB_CPUID_PARTNO_Pos)              /*!< SCB 
 346:D:\workspace_gnu\RTT_Demo0\src\lib\lpc177x_8x\Core\CMSIS\Include\core_cm3.h **** 
 347:D:\workspace_gnu\RTT_Demo0\src\lib\lpc177x_8x\Core\CMSIS\Include\core_cm3.h **** #define SCB_CPUID_REVISION_Pos              0                                             /*!< SCB 
 348:D:\workspace_gnu\RTT_Demo0\src\lib\lpc177x_8x\Core\CMSIS\Include\core_cm3.h **** #define SCB_CPUID_REVISION_Msk             (0xFUL << SCB_CPUID_REVISION_Pos)              /*!< SCB 
 349:D:\workspace_gnu\RTT_Demo0\src\lib\lpc177x_8x\Core\CMSIS\Include\core_cm3.h **** 
 350:D:\workspace_gnu\RTT_Demo0\src\lib\lpc177x_8x\Core\CMSIS\Include\core_cm3.h **** /* SCB Interrupt Control State Register Definitions */
 351:D:\workspace_gnu\RTT_Demo0\src\lib\lpc177x_8x\Core\CMSIS\Include\core_cm3.h **** #define SCB_ICSR_NMIPENDSET_Pos            31                                             /*!< SCB 
 352:D:\workspace_gnu\RTT_Demo0\src\lib\lpc177x_8x\Core\CMSIS\Include\core_cm3.h **** #define SCB_ICSR_NMIPENDSET_Msk            (1UL << SCB_ICSR_NMIPENDSET_Pos)               /*!< SCB 
 353:D:\workspace_gnu\RTT_Demo0\src\lib\lpc177x_8x\Core\CMSIS\Include\core_cm3.h **** 
 354:D:\workspace_gnu\RTT_Demo0\src\lib\lpc177x_8x\Core\CMSIS\Include\core_cm3.h **** #define SCB_ICSR_PENDSVSET_Pos             28                                             /*!< SCB 
 355:D:\workspace_gnu\RTT_Demo0\src\lib\lpc177x_8x\Core\CMSIS\Include\core_cm3.h **** #define SCB_ICSR_PENDSVSET_Msk             (1UL << SCB_ICSR_PENDSVSET_Pos)                /*!< SCB 
 356:D:\workspace_gnu\RTT_Demo0\src\lib\lpc177x_8x\Core\CMSIS\Include\core_cm3.h **** 
 357:D:\workspace_gnu\RTT_Demo0\src\lib\lpc177x_8x\Core\CMSIS\Include\core_cm3.h **** #define SCB_ICSR_PENDSVCLR_Pos             27                                             /*!< SCB 
 358:D:\workspace_gnu\RTT_Demo0\src\lib\lpc177x_8x\Core\CMSIS\Include\core_cm3.h **** #define SCB_ICSR_PENDSVCLR_Msk             (1UL << SCB_ICSR_PENDSVCLR_Pos)                /*!< SCB 
 359:D:\workspace_gnu\RTT_Demo0\src\lib\lpc177x_8x\Core\CMSIS\Include\core_cm3.h **** 
 360:D:\workspace_gnu\RTT_Demo0\src\lib\lpc177x_8x\Core\CMSIS\Include\core_cm3.h **** #define SCB_ICSR_PENDSTSET_Pos             26                                             /*!< SCB 
 361:D:\workspace_gnu\RTT_Demo0\src\lib\lpc177x_8x\Core\CMSIS\Include\core_cm3.h **** #define SCB_ICSR_PENDSTSET_Msk             (1UL << SCB_ICSR_PENDSTSET_Pos)                /*!< SCB 
 362:D:\workspace_gnu\RTT_Demo0\src\lib\lpc177x_8x\Core\CMSIS\Include\core_cm3.h **** 
 363:D:\workspace_gnu\RTT_Demo0\src\lib\lpc177x_8x\Core\CMSIS\Include\core_cm3.h **** #define SCB_ICSR_PENDSTCLR_Pos             25                                             /*!< SCB 
 364:D:\workspace_gnu\RTT_Demo0\src\lib\lpc177x_8x\Core\CMSIS\Include\core_cm3.h **** #define SCB_ICSR_PENDSTCLR_Msk             (1UL << SCB_ICSR_PENDSTCLR_Pos)                /*!< SCB 
 365:D:\workspace_gnu\RTT_Demo0\src\lib\lpc177x_8x\Core\CMSIS\Include\core_cm3.h **** 
 366:D:\workspace_gnu\RTT_Demo0\src\lib\lpc177x_8x\Core\CMSIS\Include\core_cm3.h **** #define SCB_ICSR_ISRPREEMPT_Pos            23                                             /*!< SCB 
 367:D:\workspace_gnu\RTT_Demo0\src\lib\lpc177x_8x\Core\CMSIS\Include\core_cm3.h **** #define SCB_ICSR_ISRPREEMPT_Msk            (1UL << SCB_ICSR_ISRPREEMPT_Pos)               /*!< SCB 
 368:D:\workspace_gnu\RTT_Demo0\src\lib\lpc177x_8x\Core\CMSIS\Include\core_cm3.h **** 
 369:D:\workspace_gnu\RTT_Demo0\src\lib\lpc177x_8x\Core\CMSIS\Include\core_cm3.h **** #define SCB_ICSR_ISRPENDING_Pos            22                                             /*!< SCB 
 370:D:\workspace_gnu\RTT_Demo0\src\lib\lpc177x_8x\Core\CMSIS\Include\core_cm3.h **** #define SCB_ICSR_ISRPENDING_Msk            (1UL << SCB_ICSR_ISRPENDING_Pos)               /*!< SCB 
 371:D:\workspace_gnu\RTT_Demo0\src\lib\lpc177x_8x\Core\CMSIS\Include\core_cm3.h **** 
 372:D:\workspace_gnu\RTT_Demo0\src\lib\lpc177x_8x\Core\CMSIS\Include\core_cm3.h **** #define SCB_ICSR_VECTPENDING_Pos           12                                             /*!< SCB 
 373:D:\workspace_gnu\RTT_Demo0\src\lib\lpc177x_8x\Core\CMSIS\Include\core_cm3.h **** #define SCB_ICSR_VECTPENDING_Msk           (0x1FFUL << SCB_ICSR_VECTPENDING_Pos)          /*!< SCB 
 374:D:\workspace_gnu\RTT_Demo0\src\lib\lpc177x_8x\Core\CMSIS\Include\core_cm3.h **** 
 375:D:\workspace_gnu\RTT_Demo0\src\lib\lpc177x_8x\Core\CMSIS\Include\core_cm3.h **** #define SCB_ICSR_RETTOBASE_Pos             11                                             /*!< SCB 
 376:D:\workspace_gnu\RTT_Demo0\src\lib\lpc177x_8x\Core\CMSIS\Include\core_cm3.h **** #define SCB_ICSR_RETTOBASE_Msk             (1UL << SCB_ICSR_RETTOBASE_Pos)                /*!< SCB 
 377:D:\workspace_gnu\RTT_Demo0\src\lib\lpc177x_8x\Core\CMSIS\Include\core_cm3.h **** 
 378:D:\workspace_gnu\RTT_Demo0\src\lib\lpc177x_8x\Core\CMSIS\Include\core_cm3.h **** #define SCB_ICSR_VECTACTIVE_Pos             0                                             /*!< SCB 
 379:D:\workspace_gnu\RTT_Demo0\src\lib\lpc177x_8x\Core\CMSIS\Include\core_cm3.h **** #define SCB_ICSR_VECTACTIVE_Msk            (0x1FFUL << SCB_ICSR_VECTACTIVE_Pos)           /*!< SCB 
 380:D:\workspace_gnu\RTT_Demo0\src\lib\lpc177x_8x\Core\CMSIS\Include\core_cm3.h **** 
 381:D:\workspace_gnu\RTT_Demo0\src\lib\lpc177x_8x\Core\CMSIS\Include\core_cm3.h **** /* SCB Vector Table Offset Register Definitions */
 382:D:\workspace_gnu\RTT_Demo0\src\lib\lpc177x_8x\Core\CMSIS\Include\core_cm3.h **** #define SCB_VTOR_TBLOFF_Pos                 7                                             /*!< SCB 
 383:D:\workspace_gnu\RTT_Demo0\src\lib\lpc177x_8x\Core\CMSIS\Include\core_cm3.h **** #define SCB_VTOR_TBLOFF_Msk                (0x1FFFFFFUL << SCB_VTOR_TBLOFF_Pos)           /*!< SCB 
 384:D:\workspace_gnu\RTT_Demo0\src\lib\lpc177x_8x\Core\CMSIS\Include\core_cm3.h **** 
 385:D:\workspace_gnu\RTT_Demo0\src\lib\lpc177x_8x\Core\CMSIS\Include\core_cm3.h **** /* SCB Application Interrupt and Reset Control Register Definitions */
 386:D:\workspace_gnu\RTT_Demo0\src\lib\lpc177x_8x\Core\CMSIS\Include\core_cm3.h **** #define SCB_AIRCR_VECTKEY_Pos              16                                             /*!< SCB 
 387:D:\workspace_gnu\RTT_Demo0\src\lib\lpc177x_8x\Core\CMSIS\Include\core_cm3.h **** #define SCB_AIRCR_VECTKEY_Msk              (0xFFFFUL << SCB_AIRCR_VECTKEY_Pos)            /*!< SCB 
 388:D:\workspace_gnu\RTT_Demo0\src\lib\lpc177x_8x\Core\CMSIS\Include\core_cm3.h **** 
 389:D:\workspace_gnu\RTT_Demo0\src\lib\lpc177x_8x\Core\CMSIS\Include\core_cm3.h **** #define SCB_AIRCR_VECTKEYSTAT_Pos          16                                             /*!< SCB 
 390:D:\workspace_gnu\RTT_Demo0\src\lib\lpc177x_8x\Core\CMSIS\Include\core_cm3.h **** #define SCB_AIRCR_VECTKEYSTAT_Msk          (0xFFFFUL << SCB_AIRCR_VECTKEYSTAT_Pos)        /*!< SCB 
 391:D:\workspace_gnu\RTT_Demo0\src\lib\lpc177x_8x\Core\CMSIS\Include\core_cm3.h **** 
 392:D:\workspace_gnu\RTT_Demo0\src\lib\lpc177x_8x\Core\CMSIS\Include\core_cm3.h **** #define SCB_AIRCR_ENDIANESS_Pos            15                                             /*!< SCB 
 393:D:\workspace_gnu\RTT_Demo0\src\lib\lpc177x_8x\Core\CMSIS\Include\core_cm3.h **** #define SCB_AIRCR_ENDIANESS_Msk            (1UL << SCB_AIRCR_ENDIANESS_Pos)               /*!< SCB 
 394:D:\workspace_gnu\RTT_Demo0\src\lib\lpc177x_8x\Core\CMSIS\Include\core_cm3.h **** 
 395:D:\workspace_gnu\RTT_Demo0\src\lib\lpc177x_8x\Core\CMSIS\Include\core_cm3.h **** #define SCB_AIRCR_PRIGROUP_Pos              8                                             /*!< SCB 
 396:D:\workspace_gnu\RTT_Demo0\src\lib\lpc177x_8x\Core\CMSIS\Include\core_cm3.h **** #define SCB_AIRCR_PRIGROUP_Msk             (7UL << SCB_AIRCR_PRIGROUP_Pos)                /*!< SCB 
 397:D:\workspace_gnu\RTT_Demo0\src\lib\lpc177x_8x\Core\CMSIS\Include\core_cm3.h **** 
 398:D:\workspace_gnu\RTT_Demo0\src\lib\lpc177x_8x\Core\CMSIS\Include\core_cm3.h **** #define SCB_AIRCR_SYSRESETREQ_Pos           2                                             /*!< SCB 
 399:D:\workspace_gnu\RTT_Demo0\src\lib\lpc177x_8x\Core\CMSIS\Include\core_cm3.h **** #define SCB_AIRCR_SYSRESETREQ_Msk          (1UL << SCB_AIRCR_SYSRESETREQ_Pos)             /*!< SCB 
 400:D:\workspace_gnu\RTT_Demo0\src\lib\lpc177x_8x\Core\CMSIS\Include\core_cm3.h **** 
 401:D:\workspace_gnu\RTT_Demo0\src\lib\lpc177x_8x\Core\CMSIS\Include\core_cm3.h **** #define SCB_AIRCR_VECTCLRACTIVE_Pos         1                                             /*!< SCB 
 402:D:\workspace_gnu\RTT_Demo0\src\lib\lpc177x_8x\Core\CMSIS\Include\core_cm3.h **** #define SCB_AIRCR_VECTCLRACTIVE_Msk        (1UL << SCB_AIRCR_VECTCLRACTIVE_Pos)           /*!< SCB 
 403:D:\workspace_gnu\RTT_Demo0\src\lib\lpc177x_8x\Core\CMSIS\Include\core_cm3.h **** 
 404:D:\workspace_gnu\RTT_Demo0\src\lib\lpc177x_8x\Core\CMSIS\Include\core_cm3.h **** #define SCB_AIRCR_VECTRESET_Pos             0                                             /*!< SCB 
 405:D:\workspace_gnu\RTT_Demo0\src\lib\lpc177x_8x\Core\CMSIS\Include\core_cm3.h **** #define SCB_AIRCR_VECTRESET_Msk            (1UL << SCB_AIRCR_VECTRESET_Pos)               /*!< SCB 
 406:D:\workspace_gnu\RTT_Demo0\src\lib\lpc177x_8x\Core\CMSIS\Include\core_cm3.h **** 
 407:D:\workspace_gnu\RTT_Demo0\src\lib\lpc177x_8x\Core\CMSIS\Include\core_cm3.h **** /* SCB System Control Register Definitions */
 408:D:\workspace_gnu\RTT_Demo0\src\lib\lpc177x_8x\Core\CMSIS\Include\core_cm3.h **** #define SCB_SCR_SEVONPEND_Pos               4                                             /*!< SCB 
 409:D:\workspace_gnu\RTT_Demo0\src\lib\lpc177x_8x\Core\CMSIS\Include\core_cm3.h **** #define SCB_SCR_SEVONPEND_Msk              (1UL << SCB_SCR_SEVONPEND_Pos)                 /*!< SCB 
 410:D:\workspace_gnu\RTT_Demo0\src\lib\lpc177x_8x\Core\CMSIS\Include\core_cm3.h **** 
 411:D:\workspace_gnu\RTT_Demo0\src\lib\lpc177x_8x\Core\CMSIS\Include\core_cm3.h **** #define SCB_SCR_SLEEPDEEP_Pos               2                                             /*!< SCB 
 412:D:\workspace_gnu\RTT_Demo0\src\lib\lpc177x_8x\Core\CMSIS\Include\core_cm3.h **** #define SCB_SCR_SLEEPDEEP_Msk              (1UL << SCB_SCR_SLEEPDEEP_Pos)                 /*!< SCB 
 413:D:\workspace_gnu\RTT_Demo0\src\lib\lpc177x_8x\Core\CMSIS\Include\core_cm3.h **** 
 414:D:\workspace_gnu\RTT_Demo0\src\lib\lpc177x_8x\Core\CMSIS\Include\core_cm3.h **** #define SCB_SCR_SLEEPONEXIT_Pos             1                                             /*!< SCB 
 415:D:\workspace_gnu\RTT_Demo0\src\lib\lpc177x_8x\Core\CMSIS\Include\core_cm3.h **** #define SCB_SCR_SLEEPONEXIT_Msk            (1UL << SCB_SCR_SLEEPONEXIT_Pos)               /*!< SCB 
 416:D:\workspace_gnu\RTT_Demo0\src\lib\lpc177x_8x\Core\CMSIS\Include\core_cm3.h **** 
 417:D:\workspace_gnu\RTT_Demo0\src\lib\lpc177x_8x\Core\CMSIS\Include\core_cm3.h **** /* SCB Configuration Control Register Definitions */
 418:D:\workspace_gnu\RTT_Demo0\src\lib\lpc177x_8x\Core\CMSIS\Include\core_cm3.h **** #define SCB_CCR_STKALIGN_Pos                9                                             /*!< SCB 
 419:D:\workspace_gnu\RTT_Demo0\src\lib\lpc177x_8x\Core\CMSIS\Include\core_cm3.h **** #define SCB_CCR_STKALIGN_Msk               (1UL << SCB_CCR_STKALIGN_Pos)                  /*!< SCB 
 420:D:\workspace_gnu\RTT_Demo0\src\lib\lpc177x_8x\Core\CMSIS\Include\core_cm3.h **** 
 421:D:\workspace_gnu\RTT_Demo0\src\lib\lpc177x_8x\Core\CMSIS\Include\core_cm3.h **** #define SCB_CCR_BFHFNMIGN_Pos               8                                             /*!< SCB 
 422:D:\workspace_gnu\RTT_Demo0\src\lib\lpc177x_8x\Core\CMSIS\Include\core_cm3.h **** #define SCB_CCR_BFHFNMIGN_Msk              (1UL << SCB_CCR_BFHFNMIGN_Pos)                 /*!< SCB 
 423:D:\workspace_gnu\RTT_Demo0\src\lib\lpc177x_8x\Core\CMSIS\Include\core_cm3.h **** 
 424:D:\workspace_gnu\RTT_Demo0\src\lib\lpc177x_8x\Core\CMSIS\Include\core_cm3.h **** #define SCB_CCR_DIV_0_TRP_Pos               4                                             /*!< SCB 
 425:D:\workspace_gnu\RTT_Demo0\src\lib\lpc177x_8x\Core\CMSIS\Include\core_cm3.h **** #define SCB_CCR_DIV_0_TRP_Msk              (1UL << SCB_CCR_DIV_0_TRP_Pos)                 /*!< SCB 
 426:D:\workspace_gnu\RTT_Demo0\src\lib\lpc177x_8x\Core\CMSIS\Include\core_cm3.h **** 
 427:D:\workspace_gnu\RTT_Demo0\src\lib\lpc177x_8x\Core\CMSIS\Include\core_cm3.h **** #define SCB_CCR_UNALIGN_TRP_Pos             3                                             /*!< SCB 
 428:D:\workspace_gnu\RTT_Demo0\src\lib\lpc177x_8x\Core\CMSIS\Include\core_cm3.h **** #define SCB_CCR_UNALIGN_TRP_Msk            (1UL << SCB_CCR_UNALIGN_TRP_Pos)               /*!< SCB 
 429:D:\workspace_gnu\RTT_Demo0\src\lib\lpc177x_8x\Core\CMSIS\Include\core_cm3.h **** 
 430:D:\workspace_gnu\RTT_Demo0\src\lib\lpc177x_8x\Core\CMSIS\Include\core_cm3.h **** #define SCB_CCR_USERSETMPEND_Pos            1                                             /*!< SCB 
 431:D:\workspace_gnu\RTT_Demo0\src\lib\lpc177x_8x\Core\CMSIS\Include\core_cm3.h **** #define SCB_CCR_USERSETMPEND_Msk           (1UL << SCB_CCR_USERSETMPEND_Pos)              /*!< SCB 
 432:D:\workspace_gnu\RTT_Demo0\src\lib\lpc177x_8x\Core\CMSIS\Include\core_cm3.h **** 
 433:D:\workspace_gnu\RTT_Demo0\src\lib\lpc177x_8x\Core\CMSIS\Include\core_cm3.h **** #define SCB_CCR_NONBASETHRDENA_Pos          0                                             /*!< SCB 
 434:D:\workspace_gnu\RTT_Demo0\src\lib\lpc177x_8x\Core\CMSIS\Include\core_cm3.h **** #define SCB_CCR_NONBASETHRDENA_Msk         (1UL << SCB_CCR_NONBASETHRDENA_Pos)            /*!< SCB 
 435:D:\workspace_gnu\RTT_Demo0\src\lib\lpc177x_8x\Core\CMSIS\Include\core_cm3.h **** 
 436:D:\workspace_gnu\RTT_Demo0\src\lib\lpc177x_8x\Core\CMSIS\Include\core_cm3.h **** /* SCB System Handler Control and State Register Definitions */
 437:D:\workspace_gnu\RTT_Demo0\src\lib\lpc177x_8x\Core\CMSIS\Include\core_cm3.h **** #define SCB_SHCSR_USGFAULTENA_Pos          18                                             /*!< SCB 
 438:D:\workspace_gnu\RTT_Demo0\src\lib\lpc177x_8x\Core\CMSIS\Include\core_cm3.h **** #define SCB_SHCSR_USGFAULTENA_Msk          (1UL << SCB_SHCSR_USGFAULTENA_Pos)             /*!< SCB 
 439:D:\workspace_gnu\RTT_Demo0\src\lib\lpc177x_8x\Core\CMSIS\Include\core_cm3.h **** 
 440:D:\workspace_gnu\RTT_Demo0\src\lib\lpc177x_8x\Core\CMSIS\Include\core_cm3.h **** #define SCB_SHCSR_BUSFAULTENA_Pos          17                                             /*!< SCB 
 441:D:\workspace_gnu\RTT_Demo0\src\lib\lpc177x_8x\Core\CMSIS\Include\core_cm3.h **** #define SCB_SHCSR_BUSFAULTENA_Msk          (1UL << SCB_SHCSR_BUSFAULTENA_Pos)             /*!< SCB 
 442:D:\workspace_gnu\RTT_Demo0\src\lib\lpc177x_8x\Core\CMSIS\Include\core_cm3.h **** 
 443:D:\workspace_gnu\RTT_Demo0\src\lib\lpc177x_8x\Core\CMSIS\Include\core_cm3.h **** #define SCB_SHCSR_MEMFAULTENA_Pos          16                                             /*!< SCB 
 444:D:\workspace_gnu\RTT_Demo0\src\lib\lpc177x_8x\Core\CMSIS\Include\core_cm3.h **** #define SCB_SHCSR_MEMFAULTENA_Msk          (1UL << SCB_SHCSR_MEMFAULTENA_Pos)             /*!< SCB 
 445:D:\workspace_gnu\RTT_Demo0\src\lib\lpc177x_8x\Core\CMSIS\Include\core_cm3.h **** 
 446:D:\workspace_gnu\RTT_Demo0\src\lib\lpc177x_8x\Core\CMSIS\Include\core_cm3.h **** #define SCB_SHCSR_SVCALLPENDED_Pos         15                                             /*!< SCB 
 447:D:\workspace_gnu\RTT_Demo0\src\lib\lpc177x_8x\Core\CMSIS\Include\core_cm3.h **** #define SCB_SHCSR_SVCALLPENDED_Msk         (1UL << SCB_SHCSR_SVCALLPENDED_Pos)            /*!< SCB 
 448:D:\workspace_gnu\RTT_Demo0\src\lib\lpc177x_8x\Core\CMSIS\Include\core_cm3.h **** 
 449:D:\workspace_gnu\RTT_Demo0\src\lib\lpc177x_8x\Core\CMSIS\Include\core_cm3.h **** #define SCB_SHCSR_BUSFAULTPENDED_Pos       14                                             /*!< SCB 
 450:D:\workspace_gnu\RTT_Demo0\src\lib\lpc177x_8x\Core\CMSIS\Include\core_cm3.h **** #define SCB_SHCSR_BUSFAULTPENDED_Msk       (1UL << SCB_SHCSR_BUSFAULTPENDED_Pos)          /*!< SCB 
 451:D:\workspace_gnu\RTT_Demo0\src\lib\lpc177x_8x\Core\CMSIS\Include\core_cm3.h **** 
 452:D:\workspace_gnu\RTT_Demo0\src\lib\lpc177x_8x\Core\CMSIS\Include\core_cm3.h **** #define SCB_SHCSR_MEMFAULTPENDED_Pos       13                                             /*!< SCB 
 453:D:\workspace_gnu\RTT_Demo0\src\lib\lpc177x_8x\Core\CMSIS\Include\core_cm3.h **** #define SCB_SHCSR_MEMFAULTPENDED_Msk       (1UL << SCB_SHCSR_MEMFAULTPENDED_Pos)          /*!< SCB 
 454:D:\workspace_gnu\RTT_Demo0\src\lib\lpc177x_8x\Core\CMSIS\Include\core_cm3.h **** 
 455:D:\workspace_gnu\RTT_Demo0\src\lib\lpc177x_8x\Core\CMSIS\Include\core_cm3.h **** #define SCB_SHCSR_USGFAULTPENDED_Pos       12                                             /*!< SCB 
 456:D:\workspace_gnu\RTT_Demo0\src\lib\lpc177x_8x\Core\CMSIS\Include\core_cm3.h **** #define SCB_SHCSR_USGFAULTPENDED_Msk       (1UL << SCB_SHCSR_USGFAULTPENDED_Pos)          /*!< SCB 
 457:D:\workspace_gnu\RTT_Demo0\src\lib\lpc177x_8x\Core\CMSIS\Include\core_cm3.h **** 
 458:D:\workspace_gnu\RTT_Demo0\src\lib\lpc177x_8x\Core\CMSIS\Include\core_cm3.h **** #define SCB_SHCSR_SYSTICKACT_Pos           11                                             /*!< SCB 
 459:D:\workspace_gnu\RTT_Demo0\src\lib\lpc177x_8x\Core\CMSIS\Include\core_cm3.h **** #define SCB_SHCSR_SYSTICKACT_Msk           (1UL << SCB_SHCSR_SYSTICKACT_Pos)              /*!< SCB 
 460:D:\workspace_gnu\RTT_Demo0\src\lib\lpc177x_8x\Core\CMSIS\Include\core_cm3.h **** 
 461:D:\workspace_gnu\RTT_Demo0\src\lib\lpc177x_8x\Core\CMSIS\Include\core_cm3.h **** #define SCB_SHCSR_PENDSVACT_Pos            10                                             /*!< SCB 
 462:D:\workspace_gnu\RTT_Demo0\src\lib\lpc177x_8x\Core\CMSIS\Include\core_cm3.h **** #define SCB_SHCSR_PENDSVACT_Msk            (1UL << SCB_SHCSR_PENDSVACT_Pos)               /*!< SCB 
 463:D:\workspace_gnu\RTT_Demo0\src\lib\lpc177x_8x\Core\CMSIS\Include\core_cm3.h **** 
 464:D:\workspace_gnu\RTT_Demo0\src\lib\lpc177x_8x\Core\CMSIS\Include\core_cm3.h **** #define SCB_SHCSR_MONITORACT_Pos            8                                             /*!< SCB 
 465:D:\workspace_gnu\RTT_Demo0\src\lib\lpc177x_8x\Core\CMSIS\Include\core_cm3.h **** #define SCB_SHCSR_MONITORACT_Msk           (1UL << SCB_SHCSR_MONITORACT_Pos)              /*!< SCB 
 466:D:\workspace_gnu\RTT_Demo0\src\lib\lpc177x_8x\Core\CMSIS\Include\core_cm3.h **** 
 467:D:\workspace_gnu\RTT_Demo0\src\lib\lpc177x_8x\Core\CMSIS\Include\core_cm3.h **** #define SCB_SHCSR_SVCALLACT_Pos             7                                             /*!< SCB 
 468:D:\workspace_gnu\RTT_Demo0\src\lib\lpc177x_8x\Core\CMSIS\Include\core_cm3.h **** #define SCB_SHCSR_SVCALLACT_Msk            (1UL << SCB_SHCSR_SVCALLACT_Pos)               /*!< SCB 
 469:D:\workspace_gnu\RTT_Demo0\src\lib\lpc177x_8x\Core\CMSIS\Include\core_cm3.h **** 
 470:D:\workspace_gnu\RTT_Demo0\src\lib\lpc177x_8x\Core\CMSIS\Include\core_cm3.h **** #define SCB_SHCSR_USGFAULTACT_Pos           3                                             /*!< SCB 
 471:D:\workspace_gnu\RTT_Demo0\src\lib\lpc177x_8x\Core\CMSIS\Include\core_cm3.h **** #define SCB_SHCSR_USGFAULTACT_Msk          (1UL << SCB_SHCSR_USGFAULTACT_Pos)             /*!< SCB 
 472:D:\workspace_gnu\RTT_Demo0\src\lib\lpc177x_8x\Core\CMSIS\Include\core_cm3.h **** 
 473:D:\workspace_gnu\RTT_Demo0\src\lib\lpc177x_8x\Core\CMSIS\Include\core_cm3.h **** #define SCB_SHCSR_BUSFAULTACT_Pos           1                                             /*!< SCB 
 474:D:\workspace_gnu\RTT_Demo0\src\lib\lpc177x_8x\Core\CMSIS\Include\core_cm3.h **** #define SCB_SHCSR_BUSFAULTACT_Msk          (1UL << SCB_SHCSR_BUSFAULTACT_Pos)             /*!< SCB 
 475:D:\workspace_gnu\RTT_Demo0\src\lib\lpc177x_8x\Core\CMSIS\Include\core_cm3.h **** 
 476:D:\workspace_gnu\RTT_Demo0\src\lib\lpc177x_8x\Core\CMSIS\Include\core_cm3.h **** #define SCB_SHCSR_MEMFAULTACT_Pos           0                                             /*!< SCB 
 477:D:\workspace_gnu\RTT_Demo0\src\lib\lpc177x_8x\Core\CMSIS\Include\core_cm3.h **** #define SCB_SHCSR_MEMFAULTACT_Msk          (1UL << SCB_SHCSR_MEMFAULTACT_Pos)             /*!< SCB 
 478:D:\workspace_gnu\RTT_Demo0\src\lib\lpc177x_8x\Core\CMSIS\Include\core_cm3.h **** 
 479:D:\workspace_gnu\RTT_Demo0\src\lib\lpc177x_8x\Core\CMSIS\Include\core_cm3.h **** /* SCB Configurable Fault Status Registers Definitions */
 480:D:\workspace_gnu\RTT_Demo0\src\lib\lpc177x_8x\Core\CMSIS\Include\core_cm3.h **** #define SCB_CFSR_USGFAULTSR_Pos            16                                             /*!< SCB 
 481:D:\workspace_gnu\RTT_Demo0\src\lib\lpc177x_8x\Core\CMSIS\Include\core_cm3.h **** #define SCB_CFSR_USGFAULTSR_Msk            (0xFFFFUL << SCB_CFSR_USGFAULTSR_Pos)          /*!< SCB 
 482:D:\workspace_gnu\RTT_Demo0\src\lib\lpc177x_8x\Core\CMSIS\Include\core_cm3.h **** 
 483:D:\workspace_gnu\RTT_Demo0\src\lib\lpc177x_8x\Core\CMSIS\Include\core_cm3.h **** #define SCB_CFSR_BUSFAULTSR_Pos             8                                             /*!< SCB 
 484:D:\workspace_gnu\RTT_Demo0\src\lib\lpc177x_8x\Core\CMSIS\Include\core_cm3.h **** #define SCB_CFSR_BUSFAULTSR_Msk            (0xFFUL << SCB_CFSR_BUSFAULTSR_Pos)            /*!< SCB 
 485:D:\workspace_gnu\RTT_Demo0\src\lib\lpc177x_8x\Core\CMSIS\Include\core_cm3.h **** 
 486:D:\workspace_gnu\RTT_Demo0\src\lib\lpc177x_8x\Core\CMSIS\Include\core_cm3.h **** #define SCB_CFSR_MEMFAULTSR_Pos             0                                             /*!< SCB 
 487:D:\workspace_gnu\RTT_Demo0\src\lib\lpc177x_8x\Core\CMSIS\Include\core_cm3.h **** #define SCB_CFSR_MEMFAULTSR_Msk            (0xFFUL << SCB_CFSR_MEMFAULTSR_Pos)            /*!< SCB 
 488:D:\workspace_gnu\RTT_Demo0\src\lib\lpc177x_8x\Core\CMSIS\Include\core_cm3.h **** 
 489:D:\workspace_gnu\RTT_Demo0\src\lib\lpc177x_8x\Core\CMSIS\Include\core_cm3.h **** /* SCB Hard Fault Status Registers Definitions */
 490:D:\workspace_gnu\RTT_Demo0\src\lib\lpc177x_8x\Core\CMSIS\Include\core_cm3.h **** #define SCB_HFSR_DEBUGEVT_Pos              31                                             /*!< SCB 
 491:D:\workspace_gnu\RTT_Demo0\src\lib\lpc177x_8x\Core\CMSIS\Include\core_cm3.h **** #define SCB_HFSR_DEBUGEVT_Msk              (1UL << SCB_HFSR_DEBUGEVT_Pos)                 /*!< SCB 
 492:D:\workspace_gnu\RTT_Demo0\src\lib\lpc177x_8x\Core\CMSIS\Include\core_cm3.h **** 
 493:D:\workspace_gnu\RTT_Demo0\src\lib\lpc177x_8x\Core\CMSIS\Include\core_cm3.h **** #define SCB_HFSR_FORCED_Pos                30                                             /*!< SCB 
 494:D:\workspace_gnu\RTT_Demo0\src\lib\lpc177x_8x\Core\CMSIS\Include\core_cm3.h **** #define SCB_HFSR_FORCED_Msk                (1UL << SCB_HFSR_FORCED_Pos)                   /*!< SCB 
 495:D:\workspace_gnu\RTT_Demo0\src\lib\lpc177x_8x\Core\CMSIS\Include\core_cm3.h **** 
 496:D:\workspace_gnu\RTT_Demo0\src\lib\lpc177x_8x\Core\CMSIS\Include\core_cm3.h **** #define SCB_HFSR_VECTTBL_Pos                1                                             /*!< SCB 
 497:D:\workspace_gnu\RTT_Demo0\src\lib\lpc177x_8x\Core\CMSIS\Include\core_cm3.h **** #define SCB_HFSR_VECTTBL_Msk               (1UL << SCB_HFSR_VECTTBL_Pos)                  /*!< SCB 
 498:D:\workspace_gnu\RTT_Demo0\src\lib\lpc177x_8x\Core\CMSIS\Include\core_cm3.h **** 
 499:D:\workspace_gnu\RTT_Demo0\src\lib\lpc177x_8x\Core\CMSIS\Include\core_cm3.h **** /* SCB Debug Fault Status Register Definitions */
 500:D:\workspace_gnu\RTT_Demo0\src\lib\lpc177x_8x\Core\CMSIS\Include\core_cm3.h **** #define SCB_DFSR_EXTERNAL_Pos               4                                             /*!< SCB 
 501:D:\workspace_gnu\RTT_Demo0\src\lib\lpc177x_8x\Core\CMSIS\Include\core_cm3.h **** #define SCB_DFSR_EXTERNAL_Msk              (1UL << SCB_DFSR_EXTERNAL_Pos)                 /*!< SCB 
 502:D:\workspace_gnu\RTT_Demo0\src\lib\lpc177x_8x\Core\CMSIS\Include\core_cm3.h **** 
 503:D:\workspace_gnu\RTT_Demo0\src\lib\lpc177x_8x\Core\CMSIS\Include\core_cm3.h **** #define SCB_DFSR_VCATCH_Pos                 3                                             /*!< SCB 
 504:D:\workspace_gnu\RTT_Demo0\src\lib\lpc177x_8x\Core\CMSIS\Include\core_cm3.h **** #define SCB_DFSR_VCATCH_Msk                (1UL << SCB_DFSR_VCATCH_Pos)                   /*!< SCB 
 505:D:\workspace_gnu\RTT_Demo0\src\lib\lpc177x_8x\Core\CMSIS\Include\core_cm3.h **** 
 506:D:\workspace_gnu\RTT_Demo0\src\lib\lpc177x_8x\Core\CMSIS\Include\core_cm3.h **** #define SCB_DFSR_DWTTRAP_Pos                2                                             /*!< SCB 
 507:D:\workspace_gnu\RTT_Demo0\src\lib\lpc177x_8x\Core\CMSIS\Include\core_cm3.h **** #define SCB_DFSR_DWTTRAP_Msk               (1UL << SCB_DFSR_DWTTRAP_Pos)                  /*!< SCB 
 508:D:\workspace_gnu\RTT_Demo0\src\lib\lpc177x_8x\Core\CMSIS\Include\core_cm3.h **** 
 509:D:\workspace_gnu\RTT_Demo0\src\lib\lpc177x_8x\Core\CMSIS\Include\core_cm3.h **** #define SCB_DFSR_BKPT_Pos                   1                                             /*!< SCB 
 510:D:\workspace_gnu\RTT_Demo0\src\lib\lpc177x_8x\Core\CMSIS\Include\core_cm3.h **** #define SCB_DFSR_BKPT_Msk                  (1UL << SCB_DFSR_BKPT_Pos)                     /*!< SCB 
 511:D:\workspace_gnu\RTT_Demo0\src\lib\lpc177x_8x\Core\CMSIS\Include\core_cm3.h **** 
 512:D:\workspace_gnu\RTT_Demo0\src\lib\lpc177x_8x\Core\CMSIS\Include\core_cm3.h **** #define SCB_DFSR_HALTED_Pos                 0                                             /*!< SCB 
 513:D:\workspace_gnu\RTT_Demo0\src\lib\lpc177x_8x\Core\CMSIS\Include\core_cm3.h **** #define SCB_DFSR_HALTED_Msk                (1UL << SCB_DFSR_HALTED_Pos)                   /*!< SCB 
 514:D:\workspace_gnu\RTT_Demo0\src\lib\lpc177x_8x\Core\CMSIS\Include\core_cm3.h **** 
 515:D:\workspace_gnu\RTT_Demo0\src\lib\lpc177x_8x\Core\CMSIS\Include\core_cm3.h **** /*@} end of group CMSIS_SCB */
 516:D:\workspace_gnu\RTT_Demo0\src\lib\lpc177x_8x\Core\CMSIS\Include\core_cm3.h **** 
 517:D:\workspace_gnu\RTT_Demo0\src\lib\lpc177x_8x\Core\CMSIS\Include\core_cm3.h **** 
 518:D:\workspace_gnu\RTT_Demo0\src\lib\lpc177x_8x\Core\CMSIS\Include\core_cm3.h **** /** \ingroup  CMSIS_core_register
 519:D:\workspace_gnu\RTT_Demo0\src\lib\lpc177x_8x\Core\CMSIS\Include\core_cm3.h ****     \defgroup CMSIS_SCnSCB CMSIS System Control and ID Register not in the SCB
 520:D:\workspace_gnu\RTT_Demo0\src\lib\lpc177x_8x\Core\CMSIS\Include\core_cm3.h ****   Type definitions for the Cortex-M System Control and ID Register not in the SCB
 521:D:\workspace_gnu\RTT_Demo0\src\lib\lpc177x_8x\Core\CMSIS\Include\core_cm3.h ****   @{
 522:D:\workspace_gnu\RTT_Demo0\src\lib\lpc177x_8x\Core\CMSIS\Include\core_cm3.h ****  */
 523:D:\workspace_gnu\RTT_Demo0\src\lib\lpc177x_8x\Core\CMSIS\Include\core_cm3.h **** 
 524:D:\workspace_gnu\RTT_Demo0\src\lib\lpc177x_8x\Core\CMSIS\Include\core_cm3.h **** /** \brief  Structure type to access the System Control and ID Register not in the SCB.
 525:D:\workspace_gnu\RTT_Demo0\src\lib\lpc177x_8x\Core\CMSIS\Include\core_cm3.h ****  */
 526:D:\workspace_gnu\RTT_Demo0\src\lib\lpc177x_8x\Core\CMSIS\Include\core_cm3.h **** typedef struct
 527:D:\workspace_gnu\RTT_Demo0\src\lib\lpc177x_8x\Core\CMSIS\Include\core_cm3.h **** {
 528:D:\workspace_gnu\RTT_Demo0\src\lib\lpc177x_8x\Core\CMSIS\Include\core_cm3.h ****        uint32_t RESERVED0[1];
 529:D:\workspace_gnu\RTT_Demo0\src\lib\lpc177x_8x\Core\CMSIS\Include\core_cm3.h ****   __I  uint32_t ICTR;                    /*!< Offset: 0x004 (R/ )  Interrupt Controller Type Regist
 530:D:\workspace_gnu\RTT_Demo0\src\lib\lpc177x_8x\Core\CMSIS\Include\core_cm3.h **** #if ((defined __CM3_REV) && (__CM3_REV >= 0x200))
 531:D:\workspace_gnu\RTT_Demo0\src\lib\lpc177x_8x\Core\CMSIS\Include\core_cm3.h ****   __IO uint32_t ACTLR;                   /*!< Offset: 0x008 (R/W)  Auxiliary Control Register      
 532:D:\workspace_gnu\RTT_Demo0\src\lib\lpc177x_8x\Core\CMSIS\Include\core_cm3.h **** #else
 533:D:\workspace_gnu\RTT_Demo0\src\lib\lpc177x_8x\Core\CMSIS\Include\core_cm3.h ****        uint32_t RESERVED1[1];
 534:D:\workspace_gnu\RTT_Demo0\src\lib\lpc177x_8x\Core\CMSIS\Include\core_cm3.h **** #endif
 535:D:\workspace_gnu\RTT_Demo0\src\lib\lpc177x_8x\Core\CMSIS\Include\core_cm3.h **** } SCnSCB_Type;
 536:D:\workspace_gnu\RTT_Demo0\src\lib\lpc177x_8x\Core\CMSIS\Include\core_cm3.h **** 
 537:D:\workspace_gnu\RTT_Demo0\src\lib\lpc177x_8x\Core\CMSIS\Include\core_cm3.h **** /* Interrupt Controller Type Register Definitions */
 538:D:\workspace_gnu\RTT_Demo0\src\lib\lpc177x_8x\Core\CMSIS\Include\core_cm3.h **** #define SCnSCB_ICTR_INTLINESNUM_Pos         0                                          /*!< ICTR: I
 539:D:\workspace_gnu\RTT_Demo0\src\lib\lpc177x_8x\Core\CMSIS\Include\core_cm3.h **** #define SCnSCB_ICTR_INTLINESNUM_Msk        (0xFUL << SCnSCB_ICTR_INTLINESNUM_Pos)      /*!< ICTR: I
 540:D:\workspace_gnu\RTT_Demo0\src\lib\lpc177x_8x\Core\CMSIS\Include\core_cm3.h **** 
 541:D:\workspace_gnu\RTT_Demo0\src\lib\lpc177x_8x\Core\CMSIS\Include\core_cm3.h **** /* Auxiliary Control Register Definitions */
 542:D:\workspace_gnu\RTT_Demo0\src\lib\lpc177x_8x\Core\CMSIS\Include\core_cm3.h **** 
 543:D:\workspace_gnu\RTT_Demo0\src\lib\lpc177x_8x\Core\CMSIS\Include\core_cm3.h **** #define SCnSCB_ACTLR_DISFOLD_Pos            2                                          /*!< ACTLR: 
 544:D:\workspace_gnu\RTT_Demo0\src\lib\lpc177x_8x\Core\CMSIS\Include\core_cm3.h **** #define SCnSCB_ACTLR_DISFOLD_Msk           (1UL << SCnSCB_ACTLR_DISFOLD_Pos)           /*!< ACTLR: 
 545:D:\workspace_gnu\RTT_Demo0\src\lib\lpc177x_8x\Core\CMSIS\Include\core_cm3.h **** 
 546:D:\workspace_gnu\RTT_Demo0\src\lib\lpc177x_8x\Core\CMSIS\Include\core_cm3.h **** #define SCnSCB_ACTLR_DISDEFWBUF_Pos         1                                          /*!< ACTLR: 
 547:D:\workspace_gnu\RTT_Demo0\src\lib\lpc177x_8x\Core\CMSIS\Include\core_cm3.h **** #define SCnSCB_ACTLR_DISDEFWBUF_Msk        (1UL << SCnSCB_ACTLR_DISDEFWBUF_Pos)        /*!< ACTLR: 
 548:D:\workspace_gnu\RTT_Demo0\src\lib\lpc177x_8x\Core\CMSIS\Include\core_cm3.h **** 
 549:D:\workspace_gnu\RTT_Demo0\src\lib\lpc177x_8x\Core\CMSIS\Include\core_cm3.h **** #define SCnSCB_ACTLR_DISMCYCINT_Pos         0                                          /*!< ACTLR: 
 550:D:\workspace_gnu\RTT_Demo0\src\lib\lpc177x_8x\Core\CMSIS\Include\core_cm3.h **** #define SCnSCB_ACTLR_DISMCYCINT_Msk        (1UL << SCnSCB_ACTLR_DISMCYCINT_Pos)        /*!< ACTLR: 
 551:D:\workspace_gnu\RTT_Demo0\src\lib\lpc177x_8x\Core\CMSIS\Include\core_cm3.h **** 
 552:D:\workspace_gnu\RTT_Demo0\src\lib\lpc177x_8x\Core\CMSIS\Include\core_cm3.h **** /*@} end of group CMSIS_SCnotSCB */
 553:D:\workspace_gnu\RTT_Demo0\src\lib\lpc177x_8x\Core\CMSIS\Include\core_cm3.h **** 
 554:D:\workspace_gnu\RTT_Demo0\src\lib\lpc177x_8x\Core\CMSIS\Include\core_cm3.h **** 
 555:D:\workspace_gnu\RTT_Demo0\src\lib\lpc177x_8x\Core\CMSIS\Include\core_cm3.h **** /** \ingroup  CMSIS_core_register
 556:D:\workspace_gnu\RTT_Demo0\src\lib\lpc177x_8x\Core\CMSIS\Include\core_cm3.h ****     \defgroup CMSIS_SysTick CMSIS SysTick
 557:D:\workspace_gnu\RTT_Demo0\src\lib\lpc177x_8x\Core\CMSIS\Include\core_cm3.h ****   Type definitions for the Cortex-M System Timer Registers
 558:D:\workspace_gnu\RTT_Demo0\src\lib\lpc177x_8x\Core\CMSIS\Include\core_cm3.h ****   @{
 559:D:\workspace_gnu\RTT_Demo0\src\lib\lpc177x_8x\Core\CMSIS\Include\core_cm3.h ****  */
 560:D:\workspace_gnu\RTT_Demo0\src\lib\lpc177x_8x\Core\CMSIS\Include\core_cm3.h **** 
 561:D:\workspace_gnu\RTT_Demo0\src\lib\lpc177x_8x\Core\CMSIS\Include\core_cm3.h **** /** \brief  Structure type to access the System Timer (SysTick).
 562:D:\workspace_gnu\RTT_Demo0\src\lib\lpc177x_8x\Core\CMSIS\Include\core_cm3.h ****  */
 563:D:\workspace_gnu\RTT_Demo0\src\lib\lpc177x_8x\Core\CMSIS\Include\core_cm3.h **** typedef struct
 564:D:\workspace_gnu\RTT_Demo0\src\lib\lpc177x_8x\Core\CMSIS\Include\core_cm3.h **** {
 565:D:\workspace_gnu\RTT_Demo0\src\lib\lpc177x_8x\Core\CMSIS\Include\core_cm3.h ****   __IO uint32_t CTRL;                    /*!< Offset: 0x000 (R/W)  SysTick Control and Status Regis
 566:D:\workspace_gnu\RTT_Demo0\src\lib\lpc177x_8x\Core\CMSIS\Include\core_cm3.h ****   __IO uint32_t LOAD;                    /*!< Offset: 0x004 (R/W)  SysTick Reload Value Register   
 567:D:\workspace_gnu\RTT_Demo0\src\lib\lpc177x_8x\Core\CMSIS\Include\core_cm3.h ****   __IO uint32_t VAL;                     /*!< Offset: 0x008 (R/W)  SysTick Current Value Register  
 568:D:\workspace_gnu\RTT_Demo0\src\lib\lpc177x_8x\Core\CMSIS\Include\core_cm3.h ****   __I  uint32_t CALIB;                   /*!< Offset: 0x00C (R/ )  SysTick Calibration Register    
 569:D:\workspace_gnu\RTT_Demo0\src\lib\lpc177x_8x\Core\CMSIS\Include\core_cm3.h **** } SysTick_Type;
 570:D:\workspace_gnu\RTT_Demo0\src\lib\lpc177x_8x\Core\CMSIS\Include\core_cm3.h **** 
 571:D:\workspace_gnu\RTT_Demo0\src\lib\lpc177x_8x\Core\CMSIS\Include\core_cm3.h **** /* SysTick Control / Status Register Definitions */
 572:D:\workspace_gnu\RTT_Demo0\src\lib\lpc177x_8x\Core\CMSIS\Include\core_cm3.h **** #define SysTick_CTRL_COUNTFLAG_Pos         16                                             /*!< SysT
 573:D:\workspace_gnu\RTT_Demo0\src\lib\lpc177x_8x\Core\CMSIS\Include\core_cm3.h **** #define SysTick_CTRL_COUNTFLAG_Msk         (1UL << SysTick_CTRL_COUNTFLAG_Pos)            /*!< SysT
 574:D:\workspace_gnu\RTT_Demo0\src\lib\lpc177x_8x\Core\CMSIS\Include\core_cm3.h **** 
 575:D:\workspace_gnu\RTT_Demo0\src\lib\lpc177x_8x\Core\CMSIS\Include\core_cm3.h **** #define SysTick_CTRL_CLKSOURCE_Pos          2                                             /*!< SysT
 576:D:\workspace_gnu\RTT_Demo0\src\lib\lpc177x_8x\Core\CMSIS\Include\core_cm3.h **** #define SysTick_CTRL_CLKSOURCE_Msk         (1UL << SysTick_CTRL_CLKSOURCE_Pos)            /*!< SysT
 577:D:\workspace_gnu\RTT_Demo0\src\lib\lpc177x_8x\Core\CMSIS\Include\core_cm3.h **** 
 578:D:\workspace_gnu\RTT_Demo0\src\lib\lpc177x_8x\Core\CMSIS\Include\core_cm3.h **** #define SysTick_CTRL_TICKINT_Pos            1                                             /*!< SysT
 579:D:\workspace_gnu\RTT_Demo0\src\lib\lpc177x_8x\Core\CMSIS\Include\core_cm3.h **** #define SysTick_CTRL_TICKINT_Msk           (1UL << SysTick_CTRL_TICKINT_Pos)              /*!< SysT
 580:D:\workspace_gnu\RTT_Demo0\src\lib\lpc177x_8x\Core\CMSIS\Include\core_cm3.h **** 
 581:D:\workspace_gnu\RTT_Demo0\src\lib\lpc177x_8x\Core\CMSIS\Include\core_cm3.h **** #define SysTick_CTRL_ENABLE_Pos             0                                             /*!< SysT
 582:D:\workspace_gnu\RTT_Demo0\src\lib\lpc177x_8x\Core\CMSIS\Include\core_cm3.h **** #define SysTick_CTRL_ENABLE_Msk            (1UL << SysTick_CTRL_ENABLE_Pos)               /*!< SysT
 583:D:\workspace_gnu\RTT_Demo0\src\lib\lpc177x_8x\Core\CMSIS\Include\core_cm3.h **** 
 584:D:\workspace_gnu\RTT_Demo0\src\lib\lpc177x_8x\Core\CMSIS\Include\core_cm3.h **** /* SysTick Reload Register Definitions */
 585:D:\workspace_gnu\RTT_Demo0\src\lib\lpc177x_8x\Core\CMSIS\Include\core_cm3.h **** #define SysTick_LOAD_RELOAD_Pos             0                                             /*!< SysT
 586:D:\workspace_gnu\RTT_Demo0\src\lib\lpc177x_8x\Core\CMSIS\Include\core_cm3.h **** #define SysTick_LOAD_RELOAD_Msk            (0xFFFFFFUL << SysTick_LOAD_RELOAD_Pos)        /*!< SysT
 587:D:\workspace_gnu\RTT_Demo0\src\lib\lpc177x_8x\Core\CMSIS\Include\core_cm3.h **** 
 588:D:\workspace_gnu\RTT_Demo0\src\lib\lpc177x_8x\Core\CMSIS\Include\core_cm3.h **** /* SysTick Current Register Definitions */
 589:D:\workspace_gnu\RTT_Demo0\src\lib\lpc177x_8x\Core\CMSIS\Include\core_cm3.h **** #define SysTick_VAL_CURRENT_Pos             0                                             /*!< SysT
 590:D:\workspace_gnu\RTT_Demo0\src\lib\lpc177x_8x\Core\CMSIS\Include\core_cm3.h **** #define SysTick_VAL_CURRENT_Msk            (0xFFFFFFUL << SysTick_VAL_CURRENT_Pos)        /*!< SysT
 591:D:\workspace_gnu\RTT_Demo0\src\lib\lpc177x_8x\Core\CMSIS\Include\core_cm3.h **** 
 592:D:\workspace_gnu\RTT_Demo0\src\lib\lpc177x_8x\Core\CMSIS\Include\core_cm3.h **** /* SysTick Calibration Register Definitions */
 593:D:\workspace_gnu\RTT_Demo0\src\lib\lpc177x_8x\Core\CMSIS\Include\core_cm3.h **** #define SysTick_CALIB_NOREF_Pos            31                                             /*!< SysT
 594:D:\workspace_gnu\RTT_Demo0\src\lib\lpc177x_8x\Core\CMSIS\Include\core_cm3.h **** #define SysTick_CALIB_NOREF_Msk            (1UL << SysTick_CALIB_NOREF_Pos)               /*!< SysT
 595:D:\workspace_gnu\RTT_Demo0\src\lib\lpc177x_8x\Core\CMSIS\Include\core_cm3.h **** 
 596:D:\workspace_gnu\RTT_Demo0\src\lib\lpc177x_8x\Core\CMSIS\Include\core_cm3.h **** #define SysTick_CALIB_SKEW_Pos             30                                             /*!< SysT
 597:D:\workspace_gnu\RTT_Demo0\src\lib\lpc177x_8x\Core\CMSIS\Include\core_cm3.h **** #define SysTick_CALIB_SKEW_Msk             (1UL << SysTick_CALIB_SKEW_Pos)                /*!< SysT
 598:D:\workspace_gnu\RTT_Demo0\src\lib\lpc177x_8x\Core\CMSIS\Include\core_cm3.h **** 
 599:D:\workspace_gnu\RTT_Demo0\src\lib\lpc177x_8x\Core\CMSIS\Include\core_cm3.h **** #define SysTick_CALIB_TENMS_Pos             0                                             /*!< SysT
 600:D:\workspace_gnu\RTT_Demo0\src\lib\lpc177x_8x\Core\CMSIS\Include\core_cm3.h **** #define SysTick_CALIB_TENMS_Msk            (0xFFFFFFUL << SysTick_VAL_CURRENT_Pos)        /*!< SysT
 601:D:\workspace_gnu\RTT_Demo0\src\lib\lpc177x_8x\Core\CMSIS\Include\core_cm3.h **** 
 602:D:\workspace_gnu\RTT_Demo0\src\lib\lpc177x_8x\Core\CMSIS\Include\core_cm3.h **** /*@} end of group CMSIS_SysTick */
 603:D:\workspace_gnu\RTT_Demo0\src\lib\lpc177x_8x\Core\CMSIS\Include\core_cm3.h **** 
 604:D:\workspace_gnu\RTT_Demo0\src\lib\lpc177x_8x\Core\CMSIS\Include\core_cm3.h **** 
 605:D:\workspace_gnu\RTT_Demo0\src\lib\lpc177x_8x\Core\CMSIS\Include\core_cm3.h **** /** \ingroup  CMSIS_core_register
 606:D:\workspace_gnu\RTT_Demo0\src\lib\lpc177x_8x\Core\CMSIS\Include\core_cm3.h ****     \defgroup CMSIS_ITM CMSIS ITM
 607:D:\workspace_gnu\RTT_Demo0\src\lib\lpc177x_8x\Core\CMSIS\Include\core_cm3.h ****   Type definitions for the Cortex-M Instrumentation Trace Macrocell (ITM)
 608:D:\workspace_gnu\RTT_Demo0\src\lib\lpc177x_8x\Core\CMSIS\Include\core_cm3.h ****   @{
 609:D:\workspace_gnu\RTT_Demo0\src\lib\lpc177x_8x\Core\CMSIS\Include\core_cm3.h ****  */
 610:D:\workspace_gnu\RTT_Demo0\src\lib\lpc177x_8x\Core\CMSIS\Include\core_cm3.h **** 
 611:D:\workspace_gnu\RTT_Demo0\src\lib\lpc177x_8x\Core\CMSIS\Include\core_cm3.h **** /** \brief  Structure type to access the Instrumentation Trace Macrocell Register (ITM).
 612:D:\workspace_gnu\RTT_Demo0\src\lib\lpc177x_8x\Core\CMSIS\Include\core_cm3.h ****  */
 613:D:\workspace_gnu\RTT_Demo0\src\lib\lpc177x_8x\Core\CMSIS\Include\core_cm3.h **** typedef struct
 614:D:\workspace_gnu\RTT_Demo0\src\lib\lpc177x_8x\Core\CMSIS\Include\core_cm3.h **** {
 615:D:\workspace_gnu\RTT_Demo0\src\lib\lpc177x_8x\Core\CMSIS\Include\core_cm3.h ****   __O  union
 616:D:\workspace_gnu\RTT_Demo0\src\lib\lpc177x_8x\Core\CMSIS\Include\core_cm3.h ****   {
 617:D:\workspace_gnu\RTT_Demo0\src\lib\lpc177x_8x\Core\CMSIS\Include\core_cm3.h ****     __O  uint8_t    u8;                  /*!< Offset: 0x000 ( /W)  ITM Stimulus Port 8-bit         
 618:D:\workspace_gnu\RTT_Demo0\src\lib\lpc177x_8x\Core\CMSIS\Include\core_cm3.h ****     __O  uint16_t   u16;                 /*!< Offset: 0x000 ( /W)  ITM Stimulus Port 16-bit        
 619:D:\workspace_gnu\RTT_Demo0\src\lib\lpc177x_8x\Core\CMSIS\Include\core_cm3.h ****     __O  uint32_t   u32;                 /*!< Offset: 0x000 ( /W)  ITM Stimulus Port 32-bit        
 620:D:\workspace_gnu\RTT_Demo0\src\lib\lpc177x_8x\Core\CMSIS\Include\core_cm3.h ****   }  PORT [32];                          /*!< Offset: 0x000 ( /W)  ITM Stimulus Port Registers     
 621:D:\workspace_gnu\RTT_Demo0\src\lib\lpc177x_8x\Core\CMSIS\Include\core_cm3.h ****        uint32_t RESERVED0[864];
 622:D:\workspace_gnu\RTT_Demo0\src\lib\lpc177x_8x\Core\CMSIS\Include\core_cm3.h ****   __IO uint32_t TER;                     /*!< Offset: 0xE00 (R/W)  ITM Trace Enable Register       
 623:D:\workspace_gnu\RTT_Demo0\src\lib\lpc177x_8x\Core\CMSIS\Include\core_cm3.h ****        uint32_t RESERVED1[15];
 624:D:\workspace_gnu\RTT_Demo0\src\lib\lpc177x_8x\Core\CMSIS\Include\core_cm3.h ****   __IO uint32_t TPR;                     /*!< Offset: 0xE40 (R/W)  ITM Trace Privilege Register    
 625:D:\workspace_gnu\RTT_Demo0\src\lib\lpc177x_8x\Core\CMSIS\Include\core_cm3.h ****        uint32_t RESERVED2[15];
 626:D:\workspace_gnu\RTT_Demo0\src\lib\lpc177x_8x\Core\CMSIS\Include\core_cm3.h ****   __IO uint32_t TCR;                     /*!< Offset: 0xE80 (R/W)  ITM Trace Control Register      
 627:D:\workspace_gnu\RTT_Demo0\src\lib\lpc177x_8x\Core\CMSIS\Include\core_cm3.h **** } ITM_Type;
 628:D:\workspace_gnu\RTT_Demo0\src\lib\lpc177x_8x\Core\CMSIS\Include\core_cm3.h **** 
 629:D:\workspace_gnu\RTT_Demo0\src\lib\lpc177x_8x\Core\CMSIS\Include\core_cm3.h **** /* ITM Trace Privilege Register Definitions */
 630:D:\workspace_gnu\RTT_Demo0\src\lib\lpc177x_8x\Core\CMSIS\Include\core_cm3.h **** #define ITM_TPR_PRIVMASK_Pos                0                                          /*!< ITM TPR
 631:D:\workspace_gnu\RTT_Demo0\src\lib\lpc177x_8x\Core\CMSIS\Include\core_cm3.h **** #define ITM_TPR_PRIVMASK_Msk               (0xFUL << ITM_TPR_PRIVMASK_Pos)             /*!< ITM TPR
 632:D:\workspace_gnu\RTT_Demo0\src\lib\lpc177x_8x\Core\CMSIS\Include\core_cm3.h **** 
 633:D:\workspace_gnu\RTT_Demo0\src\lib\lpc177x_8x\Core\CMSIS\Include\core_cm3.h **** /* ITM Trace Control Register Definitions */
 634:D:\workspace_gnu\RTT_Demo0\src\lib\lpc177x_8x\Core\CMSIS\Include\core_cm3.h **** #define ITM_TCR_BUSY_Pos                   23                                          /*!< ITM TCR
 635:D:\workspace_gnu\RTT_Demo0\src\lib\lpc177x_8x\Core\CMSIS\Include\core_cm3.h **** #define ITM_TCR_BUSY_Msk                   (1UL << ITM_TCR_BUSY_Pos)                   /*!< ITM TCR
 636:D:\workspace_gnu\RTT_Demo0\src\lib\lpc177x_8x\Core\CMSIS\Include\core_cm3.h **** 
 637:D:\workspace_gnu\RTT_Demo0\src\lib\lpc177x_8x\Core\CMSIS\Include\core_cm3.h **** #define ITM_TCR_TraceBusID_Pos             16                                          /*!< ITM TCR
 638:D:\workspace_gnu\RTT_Demo0\src\lib\lpc177x_8x\Core\CMSIS\Include\core_cm3.h **** #define ITM_TCR_TraceBusID_Msk             (0x7FUL << ITM_TCR_TraceBusID_Pos)          /*!< ITM TCR
 639:D:\workspace_gnu\RTT_Demo0\src\lib\lpc177x_8x\Core\CMSIS\Include\core_cm3.h **** 
 640:D:\workspace_gnu\RTT_Demo0\src\lib\lpc177x_8x\Core\CMSIS\Include\core_cm3.h **** #define ITM_TCR_GTSFREQ_Pos                10                                          /*!< ITM TCR
 641:D:\workspace_gnu\RTT_Demo0\src\lib\lpc177x_8x\Core\CMSIS\Include\core_cm3.h **** #define ITM_TCR_GTSFREQ_Msk                (3UL << ITM_TCR_GTSFREQ_Pos)                /*!< ITM TCR
 642:D:\workspace_gnu\RTT_Demo0\src\lib\lpc177x_8x\Core\CMSIS\Include\core_cm3.h **** 
 643:D:\workspace_gnu\RTT_Demo0\src\lib\lpc177x_8x\Core\CMSIS\Include\core_cm3.h **** #define ITM_TCR_TSPrescale_Pos              8                                          /*!< ITM TCR
 644:D:\workspace_gnu\RTT_Demo0\src\lib\lpc177x_8x\Core\CMSIS\Include\core_cm3.h **** #define ITM_TCR_TSPrescale_Msk             (3UL << ITM_TCR_TSPrescale_Pos)             /*!< ITM TCR
 645:D:\workspace_gnu\RTT_Demo0\src\lib\lpc177x_8x\Core\CMSIS\Include\core_cm3.h **** 
 646:D:\workspace_gnu\RTT_Demo0\src\lib\lpc177x_8x\Core\CMSIS\Include\core_cm3.h **** #define ITM_TCR_SWOENA_Pos                  4                                          /*!< ITM TCR
 647:D:\workspace_gnu\RTT_Demo0\src\lib\lpc177x_8x\Core\CMSIS\Include\core_cm3.h **** #define ITM_TCR_SWOENA_Msk                 (1UL << ITM_TCR_SWOENA_Pos)                 /*!< ITM TCR
 648:D:\workspace_gnu\RTT_Demo0\src\lib\lpc177x_8x\Core\CMSIS\Include\core_cm3.h **** 
 649:D:\workspace_gnu\RTT_Demo0\src\lib\lpc177x_8x\Core\CMSIS\Include\core_cm3.h **** #define ITM_TCR_TXENA_Pos                   3                                          /*!< ITM TCR
 650:D:\workspace_gnu\RTT_Demo0\src\lib\lpc177x_8x\Core\CMSIS\Include\core_cm3.h **** #define ITM_TCR_TXENA_Msk                  (1UL << ITM_TCR_TXENA_Pos)                  /*!< ITM TCR
 651:D:\workspace_gnu\RTT_Demo0\src\lib\lpc177x_8x\Core\CMSIS\Include\core_cm3.h **** 
 652:D:\workspace_gnu\RTT_Demo0\src\lib\lpc177x_8x\Core\CMSIS\Include\core_cm3.h **** #define ITM_TCR_SYNCENA_Pos                 2                                          /*!< ITM TCR
 653:D:\workspace_gnu\RTT_Demo0\src\lib\lpc177x_8x\Core\CMSIS\Include\core_cm3.h **** #define ITM_TCR_SYNCENA_Msk                (1UL << ITM_TCR_SYNCENA_Pos)                /*!< ITM TCR
 654:D:\workspace_gnu\RTT_Demo0\src\lib\lpc177x_8x\Core\CMSIS\Include\core_cm3.h **** 
 655:D:\workspace_gnu\RTT_Demo0\src\lib\lpc177x_8x\Core\CMSIS\Include\core_cm3.h **** #define ITM_TCR_TSENA_Pos                   1                                          /*!< ITM TCR
 656:D:\workspace_gnu\RTT_Demo0\src\lib\lpc177x_8x\Core\CMSIS\Include\core_cm3.h **** #define ITM_TCR_TSENA_Msk                  (1UL << ITM_TCR_TSENA_Pos)                  /*!< ITM TCR
 657:D:\workspace_gnu\RTT_Demo0\src\lib\lpc177x_8x\Core\CMSIS\Include\core_cm3.h **** 
 658:D:\workspace_gnu\RTT_Demo0\src\lib\lpc177x_8x\Core\CMSIS\Include\core_cm3.h **** #define ITM_TCR_ITMENA_Pos                  0                                          /*!< ITM TCR
 659:D:\workspace_gnu\RTT_Demo0\src\lib\lpc177x_8x\Core\CMSIS\Include\core_cm3.h **** #define ITM_TCR_ITMENA_Msk                 (1UL << ITM_TCR_ITMENA_Pos)                 /*!< ITM TCR
 660:D:\workspace_gnu\RTT_Demo0\src\lib\lpc177x_8x\Core\CMSIS\Include\core_cm3.h **** 
 661:D:\workspace_gnu\RTT_Demo0\src\lib\lpc177x_8x\Core\CMSIS\Include\core_cm3.h **** /*@}*/ /* end of group CMSIS_ITM */
 662:D:\workspace_gnu\RTT_Demo0\src\lib\lpc177x_8x\Core\CMSIS\Include\core_cm3.h **** 
 663:D:\workspace_gnu\RTT_Demo0\src\lib\lpc177x_8x\Core\CMSIS\Include\core_cm3.h **** 
 664:D:\workspace_gnu\RTT_Demo0\src\lib\lpc177x_8x\Core\CMSIS\Include\core_cm3.h **** #if (__MPU_PRESENT == 1)
 665:D:\workspace_gnu\RTT_Demo0\src\lib\lpc177x_8x\Core\CMSIS\Include\core_cm3.h **** /** \ingroup  CMSIS_core_register
 666:D:\workspace_gnu\RTT_Demo0\src\lib\lpc177x_8x\Core\CMSIS\Include\core_cm3.h ****     \defgroup CMSIS_MPU CMSIS MPU
 667:D:\workspace_gnu\RTT_Demo0\src\lib\lpc177x_8x\Core\CMSIS\Include\core_cm3.h ****   Type definitions for the Cortex-M Memory Protection Unit (MPU)
 668:D:\workspace_gnu\RTT_Demo0\src\lib\lpc177x_8x\Core\CMSIS\Include\core_cm3.h ****   @{
 669:D:\workspace_gnu\RTT_Demo0\src\lib\lpc177x_8x\Core\CMSIS\Include\core_cm3.h ****  */
 670:D:\workspace_gnu\RTT_Demo0\src\lib\lpc177x_8x\Core\CMSIS\Include\core_cm3.h **** 
 671:D:\workspace_gnu\RTT_Demo0\src\lib\lpc177x_8x\Core\CMSIS\Include\core_cm3.h **** /** \brief  Structure type to access the Memory Protection Unit (MPU).
 672:D:\workspace_gnu\RTT_Demo0\src\lib\lpc177x_8x\Core\CMSIS\Include\core_cm3.h ****  */
 673:D:\workspace_gnu\RTT_Demo0\src\lib\lpc177x_8x\Core\CMSIS\Include\core_cm3.h **** typedef struct
 674:D:\workspace_gnu\RTT_Demo0\src\lib\lpc177x_8x\Core\CMSIS\Include\core_cm3.h **** {
 675:D:\workspace_gnu\RTT_Demo0\src\lib\lpc177x_8x\Core\CMSIS\Include\core_cm3.h ****   __I  uint32_t TYPE;                    /*!< Offset: 0x000 (R/ )  MPU Type Register               
 676:D:\workspace_gnu\RTT_Demo0\src\lib\lpc177x_8x\Core\CMSIS\Include\core_cm3.h ****   __IO uint32_t CTRL;                    /*!< Offset: 0x004 (R/W)  MPU Control Register            
 677:D:\workspace_gnu\RTT_Demo0\src\lib\lpc177x_8x\Core\CMSIS\Include\core_cm3.h ****   __IO uint32_t RNR;                     /*!< Offset: 0x008 (R/W)  MPU Region RNRber Register      
 678:D:\workspace_gnu\RTT_Demo0\src\lib\lpc177x_8x\Core\CMSIS\Include\core_cm3.h ****   __IO uint32_t RBAR;                    /*!< Offset: 0x00C (R/W)  MPU Region Base Address Register
 679:D:\workspace_gnu\RTT_Demo0\src\lib\lpc177x_8x\Core\CMSIS\Include\core_cm3.h ****   __IO uint32_t RASR;                    /*!< Offset: 0x010 (R/W)  MPU Region Attribute and Size Re
 680:D:\workspace_gnu\RTT_Demo0\src\lib\lpc177x_8x\Core\CMSIS\Include\core_cm3.h ****   __IO uint32_t RBAR_A1;                 /*!< Offset: 0x014 (R/W)  MPU Alias 1 Region Base Address 
 681:D:\workspace_gnu\RTT_Demo0\src\lib\lpc177x_8x\Core\CMSIS\Include\core_cm3.h ****   __IO uint32_t RASR_A1;                 /*!< Offset: 0x018 (R/W)  MPU Alias 1 Region Attribute and
 682:D:\workspace_gnu\RTT_Demo0\src\lib\lpc177x_8x\Core\CMSIS\Include\core_cm3.h ****   __IO uint32_t RBAR_A2;                 /*!< Offset: 0x01C (R/W)  MPU Alias 2 Region Base Address 
 683:D:\workspace_gnu\RTT_Demo0\src\lib\lpc177x_8x\Core\CMSIS\Include\core_cm3.h ****   __IO uint32_t RASR_A2;                 /*!< Offset: 0x020 (R/W)  MPU Alias 2 Region Attribute and
 684:D:\workspace_gnu\RTT_Demo0\src\lib\lpc177x_8x\Core\CMSIS\Include\core_cm3.h ****   __IO uint32_t RBAR_A3;                 /*!< Offset: 0x024 (R/W)  MPU Alias 3 Region Base Address 
 685:D:\workspace_gnu\RTT_Demo0\src\lib\lpc177x_8x\Core\CMSIS\Include\core_cm3.h ****   __IO uint32_t RASR_A3;                 /*!< Offset: 0x028 (R/W)  MPU Alias 3 Region Attribute and
 686:D:\workspace_gnu\RTT_Demo0\src\lib\lpc177x_8x\Core\CMSIS\Include\core_cm3.h **** } MPU_Type;
 687:D:\workspace_gnu\RTT_Demo0\src\lib\lpc177x_8x\Core\CMSIS\Include\core_cm3.h **** 
 688:D:\workspace_gnu\RTT_Demo0\src\lib\lpc177x_8x\Core\CMSIS\Include\core_cm3.h **** /* MPU Type Register */
 689:D:\workspace_gnu\RTT_Demo0\src\lib\lpc177x_8x\Core\CMSIS\Include\core_cm3.h **** #define MPU_TYPE_IREGION_Pos               16                                             /*!< MPU 
 690:D:\workspace_gnu\RTT_Demo0\src\lib\lpc177x_8x\Core\CMSIS\Include\core_cm3.h **** #define MPU_TYPE_IREGION_Msk               (0xFFUL << MPU_TYPE_IREGION_Pos)               /*!< MPU 
 691:D:\workspace_gnu\RTT_Demo0\src\lib\lpc177x_8x\Core\CMSIS\Include\core_cm3.h **** 
 692:D:\workspace_gnu\RTT_Demo0\src\lib\lpc177x_8x\Core\CMSIS\Include\core_cm3.h **** #define MPU_TYPE_DREGION_Pos                8                                             /*!< MPU 
 693:D:\workspace_gnu\RTT_Demo0\src\lib\lpc177x_8x\Core\CMSIS\Include\core_cm3.h **** #define MPU_TYPE_DREGION_Msk               (0xFFUL << MPU_TYPE_DREGION_Pos)               /*!< MPU 
 694:D:\workspace_gnu\RTT_Demo0\src\lib\lpc177x_8x\Core\CMSIS\Include\core_cm3.h **** 
 695:D:\workspace_gnu\RTT_Demo0\src\lib\lpc177x_8x\Core\CMSIS\Include\core_cm3.h **** #define MPU_TYPE_SEPARATE_Pos               0                                             /*!< MPU 
 696:D:\workspace_gnu\RTT_Demo0\src\lib\lpc177x_8x\Core\CMSIS\Include\core_cm3.h **** #define MPU_TYPE_SEPARATE_Msk              (1UL << MPU_TYPE_SEPARATE_Pos)                 /*!< MPU 
 697:D:\workspace_gnu\RTT_Demo0\src\lib\lpc177x_8x\Core\CMSIS\Include\core_cm3.h **** 
 698:D:\workspace_gnu\RTT_Demo0\src\lib\lpc177x_8x\Core\CMSIS\Include\core_cm3.h **** /* MPU Control Register */
 699:D:\workspace_gnu\RTT_Demo0\src\lib\lpc177x_8x\Core\CMSIS\Include\core_cm3.h **** #define MPU_CTRL_PRIVDEFENA_Pos             2                                             /*!< MPU 
 700:D:\workspace_gnu\RTT_Demo0\src\lib\lpc177x_8x\Core\CMSIS\Include\core_cm3.h **** #define MPU_CTRL_PRIVDEFENA_Msk            (1UL << MPU_CTRL_PRIVDEFENA_Pos)               /*!< MPU 
 701:D:\workspace_gnu\RTT_Demo0\src\lib\lpc177x_8x\Core\CMSIS\Include\core_cm3.h **** 
 702:D:\workspace_gnu\RTT_Demo0\src\lib\lpc177x_8x\Core\CMSIS\Include\core_cm3.h **** #define MPU_CTRL_HFNMIENA_Pos               1                                             /*!< MPU 
 703:D:\workspace_gnu\RTT_Demo0\src\lib\lpc177x_8x\Core\CMSIS\Include\core_cm3.h **** #define MPU_CTRL_HFNMIENA_Msk              (1UL << MPU_CTRL_HFNMIENA_Pos)                 /*!< MPU 
 704:D:\workspace_gnu\RTT_Demo0\src\lib\lpc177x_8x\Core\CMSIS\Include\core_cm3.h **** 
 705:D:\workspace_gnu\RTT_Demo0\src\lib\lpc177x_8x\Core\CMSIS\Include\core_cm3.h **** #define MPU_CTRL_ENABLE_Pos                 0                                             /*!< MPU 
 706:D:\workspace_gnu\RTT_Demo0\src\lib\lpc177x_8x\Core\CMSIS\Include\core_cm3.h **** #define MPU_CTRL_ENABLE_Msk                (1UL << MPU_CTRL_ENABLE_Pos)                   /*!< MPU 
 707:D:\workspace_gnu\RTT_Demo0\src\lib\lpc177x_8x\Core\CMSIS\Include\core_cm3.h **** 
 708:D:\workspace_gnu\RTT_Demo0\src\lib\lpc177x_8x\Core\CMSIS\Include\core_cm3.h **** /* MPU Region Number Register */
 709:D:\workspace_gnu\RTT_Demo0\src\lib\lpc177x_8x\Core\CMSIS\Include\core_cm3.h **** #define MPU_RNR_REGION_Pos                  0                                             /*!< MPU 
 710:D:\workspace_gnu\RTT_Demo0\src\lib\lpc177x_8x\Core\CMSIS\Include\core_cm3.h **** #define MPU_RNR_REGION_Msk                 (0xFFUL << MPU_RNR_REGION_Pos)                 /*!< MPU 
 711:D:\workspace_gnu\RTT_Demo0\src\lib\lpc177x_8x\Core\CMSIS\Include\core_cm3.h **** 
 712:D:\workspace_gnu\RTT_Demo0\src\lib\lpc177x_8x\Core\CMSIS\Include\core_cm3.h **** /* MPU Region Base Address Register */
 713:D:\workspace_gnu\RTT_Demo0\src\lib\lpc177x_8x\Core\CMSIS\Include\core_cm3.h **** #define MPU_RBAR_ADDR_Pos                   5                                             /*!< MPU 
 714:D:\workspace_gnu\RTT_Demo0\src\lib\lpc177x_8x\Core\CMSIS\Include\core_cm3.h **** #define MPU_RBAR_ADDR_Msk                  (0x7FFFFFFUL << MPU_RBAR_ADDR_Pos)             /*!< MPU 
 715:D:\workspace_gnu\RTT_Demo0\src\lib\lpc177x_8x\Core\CMSIS\Include\core_cm3.h **** 
 716:D:\workspace_gnu\RTT_Demo0\src\lib\lpc177x_8x\Core\CMSIS\Include\core_cm3.h **** #define MPU_RBAR_VALID_Pos                  4                                             /*!< MPU 
 717:D:\workspace_gnu\RTT_Demo0\src\lib\lpc177x_8x\Core\CMSIS\Include\core_cm3.h **** #define MPU_RBAR_VALID_Msk                 (1UL << MPU_RBAR_VALID_Pos)                    /*!< MPU 
 718:D:\workspace_gnu\RTT_Demo0\src\lib\lpc177x_8x\Core\CMSIS\Include\core_cm3.h **** 
 719:D:\workspace_gnu\RTT_Demo0\src\lib\lpc177x_8x\Core\CMSIS\Include\core_cm3.h **** #define MPU_RBAR_REGION_Pos                 0                                             /*!< MPU 
 720:D:\workspace_gnu\RTT_Demo0\src\lib\lpc177x_8x\Core\CMSIS\Include\core_cm3.h **** #define MPU_RBAR_REGION_Msk                (0xFUL << MPU_RBAR_REGION_Pos)                 /*!< MPU 
 721:D:\workspace_gnu\RTT_Demo0\src\lib\lpc177x_8x\Core\CMSIS\Include\core_cm3.h **** 
 722:D:\workspace_gnu\RTT_Demo0\src\lib\lpc177x_8x\Core\CMSIS\Include\core_cm3.h **** /* MPU Region Attribute and Size Register */
 723:D:\workspace_gnu\RTT_Demo0\src\lib\lpc177x_8x\Core\CMSIS\Include\core_cm3.h **** #define MPU_RASR_ATTRS_Pos                 16                                             /*!< MPU 
 724:D:\workspace_gnu\RTT_Demo0\src\lib\lpc177x_8x\Core\CMSIS\Include\core_cm3.h **** #define MPU_RASR_ATTRS_Msk                 (0xFFFFUL << MPU_RASR_ATTRS_Pos)               /*!< MPU 
 725:D:\workspace_gnu\RTT_Demo0\src\lib\lpc177x_8x\Core\CMSIS\Include\core_cm3.h **** 
 726:D:\workspace_gnu\RTT_Demo0\src\lib\lpc177x_8x\Core\CMSIS\Include\core_cm3.h **** #define MPU_RASR_SRD_Pos                    8                                             /*!< MPU 
 727:D:\workspace_gnu\RTT_Demo0\src\lib\lpc177x_8x\Core\CMSIS\Include\core_cm3.h **** #define MPU_RASR_SRD_Msk                   (0xFFUL << MPU_RASR_SRD_Pos)                   /*!< MPU 
 728:D:\workspace_gnu\RTT_Demo0\src\lib\lpc177x_8x\Core\CMSIS\Include\core_cm3.h **** 
 729:D:\workspace_gnu\RTT_Demo0\src\lib\lpc177x_8x\Core\CMSIS\Include\core_cm3.h **** #define MPU_RASR_SIZE_Pos                   1                                             /*!< MPU 
 730:D:\workspace_gnu\RTT_Demo0\src\lib\lpc177x_8x\Core\CMSIS\Include\core_cm3.h **** #define MPU_RASR_SIZE_Msk                  (0x1FUL << MPU_RASR_SIZE_Pos)                  /*!< MPU 
 731:D:\workspace_gnu\RTT_Demo0\src\lib\lpc177x_8x\Core\CMSIS\Include\core_cm3.h **** 
 732:D:\workspace_gnu\RTT_Demo0\src\lib\lpc177x_8x\Core\CMSIS\Include\core_cm3.h **** #define MPU_RASR_ENABLE_Pos                 0                                             /*!< MPU 
 733:D:\workspace_gnu\RTT_Demo0\src\lib\lpc177x_8x\Core\CMSIS\Include\core_cm3.h **** #define MPU_RASR_ENABLE_Msk                (1UL << MPU_RASR_ENABLE_Pos)                   /*!< MPU 
 734:D:\workspace_gnu\RTT_Demo0\src\lib\lpc177x_8x\Core\CMSIS\Include\core_cm3.h **** 
 735:D:\workspace_gnu\RTT_Demo0\src\lib\lpc177x_8x\Core\CMSIS\Include\core_cm3.h **** /*@} end of group CMSIS_MPU */
 736:D:\workspace_gnu\RTT_Demo0\src\lib\lpc177x_8x\Core\CMSIS\Include\core_cm3.h **** #endif
 737:D:\workspace_gnu\RTT_Demo0\src\lib\lpc177x_8x\Core\CMSIS\Include\core_cm3.h **** 
 738:D:\workspace_gnu\RTT_Demo0\src\lib\lpc177x_8x\Core\CMSIS\Include\core_cm3.h **** 
 739:D:\workspace_gnu\RTT_Demo0\src\lib\lpc177x_8x\Core\CMSIS\Include\core_cm3.h **** /** \ingroup  CMSIS_core_register
 740:D:\workspace_gnu\RTT_Demo0\src\lib\lpc177x_8x\Core\CMSIS\Include\core_cm3.h ****     \defgroup CMSIS_CoreDebug CMSIS Core Debug
 741:D:\workspace_gnu\RTT_Demo0\src\lib\lpc177x_8x\Core\CMSIS\Include\core_cm3.h ****   Type definitions for the Cortex-M Core Debug Registers
 742:D:\workspace_gnu\RTT_Demo0\src\lib\lpc177x_8x\Core\CMSIS\Include\core_cm3.h ****   @{
 743:D:\workspace_gnu\RTT_Demo0\src\lib\lpc177x_8x\Core\CMSIS\Include\core_cm3.h ****  */
 744:D:\workspace_gnu\RTT_Demo0\src\lib\lpc177x_8x\Core\CMSIS\Include\core_cm3.h **** 
 745:D:\workspace_gnu\RTT_Demo0\src\lib\lpc177x_8x\Core\CMSIS\Include\core_cm3.h **** /** \brief  Structure type to access the Core Debug Register (CoreDebug).
 746:D:\workspace_gnu\RTT_Demo0\src\lib\lpc177x_8x\Core\CMSIS\Include\core_cm3.h ****  */
 747:D:\workspace_gnu\RTT_Demo0\src\lib\lpc177x_8x\Core\CMSIS\Include\core_cm3.h **** typedef struct
 748:D:\workspace_gnu\RTT_Demo0\src\lib\lpc177x_8x\Core\CMSIS\Include\core_cm3.h **** {
 749:D:\workspace_gnu\RTT_Demo0\src\lib\lpc177x_8x\Core\CMSIS\Include\core_cm3.h ****   __IO uint32_t DHCSR;                   /*!< Offset: 0x000 (R/W)  Debug Halting Control and Status
 750:D:\workspace_gnu\RTT_Demo0\src\lib\lpc177x_8x\Core\CMSIS\Include\core_cm3.h ****   __O  uint32_t DCRSR;                   /*!< Offset: 0x004 ( /W)  Debug Core Register Selector Reg
 751:D:\workspace_gnu\RTT_Demo0\src\lib\lpc177x_8x\Core\CMSIS\Include\core_cm3.h ****   __IO uint32_t DCRDR;                   /*!< Offset: 0x008 (R/W)  Debug Core Register Data Registe
 752:D:\workspace_gnu\RTT_Demo0\src\lib\lpc177x_8x\Core\CMSIS\Include\core_cm3.h ****   __IO uint32_t DEMCR;                   /*!< Offset: 0x00C (R/W)  Debug Exception and Monitor Cont
 753:D:\workspace_gnu\RTT_Demo0\src\lib\lpc177x_8x\Core\CMSIS\Include\core_cm3.h **** } CoreDebug_Type;
 754:D:\workspace_gnu\RTT_Demo0\src\lib\lpc177x_8x\Core\CMSIS\Include\core_cm3.h **** 
 755:D:\workspace_gnu\RTT_Demo0\src\lib\lpc177x_8x\Core\CMSIS\Include\core_cm3.h **** /* Debug Halting Control and Status Register */
 756:D:\workspace_gnu\RTT_Demo0\src\lib\lpc177x_8x\Core\CMSIS\Include\core_cm3.h **** #define CoreDebug_DHCSR_DBGKEY_Pos         16                                             /*!< Core
 757:D:\workspace_gnu\RTT_Demo0\src\lib\lpc177x_8x\Core\CMSIS\Include\core_cm3.h **** #define CoreDebug_DHCSR_DBGKEY_Msk         (0xFFFFUL << CoreDebug_DHCSR_DBGKEY_Pos)       /*!< Core
 758:D:\workspace_gnu\RTT_Demo0\src\lib\lpc177x_8x\Core\CMSIS\Include\core_cm3.h **** 
 759:D:\workspace_gnu\RTT_Demo0\src\lib\lpc177x_8x\Core\CMSIS\Include\core_cm3.h **** #define CoreDebug_DHCSR_S_RESET_ST_Pos     25                                             /*!< Core
 760:D:\workspace_gnu\RTT_Demo0\src\lib\lpc177x_8x\Core\CMSIS\Include\core_cm3.h **** #define CoreDebug_DHCSR_S_RESET_ST_Msk     (1UL << CoreDebug_DHCSR_S_RESET_ST_Pos)        /*!< Core
 761:D:\workspace_gnu\RTT_Demo0\src\lib\lpc177x_8x\Core\CMSIS\Include\core_cm3.h **** 
 762:D:\workspace_gnu\RTT_Demo0\src\lib\lpc177x_8x\Core\CMSIS\Include\core_cm3.h **** #define CoreDebug_DHCSR_S_RETIRE_ST_Pos    24                                             /*!< Core
 763:D:\workspace_gnu\RTT_Demo0\src\lib\lpc177x_8x\Core\CMSIS\Include\core_cm3.h **** #define CoreDebug_DHCSR_S_RETIRE_ST_Msk    (1UL << CoreDebug_DHCSR_S_RETIRE_ST_Pos)       /*!< Core
 764:D:\workspace_gnu\RTT_Demo0\src\lib\lpc177x_8x\Core\CMSIS\Include\core_cm3.h **** 
 765:D:\workspace_gnu\RTT_Demo0\src\lib\lpc177x_8x\Core\CMSIS\Include\core_cm3.h **** #define CoreDebug_DHCSR_S_LOCKUP_Pos       19                                             /*!< Core
 766:D:\workspace_gnu\RTT_Demo0\src\lib\lpc177x_8x\Core\CMSIS\Include\core_cm3.h **** #define CoreDebug_DHCSR_S_LOCKUP_Msk       (1UL << CoreDebug_DHCSR_S_LOCKUP_Pos)          /*!< Core
 767:D:\workspace_gnu\RTT_Demo0\src\lib\lpc177x_8x\Core\CMSIS\Include\core_cm3.h **** 
 768:D:\workspace_gnu\RTT_Demo0\src\lib\lpc177x_8x\Core\CMSIS\Include\core_cm3.h **** #define CoreDebug_DHCSR_S_SLEEP_Pos        18                                             /*!< Core
 769:D:\workspace_gnu\RTT_Demo0\src\lib\lpc177x_8x\Core\CMSIS\Include\core_cm3.h **** #define CoreDebug_DHCSR_S_SLEEP_Msk        (1UL << CoreDebug_DHCSR_S_SLEEP_Pos)           /*!< Core
 770:D:\workspace_gnu\RTT_Demo0\src\lib\lpc177x_8x\Core\CMSIS\Include\core_cm3.h **** 
 771:D:\workspace_gnu\RTT_Demo0\src\lib\lpc177x_8x\Core\CMSIS\Include\core_cm3.h **** #define CoreDebug_DHCSR_S_HALT_Pos         17                                             /*!< Core
 772:D:\workspace_gnu\RTT_Demo0\src\lib\lpc177x_8x\Core\CMSIS\Include\core_cm3.h **** #define CoreDebug_DHCSR_S_HALT_Msk         (1UL << CoreDebug_DHCSR_S_HALT_Pos)            /*!< Core
 773:D:\workspace_gnu\RTT_Demo0\src\lib\lpc177x_8x\Core\CMSIS\Include\core_cm3.h **** 
 774:D:\workspace_gnu\RTT_Demo0\src\lib\lpc177x_8x\Core\CMSIS\Include\core_cm3.h **** #define CoreDebug_DHCSR_S_REGRDY_Pos       16                                             /*!< Core
 775:D:\workspace_gnu\RTT_Demo0\src\lib\lpc177x_8x\Core\CMSIS\Include\core_cm3.h **** #define CoreDebug_DHCSR_S_REGRDY_Msk       (1UL << CoreDebug_DHCSR_S_REGRDY_Pos)          /*!< Core
 776:D:\workspace_gnu\RTT_Demo0\src\lib\lpc177x_8x\Core\CMSIS\Include\core_cm3.h **** 
 777:D:\workspace_gnu\RTT_Demo0\src\lib\lpc177x_8x\Core\CMSIS\Include\core_cm3.h **** #define CoreDebug_DHCSR_C_SNAPSTALL_Pos     5                                             /*!< Core
 778:D:\workspace_gnu\RTT_Demo0\src\lib\lpc177x_8x\Core\CMSIS\Include\core_cm3.h **** #define CoreDebug_DHCSR_C_SNAPSTALL_Msk    (1UL << CoreDebug_DHCSR_C_SNAPSTALL_Pos)       /*!< Core
 779:D:\workspace_gnu\RTT_Demo0\src\lib\lpc177x_8x\Core\CMSIS\Include\core_cm3.h **** 
 780:D:\workspace_gnu\RTT_Demo0\src\lib\lpc177x_8x\Core\CMSIS\Include\core_cm3.h **** #define CoreDebug_DHCSR_C_MASKINTS_Pos      3                                             /*!< Core
 781:D:\workspace_gnu\RTT_Demo0\src\lib\lpc177x_8x\Core\CMSIS\Include\core_cm3.h **** #define CoreDebug_DHCSR_C_MASKINTS_Msk     (1UL << CoreDebug_DHCSR_C_MASKINTS_Pos)        /*!< Core
 782:D:\workspace_gnu\RTT_Demo0\src\lib\lpc177x_8x\Core\CMSIS\Include\core_cm3.h **** 
 783:D:\workspace_gnu\RTT_Demo0\src\lib\lpc177x_8x\Core\CMSIS\Include\core_cm3.h **** #define CoreDebug_DHCSR_C_STEP_Pos          2                                             /*!< Core
 784:D:\workspace_gnu\RTT_Demo0\src\lib\lpc177x_8x\Core\CMSIS\Include\core_cm3.h **** #define CoreDebug_DHCSR_C_STEP_Msk         (1UL << CoreDebug_DHCSR_C_STEP_Pos)            /*!< Core
 785:D:\workspace_gnu\RTT_Demo0\src\lib\lpc177x_8x\Core\CMSIS\Include\core_cm3.h **** 
 786:D:\workspace_gnu\RTT_Demo0\src\lib\lpc177x_8x\Core\CMSIS\Include\core_cm3.h **** #define CoreDebug_DHCSR_C_HALT_Pos          1                                             /*!< Core
 787:D:\workspace_gnu\RTT_Demo0\src\lib\lpc177x_8x\Core\CMSIS\Include\core_cm3.h **** #define CoreDebug_DHCSR_C_HALT_Msk         (1UL << CoreDebug_DHCSR_C_HALT_Pos)            /*!< Core
 788:D:\workspace_gnu\RTT_Demo0\src\lib\lpc177x_8x\Core\CMSIS\Include\core_cm3.h **** 
 789:D:\workspace_gnu\RTT_Demo0\src\lib\lpc177x_8x\Core\CMSIS\Include\core_cm3.h **** #define CoreDebug_DHCSR_C_DEBUGEN_Pos       0                                             /*!< Core
 790:D:\workspace_gnu\RTT_Demo0\src\lib\lpc177x_8x\Core\CMSIS\Include\core_cm3.h **** #define CoreDebug_DHCSR_C_DEBUGEN_Msk      (1UL << CoreDebug_DHCSR_C_DEBUGEN_Pos)         /*!< Core
 791:D:\workspace_gnu\RTT_Demo0\src\lib\lpc177x_8x\Core\CMSIS\Include\core_cm3.h **** 
 792:D:\workspace_gnu\RTT_Demo0\src\lib\lpc177x_8x\Core\CMSIS\Include\core_cm3.h **** /* Debug Core Register Selector Register */
 793:D:\workspace_gnu\RTT_Demo0\src\lib\lpc177x_8x\Core\CMSIS\Include\core_cm3.h **** #define CoreDebug_DCRSR_REGWnR_Pos         16                                             /*!< Core
 794:D:\workspace_gnu\RTT_Demo0\src\lib\lpc177x_8x\Core\CMSIS\Include\core_cm3.h **** #define CoreDebug_DCRSR_REGWnR_Msk         (1UL << CoreDebug_DCRSR_REGWnR_Pos)            /*!< Core
 795:D:\workspace_gnu\RTT_Demo0\src\lib\lpc177x_8x\Core\CMSIS\Include\core_cm3.h **** 
 796:D:\workspace_gnu\RTT_Demo0\src\lib\lpc177x_8x\Core\CMSIS\Include\core_cm3.h **** #define CoreDebug_DCRSR_REGSEL_Pos          0                                             /*!< Core
 797:D:\workspace_gnu\RTT_Demo0\src\lib\lpc177x_8x\Core\CMSIS\Include\core_cm3.h **** #define CoreDebug_DCRSR_REGSEL_Msk         (0x1FUL << CoreDebug_DCRSR_REGSEL_Pos)         /*!< Core
 798:D:\workspace_gnu\RTT_Demo0\src\lib\lpc177x_8x\Core\CMSIS\Include\core_cm3.h **** 
 799:D:\workspace_gnu\RTT_Demo0\src\lib\lpc177x_8x\Core\CMSIS\Include\core_cm3.h **** /* Debug Exception and Monitor Control Register */
 800:D:\workspace_gnu\RTT_Demo0\src\lib\lpc177x_8x\Core\CMSIS\Include\core_cm3.h **** #define CoreDebug_DEMCR_TRCENA_Pos         24                                             /*!< Core
 801:D:\workspace_gnu\RTT_Demo0\src\lib\lpc177x_8x\Core\CMSIS\Include\core_cm3.h **** #define CoreDebug_DEMCR_TRCENA_Msk         (1UL << CoreDebug_DEMCR_TRCENA_Pos)            /*!< Core
 802:D:\workspace_gnu\RTT_Demo0\src\lib\lpc177x_8x\Core\CMSIS\Include\core_cm3.h **** 
 803:D:\workspace_gnu\RTT_Demo0\src\lib\lpc177x_8x\Core\CMSIS\Include\core_cm3.h **** #define CoreDebug_DEMCR_MON_REQ_Pos        19                                             /*!< Core
 804:D:\workspace_gnu\RTT_Demo0\src\lib\lpc177x_8x\Core\CMSIS\Include\core_cm3.h **** #define CoreDebug_DEMCR_MON_REQ_Msk        (1UL << CoreDebug_DEMCR_MON_REQ_Pos)           /*!< Core
 805:D:\workspace_gnu\RTT_Demo0\src\lib\lpc177x_8x\Core\CMSIS\Include\core_cm3.h **** 
 806:D:\workspace_gnu\RTT_Demo0\src\lib\lpc177x_8x\Core\CMSIS\Include\core_cm3.h **** #define CoreDebug_DEMCR_MON_STEP_Pos       18                                             /*!< Core
 807:D:\workspace_gnu\RTT_Demo0\src\lib\lpc177x_8x\Core\CMSIS\Include\core_cm3.h **** #define CoreDebug_DEMCR_MON_STEP_Msk       (1UL << CoreDebug_DEMCR_MON_STEP_Pos)          /*!< Core
 808:D:\workspace_gnu\RTT_Demo0\src\lib\lpc177x_8x\Core\CMSIS\Include\core_cm3.h **** 
 809:D:\workspace_gnu\RTT_Demo0\src\lib\lpc177x_8x\Core\CMSIS\Include\core_cm3.h **** #define CoreDebug_DEMCR_MON_PEND_Pos       17                                             /*!< Core
 810:D:\workspace_gnu\RTT_Demo0\src\lib\lpc177x_8x\Core\CMSIS\Include\core_cm3.h **** #define CoreDebug_DEMCR_MON_PEND_Msk       (1UL << CoreDebug_DEMCR_MON_PEND_Pos)          /*!< Core
 811:D:\workspace_gnu\RTT_Demo0\src\lib\lpc177x_8x\Core\CMSIS\Include\core_cm3.h **** 
 812:D:\workspace_gnu\RTT_Demo0\src\lib\lpc177x_8x\Core\CMSIS\Include\core_cm3.h **** #define CoreDebug_DEMCR_MON_EN_Pos         16                                             /*!< Core
 813:D:\workspace_gnu\RTT_Demo0\src\lib\lpc177x_8x\Core\CMSIS\Include\core_cm3.h **** #define CoreDebug_DEMCR_MON_EN_Msk         (1UL << CoreDebug_DEMCR_MON_EN_Pos)            /*!< Core
 814:D:\workspace_gnu\RTT_Demo0\src\lib\lpc177x_8x\Core\CMSIS\Include\core_cm3.h **** 
 815:D:\workspace_gnu\RTT_Demo0\src\lib\lpc177x_8x\Core\CMSIS\Include\core_cm3.h **** #define CoreDebug_DEMCR_VC_HARDERR_Pos     10                                             /*!< Core
 816:D:\workspace_gnu\RTT_Demo0\src\lib\lpc177x_8x\Core\CMSIS\Include\core_cm3.h **** #define CoreDebug_DEMCR_VC_HARDERR_Msk     (1UL << CoreDebug_DEMCR_VC_HARDERR_Pos)        /*!< Core
 817:D:\workspace_gnu\RTT_Demo0\src\lib\lpc177x_8x\Core\CMSIS\Include\core_cm3.h **** 
 818:D:\workspace_gnu\RTT_Demo0\src\lib\lpc177x_8x\Core\CMSIS\Include\core_cm3.h **** #define CoreDebug_DEMCR_VC_INTERR_Pos       9                                             /*!< Core
 819:D:\workspace_gnu\RTT_Demo0\src\lib\lpc177x_8x\Core\CMSIS\Include\core_cm3.h **** #define CoreDebug_DEMCR_VC_INTERR_Msk      (1UL << CoreDebug_DEMCR_VC_INTERR_Pos)         /*!< Core
 820:D:\workspace_gnu\RTT_Demo0\src\lib\lpc177x_8x\Core\CMSIS\Include\core_cm3.h **** 
 821:D:\workspace_gnu\RTT_Demo0\src\lib\lpc177x_8x\Core\CMSIS\Include\core_cm3.h **** #define CoreDebug_DEMCR_VC_BUSERR_Pos       8                                             /*!< Core
 822:D:\workspace_gnu\RTT_Demo0\src\lib\lpc177x_8x\Core\CMSIS\Include\core_cm3.h **** #define CoreDebug_DEMCR_VC_BUSERR_Msk      (1UL << CoreDebug_DEMCR_VC_BUSERR_Pos)         /*!< Core
 823:D:\workspace_gnu\RTT_Demo0\src\lib\lpc177x_8x\Core\CMSIS\Include\core_cm3.h **** 
 824:D:\workspace_gnu\RTT_Demo0\src\lib\lpc177x_8x\Core\CMSIS\Include\core_cm3.h **** #define CoreDebug_DEMCR_VC_STATERR_Pos      7                                             /*!< Core
 825:D:\workspace_gnu\RTT_Demo0\src\lib\lpc177x_8x\Core\CMSIS\Include\core_cm3.h **** #define CoreDebug_DEMCR_VC_STATERR_Msk     (1UL << CoreDebug_DEMCR_VC_STATERR_Pos)        /*!< Core
 826:D:\workspace_gnu\RTT_Demo0\src\lib\lpc177x_8x\Core\CMSIS\Include\core_cm3.h **** 
 827:D:\workspace_gnu\RTT_Demo0\src\lib\lpc177x_8x\Core\CMSIS\Include\core_cm3.h **** #define CoreDebug_DEMCR_VC_CHKERR_Pos       6                                             /*!< Core
 828:D:\workspace_gnu\RTT_Demo0\src\lib\lpc177x_8x\Core\CMSIS\Include\core_cm3.h **** #define CoreDebug_DEMCR_VC_CHKERR_Msk      (1UL << CoreDebug_DEMCR_VC_CHKERR_Pos)         /*!< Core
 829:D:\workspace_gnu\RTT_Demo0\src\lib\lpc177x_8x\Core\CMSIS\Include\core_cm3.h **** 
 830:D:\workspace_gnu\RTT_Demo0\src\lib\lpc177x_8x\Core\CMSIS\Include\core_cm3.h **** #define CoreDebug_DEMCR_VC_NOCPERR_Pos      5                                             /*!< Core
 831:D:\workspace_gnu\RTT_Demo0\src\lib\lpc177x_8x\Core\CMSIS\Include\core_cm3.h **** #define CoreDebug_DEMCR_VC_NOCPERR_Msk     (1UL << CoreDebug_DEMCR_VC_NOCPERR_Pos)        /*!< Core
 832:D:\workspace_gnu\RTT_Demo0\src\lib\lpc177x_8x\Core\CMSIS\Include\core_cm3.h **** 
 833:D:\workspace_gnu\RTT_Demo0\src\lib\lpc177x_8x\Core\CMSIS\Include\core_cm3.h **** #define CoreDebug_DEMCR_VC_MMERR_Pos        4                                             /*!< Core
 834:D:\workspace_gnu\RTT_Demo0\src\lib\lpc177x_8x\Core\CMSIS\Include\core_cm3.h **** #define CoreDebug_DEMCR_VC_MMERR_Msk       (1UL << CoreDebug_DEMCR_VC_MMERR_Pos)          /*!< Core
 835:D:\workspace_gnu\RTT_Demo0\src\lib\lpc177x_8x\Core\CMSIS\Include\core_cm3.h **** 
 836:D:\workspace_gnu\RTT_Demo0\src\lib\lpc177x_8x\Core\CMSIS\Include\core_cm3.h **** #define CoreDebug_DEMCR_VC_CORERESET_Pos    0                                             /*!< Core
 837:D:\workspace_gnu\RTT_Demo0\src\lib\lpc177x_8x\Core\CMSIS\Include\core_cm3.h **** #define CoreDebug_DEMCR_VC_CORERESET_Msk   (1UL << CoreDebug_DEMCR_VC_CORERESET_Pos)      /*!< Core
 838:D:\workspace_gnu\RTT_Demo0\src\lib\lpc177x_8x\Core\CMSIS\Include\core_cm3.h **** 
 839:D:\workspace_gnu\RTT_Demo0\src\lib\lpc177x_8x\Core\CMSIS\Include\core_cm3.h **** /*@} end of group CMSIS_CoreDebug */
 840:D:\workspace_gnu\RTT_Demo0\src\lib\lpc177x_8x\Core\CMSIS\Include\core_cm3.h **** 
 841:D:\workspace_gnu\RTT_Demo0\src\lib\lpc177x_8x\Core\CMSIS\Include\core_cm3.h **** 
 842:D:\workspace_gnu\RTT_Demo0\src\lib\lpc177x_8x\Core\CMSIS\Include\core_cm3.h **** /** \ingroup  CMSIS_core_register
 843:D:\workspace_gnu\RTT_Demo0\src\lib\lpc177x_8x\Core\CMSIS\Include\core_cm3.h ****   @{
 844:D:\workspace_gnu\RTT_Demo0\src\lib\lpc177x_8x\Core\CMSIS\Include\core_cm3.h ****  */
 845:D:\workspace_gnu\RTT_Demo0\src\lib\lpc177x_8x\Core\CMSIS\Include\core_cm3.h **** 
 846:D:\workspace_gnu\RTT_Demo0\src\lib\lpc177x_8x\Core\CMSIS\Include\core_cm3.h **** /* Memory mapping of Cortex-M3 Hardware */
 847:D:\workspace_gnu\RTT_Demo0\src\lib\lpc177x_8x\Core\CMSIS\Include\core_cm3.h **** #define SCS_BASE            (0xE000E000UL)                            /*!< System Control Space Bas
 848:D:\workspace_gnu\RTT_Demo0\src\lib\lpc177x_8x\Core\CMSIS\Include\core_cm3.h **** #define ITM_BASE            (0xE0000000UL)                            /*!< ITM Base Address        
 849:D:\workspace_gnu\RTT_Demo0\src\lib\lpc177x_8x\Core\CMSIS\Include\core_cm3.h **** #define CoreDebug_BASE      (0xE000EDF0UL)                            /*!< Core Debug Base Address 
 850:D:\workspace_gnu\RTT_Demo0\src\lib\lpc177x_8x\Core\CMSIS\Include\core_cm3.h **** #define SysTick_BASE        (SCS_BASE +  0x0010UL)                    /*!< SysTick Base Address    
 851:D:\workspace_gnu\RTT_Demo0\src\lib\lpc177x_8x\Core\CMSIS\Include\core_cm3.h **** #define NVIC_BASE           (SCS_BASE +  0x0100UL)                    /*!< NVIC Base Address       
 852:D:\workspace_gnu\RTT_Demo0\src\lib\lpc177x_8x\Core\CMSIS\Include\core_cm3.h **** #define SCB_BASE            (SCS_BASE +  0x0D00UL)                    /*!< System Control Block Bas
 853:D:\workspace_gnu\RTT_Demo0\src\lib\lpc177x_8x\Core\CMSIS\Include\core_cm3.h **** 
 854:D:\workspace_gnu\RTT_Demo0\src\lib\lpc177x_8x\Core\CMSIS\Include\core_cm3.h **** #define SCnSCB              ((SCnSCB_Type    *)     SCS_BASE      )   /*!< System control Register 
 855:D:\workspace_gnu\RTT_Demo0\src\lib\lpc177x_8x\Core\CMSIS\Include\core_cm3.h **** #define SCB                 ((SCB_Type       *)     SCB_BASE      )   /*!< SCB configuration struct
 856:D:\workspace_gnu\RTT_Demo0\src\lib\lpc177x_8x\Core\CMSIS\Include\core_cm3.h **** #define SysTick             ((SysTick_Type   *)     SysTick_BASE  )   /*!< SysTick configuration st
 857:D:\workspace_gnu\RTT_Demo0\src\lib\lpc177x_8x\Core\CMSIS\Include\core_cm3.h **** #define NVIC                ((NVIC_Type      *)     NVIC_BASE     )   /*!< NVIC configuration struc
 858:D:\workspace_gnu\RTT_Demo0\src\lib\lpc177x_8x\Core\CMSIS\Include\core_cm3.h **** #define ITM                 ((ITM_Type       *)     ITM_BASE      )   /*!< ITM configuration struct
 859:D:\workspace_gnu\RTT_Demo0\src\lib\lpc177x_8x\Core\CMSIS\Include\core_cm3.h **** #define CoreDebug           ((CoreDebug_Type *)     CoreDebug_BASE)   /*!< Core Debug configuration
 860:D:\workspace_gnu\RTT_Demo0\src\lib\lpc177x_8x\Core\CMSIS\Include\core_cm3.h **** 
 861:D:\workspace_gnu\RTT_Demo0\src\lib\lpc177x_8x\Core\CMSIS\Include\core_cm3.h **** #if (__MPU_PRESENT == 1)
 862:D:\workspace_gnu\RTT_Demo0\src\lib\lpc177x_8x\Core\CMSIS\Include\core_cm3.h ****   #define MPU_BASE          (SCS_BASE +  0x0D90UL)                    /*!< Memory Protection Unit  
 863:D:\workspace_gnu\RTT_Demo0\src\lib\lpc177x_8x\Core\CMSIS\Include\core_cm3.h ****   #define MPU               ((MPU_Type       *)     MPU_BASE      )   /*!< Memory Protection Unit  
 864:D:\workspace_gnu\RTT_Demo0\src\lib\lpc177x_8x\Core\CMSIS\Include\core_cm3.h **** #endif
 865:D:\workspace_gnu\RTT_Demo0\src\lib\lpc177x_8x\Core\CMSIS\Include\core_cm3.h **** 
 866:D:\workspace_gnu\RTT_Demo0\src\lib\lpc177x_8x\Core\CMSIS\Include\core_cm3.h **** /*@} */
 867:D:\workspace_gnu\RTT_Demo0\src\lib\lpc177x_8x\Core\CMSIS\Include\core_cm3.h **** 
 868:D:\workspace_gnu\RTT_Demo0\src\lib\lpc177x_8x\Core\CMSIS\Include\core_cm3.h **** 
 869:D:\workspace_gnu\RTT_Demo0\src\lib\lpc177x_8x\Core\CMSIS\Include\core_cm3.h **** 
 870:D:\workspace_gnu\RTT_Demo0\src\lib\lpc177x_8x\Core\CMSIS\Include\core_cm3.h **** /*******************************************************************************
 871:D:\workspace_gnu\RTT_Demo0\src\lib\lpc177x_8x\Core\CMSIS\Include\core_cm3.h ****  *                Hardware Abstraction Layer
 872:D:\workspace_gnu\RTT_Demo0\src\lib\lpc177x_8x\Core\CMSIS\Include\core_cm3.h ****  ******************************************************************************/
 873:D:\workspace_gnu\RTT_Demo0\src\lib\lpc177x_8x\Core\CMSIS\Include\core_cm3.h **** /** \defgroup CMSIS_Core_FunctionInterface CMSIS Core Function Interface
 874:D:\workspace_gnu\RTT_Demo0\src\lib\lpc177x_8x\Core\CMSIS\Include\core_cm3.h ****   * @ingroup CMSIS_Core
 875:D:\workspace_gnu\RTT_Demo0\src\lib\lpc177x_8x\Core\CMSIS\Include\core_cm3.h ****   Core Function Interface contains:
 876:D:\workspace_gnu\RTT_Demo0\src\lib\lpc177x_8x\Core\CMSIS\Include\core_cm3.h ****   - Core NVIC Functions
 877:D:\workspace_gnu\RTT_Demo0\src\lib\lpc177x_8x\Core\CMSIS\Include\core_cm3.h ****   - Core SysTick Functions
 878:D:\workspace_gnu\RTT_Demo0\src\lib\lpc177x_8x\Core\CMSIS\Include\core_cm3.h ****   - Core Debug Functions
 879:D:\workspace_gnu\RTT_Demo0\src\lib\lpc177x_8x\Core\CMSIS\Include\core_cm3.h ****   - Core Register Access Functions
 880:D:\workspace_gnu\RTT_Demo0\src\lib\lpc177x_8x\Core\CMSIS\Include\core_cm3.h **** */
 881:D:\workspace_gnu\RTT_Demo0\src\lib\lpc177x_8x\Core\CMSIS\Include\core_cm3.h **** 
 882:D:\workspace_gnu\RTT_Demo0\src\lib\lpc177x_8x\Core\CMSIS\Include\core_cm3.h **** 
 883:D:\workspace_gnu\RTT_Demo0\src\lib\lpc177x_8x\Core\CMSIS\Include\core_cm3.h **** 
 884:D:\workspace_gnu\RTT_Demo0\src\lib\lpc177x_8x\Core\CMSIS\Include\core_cm3.h **** /* ##########################   NVIC functions  #################################### */
 885:D:\workspace_gnu\RTT_Demo0\src\lib\lpc177x_8x\Core\CMSIS\Include\core_cm3.h **** /** \ingroup  CMSIS_Core_FunctionInterface
 886:D:\workspace_gnu\RTT_Demo0\src\lib\lpc177x_8x\Core\CMSIS\Include\core_cm3.h ****     \defgroup CMSIS_Core_NVICFunctions CMSIS Core NVIC Functions
 887:D:\workspace_gnu\RTT_Demo0\src\lib\lpc177x_8x\Core\CMSIS\Include\core_cm3.h ****   @{
 888:D:\workspace_gnu\RTT_Demo0\src\lib\lpc177x_8x\Core\CMSIS\Include\core_cm3.h ****  */
 889:D:\workspace_gnu\RTT_Demo0\src\lib\lpc177x_8x\Core\CMSIS\Include\core_cm3.h **** 
 890:D:\workspace_gnu\RTT_Demo0\src\lib\lpc177x_8x\Core\CMSIS\Include\core_cm3.h **** /** \brief  Set Priority Grouping
 891:D:\workspace_gnu\RTT_Demo0\src\lib\lpc177x_8x\Core\CMSIS\Include\core_cm3.h **** 
 892:D:\workspace_gnu\RTT_Demo0\src\lib\lpc177x_8x\Core\CMSIS\Include\core_cm3.h ****   This function sets the priority grouping field using the required unlock sequence.
 893:D:\workspace_gnu\RTT_Demo0\src\lib\lpc177x_8x\Core\CMSIS\Include\core_cm3.h ****   The parameter PriorityGroup is assigned to the field SCB->AIRCR [10:8] PRIGROUP field.
 894:D:\workspace_gnu\RTT_Demo0\src\lib\lpc177x_8x\Core\CMSIS\Include\core_cm3.h ****   Only values from 0..7 are used.
 895:D:\workspace_gnu\RTT_Demo0\src\lib\lpc177x_8x\Core\CMSIS\Include\core_cm3.h ****   In case of a conflict between priority grouping and available
 896:D:\workspace_gnu\RTT_Demo0\src\lib\lpc177x_8x\Core\CMSIS\Include\core_cm3.h ****   priority bits (__NVIC_PRIO_BITS) the smallest possible priority group is set.
 897:D:\workspace_gnu\RTT_Demo0\src\lib\lpc177x_8x\Core\CMSIS\Include\core_cm3.h **** 
 898:D:\workspace_gnu\RTT_Demo0\src\lib\lpc177x_8x\Core\CMSIS\Include\core_cm3.h ****     \param [in]      PriorityGroup  Priority grouping field
 899:D:\workspace_gnu\RTT_Demo0\src\lib\lpc177x_8x\Core\CMSIS\Include\core_cm3.h ****  */
 900:D:\workspace_gnu\RTT_Demo0\src\lib\lpc177x_8x\Core\CMSIS\Include\core_cm3.h **** static __INLINE void NVIC_SetPriorityGrouping(uint32_t PriorityGroup)
 901:D:\workspace_gnu\RTT_Demo0\src\lib\lpc177x_8x\Core\CMSIS\Include\core_cm3.h **** {
 902:D:\workspace_gnu\RTT_Demo0\src\lib\lpc177x_8x\Core\CMSIS\Include\core_cm3.h ****   uint32_t reg_value;
 903:D:\workspace_gnu\RTT_Demo0\src\lib\lpc177x_8x\Core\CMSIS\Include\core_cm3.h ****   uint32_t PriorityGroupTmp = (PriorityGroup & (uint32_t)0x07);               /* only values 0..7 a
 904:D:\workspace_gnu\RTT_Demo0\src\lib\lpc177x_8x\Core\CMSIS\Include\core_cm3.h **** 
 905:D:\workspace_gnu\RTT_Demo0\src\lib\lpc177x_8x\Core\CMSIS\Include\core_cm3.h ****   reg_value  =  SCB->AIRCR;                                                   /* read old register 
 906:D:\workspace_gnu\RTT_Demo0\src\lib\lpc177x_8x\Core\CMSIS\Include\core_cm3.h ****   reg_value &= ~(SCB_AIRCR_VECTKEY_Msk | SCB_AIRCR_PRIGROUP_Msk);             /* clear bits to chan
 907:D:\workspace_gnu\RTT_Demo0\src\lib\lpc177x_8x\Core\CMSIS\Include\core_cm3.h ****   reg_value  =  (reg_value                                 |
 908:D:\workspace_gnu\RTT_Demo0\src\lib\lpc177x_8x\Core\CMSIS\Include\core_cm3.h ****                 ((uint32_t)0x5FA << SCB_AIRCR_VECTKEY_Pos) |
 909:D:\workspace_gnu\RTT_Demo0\src\lib\lpc177x_8x\Core\CMSIS\Include\core_cm3.h ****                 (PriorityGroupTmp << 8));                                     /* Insert write key a
 910:D:\workspace_gnu\RTT_Demo0\src\lib\lpc177x_8x\Core\CMSIS\Include\core_cm3.h ****   SCB->AIRCR =  reg_value;
 911:D:\workspace_gnu\RTT_Demo0\src\lib\lpc177x_8x\Core\CMSIS\Include\core_cm3.h **** }
 912:D:\workspace_gnu\RTT_Demo0\src\lib\lpc177x_8x\Core\CMSIS\Include\core_cm3.h **** 
 913:D:\workspace_gnu\RTT_Demo0\src\lib\lpc177x_8x\Core\CMSIS\Include\core_cm3.h **** 
 914:D:\workspace_gnu\RTT_Demo0\src\lib\lpc177x_8x\Core\CMSIS\Include\core_cm3.h **** /** \brief  Get Priority Grouping
 915:D:\workspace_gnu\RTT_Demo0\src\lib\lpc177x_8x\Core\CMSIS\Include\core_cm3.h **** 
 916:D:\workspace_gnu\RTT_Demo0\src\lib\lpc177x_8x\Core\CMSIS\Include\core_cm3.h ****   This function gets the priority grouping from NVIC Interrupt Controller.
 917:D:\workspace_gnu\RTT_Demo0\src\lib\lpc177x_8x\Core\CMSIS\Include\core_cm3.h ****   Priority grouping is SCB->AIRCR [10:8] PRIGROUP field.
 918:D:\workspace_gnu\RTT_Demo0\src\lib\lpc177x_8x\Core\CMSIS\Include\core_cm3.h **** 
 919:D:\workspace_gnu\RTT_Demo0\src\lib\lpc177x_8x\Core\CMSIS\Include\core_cm3.h ****     \return                Priority grouping field
 920:D:\workspace_gnu\RTT_Demo0\src\lib\lpc177x_8x\Core\CMSIS\Include\core_cm3.h ****  */
 921:D:\workspace_gnu\RTT_Demo0\src\lib\lpc177x_8x\Core\CMSIS\Include\core_cm3.h **** static __INLINE uint32_t NVIC_GetPriorityGrouping(void)
 922:D:\workspace_gnu\RTT_Demo0\src\lib\lpc177x_8x\Core\CMSIS\Include\core_cm3.h **** {
 923:D:\workspace_gnu\RTT_Demo0\src\lib\lpc177x_8x\Core\CMSIS\Include\core_cm3.h ****   return ((SCB->AIRCR & SCB_AIRCR_PRIGROUP_Msk) >> SCB_AIRCR_PRIGROUP_Pos);   /* read priority grou
 924:D:\workspace_gnu\RTT_Demo0\src\lib\lpc177x_8x\Core\CMSIS\Include\core_cm3.h **** }
 925:D:\workspace_gnu\RTT_Demo0\src\lib\lpc177x_8x\Core\CMSIS\Include\core_cm3.h **** 
 926:D:\workspace_gnu\RTT_Demo0\src\lib\lpc177x_8x\Core\CMSIS\Include\core_cm3.h **** 
 927:D:\workspace_gnu\RTT_Demo0\src\lib\lpc177x_8x\Core\CMSIS\Include\core_cm3.h **** /** \brief  Enable External Interrupt
 928:D:\workspace_gnu\RTT_Demo0\src\lib\lpc177x_8x\Core\CMSIS\Include\core_cm3.h **** 
 929:D:\workspace_gnu\RTT_Demo0\src\lib\lpc177x_8x\Core\CMSIS\Include\core_cm3.h ****     This function enables a device specific interrupt in the NVIC interrupt controller.
 930:D:\workspace_gnu\RTT_Demo0\src\lib\lpc177x_8x\Core\CMSIS\Include\core_cm3.h ****     The interrupt number cannot be a negative value.
 931:D:\workspace_gnu\RTT_Demo0\src\lib\lpc177x_8x\Core\CMSIS\Include\core_cm3.h **** 
 932:D:\workspace_gnu\RTT_Demo0\src\lib\lpc177x_8x\Core\CMSIS\Include\core_cm3.h ****     \param [in]      IRQn  Number of the external interrupt to enable
 933:D:\workspace_gnu\RTT_Demo0\src\lib\lpc177x_8x\Core\CMSIS\Include\core_cm3.h ****  */
 934:D:\workspace_gnu\RTT_Demo0\src\lib\lpc177x_8x\Core\CMSIS\Include\core_cm3.h **** static __INLINE void NVIC_EnableIRQ(IRQn_Type IRQn)
 935:D:\workspace_gnu\RTT_Demo0\src\lib\lpc177x_8x\Core\CMSIS\Include\core_cm3.h **** {
  25              		.loc 1 935 0
  26              		.cfi_startproc
  27              		@ args = 0, pretend = 0, frame = 8
  28              		@ frame_needed = 1, uses_anonymous_args = 0
  29              		@ link register save eliminated.
  30 0000 80B4     		push	{r7}
  31              	.LCFI0:
  32              		.cfi_def_cfa_offset 4
  33              		.cfi_offset 7, -4
  34 0002 83B0     		sub	sp, sp, #12
  35              	.LCFI1:
  36              		.cfi_def_cfa_offset 16
  37 0004 00AF     		add	r7, sp, #0
  38              	.LCFI2:
  39              		.cfi_def_cfa_register 7
  40 0006 0346     		mov	r3, r0
  41 0008 FB71     		strb	r3, [r7, #7]
 936:D:\workspace_gnu\RTT_Demo0\src\lib\lpc177x_8x\Core\CMSIS\Include\core_cm3.h ****   NVIC->ISER[((uint32_t)(IRQn) >> 5)] = (1 << ((uint32_t)(IRQn) & 0x1F)); /* enable interrupt */
  42              		.loc 1 936 0
  43 000a 094B     		ldr	r3, .L2
  44 000c 97F90720 		ldrsb	r2, [r7, #7]
  45 0010 4FEA5212 		lsr	r2, r2, #5
  46 0014 F979     		ldrb	r1, [r7, #7]	@ zero_extendqisi2
  47 0016 01F01F01 		and	r1, r1, #31
  48 001a 4FF00100 		mov	r0, #1
  49 001e 00FA01F1 		lsl	r1, r0, r1
  50 0022 43F82210 		str	r1, [r3, r2, lsl #2]
 937:D:\workspace_gnu\RTT_Demo0\src\lib\lpc177x_8x\Core\CMSIS\Include\core_cm3.h **** }
  51              		.loc 1 937 0
  52 0026 07F10C07 		add	r7, r7, #12
  53 002a BD46     		mov	sp, r7
  54 002c 80BC     		pop	{r7}
  55 002e 7047     		bx	lr
  56              	.L3:
  57              		.align	2
  58              	.L2:
  59 0030 00E100E0 		.word	-536813312
  60              		.cfi_endproc
  61              	.LFE40:
  63              		.global	Mci_Data_Xfer_End
  64              		.bss
  65              		.align	2
  68              	Mci_Data_Xfer_End:
  69 0000 00000000 		.space	4
  70              		.global	Mci_Data_Xfer_ERR
  71              		.align	2
  74              	Mci_Data_Xfer_ERR:
  75 0004 00000000 		.space	4
  76              		.global	fifo_plane
  79              	fifo_plane:
  80 0008 00       		.space	1
  81              		.comm	CardRCA,4,4
  82              		.comm	CCS,1,1
  83              		.comm	MCI_CardType,1,1
  84              		.comm	dmaWrCh_TermianalCnt,4,4
  85              		.comm	dmaWrCh_ErrorCnt,4,4
  86              		.comm	dmaRdCh_TermianalCnt,4,4
  87              		.comm	dmaRdCh_ErrorCnt,4,4
  88              		.global	dataSrcBlock
  89              		.data
  90              		.align	2
  93              	dataSrcBlock:
  94 0000 00000020 		.word	536870912
  95              		.global	dataDestBlock
  96              		.align	2
  99              	dataDestBlock:
 100 0004 E8030020 		.word	536871912
 101              		.global	txBlockCnt
 102              		.bss
 103 0009 000000   		.align	2
 106              	txBlockCnt:
 107 000c 00000000 		.space	4
 108              		.global	rxBlockCnt
 109              		.align	2
 112              	rxBlockCnt:
 113 0010 00000000 		.space	4
 114              		.text
 115              		.align	2
 116              		.global	MCI_SettingDma
 117              		.thumb
 118              		.thumb_func
 120              	MCI_SettingDma:
 121              	.LFB55:
 122              		.file 2 "../src/lib/lpc177x_8x/Drivers/source/lpc177x_8x_mci.c"
   1:../src/lib/lpc177x_8x/Drivers/source/lpc177x_8x_mci.c **** /**********************************************************************
   2:../src/lib/lpc177x_8x/Drivers/source/lpc177x_8x_mci.c **** * $Id$         lpc177x_8x_mci.c            2011-06-02
   3:../src/lib/lpc177x_8x/Drivers/source/lpc177x_8x_mci.c **** *//**
   4:../src/lib/lpc177x_8x/Drivers/source/lpc177x_8x_mci.c **** * @file        lpc177x_8x_mci.c
   5:../src/lib/lpc177x_8x/Drivers/source/lpc177x_8x_mci.c **** * @brief       Contains all functions support for MCI firmware library
   6:../src/lib/lpc177x_8x/Drivers/source/lpc177x_8x_mci.c **** *              on LPC177x_8x
   7:../src/lib/lpc177x_8x/Drivers/source/lpc177x_8x_mci.c **** * @version     2.0
   8:../src/lib/lpc177x_8x/Drivers/source/lpc177x_8x_mci.c **** * @date        29. June. 2011
   9:../src/lib/lpc177x_8x/Drivers/source/lpc177x_8x_mci.c **** * @author      NXP MCU SW Application Team
  10:../src/lib/lpc177x_8x/Drivers/source/lpc177x_8x_mci.c **** * 
  11:../src/lib/lpc177x_8x/Drivers/source/lpc177x_8x_mci.c **** * Copyright(C) 2011, NXP Semiconductor
  12:../src/lib/lpc177x_8x/Drivers/source/lpc177x_8x_mci.c **** * All rights reserved.
  13:../src/lib/lpc177x_8x/Drivers/source/lpc177x_8x_mci.c **** *
  14:../src/lib/lpc177x_8x/Drivers/source/lpc177x_8x_mci.c **** ***********************************************************************
  15:../src/lib/lpc177x_8x/Drivers/source/lpc177x_8x_mci.c **** * Software that is described herein is for illustrative purposes only
  16:../src/lib/lpc177x_8x/Drivers/source/lpc177x_8x_mci.c **** * which provides customers with programming information regarding the
  17:../src/lib/lpc177x_8x/Drivers/source/lpc177x_8x_mci.c **** * products. This software is supplied "AS IS" without any warranties.
  18:../src/lib/lpc177x_8x/Drivers/source/lpc177x_8x_mci.c **** * NXP Semiconductors assumes no responsibility or liability for the
  19:../src/lib/lpc177x_8x/Drivers/source/lpc177x_8x_mci.c **** * use of the software, conveys no license or title under any patent,
  20:../src/lib/lpc177x_8x/Drivers/source/lpc177x_8x_mci.c **** * copyright, or mask work right to the product. NXP Semiconductors
  21:../src/lib/lpc177x_8x/Drivers/source/lpc177x_8x_mci.c **** * reserves the right to make changes in the software without
  22:../src/lib/lpc177x_8x/Drivers/source/lpc177x_8x_mci.c **** * notification. NXP Semiconductors also make no representation or
  23:../src/lib/lpc177x_8x/Drivers/source/lpc177x_8x_mci.c **** * warranty that such application will be suitable for the specified
  24:../src/lib/lpc177x_8x/Drivers/source/lpc177x_8x_mci.c **** * use without further testing or modification.
  25:../src/lib/lpc177x_8x/Drivers/source/lpc177x_8x_mci.c **** * Permission to use, copy, modify, and distribute this software and its
  26:../src/lib/lpc177x_8x/Drivers/source/lpc177x_8x_mci.c **** * documentation is hereby granted, under NXP Semiconductors'
  27:../src/lib/lpc177x_8x/Drivers/source/lpc177x_8x_mci.c **** * relevant copyright in the software, without fee, provided that it
  28:../src/lib/lpc177x_8x/Drivers/source/lpc177x_8x_mci.c **** * is used in conjunction with NXP Semiconductors microcontrollers.  This
  29:../src/lib/lpc177x_8x/Drivers/source/lpc177x_8x_mci.c **** * copyright, permission, and disclaimer notice must appear in all copies of
  30:../src/lib/lpc177x_8x/Drivers/source/lpc177x_8x_mci.c **** * this code.
  31:../src/lib/lpc177x_8x/Drivers/source/lpc177x_8x_mci.c **** **********************************************************************/
  32:../src/lib/lpc177x_8x/Drivers/source/lpc177x_8x_mci.c **** #ifdef __BUILD_WITH_EXAMPLE__
  33:../src/lib/lpc177x_8x/Drivers/source/lpc177x_8x_mci.c **** #include "lpc177x_8x_libcfg.h"
  34:../src/lib/lpc177x_8x/Drivers/source/lpc177x_8x_mci.c **** #else
  35:../src/lib/lpc177x_8x/Drivers/source/lpc177x_8x_mci.c **** #include "lpc177x_8x_libcfg_default.h"
  36:../src/lib/lpc177x_8x/Drivers/source/lpc177x_8x_mci.c **** #endif /* __BUILD_WITH_EXAMPLE__ */
  37:../src/lib/lpc177x_8x/Drivers/source/lpc177x_8x_mci.c **** #ifdef _MCI
  38:../src/lib/lpc177x_8x/Drivers/source/lpc177x_8x_mci.c **** 
  39:../src/lib/lpc177x_8x/Drivers/source/lpc177x_8x_mci.c **** #include "LPC177x_8x.h"
  40:../src/lib/lpc177x_8x/Drivers/source/lpc177x_8x_mci.c **** #include "lpc_types.h"
  41:../src/lib/lpc177x_8x/Drivers/source/lpc177x_8x_mci.c **** #include "lpc177x_8x_mci.h"
  42:../src/lib/lpc177x_8x/Drivers/source/lpc177x_8x_mci.c **** #include "lpc177x_8x_gpdma.h"
  43:../src/lib/lpc177x_8x/Drivers/source/lpc177x_8x_mci.c **** #include "lpc177x_8x_clkpwr.h"
  44:../src/lib/lpc177x_8x/Drivers/source/lpc177x_8x_mci.c **** #include "lpc177x_8x_pinsel.h"
  45:../src/lib/lpc177x_8x/Drivers/source/lpc177x_8x_mci.c **** 
  46:../src/lib/lpc177x_8x/Drivers/source/lpc177x_8x_mci.c **** #define DMA_MCI_SIZE                     BLOCK_LENGTH
  47:../src/lib/lpc177x_8x/Drivers/source/lpc177x_8x_mci.c **** 
  48:../src/lib/lpc177x_8x/Drivers/source/lpc177x_8x_mci.c **** #define MCI_DMA_WRITE_CHANNEL            (0)
  49:../src/lib/lpc177x_8x/Drivers/source/lpc177x_8x_mci.c **** #define MCI_DMA_READ_CHANNEL             (1)
  50:../src/lib/lpc177x_8x/Drivers/source/lpc177x_8x_mci.c **** 
  51:../src/lib/lpc177x_8x/Drivers/source/lpc177x_8x_mci.c **** #define _SHIFT(x)                        (1 << x)
  52:../src/lib/lpc177x_8x/Drivers/source/lpc177x_8x_mci.c **** #define _XSHIFT(x, y)                    (x << y)
  53:../src/lib/lpc177x_8x/Drivers/source/lpc177x_8x_mci.c **** 
  54:../src/lib/lpc177x_8x/Drivers/source/lpc177x_8x_mci.c **** #define SHIFT_(x)                        (1 >> x)
  55:../src/lib/lpc177x_8x/Drivers/source/lpc177x_8x_mci.c **** #define XSHIFT_(x, y)                    (x >> y)
  56:../src/lib/lpc177x_8x/Drivers/source/lpc177x_8x_mci.c **** 
  57:../src/lib/lpc177x_8x/Drivers/source/lpc177x_8x_mci.c **** #define MCI_ACMD41_HCS_POS                     (30)
  58:../src/lib/lpc177x_8x/Drivers/source/lpc177x_8x_mci.c **** 
  59:../src/lib/lpc177x_8x/Drivers/source/lpc177x_8x_mci.c **** #define MCI_PWRCTRL_BMASK                      (0xC3)
  60:../src/lib/lpc177x_8x/Drivers/source/lpc177x_8x_mci.c **** 
  61:../src/lib/lpc177x_8x/Drivers/source/lpc177x_8x_mci.c **** #define MCI_PWRCTRL_OPENDRAIN_POS              (6)
  62:../src/lib/lpc177x_8x/Drivers/source/lpc177x_8x_mci.c **** #define MCI_PWRCTRL_OPENDRAIN_NUMBIT           (1)
  63:../src/lib/lpc177x_8x/Drivers/source/lpc177x_8x_mci.c **** #define MCI_PWRCTRL_OPENDRAIN_BMASK            (0x01)
  64:../src/lib/lpc177x_8x/Drivers/source/lpc177x_8x_mci.c **** 
  65:../src/lib/lpc177x_8x/Drivers/source/lpc177x_8x_mci.c **** 
  66:../src/lib/lpc177x_8x/Drivers/source/lpc177x_8x_mci.c **** volatile uint32_t Mci_Data_Xfer_End = 0;
  67:../src/lib/lpc177x_8x/Drivers/source/lpc177x_8x_mci.c **** 
  68:../src/lib/lpc177x_8x/Drivers/source/lpc177x_8x_mci.c **** volatile uint32_t Mci_Data_Xfer_ERR = 0;
  69:../src/lib/lpc177x_8x/Drivers/source/lpc177x_8x_mci.c **** 
  70:../src/lib/lpc177x_8x/Drivers/source/lpc177x_8x_mci.c **** volatile uint8_t fifo_plane = 0;
  71:../src/lib/lpc177x_8x/Drivers/source/lpc177x_8x_mci.c **** 
  72:../src/lib/lpc177x_8x/Drivers/source/lpc177x_8x_mci.c **** volatile uint32_t CardRCA;
  73:../src/lib/lpc177x_8x/Drivers/source/lpc177x_8x_mci.c **** 
  74:../src/lib/lpc177x_8x/Drivers/source/lpc177x_8x_mci.c **** volatile uint8_t CCS;
  75:../src/lib/lpc177x_8x/Drivers/source/lpc177x_8x_mci.c **** 
  76:../src/lib/lpc177x_8x/Drivers/source/lpc177x_8x_mci.c **** volatile en_Mci_CardType MCI_CardType;
  77:../src/lib/lpc177x_8x/Drivers/source/lpc177x_8x_mci.c **** 
  78:../src/lib/lpc177x_8x/Drivers/source/lpc177x_8x_mci.c **** // Terminal Counter flag, Error Counter flag for Channel 0
  79:../src/lib/lpc177x_8x/Drivers/source/lpc177x_8x_mci.c **** uint32_t dmaWrCh_TermianalCnt, dmaWrCh_ErrorCnt;
  80:../src/lib/lpc177x_8x/Drivers/source/lpc177x_8x_mci.c **** uint32_t dmaRdCh_TermianalCnt, dmaRdCh_ErrorCnt;
  81:../src/lib/lpc177x_8x/Drivers/source/lpc177x_8x_mci.c **** 
  82:../src/lib/lpc177x_8x/Drivers/source/lpc177x_8x_mci.c **** 
  83:../src/lib/lpc177x_8x/Drivers/source/lpc177x_8x_mci.c **** uint32_t MCI_SettingDma(uint8_t* memBuf, uint32_t ChannelNum, uint32_t DMAMode );
  84:../src/lib/lpc177x_8x/Drivers/source/lpc177x_8x_mci.c **** 
  85:../src/lib/lpc177x_8x/Drivers/source/lpc177x_8x_mci.c **** int32_t MCI_ReadFifo(uint32_t * dest);
  86:../src/lib/lpc177x_8x/Drivers/source/lpc177x_8x_mci.c **** int32_t MCI_WriteFifo(uint32_t * src);
  87:../src/lib/lpc177x_8x/Drivers/source/lpc177x_8x_mci.c **** 
  88:../src/lib/lpc177x_8x/Drivers/source/lpc177x_8x_mci.c **** void MCI_TXEnable( void );
  89:../src/lib/lpc177x_8x/Drivers/source/lpc177x_8x_mci.c **** void MCI_RXEnable( void );
  90:../src/lib/lpc177x_8x/Drivers/source/lpc177x_8x_mci.c **** void MCI_TXDisable( void );
  91:../src/lib/lpc177x_8x/Drivers/source/lpc177x_8x_mci.c **** void MCI_RXDisable( void );
  92:../src/lib/lpc177x_8x/Drivers/source/lpc177x_8x_mci.c **** 
  93:../src/lib/lpc177x_8x/Drivers/source/lpc177x_8x_mci.c **** void MCI_CmdProcess( void );
  94:../src/lib/lpc177x_8x/Drivers/source/lpc177x_8x_mci.c **** void MCI_DataErrorProcess( void );
  95:../src/lib/lpc177x_8x/Drivers/source/lpc177x_8x_mci.c **** void MCI_DataErrorProcess( void );
  96:../src/lib/lpc177x_8x/Drivers/source/lpc177x_8x_mci.c **** void MCI_DATA_END_InterruptService( void );
  97:../src/lib/lpc177x_8x/Drivers/source/lpc177x_8x_mci.c **** void MCI_FIFOInterruptService( void );
  98:../src/lib/lpc177x_8x/Drivers/source/lpc177x_8x_mci.c **** 
  99:../src/lib/lpc177x_8x/Drivers/source/lpc177x_8x_mci.c **** int32_t MCI_CheckStatus(uint8_t expect_status);
 100:../src/lib/lpc177x_8x/Drivers/source/lpc177x_8x_mci.c **** 
 101:../src/lib/lpc177x_8x/Drivers/source/lpc177x_8x_mci.c **** 
 102:../src/lib/lpc177x_8x/Drivers/source/lpc177x_8x_mci.c **** 
 103:../src/lib/lpc177x_8x/Drivers/source/lpc177x_8x_mci.c **** volatile uint8_t* dataSrcBlock = (uint8_t *) MCI_DMA_SRC_ADDR;
 104:../src/lib/lpc177x_8x/Drivers/source/lpc177x_8x_mci.c **** volatile uint8_t* dataDestBlock = (uint8_t *) MCI_DMA_DST_ADDR;
 105:../src/lib/lpc177x_8x/Drivers/source/lpc177x_8x_mci.c **** 
 106:../src/lib/lpc177x_8x/Drivers/source/lpc177x_8x_mci.c **** volatile uint32_t txBlockCnt=0, rxBlockCnt=0;
 107:../src/lib/lpc177x_8x/Drivers/source/lpc177x_8x_mci.c **** 
 108:../src/lib/lpc177x_8x/Drivers/source/lpc177x_8x_mci.c **** /** @addtogroup MCI_Private_Functions MCI Private Function
 109:../src/lib/lpc177x_8x/Drivers/source/lpc177x_8x_mci.c ****  * @ingroup MCI
 110:../src/lib/lpc177x_8x/Drivers/source/lpc177x_8x_mci.c ****  * @{
 111:../src/lib/lpc177x_8x/Drivers/source/lpc177x_8x_mci.c ****  */
 112:../src/lib/lpc177x_8x/Drivers/source/lpc177x_8x_mci.c **** 
 113:../src/lib/lpc177x_8x/Drivers/source/lpc177x_8x_mci.c **** #if MCI_DMA_ENABLED
 114:../src/lib/lpc177x_8x/Drivers/source/lpc177x_8x_mci.c **** /*********************************************************************//**
 115:../src/lib/lpc177x_8x/Drivers/source/lpc177x_8x_mci.c ****  * @brief        Do setting GPDMA for MCI working
 116:../src/lib/lpc177x_8x/Drivers/source/lpc177x_8x_mci.c ****  *
 117:../src/lib/lpc177x_8x/Drivers/source/lpc177x_8x_mci.c ****  * @param[in]    DMAMode set for the Type of DMA Transfer. It may be memory
 118:../src/lib/lpc177x_8x/Drivers/source/lpc177x_8x_mci.c ****  *                        to peripheral (M2P) or peripheral to memory (P2M)
 119:../src/lib/lpc177x_8x/Drivers/source/lpc177x_8x_mci.c ****  *                        in MCI working
 120:../src/lib/lpc177x_8x/Drivers/source/lpc177x_8x_mci.c ****  *
 121:../src/lib/lpc177x_8x/Drivers/source/lpc177x_8x_mci.c ****  * @param[in]    ChannelNum    which channel is used for current transfer with 
 122:../src/lib/lpc177x_8x/Drivers/source/lpc177x_8x_mci.c ****  *                        DMA compent
 123:../src/lib/lpc177x_8x/Drivers/source/lpc177x_8x_mci.c ****  *
 124:../src/lib/lpc177x_8x/Drivers/source/lpc177x_8x_mci.c ****  * @param[in]    memBuf    point to a UINT8 buffer. In 2 cases of DMAMode
 125:../src/lib/lpc177x_8x/Drivers/source/lpc177x_8x_mci.c ****  *                        seperated:
 126:../src/lib/lpc177x_8x/Drivers/source/lpc177x_8x_mci.c ****  *                        - M2P: it is the source address that hold the
 127:../src/lib/lpc177x_8x/Drivers/source/lpc177x_8x_mci.c ****  *                        expected buffer to transfer
 128:../src/lib/lpc177x_8x/Drivers/source/lpc177x_8x_mci.c ****  *                        - P2M: it is the destination address that will store
 129:../src/lib/lpc177x_8x/Drivers/source/lpc177x_8x_mci.c ****  *                         data that retrieved from the peripheral (the Card in slot)
 130:../src/lib/lpc177x_8x/Drivers/source/lpc177x_8x_mci.c ****  *
 131:../src/lib/lpc177x_8x/Drivers/source/lpc177x_8x_mci.c ****  * @return         None
 132:../src/lib/lpc177x_8x/Drivers/source/lpc177x_8x_mci.c ****  *
 133:../src/lib/lpc177x_8x/Drivers/source/lpc177x_8x_mci.c ****  * @note        This is only required if DMA support is enabled
 134:../src/lib/lpc177x_8x/Drivers/source/lpc177x_8x_mci.c ****  **********************************************************************/
 135:../src/lib/lpc177x_8x/Drivers/source/lpc177x_8x_mci.c **** uint32_t MCI_SettingDma(uint8_t* memBuf, uint32_t ChannelNum, uint32_t DMAMode )
 136:../src/lib/lpc177x_8x/Drivers/source/lpc177x_8x_mci.c **** {
 123              		.loc 2 136 0
 124              		.cfi_startproc
 125              		@ args = 0, pretend = 0, frame = 56
 126              		@ frame_needed = 1, uses_anonymous_args = 0
 127 0034 80B5     		push	{r7, lr}
 128              	.LCFI3:
 129              		.cfi_def_cfa_offset 8
 130              		.cfi_offset 7, -8
 131              		.cfi_offset 14, -4
 132 0036 8EB0     		sub	sp, sp, #56
 133              	.LCFI4:
 134              		.cfi_def_cfa_offset 64
 135 0038 00AF     		add	r7, sp, #0
 136              	.LCFI5:
 137              		.cfi_def_cfa_register 7
 138 003a F860     		str	r0, [r7, #12]
 139 003c B960     		str	r1, [r7, #8]
 140 003e 7A60     		str	r2, [r7, #4]
 137:../src/lib/lpc177x_8x/Drivers/source/lpc177x_8x_mci.c ****     GPDMA_Channel_CFG_Type GPDMACfg;
 138:../src/lib/lpc177x_8x/Drivers/source/lpc177x_8x_mci.c **** 
 139:../src/lib/lpc177x_8x/Drivers/source/lpc177x_8x_mci.c ****     // Transfer size
 140:../src/lib/lpc177x_8x/Drivers/source/lpc177x_8x_mci.c ****     GPDMACfg.TransferSize = DMA_MCI_SIZE;
 141              		.loc 2 140 0
 142 0040 4FF40073 		mov	r3, #512
 143 0044 BB61     		str	r3, [r7, #24]
 141:../src/lib/lpc177x_8x/Drivers/source/lpc177x_8x_mci.c ****     // Transfer width
 142:../src/lib/lpc177x_8x/Drivers/source/lpc177x_8x_mci.c ****     GPDMACfg.TransferWidth = GPDMA_WIDTH_WORD;
 144              		.loc 2 142 0
 145 0046 4FF00203 		mov	r3, #2
 146 004a FB61     		str	r3, [r7, #28]
 143:../src/lib/lpc177x_8x/Drivers/source/lpc177x_8x_mci.c ****     // Transfer type
 144:../src/lib/lpc177x_8x/Drivers/source/lpc177x_8x_mci.c ****     GPDMACfg.TransferType = DMAMode;
 147              		.loc 2 144 0
 148 004c 7B68     		ldr	r3, [r7, #4]
 149 004e BB62     		str	r3, [r7, #40]
 145:../src/lib/lpc177x_8x/Drivers/source/lpc177x_8x_mci.c ****     // Linker List Item - unused
 146:../src/lib/lpc177x_8x/Drivers/source/lpc177x_8x_mci.c ****     GPDMACfg.DMALLI = 0;
 150              		.loc 2 146 0
 151 0050 4FF00003 		mov	r3, #0
 152 0054 7B63     		str	r3, [r7, #52]
 147:../src/lib/lpc177x_8x/Drivers/source/lpc177x_8x_mci.c ****     
 148:../src/lib/lpc177x_8x/Drivers/source/lpc177x_8x_mci.c ****     /* USB RAM is used for test.
 149:../src/lib/lpc177x_8x/Drivers/source/lpc177x_8x_mci.c ****     Please note, Ethernet has its own SRAM, but GPDMA can't access
 150:../src/lib/lpc177x_8x/Drivers/source/lpc177x_8x_mci.c ****     that. GPDMA can access USB SRAM and IRAM. Ethernet DMA controller can 
 151:../src/lib/lpc177x_8x/Drivers/source/lpc177x_8x_mci.c ****     access both IRAM and Ethernet SRAM. */
 152:../src/lib/lpc177x_8x/Drivers/source/lpc177x_8x_mci.c ****     GPDMACfg.ChannelNum = ChannelNum;
 153              		.loc 2 152 0
 154 0056 BB68     		ldr	r3, [r7, #8]
 155 0058 7B61     		str	r3, [r7, #20]
 153:../src/lib/lpc177x_8x/Drivers/source/lpc177x_8x_mci.c ****     
 154:../src/lib/lpc177x_8x/Drivers/source/lpc177x_8x_mci.c ****     if ( DMAMode == GPDMA_TRANSFERTYPE_M2P_DEST_CTRL )
 156              		.loc 2 154 0
 157 005a 7B68     		ldr	r3, [r7, #4]
 158 005c 052B     		cmp	r3, #5
 159 005e 0AD1     		bne	.L5
 155:../src/lib/lpc177x_8x/Drivers/source/lpc177x_8x_mci.c ****     {
 156:../src/lib/lpc177x_8x/Drivers/source/lpc177x_8x_mci.c ****         /* Ch0 set for M2P transfer from mempry to MCI FIFO. */
 157:../src/lib/lpc177x_8x/Drivers/source/lpc177x_8x_mci.c ****         // Source memory
 158:../src/lib/lpc177x_8x/Drivers/source/lpc177x_8x_mci.c ****         GPDMACfg.SrcMemAddr = (uint32_t)memBuf;
 160              		.loc 2 158 0
 161 0060 FB68     		ldr	r3, [r7, #12]
 162 0062 3B62     		str	r3, [r7, #32]
 159:../src/lib/lpc177x_8x/Drivers/source/lpc177x_8x_mci.c ****         // Destination memory
 160:../src/lib/lpc177x_8x/Drivers/source/lpc177x_8x_mci.c ****         GPDMACfg.DstMemAddr = (uint32_t)LPC_MCI->FIFO;
 163              		.loc 2 160 0
 164 0064 184B     		ldr	r3, .L10
 165 0066 7B62     		str	r3, [r7, #36]
 161:../src/lib/lpc177x_8x/Drivers/source/lpc177x_8x_mci.c **** 
 162:../src/lib/lpc177x_8x/Drivers/source/lpc177x_8x_mci.c ****         // Source connection 
 163:../src/lib/lpc177x_8x/Drivers/source/lpc177x_8x_mci.c ****         GPDMACfg.SrcConn = 0;
 166              		.loc 2 163 0
 167 0068 4FF00003 		mov	r3, #0
 168 006c FB62     		str	r3, [r7, #44]
 164:../src/lib/lpc177x_8x/Drivers/source/lpc177x_8x_mci.c ****         // Destination connection 
 165:../src/lib/lpc177x_8x/Drivers/source/lpc177x_8x_mci.c ****         GPDMACfg.DstConn = GPDMA_CONN_MCI;
 169              		.loc 2 165 0
 170 006e 4FF00103 		mov	r3, #1
 171 0072 3B63     		str	r3, [r7, #48]
 172 0074 10E0     		b	.L6
 173              	.L5:
 166:../src/lib/lpc177x_8x/Drivers/source/lpc177x_8x_mci.c ****             
 167:../src/lib/lpc177x_8x/Drivers/source/lpc177x_8x_mci.c ****     }
 168:../src/lib/lpc177x_8x/Drivers/source/lpc177x_8x_mci.c ****     else if ( DMAMode == GPDMA_TRANSFERTYPE_P2M_SRC_CTRL )
 174              		.loc 2 168 0
 175 0076 7B68     		ldr	r3, [r7, #4]
 176 0078 062B     		cmp	r3, #6
 177 007a 0AD1     		bne	.L7
 169:../src/lib/lpc177x_8x/Drivers/source/lpc177x_8x_mci.c ****     {
 170:../src/lib/lpc177x_8x/Drivers/source/lpc177x_8x_mci.c ****         /* Ch0 set for P2M transfer from MCI FIFO to memory. */
 171:../src/lib/lpc177x_8x/Drivers/source/lpc177x_8x_mci.c ****         // Source memory
 172:../src/lib/lpc177x_8x/Drivers/source/lpc177x_8x_mci.c ****         GPDMACfg.SrcMemAddr = (uint32_t)LPC_MCI->FIFO;
 178              		.loc 2 172 0
 179 007c 124B     		ldr	r3, .L10
 180 007e 3B62     		str	r3, [r7, #32]
 173:../src/lib/lpc177x_8x/Drivers/source/lpc177x_8x_mci.c ****         // Destination memory
 174:../src/lib/lpc177x_8x/Drivers/source/lpc177x_8x_mci.c ****         GPDMACfg.DstMemAddr = (uint32_t)memBuf;
 181              		.loc 2 174 0
 182 0080 FB68     		ldr	r3, [r7, #12]
 183 0082 7B62     		str	r3, [r7, #36]
 175:../src/lib/lpc177x_8x/Drivers/source/lpc177x_8x_mci.c **** 
 176:../src/lib/lpc177x_8x/Drivers/source/lpc177x_8x_mci.c ****         // Source connection 
 177:../src/lib/lpc177x_8x/Drivers/source/lpc177x_8x_mci.c ****         GPDMACfg.SrcConn = GPDMA_CONN_MCI;
 184              		.loc 2 177 0
 185 0084 4FF00103 		mov	r3, #1
 186 0088 FB62     		str	r3, [r7, #44]
 178:../src/lib/lpc177x_8x/Drivers/source/lpc177x_8x_mci.c ****         // Destination connection
 179:../src/lib/lpc177x_8x/Drivers/source/lpc177x_8x_mci.c ****         GPDMACfg.DstConn = 0;
 187              		.loc 2 179 0
 188 008a 4FF00003 		mov	r3, #0
 189 008e 3B63     		str	r3, [r7, #48]
 190 0090 02E0     		b	.L6
 191              	.L7:
 180:../src/lib/lpc177x_8x/Drivers/source/lpc177x_8x_mci.c ****     }
 181:../src/lib/lpc177x_8x/Drivers/source/lpc177x_8x_mci.c ****     else
 182:../src/lib/lpc177x_8x/Drivers/source/lpc177x_8x_mci.c ****     {
 183:../src/lib/lpc177x_8x/Drivers/source/lpc177x_8x_mci.c ****         return ( FALSE );
 192              		.loc 2 183 0
 193 0092 4FF00003 		mov	r3, #0
 194 0096 11E0     		b	.L9
 195              	.L6:
 184:../src/lib/lpc177x_8x/Drivers/source/lpc177x_8x_mci.c ****     }
 185:../src/lib/lpc177x_8x/Drivers/source/lpc177x_8x_mci.c **** 
 186:../src/lib/lpc177x_8x/Drivers/source/lpc177x_8x_mci.c ****     // Setup channel with given parameter
 187:../src/lib/lpc177x_8x/Drivers/source/lpc177x_8x_mci.c ****     GPDMA_Setup(&GPDMACfg);
 196              		.loc 2 187 0
 197 0098 07F11403 		add	r3, r7, #20
 198 009c 1846     		mov	r0, r3
 199 009e FFF7FEFF 		bl	GPDMA_Setup
 188:../src/lib/lpc177x_8x/Drivers/source/lpc177x_8x_mci.c **** 
 189:../src/lib/lpc177x_8x/Drivers/source/lpc177x_8x_mci.c ****     // Enable GPDMA channel 
 190:../src/lib/lpc177x_8x/Drivers/source/lpc177x_8x_mci.c ****     GPDMA_ChannelCmd(ChannelNum, ENABLE);
 200              		.loc 2 190 0
 201 00a2 BB68     		ldr	r3, [r7, #8]
 202 00a4 DBB2     		uxtb	r3, r3
 203 00a6 1846     		mov	r0, r3
 204 00a8 4FF00101 		mov	r1, #1
 205 00ac FFF7FEFF 		bl	GPDMA_ChannelCmd
 191:../src/lib/lpc177x_8x/Drivers/source/lpc177x_8x_mci.c **** 
 192:../src/lib/lpc177x_8x/Drivers/source/lpc177x_8x_mci.c ****     /* Enable GPDMA interrupt */
 193:../src/lib/lpc177x_8x/Drivers/source/lpc177x_8x_mci.c ****     NVIC_EnableIRQ(DMA_IRQn);
 206              		.loc 2 193 0
 207 00b0 4FF01A00 		mov	r0, #26
 208 00b4 FFF7A4FF 		bl	NVIC_EnableIRQ
 194:../src/lib/lpc177x_8x/Drivers/source/lpc177x_8x_mci.c ****     
 195:../src/lib/lpc177x_8x/Drivers/source/lpc177x_8x_mci.c ****     return (TRUE);
 209              		.loc 2 195 0
 210 00b8 4FF00103 		mov	r3, #1
 211              	.L9:
 196:../src/lib/lpc177x_8x/Drivers/source/lpc177x_8x_mci.c **** }
 212              		.loc 2 196 0
 213 00bc 1846     		mov	r0, r3
 214 00be 07F13807 		add	r7, r7, #56
 215 00c2 BD46     		mov	sp, r7
 216 00c4 80BD     		pop	{r7, pc}
 217              	.L11:
 218 00c6 00BF     		.align	2
 219              	.L10:
 220 00c8 80000C40 		.word	1074528384
 221              		.cfi_endproc
 222              	.LFE55:
 224              		.align	2
 225              		.global	MCI_DMA_IRQHandler
 226              		.thumb
 227              		.thumb_func
 229              	MCI_DMA_IRQHandler:
 230              	.LFB56:
 197:../src/lib/lpc177x_8x/Drivers/source/lpc177x_8x_mci.c **** 
 198:../src/lib/lpc177x_8x/Drivers/source/lpc177x_8x_mci.c **** 
 199:../src/lib/lpc177x_8x/Drivers/source/lpc177x_8x_mci.c **** /*********************************************************************//**
 200:../src/lib/lpc177x_8x/Drivers/source/lpc177x_8x_mci.c ****  * @brief        GPDMA interrupt handler sub-routine
 201:../src/lib/lpc177x_8x/Drivers/source/lpc177x_8x_mci.c ****  *
 202:../src/lib/lpc177x_8x/Drivers/source/lpc177x_8x_mci.c ****  * @param        None
 203:../src/lib/lpc177x_8x/Drivers/source/lpc177x_8x_mci.c ****  *
 204:../src/lib/lpc177x_8x/Drivers/source/lpc177x_8x_mci.c ****  * @return       None
 205:../src/lib/lpc177x_8x/Drivers/source/lpc177x_8x_mci.c ****  *
 206:../src/lib/lpc177x_8x/Drivers/source/lpc177x_8x_mci.c ****  * @note         This is only executed if DMA support is enabled
 207:../src/lib/lpc177x_8x/Drivers/source/lpc177x_8x_mci.c ****  **********************************************************************/
 208:../src/lib/lpc177x_8x/Drivers/source/lpc177x_8x_mci.c **** void MCI_DMA_IRQHandler (void)
 209:../src/lib/lpc177x_8x/Drivers/source/lpc177x_8x_mci.c **** {
 231              		.loc 2 209 0
 232              		.cfi_startproc
 233              		@ args = 0, pretend = 0, frame = 0
 234              		@ frame_needed = 1, uses_anonymous_args = 0
 235 00cc 80B5     		push	{r7, lr}
 236              	.LCFI6:
 237              		.cfi_def_cfa_offset 8
 238              		.cfi_offset 7, -8
 239              		.cfi_offset 14, -4
 240 00ce 00AF     		add	r7, sp, #0
 241              	.LCFI7:
 242              		.cfi_def_cfa_register 7
 210:../src/lib/lpc177x_8x/Drivers/source/lpc177x_8x_mci.c ****     // check GPDMA interrupt on channel 0
 211:../src/lib/lpc177x_8x/Drivers/source/lpc177x_8x_mci.c ****     if (GPDMA_IntGetStatus(GPDMA_STAT_INT, MCI_DMA_WRITE_CHANNEL))
 243              		.loc 2 211 0
 244 00d0 4FF00000 		mov	r0, #0
 245 00d4 4FF00001 		mov	r1, #0
 246 00d8 FFF7FEFF 		bl	GPDMA_IntGetStatus
 247 00dc 0346     		mov	r3, r0
 248 00de 002B     		cmp	r3, #0
 249 00e0 2AD0     		beq	.L13
 212:../src/lib/lpc177x_8x/Drivers/source/lpc177x_8x_mci.c ****     {
 213:../src/lib/lpc177x_8x/Drivers/source/lpc177x_8x_mci.c ****         //check interrupt status on channel 0
 214:../src/lib/lpc177x_8x/Drivers/source/lpc177x_8x_mci.c ****         // Check counter terminal status
 215:../src/lib/lpc177x_8x/Drivers/source/lpc177x_8x_mci.c ****         if(GPDMA_IntGetStatus(GPDMA_STAT_INTTC, MCI_DMA_WRITE_CHANNEL))
 250              		.loc 2 215 0
 251 00e2 4FF00100 		mov	r0, #1
 252 00e6 4FF00001 		mov	r1, #0
 253 00ea FFF7FEFF 		bl	GPDMA_IntGetStatus
 254 00ee 0346     		mov	r3, r0
 255 00f0 002B     		cmp	r3, #0
 256 00f2 0BD0     		beq	.L14
 216:../src/lib/lpc177x_8x/Drivers/source/lpc177x_8x_mci.c ****         {
 217:../src/lib/lpc177x_8x/Drivers/source/lpc177x_8x_mci.c ****             // Clear terminate counter Interrupt pending
 218:../src/lib/lpc177x_8x/Drivers/source/lpc177x_8x_mci.c ****             GPDMA_ClearIntPending (GPDMA_STATCLR_INTTC, MCI_DMA_WRITE_CHANNEL);
 257              		.loc 2 218 0
 258 00f4 4FF00000 		mov	r0, #0
 259 00f8 4FF00001 		mov	r1, #0
 260 00fc FFF7FEFF 		bl	GPDMA_ClearIntPending
 219:../src/lib/lpc177x_8x/Drivers/source/lpc177x_8x_mci.c **** 
 220:../src/lib/lpc177x_8x/Drivers/source/lpc177x_8x_mci.c ****             dmaWrCh_TermianalCnt++;
 261              		.loc 2 220 0
 262 0100 274B     		ldr	r3, .L17
 263 0102 1B68     		ldr	r3, [r3, #0]
 264 0104 03F10102 		add	r2, r3, #1
 265 0108 254B     		ldr	r3, .L17
 266 010a 1A60     		str	r2, [r3, #0]
 267              	.L14:
 221:../src/lib/lpc177x_8x/Drivers/source/lpc177x_8x_mci.c ****         }
 222:../src/lib/lpc177x_8x/Drivers/source/lpc177x_8x_mci.c ****         if (GPDMA_IntGetStatus(GPDMA_STAT_INTERR, MCI_DMA_WRITE_CHANNEL))
 268              		.loc 2 222 0
 269 010c 4FF00200 		mov	r0, #2
 270 0110 4FF00001 		mov	r1, #0
 271 0114 FFF7FEFF 		bl	GPDMA_IntGetStatus
 272 0118 0346     		mov	r3, r0
 273 011a 002B     		cmp	r3, #0
 274 011c 3FD0     		beq	.L12
 223:../src/lib/lpc177x_8x/Drivers/source/lpc177x_8x_mci.c ****         {
 224:../src/lib/lpc177x_8x/Drivers/source/lpc177x_8x_mci.c ****             // Clear error counter Interrupt pending
 225:../src/lib/lpc177x_8x/Drivers/source/lpc177x_8x_mci.c ****             GPDMA_ClearIntPending (GPDMA_STATCLR_INTERR, MCI_DMA_WRITE_CHANNEL);
 275              		.loc 2 225 0
 276 011e 4FF00100 		mov	r0, #1
 277 0122 4FF00001 		mov	r1, #0
 278 0126 FFF7FEFF 		bl	GPDMA_ClearIntPending
 226:../src/lib/lpc177x_8x/Drivers/source/lpc177x_8x_mci.c **** 
 227:../src/lib/lpc177x_8x/Drivers/source/lpc177x_8x_mci.c ****             dmaWrCh_ErrorCnt++;
 279              		.loc 2 227 0
 280 012a 1E4B     		ldr	r3, .L17+4
 281 012c 1B68     		ldr	r3, [r3, #0]
 282 012e 03F10102 		add	r2, r3, #1
 283 0132 1C4B     		ldr	r3, .L17+4
 284 0134 1A60     		str	r2, [r3, #0]
 285 0136 32E0     		b	.L12
 286              	.L13:
 228:../src/lib/lpc177x_8x/Drivers/source/lpc177x_8x_mci.c ****         }
 229:../src/lib/lpc177x_8x/Drivers/source/lpc177x_8x_mci.c ****     }
 230:../src/lib/lpc177x_8x/Drivers/source/lpc177x_8x_mci.c ****     else if (GPDMA_IntGetStatus(GPDMA_STAT_INT, MCI_DMA_READ_CHANNEL))
 287              		.loc 2 230 0
 288 0138 4FF00000 		mov	r0, #0
 289 013c 4FF00101 		mov	r1, #1
 290 0140 FFF7FEFF 		bl	GPDMA_IntGetStatus
 291 0144 0346     		mov	r3, r0
 292 0146 002B     		cmp	r3, #0
 293 0148 29D0     		beq	.L12
 231:../src/lib/lpc177x_8x/Drivers/source/lpc177x_8x_mci.c ****     {
 232:../src/lib/lpc177x_8x/Drivers/source/lpc177x_8x_mci.c ****         //check interrupt status on channel 0
 233:../src/lib/lpc177x_8x/Drivers/source/lpc177x_8x_mci.c ****         // Check counter terminal status
 234:../src/lib/lpc177x_8x/Drivers/source/lpc177x_8x_mci.c ****         if(GPDMA_IntGetStatus(GPDMA_STAT_INTTC, MCI_DMA_READ_CHANNEL))
 294              		.loc 2 234 0
 295 014a 4FF00100 		mov	r0, #1
 296 014e 4FF00101 		mov	r1, #1
 297 0152 FFF7FEFF 		bl	GPDMA_IntGetStatus
 298 0156 0346     		mov	r3, r0
 299 0158 002B     		cmp	r3, #0
 300 015a 0BD0     		beq	.L16
 235:../src/lib/lpc177x_8x/Drivers/source/lpc177x_8x_mci.c ****         {
 236:../src/lib/lpc177x_8x/Drivers/source/lpc177x_8x_mci.c ****             // Clear terminate counter Interrupt pending
 237:../src/lib/lpc177x_8x/Drivers/source/lpc177x_8x_mci.c ****             GPDMA_ClearIntPending (GPDMA_STATCLR_INTTC, MCI_DMA_READ_CHANNEL);
 301              		.loc 2 237 0
 302 015c 4FF00000 		mov	r0, #0
 303 0160 4FF00101 		mov	r1, #1
 304 0164 FFF7FEFF 		bl	GPDMA_ClearIntPending
 238:../src/lib/lpc177x_8x/Drivers/source/lpc177x_8x_mci.c **** 
 239:../src/lib/lpc177x_8x/Drivers/source/lpc177x_8x_mci.c ****             dmaRdCh_TermianalCnt++;
 305              		.loc 2 239 0
 306 0168 0F4B     		ldr	r3, .L17+8
 307 016a 1B68     		ldr	r3, [r3, #0]
 308 016c 03F10102 		add	r2, r3, #1
 309 0170 0D4B     		ldr	r3, .L17+8
 310 0172 1A60     		str	r2, [r3, #0]
 311              	.L16:
 240:../src/lib/lpc177x_8x/Drivers/source/lpc177x_8x_mci.c ****         }
 241:../src/lib/lpc177x_8x/Drivers/source/lpc177x_8x_mci.c ****         if (GPDMA_IntGetStatus(GPDMA_STAT_INTERR, MCI_DMA_READ_CHANNEL))
 312              		.loc 2 241 0
 313 0174 4FF00200 		mov	r0, #2
 314 0178 4FF00101 		mov	r1, #1
 315 017c FFF7FEFF 		bl	GPDMA_IntGetStatus
 316 0180 0346     		mov	r3, r0
 317 0182 002B     		cmp	r3, #0
 318 0184 0BD0     		beq	.L12
 242:../src/lib/lpc177x_8x/Drivers/source/lpc177x_8x_mci.c ****         {
 243:../src/lib/lpc177x_8x/Drivers/source/lpc177x_8x_mci.c ****             // Clear error counter Interrupt pending
 244:../src/lib/lpc177x_8x/Drivers/source/lpc177x_8x_mci.c ****             GPDMA_ClearIntPending (GPDMA_STATCLR_INTERR, MCI_DMA_READ_CHANNEL);
 319              		.loc 2 244 0
 320 0186 4FF00100 		mov	r0, #1
 321 018a 4FF00101 		mov	r1, #1
 322 018e FFF7FEFF 		bl	GPDMA_ClearIntPending
 245:../src/lib/lpc177x_8x/Drivers/source/lpc177x_8x_mci.c **** 
 246:../src/lib/lpc177x_8x/Drivers/source/lpc177x_8x_mci.c ****             dmaRdCh_ErrorCnt++;
 323              		.loc 2 246 0
 324 0192 064B     		ldr	r3, .L17+12
 325 0194 1B68     		ldr	r3, [r3, #0]
 326 0196 03F10102 		add	r2, r3, #1
 327 019a 044B     		ldr	r3, .L17+12
 328 019c 1A60     		str	r2, [r3, #0]
 329              	.L12:
 247:../src/lib/lpc177x_8x/Drivers/source/lpc177x_8x_mci.c ****         }
 248:../src/lib/lpc177x_8x/Drivers/source/lpc177x_8x_mci.c ****     }
 249:../src/lib/lpc177x_8x/Drivers/source/lpc177x_8x_mci.c **** }
 330              		.loc 2 249 0
 331 019e 80BD     		pop	{r7, pc}
 332              	.L18:
 333              		.align	2
 334              	.L17:
 335 01a0 00000000 		.word	dmaWrCh_TermianalCnt
 336 01a4 00000000 		.word	dmaWrCh_ErrorCnt
 337 01a8 00000000 		.word	dmaRdCh_TermianalCnt
 338 01ac 00000000 		.word	dmaRdCh_ErrorCnt
 339              		.cfi_endproc
 340              	.LFE56:
 342              		.align	2
 343              		.global	MCI_ReadFifo
 344              		.thumb
 345              		.thumb_func
 347              	MCI_ReadFifo:
 348              	.LFB57:
 250:../src/lib/lpc177x_8x/Drivers/source/lpc177x_8x_mci.c **** #endif
 251:../src/lib/lpc177x_8x/Drivers/source/lpc177x_8x_mci.c **** 
 252:../src/lib/lpc177x_8x/Drivers/source/lpc177x_8x_mci.c **** 
 253:../src/lib/lpc177x_8x/Drivers/source/lpc177x_8x_mci.c **** /*********************************************************************//**
 254:../src/lib/lpc177x_8x/Drivers/source/lpc177x_8x_mci.c ****  * @brief        Read data from FIFO (after a transmission with card) to
 255:../src/lib/lpc177x_8x/Drivers/source/lpc177x_8x_mci.c ****  *                a destination buffer
 256:../src/lib/lpc177x_8x/Drivers/source/lpc177x_8x_mci.c ****  *
 257:../src/lib/lpc177x_8x/Drivers/source/lpc177x_8x_mci.c ****  * @param[in]    *dest The buffer to store the data that read from card
 258:../src/lib/lpc177x_8x/Drivers/source/lpc177x_8x_mci.c ****  *
 259:../src/lib/lpc177x_8x/Drivers/source/lpc177x_8x_mci.c ****  * @return       MCI_FUNC_OK
 260:../src/lib/lpc177x_8x/Drivers/source/lpc177x_8x_mci.c ****  *************************************************************************/
 261:../src/lib/lpc177x_8x/Drivers/source/lpc177x_8x_mci.c **** int32_t MCI_ReadFifo(uint32_t * dest) 
 262:../src/lib/lpc177x_8x/Drivers/source/lpc177x_8x_mci.c **** {
 349              		.loc 2 262 0
 350              		.cfi_startproc
 351              		@ args = 0, pretend = 0, frame = 16
 352              		@ frame_needed = 1, uses_anonymous_args = 0
 353              		@ link register save eliminated.
 354 01b0 80B4     		push	{r7}
 355              	.LCFI8:
 356              		.cfi_def_cfa_offset 4
 357              		.cfi_offset 7, -4
 358 01b2 85B0     		sub	sp, sp, #20
 359              	.LCFI9:
 360              		.cfi_def_cfa_offset 24
 361 01b4 00AF     		add	r7, sp, #0
 362              	.LCFI10:
 363              		.cfi_def_cfa_register 7
 364 01b6 7860     		str	r0, [r7, #4]
 263:../src/lib/lpc177x_8x/Drivers/source/lpc177x_8x_mci.c ****     uint8_t i;
 264:../src/lib/lpc177x_8x/Drivers/source/lpc177x_8x_mci.c ****     uint8_t start, end;
 265:../src/lib/lpc177x_8x/Drivers/source/lpc177x_8x_mci.c **** 
 266:../src/lib/lpc177x_8x/Drivers/source/lpc177x_8x_mci.c ****     if(fifo_plane == 0)
 365              		.loc 2 266 0
 366 01b8 1D4B     		ldr	r3, .L25
 367 01ba 1B78     		ldrb	r3, [r3, #0]
 368 01bc DBB2     		uxtb	r3, r3
 369 01be 002B     		cmp	r3, #0
 370 01c0 06D1     		bne	.L20
 267:../src/lib/lpc177x_8x/Drivers/source/lpc177x_8x_mci.c ****     {
 268:../src/lib/lpc177x_8x/Drivers/source/lpc177x_8x_mci.c ****         start = 0;
 371              		.loc 2 268 0
 372 01c2 4FF00003 		mov	r3, #0
 373 01c6 BB73     		strb	r3, [r7, #14]
 269:../src/lib/lpc177x_8x/Drivers/source/lpc177x_8x_mci.c ****         end = 7;
 374              		.loc 2 269 0
 375 01c8 4FF00703 		mov	r3, #7
 376 01cc 7B73     		strb	r3, [r7, #13]
 377 01ce 05E0     		b	.L21
 378              	.L20:
 270:../src/lib/lpc177x_8x/Drivers/source/lpc177x_8x_mci.c ****     }
 271:../src/lib/lpc177x_8x/Drivers/source/lpc177x_8x_mci.c ****     else
 272:../src/lib/lpc177x_8x/Drivers/source/lpc177x_8x_mci.c ****     {
 273:../src/lib/lpc177x_8x/Drivers/source/lpc177x_8x_mci.c ****         start = 8;
 379              		.loc 2 273 0
 380 01d0 4FF00803 		mov	r3, #8
 381 01d4 BB73     		strb	r3, [r7, #14]
 274:../src/lib/lpc177x_8x/Drivers/source/lpc177x_8x_mci.c ****         end = 15;
 382              		.loc 2 274 0
 383 01d6 4FF00F03 		mov	r3, #15
 384 01da 7B73     		strb	r3, [r7, #13]
 385              	.L21:
 275:../src/lib/lpc177x_8x/Drivers/source/lpc177x_8x_mci.c ****     }
 276:../src/lib/lpc177x_8x/Drivers/source/lpc177x_8x_mci.c ****     fifo_plane = (fifo_plane) ? 0:1;
 386              		.loc 2 276 0
 387 01dc 144B     		ldr	r3, .L25
 388 01de 1B78     		ldrb	r3, [r3, #0]
 389 01e0 DBB2     		uxtb	r3, r3
 390 01e2 002B     		cmp	r3, #0
 391 01e4 14BF     		ite	ne
 392 01e6 0023     		movne	r3, #0
 393 01e8 0123     		moveq	r3, #1
 394 01ea DBB2     		uxtb	r3, r3
 395 01ec 1A46     		mov	r2, r3
 396 01ee 104B     		ldr	r3, .L25
 397 01f0 1A70     		strb	r2, [r3, #0]
 277:../src/lib/lpc177x_8x/Drivers/source/lpc177x_8x_mci.c **** 
 278:../src/lib/lpc177x_8x/Drivers/source/lpc177x_8x_mci.c ****     for (i = start; i <= end; i++) 
 398              		.loc 2 278 0
 399 01f2 BB7B     		ldrb	r3, [r7, #14]
 400 01f4 FB73     		strb	r3, [r7, #15]
 401 01f6 0FE0     		b	.L22
 402              	.L23:
 279:../src/lib/lpc177x_8x/Drivers/source/lpc177x_8x_mci.c ****     {
 280:../src/lib/lpc177x_8x/Drivers/source/lpc177x_8x_mci.c ****         *dest = LPC_MCI->FIFO[i];
 403              		.loc 2 280 0 discriminator 2
 404 01f8 0E4B     		ldr	r3, .L25+4
 405 01fa FA7B     		ldrb	r2, [r7, #15]	@ zero_extendqisi2
 406 01fc 02F12002 		add	r2, r2, #32
 407 0200 53F82220 		ldr	r2, [r3, r2, lsl #2]
 408 0204 7B68     		ldr	r3, [r7, #4]
 409 0206 1A60     		str	r2, [r3, #0]
 281:../src/lib/lpc177x_8x/Drivers/source/lpc177x_8x_mci.c ****         
 282:../src/lib/lpc177x_8x/Drivers/source/lpc177x_8x_mci.c ****         dest++;
 410              		.loc 2 282 0 discriminator 2
 411 0208 7B68     		ldr	r3, [r7, #4]
 412 020a 03F10403 		add	r3, r3, #4
 413 020e 7B60     		str	r3, [r7, #4]
 278:../src/lib/lpc177x_8x/Drivers/source/lpc177x_8x_mci.c ****     for (i = start; i <= end; i++) 
 414              		.loc 2 278 0 discriminator 2
 415 0210 FB7B     		ldrb	r3, [r7, #15]
 416 0212 03F10103 		add	r3, r3, #1
 417 0216 FB73     		strb	r3, [r7, #15]
 418              	.L22:
 278:../src/lib/lpc177x_8x/Drivers/source/lpc177x_8x_mci.c ****     for (i = start; i <= end; i++) 
 419              		.loc 2 278 0 is_stmt 0 discriminator 1
 420 0218 FA7B     		ldrb	r2, [r7, #15]	@ zero_extendqisi2
 421 021a 7B7B     		ldrb	r3, [r7, #13]	@ zero_extendqisi2
 422 021c 9A42     		cmp	r2, r3
 423 021e EBD9     		bls	.L23
 283:../src/lib/lpc177x_8x/Drivers/source/lpc177x_8x_mci.c ****     }
 284:../src/lib/lpc177x_8x/Drivers/source/lpc177x_8x_mci.c ****     
 285:../src/lib/lpc177x_8x/Drivers/source/lpc177x_8x_mci.c ****     return MCI_FUNC_OK;
 424              		.loc 2 285 0 is_stmt 1
 425 0220 4FF00003 		mov	r3, #0
 286:../src/lib/lpc177x_8x/Drivers/source/lpc177x_8x_mci.c **** }
 426              		.loc 2 286 0
 427 0224 1846     		mov	r0, r3
 428 0226 07F11407 		add	r7, r7, #20
 429 022a BD46     		mov	sp, r7
 430 022c 80BC     		pop	{r7}
 431 022e 7047     		bx	lr
 432              	.L26:
 433              		.align	2
 434              	.L25:
 435 0230 00000000 		.word	fifo_plane
 436 0234 00000C40 		.word	1074528256
 437              		.cfi_endproc
 438              	.LFE57:
 440              		.align	2
 441              		.global	MCI_WriteFifo
 442              		.thumb
 443              		.thumb_func
 445              	MCI_WriteFifo:
 446              	.LFB58:
 287:../src/lib/lpc177x_8x/Drivers/source/lpc177x_8x_mci.c **** 
 288:../src/lib/lpc177x_8x/Drivers/source/lpc177x_8x_mci.c **** 
 289:../src/lib/lpc177x_8x/Drivers/source/lpc177x_8x_mci.c **** /*********************************************************************//**
 290:../src/lib/lpc177x_8x/Drivers/source/lpc177x_8x_mci.c ****  * @brief        Write data from a source buffer to FIFO for transmission
 291:../src/lib/lpc177x_8x/Drivers/source/lpc177x_8x_mci.c ****  *
 292:../src/lib/lpc177x_8x/Drivers/source/lpc177x_8x_mci.c ****  * @param[in]    *src The buffer hold the data need to write to card
 293:../src/lib/lpc177x_8x/Drivers/source/lpc177x_8x_mci.c ****  *
 294:../src/lib/lpc177x_8x/Drivers/source/lpc177x_8x_mci.c ****  * @return       MCI_FUNC_OK
 295:../src/lib/lpc177x_8x/Drivers/source/lpc177x_8x_mci.c ****  *************************************************************************/
 296:../src/lib/lpc177x_8x/Drivers/source/lpc177x_8x_mci.c **** int32_t MCI_WriteFifo(uint32_t * src)
 297:../src/lib/lpc177x_8x/Drivers/source/lpc177x_8x_mci.c **** {
 447              		.loc 2 297 0
 448              		.cfi_startproc
 449              		@ args = 0, pretend = 0, frame = 16
 450              		@ frame_needed = 1, uses_anonymous_args = 0
 451              		@ link register save eliminated.
 452 0238 80B4     		push	{r7}
 453              	.LCFI11:
 454              		.cfi_def_cfa_offset 4
 455              		.cfi_offset 7, -4
 456 023a 85B0     		sub	sp, sp, #20
 457              	.LCFI12:
 458              		.cfi_def_cfa_offset 24
 459 023c 00AF     		add	r7, sp, #0
 460              	.LCFI13:
 461              		.cfi_def_cfa_register 7
 462 023e 7860     		str	r0, [r7, #4]
 298:../src/lib/lpc177x_8x/Drivers/source/lpc177x_8x_mci.c ****     uint8_t i;
 299:../src/lib/lpc177x_8x/Drivers/source/lpc177x_8x_mci.c ****     uint8_t start, end;
 300:../src/lib/lpc177x_8x/Drivers/source/lpc177x_8x_mci.c **** 
 301:../src/lib/lpc177x_8x/Drivers/source/lpc177x_8x_mci.c ****     if(fifo_plane == 0)
 463              		.loc 2 301 0
 464 0240 1D4B     		ldr	r3, .L33
 465 0242 1B78     		ldrb	r3, [r3, #0]
 466 0244 DBB2     		uxtb	r3, r3
 467 0246 002B     		cmp	r3, #0
 468 0248 06D1     		bne	.L28
 302:../src/lib/lpc177x_8x/Drivers/source/lpc177x_8x_mci.c ****     {
 303:../src/lib/lpc177x_8x/Drivers/source/lpc177x_8x_mci.c ****         start = 0;
 469              		.loc 2 303 0
 470 024a 4FF00003 		mov	r3, #0
 471 024e BB73     		strb	r3, [r7, #14]
 304:../src/lib/lpc177x_8x/Drivers/source/lpc177x_8x_mci.c ****         end = 7;
 472              		.loc 2 304 0
 473 0250 4FF00703 		mov	r3, #7
 474 0254 7B73     		strb	r3, [r7, #13]
 475 0256 05E0     		b	.L29
 476              	.L28:
 305:../src/lib/lpc177x_8x/Drivers/source/lpc177x_8x_mci.c ****     }
 306:../src/lib/lpc177x_8x/Drivers/source/lpc177x_8x_mci.c ****     else
 307:../src/lib/lpc177x_8x/Drivers/source/lpc177x_8x_mci.c ****     {
 308:../src/lib/lpc177x_8x/Drivers/source/lpc177x_8x_mci.c ****         start = 8;
 477              		.loc 2 308 0
 478 0258 4FF00803 		mov	r3, #8
 479 025c BB73     		strb	r3, [r7, #14]
 309:../src/lib/lpc177x_8x/Drivers/source/lpc177x_8x_mci.c ****         end = 15;
 480              		.loc 2 309 0
 481 025e 4FF00F03 		mov	r3, #15
 482 0262 7B73     		strb	r3, [r7, #13]
 483              	.L29:
 310:../src/lib/lpc177x_8x/Drivers/source/lpc177x_8x_mci.c ****     }
 311:../src/lib/lpc177x_8x/Drivers/source/lpc177x_8x_mci.c ****     fifo_plane = (fifo_plane) ? 0:1;
 484              		.loc 2 311 0
 485 0264 144B     		ldr	r3, .L33
 486 0266 1B78     		ldrb	r3, [r3, #0]
 487 0268 DBB2     		uxtb	r3, r3
 488 026a 002B     		cmp	r3, #0
 489 026c 14BF     		ite	ne
 490 026e 0023     		movne	r3, #0
 491 0270 0123     		moveq	r3, #1
 492 0272 DBB2     		uxtb	r3, r3
 493 0274 1A46     		mov	r2, r3
 494 0276 104B     		ldr	r3, .L33
 495 0278 1A70     		strb	r2, [r3, #0]
 312:../src/lib/lpc177x_8x/Drivers/source/lpc177x_8x_mci.c **** 
 313:../src/lib/lpc177x_8x/Drivers/source/lpc177x_8x_mci.c ****     for (i = start; i <= end; i++) 
 496              		.loc 2 313 0
 497 027a BB7B     		ldrb	r3, [r7, #14]
 498 027c FB73     		strb	r3, [r7, #15]
 499 027e 0FE0     		b	.L30
 500              	.L31:
 314:../src/lib/lpc177x_8x/Drivers/source/lpc177x_8x_mci.c ****     {
 315:../src/lib/lpc177x_8x/Drivers/source/lpc177x_8x_mci.c ****         LPC_MCI->FIFO[i] = *src;
 501              		.loc 2 315 0 discriminator 2
 502 0280 0E4B     		ldr	r3, .L33+4
 503 0282 FA7B     		ldrb	r2, [r7, #15]	@ zero_extendqisi2
 504 0284 7968     		ldr	r1, [r7, #4]
 505 0286 0968     		ldr	r1, [r1, #0]
 506 0288 02F12002 		add	r2, r2, #32
 507 028c 43F82210 		str	r1, [r3, r2, lsl #2]
 316:../src/lib/lpc177x_8x/Drivers/source/lpc177x_8x_mci.c ****         
 317:../src/lib/lpc177x_8x/Drivers/source/lpc177x_8x_mci.c ****         src++;
 508              		.loc 2 317 0 discriminator 2
 509 0290 7B68     		ldr	r3, [r7, #4]
 510 0292 03F10403 		add	r3, r3, #4
 511 0296 7B60     		str	r3, [r7, #4]
 313:../src/lib/lpc177x_8x/Drivers/source/lpc177x_8x_mci.c ****     for (i = start; i <= end; i++) 
 512              		.loc 2 313 0 discriminator 2
 513 0298 FB7B     		ldrb	r3, [r7, #15]
 514 029a 03F10103 		add	r3, r3, #1
 515 029e FB73     		strb	r3, [r7, #15]
 516              	.L30:
 313:../src/lib/lpc177x_8x/Drivers/source/lpc177x_8x_mci.c ****     for (i = start; i <= end; i++) 
 517              		.loc 2 313 0 is_stmt 0 discriminator 1
 518 02a0 FA7B     		ldrb	r2, [r7, #15]	@ zero_extendqisi2
 519 02a2 7B7B     		ldrb	r3, [r7, #13]	@ zero_extendqisi2
 520 02a4 9A42     		cmp	r2, r3
 521 02a6 EBD9     		bls	.L31
 318:../src/lib/lpc177x_8x/Drivers/source/lpc177x_8x_mci.c ****     }
 319:../src/lib/lpc177x_8x/Drivers/source/lpc177x_8x_mci.c ****     
 320:../src/lib/lpc177x_8x/Drivers/source/lpc177x_8x_mci.c ****     return MCI_FUNC_OK;
 522              		.loc 2 320 0 is_stmt 1
 523 02a8 4FF00003 		mov	r3, #0
 321:../src/lib/lpc177x_8x/Drivers/source/lpc177x_8x_mci.c **** }
 524              		.loc 2 321 0
 525 02ac 1846     		mov	r0, r3
 526 02ae 07F11407 		add	r7, r7, #20
 527 02b2 BD46     		mov	sp, r7
 528 02b4 80BC     		pop	{r7}
 529 02b6 7047     		bx	lr
 530              	.L34:
 531              		.align	2
 532              	.L33:
 533 02b8 00000000 		.word	fifo_plane
 534 02bc 00000C40 		.word	1074528256
 535              		.cfi_endproc
 536              	.LFE58:
 538              		.align	2
 539              		.global	MCI_TXEnable
 540              		.thumb
 541              		.thumb_func
 543              	MCI_TXEnable:
 544              	.LFB59:
 322:../src/lib/lpc177x_8x/Drivers/source/lpc177x_8x_mci.c **** 
 323:../src/lib/lpc177x_8x/Drivers/source/lpc177x_8x_mci.c **** 
 324:../src/lib/lpc177x_8x/Drivers/source/lpc177x_8x_mci.c **** /*********************************************************************//**
 325:../src/lib/lpc177x_8x/Drivers/source/lpc177x_8x_mci.c ****  * @brief        Enable Transmit data interrupt
 326:../src/lib/lpc177x_8x/Drivers/source/lpc177x_8x_mci.c ****  *
 327:../src/lib/lpc177x_8x/Drivers/source/lpc177x_8x_mci.c ****  * @param        None
 328:../src/lib/lpc177x_8x/Drivers/source/lpc177x_8x_mci.c ****  *
 329:../src/lib/lpc177x_8x/Drivers/source/lpc177x_8x_mci.c ****  * @return       None
 330:../src/lib/lpc177x_8x/Drivers/source/lpc177x_8x_mci.c ****  *************************************************************************/
 331:../src/lib/lpc177x_8x/Drivers/source/lpc177x_8x_mci.c **** void MCI_TXEnable( void )
 332:../src/lib/lpc177x_8x/Drivers/source/lpc177x_8x_mci.c **** {
 545              		.loc 2 332 0
 546              		.cfi_startproc
 547              		@ args = 0, pretend = 0, frame = 0
 548              		@ frame_needed = 1, uses_anonymous_args = 0
 549              		@ link register save eliminated.
 550 02c0 80B4     		push	{r7}
 551              	.LCFI14:
 552              		.cfi_def_cfa_offset 4
 553              		.cfi_offset 7, -4
 554 02c2 00AF     		add	r7, sp, #0
 555              	.LCFI15:
 556              		.cfi_def_cfa_register 7
 333:../src/lib/lpc177x_8x/Drivers/source/lpc177x_8x_mci.c **** #if MCI_DMA_ENABLED
 334:../src/lib/lpc177x_8x/Drivers/source/lpc177x_8x_mci.c ****     LPC_MCI->MASK0 |= ((DATA_END_INT_MASK)|(ERR_TX_INT_MASK));    /* Enable TX interrupts only */
 557              		.loc 2 334 0
 558 02c4 054A     		ldr	r2, .L37
 559 02c6 054B     		ldr	r3, .L37
 560 02c8 DB6B     		ldr	r3, [r3, #60]
 561 02ca 43F4E363 		orr	r3, r3, #1816
 562 02ce 43F00203 		orr	r3, r3, #2
 563 02d2 D363     		str	r3, [r2, #60]
 335:../src/lib/lpc177x_8x/Drivers/source/lpc177x_8x_mci.c **** #else
 336:../src/lib/lpc177x_8x/Drivers/source/lpc177x_8x_mci.c ****     LPC_MCI->MASK0 |= ((FIFO_TX_INT_MASK)|(DATA_END_INT_MASK)|(ERR_TX_INT_MASK));    /* FIFO TX int
 337:../src/lib/lpc177x_8x/Drivers/source/lpc177x_8x_mci.c **** #endif
 338:../src/lib/lpc177x_8x/Drivers/source/lpc177x_8x_mci.c **** 
 339:../src/lib/lpc177x_8x/Drivers/source/lpc177x_8x_mci.c ****     return;
 564              		.loc 2 339 0
 565 02d4 00BF     		nop
 340:../src/lib/lpc177x_8x/Drivers/source/lpc177x_8x_mci.c **** }
 566              		.loc 2 340 0
 567 02d6 BD46     		mov	sp, r7
 568 02d8 80BC     		pop	{r7}
 569 02da 7047     		bx	lr
 570              	.L38:
 571              		.align	2
 572              	.L37:
 573 02dc 00000C40 		.word	1074528256
 574              		.cfi_endproc
 575              	.LFE59:
 577              		.align	2
 578              		.global	MCI_TXDisable
 579              		.thumb
 580              		.thumb_func
 582              	MCI_TXDisable:
 583              	.LFB60:
 341:../src/lib/lpc177x_8x/Drivers/source/lpc177x_8x_mci.c **** 
 342:../src/lib/lpc177x_8x/Drivers/source/lpc177x_8x_mci.c **** 
 343:../src/lib/lpc177x_8x/Drivers/source/lpc177x_8x_mci.c **** /*********************************************************************//**
 344:../src/lib/lpc177x_8x/Drivers/source/lpc177x_8x_mci.c ****  * @brief        Disable Transmit data interrupt
 345:../src/lib/lpc177x_8x/Drivers/source/lpc177x_8x_mci.c ****  *
 346:../src/lib/lpc177x_8x/Drivers/source/lpc177x_8x_mci.c ****  * @param        None
 347:../src/lib/lpc177x_8x/Drivers/source/lpc177x_8x_mci.c ****  *
 348:../src/lib/lpc177x_8x/Drivers/source/lpc177x_8x_mci.c ****  * @return       None
 349:../src/lib/lpc177x_8x/Drivers/source/lpc177x_8x_mci.c ****  *************************************************************************/
 350:../src/lib/lpc177x_8x/Drivers/source/lpc177x_8x_mci.c **** void MCI_TXDisable( void )
 351:../src/lib/lpc177x_8x/Drivers/source/lpc177x_8x_mci.c **** {
 584              		.loc 2 351 0
 585              		.cfi_startproc
 586              		@ args = 0, pretend = 0, frame = 0
 587              		@ frame_needed = 1, uses_anonymous_args = 0
 588              		@ link register save eliminated.
 589 02e0 80B4     		push	{r7}
 590              	.LCFI16:
 591              		.cfi_def_cfa_offset 4
 592              		.cfi_offset 7, -4
 593 02e2 00AF     		add	r7, sp, #0
 594              	.LCFI17:
 595              		.cfi_def_cfa_register 7
 352:../src/lib/lpc177x_8x/Drivers/source/lpc177x_8x_mci.c **** #if MCI_DMA_ENABLED
 353:../src/lib/lpc177x_8x/Drivers/source/lpc177x_8x_mci.c ****     LPC_MCI->MASK0 &= ~((DATA_END_INT_MASK)|(ERR_TX_INT_MASK));    /* Enable TX interrupts only */
 596              		.loc 2 353 0
 597 02e4 054A     		ldr	r2, .L41
 598 02e6 054B     		ldr	r3, .L41
 599 02e8 DB6B     		ldr	r3, [r3, #60]
 600 02ea 23F4E363 		bic	r3, r3, #1816
 601 02ee 23F00203 		bic	r3, r3, #2
 602 02f2 D363     		str	r3, [r2, #60]
 354:../src/lib/lpc177x_8x/Drivers/source/lpc177x_8x_mci.c **** #else
 355:../src/lib/lpc177x_8x/Drivers/source/lpc177x_8x_mci.c ****     LPC_MCI->MASK0 &= ~((FIFO_TX_INT_MASK)|(DATA_END_INT_MASK)|(ERR_TX_INT_MASK));    /* FIFO TX in
 356:../src/lib/lpc177x_8x/Drivers/source/lpc177x_8x_mci.c **** #endif
 357:../src/lib/lpc177x_8x/Drivers/source/lpc177x_8x_mci.c **** 
 358:../src/lib/lpc177x_8x/Drivers/source/lpc177x_8x_mci.c ****     return;
 603              		.loc 2 358 0
 604 02f4 00BF     		nop
 359:../src/lib/lpc177x_8x/Drivers/source/lpc177x_8x_mci.c **** }
 605              		.loc 2 359 0
 606 02f6 BD46     		mov	sp, r7
 607 02f8 80BC     		pop	{r7}
 608 02fa 7047     		bx	lr
 609              	.L42:
 610              		.align	2
 611              	.L41:
 612 02fc 00000C40 		.word	1074528256
 613              		.cfi_endproc
 614              	.LFE60:
 616              		.align	2
 617              		.global	MCI_RXEnable
 618              		.thumb
 619              		.thumb_func
 621              	MCI_RXEnable:
 622              	.LFB61:
 360:../src/lib/lpc177x_8x/Drivers/source/lpc177x_8x_mci.c **** 
 361:../src/lib/lpc177x_8x/Drivers/source/lpc177x_8x_mci.c **** 
 362:../src/lib/lpc177x_8x/Drivers/source/lpc177x_8x_mci.c **** /*********************************************************************//**
 363:../src/lib/lpc177x_8x/Drivers/source/lpc177x_8x_mci.c ****  * @brief        Enable Receive data interrupt
 364:../src/lib/lpc177x_8x/Drivers/source/lpc177x_8x_mci.c ****  *
 365:../src/lib/lpc177x_8x/Drivers/source/lpc177x_8x_mci.c ****  * @param        None
 366:../src/lib/lpc177x_8x/Drivers/source/lpc177x_8x_mci.c ****  *
 367:../src/lib/lpc177x_8x/Drivers/source/lpc177x_8x_mci.c ****  * @return       None
 368:../src/lib/lpc177x_8x/Drivers/source/lpc177x_8x_mci.c ****  *************************************************************************/
 369:../src/lib/lpc177x_8x/Drivers/source/lpc177x_8x_mci.c **** void MCI_RXEnable( void )
 370:../src/lib/lpc177x_8x/Drivers/source/lpc177x_8x_mci.c **** {
 623              		.loc 2 370 0
 624              		.cfi_startproc
 625              		@ args = 0, pretend = 0, frame = 0
 626              		@ frame_needed = 1, uses_anonymous_args = 0
 627              		@ link register save eliminated.
 628 0300 80B4     		push	{r7}
 629              	.LCFI18:
 630              		.cfi_def_cfa_offset 4
 631              		.cfi_offset 7, -4
 632 0302 00AF     		add	r7, sp, #0
 633              	.LCFI19:
 634              		.cfi_def_cfa_register 7
 371:../src/lib/lpc177x_8x/Drivers/source/lpc177x_8x_mci.c **** #if MCI_DMA_ENABLED
 372:../src/lib/lpc177x_8x/Drivers/source/lpc177x_8x_mci.c ****     LPC_MCI->MASK0 |= ((DATA_END_INT_MASK)|(ERR_RX_INT_MASK));    /* Enable RX interrupts only */
 635              		.loc 2 372 0
 636 0304 054A     		ldr	r2, .L45
 637 0306 054B     		ldr	r3, .L45
 638 0308 DB6B     		ldr	r3, [r3, #60]
 639 030a 43F4E563 		orr	r3, r3, #1832
 640 030e 43F00203 		orr	r3, r3, #2
 641 0312 D363     		str	r3, [r2, #60]
 373:../src/lib/lpc177x_8x/Drivers/source/lpc177x_8x_mci.c **** #else
 374:../src/lib/lpc177x_8x/Drivers/source/lpc177x_8x_mci.c ****     LPC_MCI->MASK0 |= ((FIFO_RX_INT_MASK)|(DATA_END_INT_MASK)|(ERR_RX_INT_MASK));    /* FIFO RX int
 375:../src/lib/lpc177x_8x/Drivers/source/lpc177x_8x_mci.c **** #endif
 376:../src/lib/lpc177x_8x/Drivers/source/lpc177x_8x_mci.c **** 
 377:../src/lib/lpc177x_8x/Drivers/source/lpc177x_8x_mci.c ****     return;
 642              		.loc 2 377 0
 643 0314 00BF     		nop
 378:../src/lib/lpc177x_8x/Drivers/source/lpc177x_8x_mci.c **** }
 644              		.loc 2 378 0
 645 0316 BD46     		mov	sp, r7
 646 0318 80BC     		pop	{r7}
 647 031a 7047     		bx	lr
 648              	.L46:
 649              		.align	2
 650              	.L45:
 651 031c 00000C40 		.word	1074528256
 652              		.cfi_endproc
 653              	.LFE61:
 655              		.align	2
 656              		.global	MCI_RXDisable
 657              		.thumb
 658              		.thumb_func
 660              	MCI_RXDisable:
 661              	.LFB62:
 379:../src/lib/lpc177x_8x/Drivers/source/lpc177x_8x_mci.c **** 
 380:../src/lib/lpc177x_8x/Drivers/source/lpc177x_8x_mci.c **** 
 381:../src/lib/lpc177x_8x/Drivers/source/lpc177x_8x_mci.c **** /*********************************************************************//**
 382:../src/lib/lpc177x_8x/Drivers/source/lpc177x_8x_mci.c ****  * @brief        Disable Receive data interrupt
 383:../src/lib/lpc177x_8x/Drivers/source/lpc177x_8x_mci.c ****  *
 384:../src/lib/lpc177x_8x/Drivers/source/lpc177x_8x_mci.c ****  * @param        None
 385:../src/lib/lpc177x_8x/Drivers/source/lpc177x_8x_mci.c ****  *
 386:../src/lib/lpc177x_8x/Drivers/source/lpc177x_8x_mci.c ****  * @return       None
 387:../src/lib/lpc177x_8x/Drivers/source/lpc177x_8x_mci.c ****  *************************************************************************/
 388:../src/lib/lpc177x_8x/Drivers/source/lpc177x_8x_mci.c **** void MCI_RXDisable( void )
 389:../src/lib/lpc177x_8x/Drivers/source/lpc177x_8x_mci.c **** {
 662              		.loc 2 389 0
 663              		.cfi_startproc
 664              		@ args = 0, pretend = 0, frame = 0
 665              		@ frame_needed = 1, uses_anonymous_args = 0
 666              		@ link register save eliminated.
 667 0320 80B4     		push	{r7}
 668              	.LCFI20:
 669              		.cfi_def_cfa_offset 4
 670              		.cfi_offset 7, -4
 671 0322 00AF     		add	r7, sp, #0
 672              	.LCFI21:
 673              		.cfi_def_cfa_register 7
 390:../src/lib/lpc177x_8x/Drivers/source/lpc177x_8x_mci.c **** #if MCI_DMA_ENABLED
 391:../src/lib/lpc177x_8x/Drivers/source/lpc177x_8x_mci.c ****     LPC_MCI->MASK0 &= ~((DATA_END_INT_MASK)|(ERR_RX_INT_MASK));    /* Enable TX interrupts only */
 674              		.loc 2 391 0
 675 0324 054A     		ldr	r2, .L49
 676 0326 054B     		ldr	r3, .L49
 677 0328 DB6B     		ldr	r3, [r3, #60]
 678 032a 23F4E563 		bic	r3, r3, #1832
 679 032e 23F00203 		bic	r3, r3, #2
 680 0332 D363     		str	r3, [r2, #60]
 392:../src/lib/lpc177x_8x/Drivers/source/lpc177x_8x_mci.c **** #else
 393:../src/lib/lpc177x_8x/Drivers/source/lpc177x_8x_mci.c ****     LPC_MCI->MASK0 &= ~((FIFO_RX_INT_MASK)|(DATA_END_INT_MASK)|(ERR_RX_INT_MASK));    /* FIFO TX in
 394:../src/lib/lpc177x_8x/Drivers/source/lpc177x_8x_mci.c **** #endif
 395:../src/lib/lpc177x_8x/Drivers/source/lpc177x_8x_mci.c **** 
 396:../src/lib/lpc177x_8x/Drivers/source/lpc177x_8x_mci.c ****     return;
 681              		.loc 2 396 0
 682 0334 00BF     		nop
 397:../src/lib/lpc177x_8x/Drivers/source/lpc177x_8x_mci.c **** }
 683              		.loc 2 397 0
 684 0336 BD46     		mov	sp, r7
 685 0338 80BC     		pop	{r7}
 686 033a 7047     		bx	lr
 687              	.L50:
 688              		.align	2
 689              	.L49:
 690 033c 00000C40 		.word	1074528256
 691              		.cfi_endproc
 692              	.LFE62:
 694              		.align	2
 695              		.global	MCI_CheckStatus
 696              		.thumb
 697              		.thumb_func
 699              	MCI_CheckStatus:
 700              	.LFB63:
 398:../src/lib/lpc177x_8x/Drivers/source/lpc177x_8x_mci.c **** 
 399:../src/lib/lpc177x_8x/Drivers/source/lpc177x_8x_mci.c **** /*********************************************************************//**
 400:../src/lib/lpc177x_8x/Drivers/source/lpc177x_8x_mci.c ****  * @brief      Check if the card is in the given state.
 401:../src/lib/lpc177x_8x/Drivers/source/lpc177x_8x_mci.c ****  *@param       expect_status    expected status
 402:../src/lib/lpc177x_8x/Drivers/source/lpc177x_8x_mci.c ****  * @details    Continuously get the card status until the card is ready. if its status matches 
 403:../src/lib/lpc177x_8x/Drivers/source/lpc177x_8x_mci.c ****  *             with the given state, return with success. Else, return MCI_FUNC_ERR_STATE.
 404:../src/lib/lpc177x_8x/Drivers/source/lpc177x_8x_mci.c ****  *             If the card is still not ready, return MCI_FUNC_NOT_READY.
 405:../src/lib/lpc177x_8x/Drivers/source/lpc177x_8x_mci.c ****  *
 406:../src/lib/lpc177x_8x/Drivers/source/lpc177x_8x_mci.c ****  * @param      None
 407:../src/lib/lpc177x_8x/Drivers/source/lpc177x_8x_mci.c ****  *
 408:../src/lib/lpc177x_8x/Drivers/source/lpc177x_8x_mci.c ****  * @return     MCI_FUNC_OK if all success
 409:../src/lib/lpc177x_8x/Drivers/source/lpc177x_8x_mci.c ****  *************************************************************************/
 410:../src/lib/lpc177x_8x/Drivers/source/lpc177x_8x_mci.c **** int32_t MCI_CheckStatus(uint8_t expect_status)
 411:../src/lib/lpc177x_8x/Drivers/source/lpc177x_8x_mci.c **** {
 701              		.loc 2 411 0
 702              		.cfi_startproc
 703              		@ args = 0, pretend = 0, frame = 24
 704              		@ frame_needed = 1, uses_anonymous_args = 0
 705 0340 80B5     		push	{r7, lr}
 706              	.LCFI22:
 707              		.cfi_def_cfa_offset 8
 708              		.cfi_offset 7, -8
 709              		.cfi_offset 14, -4
 710 0342 86B0     		sub	sp, sp, #24
 711              	.LCFI23:
 712              		.cfi_def_cfa_offset 32
 713 0344 00AF     		add	r7, sp, #0
 714              	.LCFI24:
 715              		.cfi_def_cfa_register 7
 716 0346 0346     		mov	r3, r0
 717 0348 FB71     		strb	r3, [r7, #7]
 412:../src/lib/lpc177x_8x/Drivers/source/lpc177x_8x_mci.c ****     int32_t respValue, retval = MCI_FUNC_FAILED;
 718              		.loc 2 412 0
 719 034a 4FF0FF33 		mov	r3, #-1
 720 034e 7B61     		str	r3, [r7, #20]
 413:../src/lib/lpc177x_8x/Drivers/source/lpc177x_8x_mci.c ****     uint32_t retryCnt = 0xFFFF, i;
 721              		.loc 2 413 0
 722 0350 4FF6FF73 		movw	r3, #65535
 723 0354 3B61     		str	r3, [r7, #16]
 414:../src/lib/lpc177x_8x/Drivers/source/lpc177x_8x_mci.c ****     while (retryCnt > 0)
 724              		.loc 2 414 0
 725 0356 34E0     		b	.L52
 726              	.L61:
 415:../src/lib/lpc177x_8x/Drivers/source/lpc177x_8x_mci.c ****     {
 416:../src/lib/lpc177x_8x/Drivers/source/lpc177x_8x_mci.c ****         if (MCI_GetCardStatus(&respValue) != MCI_FUNC_OK)
 727              		.loc 2 416 0
 728 0358 07F10803 		add	r3, r7, #8
 729 035c 1846     		mov	r0, r3
 730 035e FFF7FEFF 		bl	MCI_GetCardStatus
 731 0362 0346     		mov	r3, r0
 732 0364 002B     		cmp	r3, #0
 733 0366 30D1     		bne	.L63
 734              	.L53:
 417:../src/lib/lpc177x_8x/Drivers/source/lpc177x_8x_mci.c ****         {
 418:../src/lib/lpc177x_8x/Drivers/source/lpc177x_8x_mci.c ****             break;
 419:../src/lib/lpc177x_8x/Drivers/source/lpc177x_8x_mci.c ****         }
 420:../src/lib/lpc177x_8x/Drivers/source/lpc177x_8x_mci.c ****         else
 421:../src/lib/lpc177x_8x/Drivers/source/lpc177x_8x_mci.c ****         {
 422:../src/lib/lpc177x_8x/Drivers/source/lpc177x_8x_mci.c ****             /* The only valid state is TRANS per MMC and SD state diagram.
 423:../src/lib/lpc177x_8x/Drivers/source/lpc177x_8x_mci.c ****             RCV state may be seen, but, it happens only when TX_ACTIVE or
 424:../src/lib/lpc177x_8x/Drivers/source/lpc177x_8x_mci.c ****             RX_ACTIVE occurs before the WRITE_BLOCK and READ_BLOCK cmds are
 425:../src/lib/lpc177x_8x/Drivers/source/lpc177x_8x_mci.c ****             being sent, which is not a valid sequence. */
 426:../src/lib/lpc177x_8x/Drivers/source/lpc177x_8x_mci.c ****             if(!(respValue & CARD_STATUS_READY_FOR_DATA ))
 735              		.loc 2 426 0
 736 0368 BB68     		ldr	r3, [r7, #8]
 737 036a 03F48073 		and	r3, r3, #256
 738 036e 002B     		cmp	r3, #0
 739 0370 03D1     		bne	.L55
 427:../src/lib/lpc177x_8x/Drivers/source/lpc177x_8x_mci.c ****             {
 428:../src/lib/lpc177x_8x/Drivers/source/lpc177x_8x_mci.c ****                 retval = MCI_FUNC_NOT_READY;
 740              		.loc 2 428 0
 741 0372 6FF00403 		mvn	r3, #4
 742 0376 7B61     		str	r3, [r7, #20]
 743 0378 14E0     		b	.L56
 744              	.L55:
 429:../src/lib/lpc177x_8x/Drivers/source/lpc177x_8x_mci.c ****             }
 430:../src/lib/lpc177x_8x/Drivers/source/lpc177x_8x_mci.c ****             else if(CARDSTATEOF(respValue) != expect_status)
 745              		.loc 2 430 0
 746 037a BB68     		ldr	r3, [r7, #8]
 747 037c 4FEA6323 		asr	r3, r3, #9
 748 0380 03F00F02 		and	r2, r3, #15
 749 0384 FB79     		ldrb	r3, [r7, #7]	@ zero_extendqisi2
 750 0386 9A42     		cmp	r2, r3
 751 0388 09D0     		beq	.L57
 431:../src/lib/lpc177x_8x/Drivers/source/lpc177x_8x_mci.c ****             {
 432:../src/lib/lpc177x_8x/Drivers/source/lpc177x_8x_mci.c ****               // If card is in prg state, wait until it changes to trans state
 433:../src/lib/lpc177x_8x/Drivers/source/lpc177x_8x_mci.c ****               // when "operation complete"
 434:../src/lib/lpc177x_8x/Drivers/source/lpc177x_8x_mci.c ****               if(CARDSTATEOF(respValue) != CARD_STATE_PRG)
 752              		.loc 2 434 0
 753 038a BB68     		ldr	r3, [r7, #8]
 754 038c 4FEA6323 		asr	r3, r3, #9
 755 0390 03F00F03 		and	r3, r3, #15
 756 0394 072B     		cmp	r3, #7
 757 0396 05D0     		beq	.L56
 435:../src/lib/lpc177x_8x/Drivers/source/lpc177x_8x_mci.c ****               {
 436:../src/lib/lpc177x_8x/Drivers/source/lpc177x_8x_mci.c ****                 return MCI_FUNC_ERR_STATE;
 758              		.loc 2 436 0
 759 0398 6FF00303 		mvn	r3, #3
 760 039c 17E0     		b	.L62
 761              	.L57:
 437:../src/lib/lpc177x_8x/Drivers/source/lpc177x_8x_mci.c ****               }    
 438:../src/lib/lpc177x_8x/Drivers/source/lpc177x_8x_mci.c ****             }
 439:../src/lib/lpc177x_8x/Drivers/source/lpc177x_8x_mci.c ****             else
 440:../src/lib/lpc177x_8x/Drivers/source/lpc177x_8x_mci.c ****             {
 441:../src/lib/lpc177x_8x/Drivers/source/lpc177x_8x_mci.c ****                 return MCI_FUNC_OK;
 762              		.loc 2 441 0
 763 039e 4FF00003 		mov	r3, #0
 764 03a2 14E0     		b	.L62
 765              	.L56:
 442:../src/lib/lpc177x_8x/Drivers/source/lpc177x_8x_mci.c ****             }
 443:../src/lib/lpc177x_8x/Drivers/source/lpc177x_8x_mci.c ****         }
 444:../src/lib/lpc177x_8x/Drivers/source/lpc177x_8x_mci.c ****         retryCnt--;
 766              		.loc 2 444 0
 767 03a4 3B69     		ldr	r3, [r7, #16]
 768 03a6 03F1FF33 		add	r3, r3, #-1
 769 03aa 3B61     		str	r3, [r7, #16]
 445:../src/lib/lpc177x_8x/Drivers/source/lpc177x_8x_mci.c ****         for(i = 0; i < 0x20; i++);
 770              		.loc 2 445 0
 771 03ac 4FF00003 		mov	r3, #0
 772 03b0 FB60     		str	r3, [r7, #12]
 773 03b2 03E0     		b	.L59
 774              	.L60:
 775              		.loc 2 445 0 is_stmt 0 discriminator 2
 776 03b4 FB68     		ldr	r3, [r7, #12]
 777 03b6 03F10103 		add	r3, r3, #1
 778 03ba FB60     		str	r3, [r7, #12]
 779              	.L59:
 780              		.loc 2 445 0 discriminator 1
 781 03bc FB68     		ldr	r3, [r7, #12]
 782 03be 1F2B     		cmp	r3, #31
 783 03c0 F8D9     		bls	.L60
 784              	.L52:
 414:../src/lib/lpc177x_8x/Drivers/source/lpc177x_8x_mci.c ****     while (retryCnt > 0)
 785              		.loc 2 414 0 is_stmt 1 discriminator 1
 786 03c2 3B69     		ldr	r3, [r7, #16]
 787 03c4 002B     		cmp	r3, #0
 788 03c6 C7D1     		bne	.L61
 789 03c8 00E0     		b	.L54
 790              	.L63:
 418:../src/lib/lpc177x_8x/Drivers/source/lpc177x_8x_mci.c ****             break;
 791              		.loc 2 418 0
 792 03ca 00BF     		nop
 793              	.L54:
 446:../src/lib/lpc177x_8x/Drivers/source/lpc177x_8x_mci.c ****         
 447:../src/lib/lpc177x_8x/Drivers/source/lpc177x_8x_mci.c ****     }
 448:../src/lib/lpc177x_8x/Drivers/source/lpc177x_8x_mci.c **** 
 449:../src/lib/lpc177x_8x/Drivers/source/lpc177x_8x_mci.c ****     return retval;
 794              		.loc 2 449 0
 795 03cc 7B69     		ldr	r3, [r7, #20]
 796              	.L62:
 450:../src/lib/lpc177x_8x/Drivers/source/lpc177x_8x_mci.c **** }
 797              		.loc 2 450 0
 798 03ce 1846     		mov	r0, r3
 799 03d0 07F11807 		add	r7, r7, #24
 800 03d4 BD46     		mov	sp, r7
 801 03d6 80BD     		pop	{r7, pc}
 802              		.cfi_endproc
 803              	.LFE63:
 805              		.align	2
 806              		.global	MCI_CmdProcess
 807              		.thumb
 808              		.thumb_func
 810              	MCI_CmdProcess:
 811              	.LFB64:
 451:../src/lib/lpc177x_8x/Drivers/source/lpc177x_8x_mci.c **** 
 452:../src/lib/lpc177x_8x/Drivers/source/lpc177x_8x_mci.c **** 
 453:../src/lib/lpc177x_8x/Drivers/source/lpc177x_8x_mci.c **** /*********************************************************************//**
 454:../src/lib/lpc177x_8x/Drivers/source/lpc177x_8x_mci.c ****  * @brief        Called by MCI interrupt handler to simplify the command
 455:../src/lib/lpc177x_8x/Drivers/source/lpc177x_8x_mci.c ****  *                process.
 456:../src/lib/lpc177x_8x/Drivers/source/lpc177x_8x_mci.c ****  *
 457:../src/lib/lpc177x_8x/Drivers/source/lpc177x_8x_mci.c ****  * @param        None
 458:../src/lib/lpc177x_8x/Drivers/source/lpc177x_8x_mci.c ****  *
 459:../src/lib/lpc177x_8x/Drivers/source/lpc177x_8x_mci.c ****  * @return       None
 460:../src/lib/lpc177x_8x/Drivers/source/lpc177x_8x_mci.c ****  *
 461:../src/lib/lpc177x_8x/Drivers/source/lpc177x_8x_mci.c ****  * @note         In card initialization, the commnad interrupts are disabled
 462:../src/lib/lpc177x_8x/Drivers/source/lpc177x_8x_mci.c ****  *************************************************************************/
 463:../src/lib/lpc177x_8x/Drivers/source/lpc177x_8x_mci.c **** void MCI_CmdProcess( void )
 464:../src/lib/lpc177x_8x/Drivers/source/lpc177x_8x_mci.c **** {
 812              		.loc 2 464 0
 813              		.cfi_startproc
 814              		@ args = 0, pretend = 0, frame = 8
 815              		@ frame_needed = 1, uses_anonymous_args = 0
 816              		@ link register save eliminated.
 817 03d8 80B4     		push	{r7}
 818              	.LCFI25:
 819              		.cfi_def_cfa_offset 4
 820              		.cfi_offset 7, -4
 821 03da 83B0     		sub	sp, sp, #12
 822              	.LCFI26:
 823              		.cfi_def_cfa_offset 16
 824 03dc 00AF     		add	r7, sp, #0
 825              	.LCFI27:
 826              		.cfi_def_cfa_register 7
 465:../src/lib/lpc177x_8x/Drivers/source/lpc177x_8x_mci.c ****     uint32_t MCIStatus;
 466:../src/lib/lpc177x_8x/Drivers/source/lpc177x_8x_mci.c **** 
 467:../src/lib/lpc177x_8x/Drivers/source/lpc177x_8x_mci.c ****     MCIStatus = LPC_MCI->STATUS;
 827              		.loc 2 467 0
 828 03de 1B4B     		ldr	r3, .L72
 829 03e0 5B6B     		ldr	r3, [r3, #52]
 830 03e2 7B60     		str	r3, [r7, #4]
 468:../src/lib/lpc177x_8x/Drivers/source/lpc177x_8x_mci.c **** 
 469:../src/lib/lpc177x_8x/Drivers/source/lpc177x_8x_mci.c ****     if ( MCIStatus &  MCI_CMD_CRC_FAIL )
 831              		.loc 2 469 0
 832 03e4 7B68     		ldr	r3, [r7, #4]
 833 03e6 03F00103 		and	r3, r3, #1
 834 03ea 002B     		cmp	r3, #0
 835 03ec 03D0     		beq	.L65
 470:../src/lib/lpc177x_8x/Drivers/source/lpc177x_8x_mci.c ****     {
 471:../src/lib/lpc177x_8x/Drivers/source/lpc177x_8x_mci.c ****         LPC_MCI->CLEAR =  MCI_CMD_CRC_FAIL;
 836              		.loc 2 471 0
 837 03ee 174B     		ldr	r3, .L72
 838 03f0 4FF00102 		mov	r2, #1
 839 03f4 9A63     		str	r2, [r3, #56]
 840              	.L65:
 472:../src/lib/lpc177x_8x/Drivers/source/lpc177x_8x_mci.c ****     }
 473:../src/lib/lpc177x_8x/Drivers/source/lpc177x_8x_mci.c **** 
 474:../src/lib/lpc177x_8x/Drivers/source/lpc177x_8x_mci.c ****     if ( MCIStatus &  MCI_CMD_TIMEOUT )
 841              		.loc 2 474 0
 842 03f6 7B68     		ldr	r3, [r7, #4]
 843 03f8 03F00403 		and	r3, r3, #4
 844 03fc 002B     		cmp	r3, #0
 845 03fe 03D0     		beq	.L66
 475:../src/lib/lpc177x_8x/Drivers/source/lpc177x_8x_mci.c ****     {
 476:../src/lib/lpc177x_8x/Drivers/source/lpc177x_8x_mci.c ****         LPC_MCI->CLEAR =  MCI_CMD_TIMEOUT;
 846              		.loc 2 476 0
 847 0400 124B     		ldr	r3, .L72
 848 0402 4FF00402 		mov	r2, #4
 849 0406 9A63     		str	r2, [r3, #56]
 850              	.L66:
 477:../src/lib/lpc177x_8x/Drivers/source/lpc177x_8x_mci.c ****     }
 478:../src/lib/lpc177x_8x/Drivers/source/lpc177x_8x_mci.c **** 
 479:../src/lib/lpc177x_8x/Drivers/source/lpc177x_8x_mci.c ****     /* Cmd Resp End or Cmd Sent */
 480:../src/lib/lpc177x_8x/Drivers/source/lpc177x_8x_mci.c ****     if ( MCIStatus &  MCI_CMD_RESP_END )
 851              		.loc 2 480 0
 852 0408 7B68     		ldr	r3, [r7, #4]
 853 040a 03F04003 		and	r3, r3, #64
 854 040e 002B     		cmp	r3, #0
 855 0410 03D0     		beq	.L67
 481:../src/lib/lpc177x_8x/Drivers/source/lpc177x_8x_mci.c ****     {
 482:../src/lib/lpc177x_8x/Drivers/source/lpc177x_8x_mci.c ****         LPC_MCI->CLEAR =  MCI_CMD_RESP_END;
 856              		.loc 2 482 0
 857 0412 0E4B     		ldr	r3, .L72
 858 0414 4FF04002 		mov	r2, #64
 859 0418 9A63     		str	r2, [r3, #56]
 860              	.L67:
 483:../src/lib/lpc177x_8x/Drivers/source/lpc177x_8x_mci.c ****     }
 484:../src/lib/lpc177x_8x/Drivers/source/lpc177x_8x_mci.c **** 
 485:../src/lib/lpc177x_8x/Drivers/source/lpc177x_8x_mci.c ****     if ( MCIStatus &  MCI_CMD_SENT )
 861              		.loc 2 485 0
 862 041a 7B68     		ldr	r3, [r7, #4]
 863 041c 03F08003 		and	r3, r3, #128
 864 0420 002B     		cmp	r3, #0
 865 0422 03D0     		beq	.L68
 486:../src/lib/lpc177x_8x/Drivers/source/lpc177x_8x_mci.c ****     {
 487:../src/lib/lpc177x_8x/Drivers/source/lpc177x_8x_mci.c ****         LPC_MCI->CLEAR =  MCI_CMD_SENT;
 866              		.loc 2 487 0
 867 0424 094B     		ldr	r3, .L72
 868 0426 4FF08002 		mov	r2, #128
 869 042a 9A63     		str	r2, [r3, #56]
 870              	.L68:
 488:../src/lib/lpc177x_8x/Drivers/source/lpc177x_8x_mci.c ****     }
 489:../src/lib/lpc177x_8x/Drivers/source/lpc177x_8x_mci.c **** 
 490:../src/lib/lpc177x_8x/Drivers/source/lpc177x_8x_mci.c ****     if ( MCIStatus &  MCI_CMD_ACTIVE )
 871              		.loc 2 490 0
 872 042c 7B68     		ldr	r3, [r7, #4]
 873 042e 03F40063 		and	r3, r3, #2048
 874 0432 002B     		cmp	r3, #0
 875 0434 03D0     		beq	.L71
 491:../src/lib/lpc177x_8x/Drivers/source/lpc177x_8x_mci.c ****     {
 492:../src/lib/lpc177x_8x/Drivers/source/lpc177x_8x_mci.c ****         LPC_MCI->CLEAR =  MCI_CMD_ACTIVE;
 876              		.loc 2 492 0
 877 0436 054B     		ldr	r3, .L72
 878 0438 4FF40062 		mov	r2, #2048
 879 043c 9A63     		str	r2, [r3, #56]
 880              	.L71:
 493:../src/lib/lpc177x_8x/Drivers/source/lpc177x_8x_mci.c ****     }
 494:../src/lib/lpc177x_8x/Drivers/source/lpc177x_8x_mci.c **** 
 495:../src/lib/lpc177x_8x/Drivers/source/lpc177x_8x_mci.c ****     return;
 881              		.loc 2 495 0
 882 043e 00BF     		nop
 883              	.L64:
 496:../src/lib/lpc177x_8x/Drivers/source/lpc177x_8x_mci.c **** }
 884              		.loc 2 496 0
 885 0440 07F10C07 		add	r7, r7, #12
 886 0444 BD46     		mov	sp, r7
 887 0446 80BC     		pop	{r7}
 888 0448 7047     		bx	lr
 889              	.L73:
 890 044a 00BF     		.align	2
 891              	.L72:
 892 044c 00000C40 		.word	1074528256
 893              		.cfi_endproc
 894              	.LFE64:
 896              		.align	2
 897              		.global	MCI_DataErrorProcess
 898              		.thumb
 899              		.thumb_func
 901              	MCI_DataErrorProcess:
 902              	.LFB65:
 497:../src/lib/lpc177x_8x/Drivers/source/lpc177x_8x_mci.c **** 
 498:../src/lib/lpc177x_8x/Drivers/source/lpc177x_8x_mci.c **** 
 499:../src/lib/lpc177x_8x/Drivers/source/lpc177x_8x_mci.c **** /*********************************************************************//**
 500:../src/lib/lpc177x_8x/Drivers/source/lpc177x_8x_mci.c ****  * @brief        Called by MCI interrupt handler to manage error on the bus
 501:../src/lib/lpc177x_8x/Drivers/source/lpc177x_8x_mci.c ****  *
 502:../src/lib/lpc177x_8x/Drivers/source/lpc177x_8x_mci.c ****  * @param        None
 503:../src/lib/lpc177x_8x/Drivers/source/lpc177x_8x_mci.c ****  *
 504:../src/lib/lpc177x_8x/Drivers/source/lpc177x_8x_mci.c ****  * @return       None
 505:../src/lib/lpc177x_8x/Drivers/source/lpc177x_8x_mci.c ****  *************************************************************************/
 506:../src/lib/lpc177x_8x/Drivers/source/lpc177x_8x_mci.c **** void MCI_DataErrorProcess( void )
 507:../src/lib/lpc177x_8x/Drivers/source/lpc177x_8x_mci.c **** {
 903              		.loc 2 507 0
 904              		.cfi_startproc
 905              		@ args = 0, pretend = 0, frame = 8
 906              		@ frame_needed = 1, uses_anonymous_args = 0
 907              		@ link register save eliminated.
 908 0450 80B4     		push	{r7}
 909              	.LCFI28:
 910              		.cfi_def_cfa_offset 4
 911              		.cfi_offset 7, -4
 912 0452 83B0     		sub	sp, sp, #12
 913              	.LCFI29:
 914              		.cfi_def_cfa_offset 16
 915 0454 00AF     		add	r7, sp, #0
 916              	.LCFI30:
 917              		.cfi_def_cfa_register 7
 508:../src/lib/lpc177x_8x/Drivers/source/lpc177x_8x_mci.c ****     uint32_t MCIStatus;
 509:../src/lib/lpc177x_8x/Drivers/source/lpc177x_8x_mci.c **** 
 510:../src/lib/lpc177x_8x/Drivers/source/lpc177x_8x_mci.c ****     MCIStatus = LPC_MCI->STATUS;
 918              		.loc 2 510 0
 919 0456 1E4B     		ldr	r3, .L81
 920 0458 5B6B     		ldr	r3, [r3, #52]
 921 045a 7B60     		str	r3, [r7, #4]
 511:../src/lib/lpc177x_8x/Drivers/source/lpc177x_8x_mci.c **** 
 512:../src/lib/lpc177x_8x/Drivers/source/lpc177x_8x_mci.c ****     if ( MCIStatus &  MCI_DATA_CRC_FAIL )
 922              		.loc 2 512 0
 923 045c 7B68     		ldr	r3, [r7, #4]
 924 045e 03F00203 		and	r3, r3, #2
 925 0462 002B     		cmp	r3, #0
 926 0464 03D0     		beq	.L75
 513:../src/lib/lpc177x_8x/Drivers/source/lpc177x_8x_mci.c ****     {
 514:../src/lib/lpc177x_8x/Drivers/source/lpc177x_8x_mci.c ****         LPC_MCI->CLEAR = MCI_DATA_CRC_FAIL;
 927              		.loc 2 514 0
 928 0466 1A4B     		ldr	r3, .L81
 929 0468 4FF00202 		mov	r2, #2
 930 046c 9A63     		str	r2, [r3, #56]
 931              	.L75:
 515:../src/lib/lpc177x_8x/Drivers/source/lpc177x_8x_mci.c ****     }
 516:../src/lib/lpc177x_8x/Drivers/source/lpc177x_8x_mci.c **** 
 517:../src/lib/lpc177x_8x/Drivers/source/lpc177x_8x_mci.c ****     if ( MCIStatus &  MCI_DATA_TIMEOUT )
 932              		.loc 2 517 0
 933 046e 7B68     		ldr	r3, [r7, #4]
 934 0470 03F00803 		and	r3, r3, #8
 935 0474 002B     		cmp	r3, #0
 936 0476 03D0     		beq	.L76
 518:../src/lib/lpc177x_8x/Drivers/source/lpc177x_8x_mci.c ****     {
 519:../src/lib/lpc177x_8x/Drivers/source/lpc177x_8x_mci.c ****         LPC_MCI->CLEAR =  MCI_DATA_TIMEOUT;
 937              		.loc 2 519 0
 938 0478 154B     		ldr	r3, .L81
 939 047a 4FF00802 		mov	r2, #8
 940 047e 9A63     		str	r2, [r3, #56]
 941              	.L76:
 520:../src/lib/lpc177x_8x/Drivers/source/lpc177x_8x_mci.c ****     }
 521:../src/lib/lpc177x_8x/Drivers/source/lpc177x_8x_mci.c **** 
 522:../src/lib/lpc177x_8x/Drivers/source/lpc177x_8x_mci.c ****     /* Underrun or overrun */
 523:../src/lib/lpc177x_8x/Drivers/source/lpc177x_8x_mci.c ****     if ( MCIStatus &  MCI_TX_UNDERRUN )
 942              		.loc 2 523 0
 943 0480 7B68     		ldr	r3, [r7, #4]
 944 0482 03F01003 		and	r3, r3, #16
 945 0486 002B     		cmp	r3, #0
 946 0488 03D0     		beq	.L77
 524:../src/lib/lpc177x_8x/Drivers/source/lpc177x_8x_mci.c ****     {
 525:../src/lib/lpc177x_8x/Drivers/source/lpc177x_8x_mci.c ****         LPC_MCI->CLEAR = MCI_TX_UNDERRUN;
 947              		.loc 2 525 0
 948 048a 114B     		ldr	r3, .L81
 949 048c 4FF01002 		mov	r2, #16
 950 0490 9A63     		str	r2, [r3, #56]
 951              	.L77:
 526:../src/lib/lpc177x_8x/Drivers/source/lpc177x_8x_mci.c ****     }
 527:../src/lib/lpc177x_8x/Drivers/source/lpc177x_8x_mci.c **** 
 528:../src/lib/lpc177x_8x/Drivers/source/lpc177x_8x_mci.c ****     if ( MCIStatus &  MCI_RX_OVERRUN )
 952              		.loc 2 528 0
 953 0492 7B68     		ldr	r3, [r7, #4]
 954 0494 03F02003 		and	r3, r3, #32
 955 0498 002B     		cmp	r3, #0
 956 049a 03D0     		beq	.L78
 529:../src/lib/lpc177x_8x/Drivers/source/lpc177x_8x_mci.c ****     {
 530:../src/lib/lpc177x_8x/Drivers/source/lpc177x_8x_mci.c ****         LPC_MCI->CLEAR =  MCI_RX_OVERRUN;
 957              		.loc 2 530 0
 958 049c 0C4B     		ldr	r3, .L81
 959 049e 4FF02002 		mov	r2, #32
 960 04a2 9A63     		str	r2, [r3, #56]
 961              	.L78:
 531:../src/lib/lpc177x_8x/Drivers/source/lpc177x_8x_mci.c ****     }
 532:../src/lib/lpc177x_8x/Drivers/source/lpc177x_8x_mci.c **** 
 533:../src/lib/lpc177x_8x/Drivers/source/lpc177x_8x_mci.c ****     /* Start bit error on data signal */
 534:../src/lib/lpc177x_8x/Drivers/source/lpc177x_8x_mci.c ****     if ( MCIStatus &  MCI_START_BIT_ERR )
 962              		.loc 2 534 0
 963 04a4 7B68     		ldr	r3, [r7, #4]
 964 04a6 03F40073 		and	r3, r3, #512
 965 04aa 002B     		cmp	r3, #0
 966 04ac 03D0     		beq	.L79
 535:../src/lib/lpc177x_8x/Drivers/source/lpc177x_8x_mci.c ****     {
 536:../src/lib/lpc177x_8x/Drivers/source/lpc177x_8x_mci.c ****         LPC_MCI->CLEAR =  MCI_START_BIT_ERR;
 967              		.loc 2 536 0
 968 04ae 084B     		ldr	r3, .L81
 969 04b0 4FF40072 		mov	r2, #512
 970 04b4 9A63     		str	r2, [r3, #56]
 971              	.L79:
 537:../src/lib/lpc177x_8x/Drivers/source/lpc177x_8x_mci.c ****     }
 538:../src/lib/lpc177x_8x/Drivers/source/lpc177x_8x_mci.c **** 
 539:../src/lib/lpc177x_8x/Drivers/source/lpc177x_8x_mci.c ****     Mci_Data_Xfer_End = 0;
 972              		.loc 2 539 0
 973 04b6 074B     		ldr	r3, .L81+4
 974 04b8 4FF00002 		mov	r2, #0
 975 04bc 1A60     		str	r2, [r3, #0]
 540:../src/lib/lpc177x_8x/Drivers/source/lpc177x_8x_mci.c ****     Mci_Data_Xfer_ERR = MCIStatus;
 976              		.loc 2 540 0
 977 04be 064B     		ldr	r3, .L81+8
 978 04c0 7A68     		ldr	r2, [r7, #4]
 979 04c2 1A60     		str	r2, [r3, #0]
 541:../src/lib/lpc177x_8x/Drivers/source/lpc177x_8x_mci.c ****     return;
 980              		.loc 2 541 0
 981 04c4 00BF     		nop
 542:../src/lib/lpc177x_8x/Drivers/source/lpc177x_8x_mci.c **** }
 982              		.loc 2 542 0
 983 04c6 07F10C07 		add	r7, r7, #12
 984 04ca BD46     		mov	sp, r7
 985 04cc 80BC     		pop	{r7}
 986 04ce 7047     		bx	lr
 987              	.L82:
 988              		.align	2
 989              	.L81:
 990 04d0 00000C40 		.word	1074528256
 991 04d4 00000000 		.word	Mci_Data_Xfer_End
 992 04d8 00000000 		.word	Mci_Data_Xfer_ERR
 993              		.cfi_endproc
 994              	.LFE65:
 996              		.align	2
 997              		.global	MCI_DATA_END_InterruptService
 998              		.thumb
 999              		.thumb_func
 1001              	MCI_DATA_END_InterruptService:
 1002              	.LFB66:
 543:../src/lib/lpc177x_8x/Drivers/source/lpc177x_8x_mci.c **** 
 544:../src/lib/lpc177x_8x/Drivers/source/lpc177x_8x_mci.c **** 
 545:../src/lib/lpc177x_8x/Drivers/source/lpc177x_8x_mci.c **** /*********************************************************************//**
 546:../src/lib/lpc177x_8x/Drivers/source/lpc177x_8x_mci.c ****  * @brief         Called by MCI interrupt handler. This is the last interrupt
 547:../src/lib/lpc177x_8x/Drivers/source/lpc177x_8x_mci.c ****  *                manipulates the process of the data-block write and read 
 548:../src/lib/lpc177x_8x/Drivers/source/lpc177x_8x_mci.c ****  *                to/with card
 549:../src/lib/lpc177x_8x/Drivers/source/lpc177x_8x_mci.c ****  *
 550:../src/lib/lpc177x_8x/Drivers/source/lpc177x_8x_mci.c ****  * @details       This service is also used with/without DMA support. It simply
 551:../src/lib/lpc177x_8x/Drivers/source/lpc177x_8x_mci.c ****  *                clears the flag messages the in-process data-block transfer 
 552:../src/lib/lpc177x_8x/Drivers/source/lpc177x_8x_mci.c ****  *                has been done/ended
 553:../src/lib/lpc177x_8x/Drivers/source/lpc177x_8x_mci.c ****  *
 554:../src/lib/lpc177x_8x/Drivers/source/lpc177x_8x_mci.c ****  * @param         None
 555:../src/lib/lpc177x_8x/Drivers/source/lpc177x_8x_mci.c ****  *
 556:../src/lib/lpc177x_8x/Drivers/source/lpc177x_8x_mci.c ****  * @return        None
 557:../src/lib/lpc177x_8x/Drivers/source/lpc177x_8x_mci.c ****  *************************************************************************/
 558:../src/lib/lpc177x_8x/Drivers/source/lpc177x_8x_mci.c **** void MCI_DATA_END_InterruptService( void )
 559:../src/lib/lpc177x_8x/Drivers/source/lpc177x_8x_mci.c **** {
 1003              		.loc 2 559 0
 1004              		.cfi_startproc
 1005              		@ args = 0, pretend = 0, frame = 8
 1006              		@ frame_needed = 1, uses_anonymous_args = 0
 1007 04dc 80B5     		push	{r7, lr}
 1008              	.LCFI31:
 1009              		.cfi_def_cfa_offset 8
 1010              		.cfi_offset 7, -8
 1011              		.cfi_offset 14, -4
 1012 04de 82B0     		sub	sp, sp, #8
 1013              	.LCFI32:
 1014              		.cfi_def_cfa_offset 16
 1015 04e0 00AF     		add	r7, sp, #0
 1016              	.LCFI33:
 1017              		.cfi_def_cfa_register 7
 560:../src/lib/lpc177x_8x/Drivers/source/lpc177x_8x_mci.c ****     uint32_t MCIStatus;
 561:../src/lib/lpc177x_8x/Drivers/source/lpc177x_8x_mci.c **** 
 562:../src/lib/lpc177x_8x/Drivers/source/lpc177x_8x_mci.c ****     MCIStatus = LPC_MCI->STATUS;
 1018              		.loc 2 562 0
 1019 04e2 144B     		ldr	r3, .L87
 1020 04e4 5B6B     		ldr	r3, [r3, #52]
 1021 04e6 7B60     		str	r3, [r7, #4]
 563:../src/lib/lpc177x_8x/Drivers/source/lpc177x_8x_mci.c ****     if ( MCIStatus &  MCI_DATA_END )        /* Data end, and Data block end  */
 1022              		.loc 2 563 0
 1023 04e8 7B68     		ldr	r3, [r7, #4]
 1024 04ea 03F48073 		and	r3, r3, #256
 1025 04ee 002B     		cmp	r3, #0
 1026 04f0 10D0     		beq	.L84
 564:../src/lib/lpc177x_8x/Drivers/source/lpc177x_8x_mci.c ****     {
 565:../src/lib/lpc177x_8x/Drivers/source/lpc177x_8x_mci.c ****         LPC_MCI->CLEAR = MCI_DATA_END;
 1027              		.loc 2 565 0
 1028 04f2 104B     		ldr	r3, .L87
 1029 04f4 4FF48072 		mov	r2, #256
 1030 04f8 9A63     		str	r2, [r3, #56]
 566:../src/lib/lpc177x_8x/Drivers/source/lpc177x_8x_mci.c **** 
 567:../src/lib/lpc177x_8x/Drivers/source/lpc177x_8x_mci.c ****         Mci_Data_Xfer_End = 0;
 1031              		.loc 2 567 0
 1032 04fa 0F4B     		ldr	r3, .L87+4
 1033 04fc 4FF00002 		mov	r2, #0
 1034 0500 1A60     		str	r2, [r3, #0]
 568:../src/lib/lpc177x_8x/Drivers/source/lpc177x_8x_mci.c **** 
 569:../src/lib/lpc177x_8x/Drivers/source/lpc177x_8x_mci.c ****         Mci_Data_Xfer_ERR = 0;
 1035              		.loc 2 569 0
 1036 0502 0E4B     		ldr	r3, .L87+8
 1037 0504 4FF00002 		mov	r2, #0
 1038 0508 1A60     		str	r2, [r3, #0]
 570:../src/lib/lpc177x_8x/Drivers/source/lpc177x_8x_mci.c **** 
 571:../src/lib/lpc177x_8x/Drivers/source/lpc177x_8x_mci.c ****         MCI_TXDisable();
 1039              		.loc 2 571 0
 1040 050a FFF7FEFF 		bl	MCI_TXDisable
 572:../src/lib/lpc177x_8x/Drivers/source/lpc177x_8x_mci.c ****         
 573:../src/lib/lpc177x_8x/Drivers/source/lpc177x_8x_mci.c ****         MCI_RXDisable();
 1041              		.loc 2 573 0
 1042 050e FFF7FEFF 		bl	MCI_RXDisable
 574:../src/lib/lpc177x_8x/Drivers/source/lpc177x_8x_mci.c **** 
 575:../src/lib/lpc177x_8x/Drivers/source/lpc177x_8x_mci.c ****         return;
 1043              		.loc 2 575 0
 1044 0512 0AE0     		b	.L83
 1045              	.L84:
 576:../src/lib/lpc177x_8x/Drivers/source/lpc177x_8x_mci.c ****     }
 577:../src/lib/lpc177x_8x/Drivers/source/lpc177x_8x_mci.c **** 
 578:../src/lib/lpc177x_8x/Drivers/source/lpc177x_8x_mci.c ****     if ( MCIStatus &  MCI_DATA_BLK_END )
 1046              		.loc 2 578 0
 1047 0514 7B68     		ldr	r3, [r7, #4]
 1048 0516 03F48063 		and	r3, r3, #1024
 1049 051a 002B     		cmp	r3, #0
 1050 051c 04D0     		beq	.L86
 579:../src/lib/lpc177x_8x/Drivers/source/lpc177x_8x_mci.c ****     {
 580:../src/lib/lpc177x_8x/Drivers/source/lpc177x_8x_mci.c ****         LPC_MCI->CLEAR =  MCI_DATA_BLK_END;
 1051              		.loc 2 580 0
 1052 051e 054B     		ldr	r3, .L87
 1053 0520 4FF48062 		mov	r2, #1024
 1054 0524 9A63     		str	r2, [r3, #56]
 581:../src/lib/lpc177x_8x/Drivers/source/lpc177x_8x_mci.c **** 
 582:../src/lib/lpc177x_8x/Drivers/source/lpc177x_8x_mci.c ****         //MCI_TXDisable();
 583:../src/lib/lpc177x_8x/Drivers/source/lpc177x_8x_mci.c **** 
 584:../src/lib/lpc177x_8x/Drivers/source/lpc177x_8x_mci.c ****         return;
 1055              		.loc 2 584 0
 1056 0526 00E0     		b	.L83
 1057              	.L86:
 585:../src/lib/lpc177x_8x/Drivers/source/lpc177x_8x_mci.c ****     }
 586:../src/lib/lpc177x_8x/Drivers/source/lpc177x_8x_mci.c **** 
 587:../src/lib/lpc177x_8x/Drivers/source/lpc177x_8x_mci.c ****     /* Tx active  */
 588:../src/lib/lpc177x_8x/Drivers/source/lpc177x_8x_mci.c ****     if ( MCIStatus & MCI_TX_ACTIVE )
 589:../src/lib/lpc177x_8x/Drivers/source/lpc177x_8x_mci.c ****     {
 590:../src/lib/lpc177x_8x/Drivers/source/lpc177x_8x_mci.c **** 
 591:../src/lib/lpc177x_8x/Drivers/source/lpc177x_8x_mci.c ****     }
 592:../src/lib/lpc177x_8x/Drivers/source/lpc177x_8x_mci.c **** 
 593:../src/lib/lpc177x_8x/Drivers/source/lpc177x_8x_mci.c ****     /* Rx active  */
 594:../src/lib/lpc177x_8x/Drivers/source/lpc177x_8x_mci.c ****     if ( MCIStatus & MCI_RX_ACTIVE )
 595:../src/lib/lpc177x_8x/Drivers/source/lpc177x_8x_mci.c ****     {
 596:../src/lib/lpc177x_8x/Drivers/source/lpc177x_8x_mci.c **** 
 597:../src/lib/lpc177x_8x/Drivers/source/lpc177x_8x_mci.c ****     }
 598:../src/lib/lpc177x_8x/Drivers/source/lpc177x_8x_mci.c **** 
 599:../src/lib/lpc177x_8x/Drivers/source/lpc177x_8x_mci.c ****     return;
 1058              		.loc 2 599 0
 1059 0528 00BF     		nop
 1060              	.L83:
 600:../src/lib/lpc177x_8x/Drivers/source/lpc177x_8x_mci.c **** }
 1061              		.loc 2 600 0
 1062 052a 07F10807 		add	r7, r7, #8
 1063 052e BD46     		mov	sp, r7
 1064 0530 80BD     		pop	{r7, pc}
 1065              	.L88:
 1066 0532 00BF     		.align	2
 1067              	.L87:
 1068 0534 00000C40 		.word	1074528256
 1069 0538 00000000 		.word	Mci_Data_Xfer_End
 1070 053c 00000000 		.word	Mci_Data_Xfer_ERR
 1071              		.cfi_endproc
 1072              	.LFE66:
 1074              		.align	2
 1075              		.global	MCI_FIFOInterruptService
 1076              		.thumb
 1077              		.thumb_func
 1079              	MCI_FIFOInterruptService:
 1080              	.LFB67:
 601:../src/lib/lpc177x_8x/Drivers/source/lpc177x_8x_mci.c **** 
 602:../src/lib/lpc177x_8x/Drivers/source/lpc177x_8x_mci.c **** 
 603:../src/lib/lpc177x_8x/Drivers/source/lpc177x_8x_mci.c **** /*********************************************************************//**
 604:../src/lib/lpc177x_8x/Drivers/source/lpc177x_8x_mci.c ****  * @brief        Called by MCI interrupt handler if requiring to using FIFO
 605:../src/lib/lpc177x_8x/Drivers/source/lpc177x_8x_mci.c ****  *                for data transferring. It copy data to/from FIFO register
 606:../src/lib/lpc177x_8x/Drivers/source/lpc177x_8x_mci.c ****  *                from/to a data buffer.
 607:../src/lib/lpc177x_8x/Drivers/source/lpc177x_8x_mci.c ****  *
 608:../src/lib/lpc177x_8x/Drivers/source/lpc177x_8x_mci.c ****  * @param        None
 609:../src/lib/lpc177x_8x/Drivers/source/lpc177x_8x_mci.c ****  *
 610:../src/lib/lpc177x_8x/Drivers/source/lpc177x_8x_mci.c ****  * @return       None
 611:../src/lib/lpc177x_8x/Drivers/source/lpc177x_8x_mci.c ****  *
 612:../src/lib/lpc177x_8x/Drivers/source/lpc177x_8x_mci.c ****  * @note         This function is done without DMA transfer support
 613:../src/lib/lpc177x_8x/Drivers/source/lpc177x_8x_mci.c ****  **********************************************************************/
 614:../src/lib/lpc177x_8x/Drivers/source/lpc177x_8x_mci.c **** void MCI_FIFOInterruptService( void )
 615:../src/lib/lpc177x_8x/Drivers/source/lpc177x_8x_mci.c **** {
 1081              		.loc 2 615 0
 1082              		.cfi_startproc
 1083              		@ args = 0, pretend = 0, frame = 0
 1084              		@ frame_needed = 1, uses_anonymous_args = 0
 1085              		@ link register save eliminated.
 1086 0540 80B4     		push	{r7}
 1087              	.LCFI34:
 1088              		.cfi_def_cfa_offset 4
 1089              		.cfi_offset 7, -4
 1090 0542 00AF     		add	r7, sp, #0
 1091              	.LCFI35:
 1092              		.cfi_def_cfa_register 7
 616:../src/lib/lpc177x_8x/Drivers/source/lpc177x_8x_mci.c **** #if !MCI_DMA_ENABLED
 617:../src/lib/lpc177x_8x/Drivers/source/lpc177x_8x_mci.c ****     uint32_t MCIStatus;
 618:../src/lib/lpc177x_8x/Drivers/source/lpc177x_8x_mci.c **** 
 619:../src/lib/lpc177x_8x/Drivers/source/lpc177x_8x_mci.c ****     MCIStatus = LPC_MCI->STATUS;
 620:../src/lib/lpc177x_8x/Drivers/source/lpc177x_8x_mci.c **** 
 621:../src/lib/lpc177x_8x/Drivers/source/lpc177x_8x_mci.c ****     if ( MCIStatus & (FIFO_TX_INT_MASK ) )
 622:../src/lib/lpc177x_8x/Drivers/source/lpc177x_8x_mci.c ****     {
 623:../src/lib/lpc177x_8x/Drivers/source/lpc177x_8x_mci.c ****         /* empty is multiple of 512 block size */
 624:../src/lib/lpc177x_8x/Drivers/source/lpc177x_8x_mci.c ****         if ( MCIStatus & MCI_TX_HALF_EMPTY )
 625:../src/lib/lpc177x_8x/Drivers/source/lpc177x_8x_mci.c ****         {
 626:../src/lib/lpc177x_8x/Drivers/source/lpc177x_8x_mci.c ****             //There's no data, return
 627:../src/lib/lpc177x_8x/Drivers/source/lpc177x_8x_mci.c ****             if(dataSrcBlock == NULL)
 628:../src/lib/lpc177x_8x/Drivers/source/lpc177x_8x_mci.c ****                 return;
 629:../src/lib/lpc177x_8x/Drivers/source/lpc177x_8x_mci.c **** 
 630:../src/lib/lpc177x_8x/Drivers/source/lpc177x_8x_mci.c ****             /* write 8 words to fifo */
 631:../src/lib/lpc177x_8x/Drivers/source/lpc177x_8x_mci.c ****             MCI_WriteFifo((uint32_t *)&dataSrcBlock[txBlockCnt]);
 632:../src/lib/lpc177x_8x/Drivers/source/lpc177x_8x_mci.c **** 
 633:../src/lib/lpc177x_8x/Drivers/source/lpc177x_8x_mci.c ****             txBlockCnt += 32;
 634:../src/lib/lpc177x_8x/Drivers/source/lpc177x_8x_mci.c ****         }
 635:../src/lib/lpc177x_8x/Drivers/source/lpc177x_8x_mci.c **** 
 636:../src/lib/lpc177x_8x/Drivers/source/lpc177x_8x_mci.c ****         if (txBlockCnt == BLOCK_LENGTH)    /* block complete */
 637:../src/lib/lpc177x_8x/Drivers/source/lpc177x_8x_mci.c ****         {
 638:../src/lib/lpc177x_8x/Drivers/source/lpc177x_8x_mci.c ****             dataSrcBlock += BLOCK_LENGTH;
 639:../src/lib/lpc177x_8x/Drivers/source/lpc177x_8x_mci.c **** 
 640:../src/lib/lpc177x_8x/Drivers/source/lpc177x_8x_mci.c ****             txBlockCnt = 0;
 641:../src/lib/lpc177x_8x/Drivers/source/lpc177x_8x_mci.c **** 
 642:../src/lib/lpc177x_8x/Drivers/source/lpc177x_8x_mci.c ****             /* disable FIFO int until next block write */
 643:../src/lib/lpc177x_8x/Drivers/source/lpc177x_8x_mci.c ****             //LPC_MCI->MASK0 &= ~(FIFO_TX_INT_MASK);
 644:../src/lib/lpc177x_8x/Drivers/source/lpc177x_8x_mci.c **** 
 645:../src/lib/lpc177x_8x/Drivers/source/lpc177x_8x_mci.c ****             /* wait for SD card to complete sending data i.e MCI_DATA_BLK_END interrupt */
 646:../src/lib/lpc177x_8x/Drivers/source/lpc177x_8x_mci.c ****         }
 647:../src/lib/lpc177x_8x/Drivers/source/lpc177x_8x_mci.c ****     }
 648:../src/lib/lpc177x_8x/Drivers/source/lpc177x_8x_mci.c ****     else if ( MCIStatus & (FIFO_RX_INT_MASK) )
 649:../src/lib/lpc177x_8x/Drivers/source/lpc177x_8x_mci.c ****     {
 650:../src/lib/lpc177x_8x/Drivers/source/lpc177x_8x_mci.c ****         /* if using RX_HALF_FULL remove one ReadFIFO below */
 651:../src/lib/lpc177x_8x/Drivers/source/lpc177x_8x_mci.c ****         if ( MCIStatus & MCI_RX_HALF_FULL )
 652:../src/lib/lpc177x_8x/Drivers/source/lpc177x_8x_mci.c ****         {
 653:../src/lib/lpc177x_8x/Drivers/source/lpc177x_8x_mci.c ****             //There's no store data, return
 654:../src/lib/lpc177x_8x/Drivers/source/lpc177x_8x_mci.c ****             if(dataDestBlock == NULL)
 655:../src/lib/lpc177x_8x/Drivers/source/lpc177x_8x_mci.c ****                 return;
 656:../src/lib/lpc177x_8x/Drivers/source/lpc177x_8x_mci.c **** 
 657:../src/lib/lpc177x_8x/Drivers/source/lpc177x_8x_mci.c ****             /* read 8 words from fifo */
 658:../src/lib/lpc177x_8x/Drivers/source/lpc177x_8x_mci.c ****             MCI_ReadFifo((uint32_t *)&dataDestBlock[rxBlockCnt]);
 659:../src/lib/lpc177x_8x/Drivers/source/lpc177x_8x_mci.c **** 
 660:../src/lib/lpc177x_8x/Drivers/source/lpc177x_8x_mci.c ****             rxBlockCnt += 32;
 661:../src/lib/lpc177x_8x/Drivers/source/lpc177x_8x_mci.c ****         }
 662:../src/lib/lpc177x_8x/Drivers/source/lpc177x_8x_mci.c **** 
 663:../src/lib/lpc177x_8x/Drivers/source/lpc177x_8x_mci.c ****         /* block complete */
 664:../src/lib/lpc177x_8x/Drivers/source/lpc177x_8x_mci.c ****         if (rxBlockCnt == BLOCK_LENGTH)
 665:../src/lib/lpc177x_8x/Drivers/source/lpc177x_8x_mci.c ****         {
 666:../src/lib/lpc177x_8x/Drivers/source/lpc177x_8x_mci.c ****             dataDestBlock += BLOCK_LENGTH;
 667:../src/lib/lpc177x_8x/Drivers/source/lpc177x_8x_mci.c **** 
 668:../src/lib/lpc177x_8x/Drivers/source/lpc177x_8x_mci.c ****             rxBlockCnt = 0;
 669:../src/lib/lpc177x_8x/Drivers/source/lpc177x_8x_mci.c ****         }
 670:../src/lib/lpc177x_8x/Drivers/source/lpc177x_8x_mci.c ****     }
 671:../src/lib/lpc177x_8x/Drivers/source/lpc177x_8x_mci.c **** #endif
 672:../src/lib/lpc177x_8x/Drivers/source/lpc177x_8x_mci.c **** 
 673:../src/lib/lpc177x_8x/Drivers/source/lpc177x_8x_mci.c ****     return;
 1093              		.loc 2 673 0
 1094 0544 00BF     		nop
 674:../src/lib/lpc177x_8x/Drivers/source/lpc177x_8x_mci.c **** }
 1095              		.loc 2 674 0
 1096 0546 BD46     		mov	sp, r7
 1097 0548 80BC     		pop	{r7}
 1098 054a 7047     		bx	lr
 1099              		.cfi_endproc
 1100              	.LFE67:
 1102              		.align	2
 1103              		.global	MCI_IRQHandler
 1104              		.thumb
 1105              		.thumb_func
 1107              	MCI_IRQHandler:
 1108              	.LFB68:
 675:../src/lib/lpc177x_8x/Drivers/source/lpc177x_8x_mci.c **** 
 676:../src/lib/lpc177x_8x/Drivers/source/lpc177x_8x_mci.c **** /*********************************************************************//**
 677:../src/lib/lpc177x_8x/Drivers/source/lpc177x_8x_mci.c ****  * @brief        MCI_IRQHandler is to manage the reasons that cause the 
 678:../src/lib/lpc177x_8x/Drivers/source/lpc177x_8x_mci.c ****  *               interrupt.
 679:../src/lib/lpc177x_8x/Drivers/source/lpc177x_8x_mci.c ****  *
 680:../src/lib/lpc177x_8x/Drivers/source/lpc177x_8x_mci.c ****  * @details      It controls the data-block writing and reading by access 
 681:../src/lib/lpc177x_8x/Drivers/source/lpc177x_8x_mci.c ****  *               the FIFO register.
 682:../src/lib/lpc177x_8x/Drivers/source/lpc177x_8x_mci.c ****  *               It handle the state changes on the MCI bus...
 683:../src/lib/lpc177x_8x/Drivers/source/lpc177x_8x_mci.c ****  *
 684:../src/lib/lpc177x_8x/Drivers/source/lpc177x_8x_mci.c ****  * @param        None
 685:../src/lib/lpc177x_8x/Drivers/source/lpc177x_8x_mci.c ****  *
 686:../src/lib/lpc177x_8x/Drivers/source/lpc177x_8x_mci.c ****  * @return       None
 687:../src/lib/lpc177x_8x/Drivers/source/lpc177x_8x_mci.c ****  **********************************************************************/
 688:../src/lib/lpc177x_8x/Drivers/source/lpc177x_8x_mci.c **** void MCI_IRQHandler (void)
 689:../src/lib/lpc177x_8x/Drivers/source/lpc177x_8x_mci.c **** {
 1109              		.loc 2 689 0
 1110              		.cfi_startproc
 1111              		@ args = 0, pretend = 0, frame = 8
 1112              		@ frame_needed = 1, uses_anonymous_args = 0
 1113 054c 80B5     		push	{r7, lr}
 1114              	.LCFI36:
 1115              		.cfi_def_cfa_offset 8
 1116              		.cfi_offset 7, -8
 1117              		.cfi_offset 14, -4
 1118 054e 82B0     		sub	sp, sp, #8
 1119              	.LCFI37:
 1120              		.cfi_def_cfa_offset 16
 1121 0550 00AF     		add	r7, sp, #0
 1122              	.LCFI38:
 1123              		.cfi_def_cfa_register 7
 690:../src/lib/lpc177x_8x/Drivers/source/lpc177x_8x_mci.c ****     uint32_t MCI_Status;
 691:../src/lib/lpc177x_8x/Drivers/source/lpc177x_8x_mci.c **** 
 692:../src/lib/lpc177x_8x/Drivers/source/lpc177x_8x_mci.c ****     MCI_Status = LPC_MCI->STATUS;
 1124              		.loc 2 692 0
 1125 0552 144B     		ldr	r3, .L96
 1126 0554 5B6B     		ldr	r3, [r3, #52]
 1127 0556 7B60     		str	r3, [r7, #4]
 693:../src/lib/lpc177x_8x/Drivers/source/lpc177x_8x_mci.c **** 
 694:../src/lib/lpc177x_8x/Drivers/source/lpc177x_8x_mci.c ****     /* handle MCI_STATUS interrupt */
 695:../src/lib/lpc177x_8x/Drivers/source/lpc177x_8x_mci.c ****     if ( MCI_Status & DATA_ERR_INT_MASK )
 1128              		.loc 2 695 0
 1129 0558 7A68     		ldr	r2, [r7, #4]
 1130 055a 40F23A23 		movw	r3, #570
 1131 055e 1340     		ands	r3, r3, r2
 1132 0560 002B     		cmp	r3, #0
 1133 0562 02D0     		beq	.L92
 696:../src/lib/lpc177x_8x/Drivers/source/lpc177x_8x_mci.c ****     {
 697:../src/lib/lpc177x_8x/Drivers/source/lpc177x_8x_mci.c ****         MCI_DataErrorProcess();
 1134              		.loc 2 697 0
 1135 0564 FFF7FEFF 		bl	MCI_DataErrorProcess
 698:../src/lib/lpc177x_8x/Drivers/source/lpc177x_8x_mci.c **** 
 699:../src/lib/lpc177x_8x/Drivers/source/lpc177x_8x_mci.c ****         return;
 1136              		.loc 2 699 0
 1137 0568 18E0     		b	.L91
 1138              	.L92:
 700:../src/lib/lpc177x_8x/Drivers/source/lpc177x_8x_mci.c ****     }
 701:../src/lib/lpc177x_8x/Drivers/source/lpc177x_8x_mci.c **** 
 702:../src/lib/lpc177x_8x/Drivers/source/lpc177x_8x_mci.c ****     if ( MCI_Status & DATA_END_INT_MASK )
 1139              		.loc 2 702 0
 1140 056a 7B68     		ldr	r3, [r7, #4]
 1141 056c 03F4A063 		and	r3, r3, #1280
 1142 0570 002B     		cmp	r3, #0
 1143 0572 02D0     		beq	.L94
 703:../src/lib/lpc177x_8x/Drivers/source/lpc177x_8x_mci.c ****     {
 704:../src/lib/lpc177x_8x/Drivers/source/lpc177x_8x_mci.c ****         MCI_DATA_END_InterruptService();
 1144              		.loc 2 704 0
 1145 0574 FFF7FEFF 		bl	MCI_DATA_END_InterruptService
 705:../src/lib/lpc177x_8x/Drivers/source/lpc177x_8x_mci.c **** 
 706:../src/lib/lpc177x_8x/Drivers/source/lpc177x_8x_mci.c ****         return;
 1146              		.loc 2 706 0
 1147 0578 10E0     		b	.L91
 1148              	.L94:
 707:../src/lib/lpc177x_8x/Drivers/source/lpc177x_8x_mci.c ****     }
 708:../src/lib/lpc177x_8x/Drivers/source/lpc177x_8x_mci.c ****     else if ( MCI_Status & FIFO_INT_MASK )
 1149              		.loc 2 708 0
 1150 057a 7A68     		ldr	r2, [r7, #4]
 1151 057c 0A4B     		ldr	r3, .L96+4
 1152 057e 1340     		ands	r3, r3, r2
 1153 0580 002B     		cmp	r3, #0
 1154 0582 02D0     		beq	.L95
 709:../src/lib/lpc177x_8x/Drivers/source/lpc177x_8x_mci.c ****     {
 710:../src/lib/lpc177x_8x/Drivers/source/lpc177x_8x_mci.c ****         MCI_FIFOInterruptService();
 1155              		.loc 2 710 0
 1156 0584 FFF7FEFF 		bl	MCI_FIFOInterruptService
 711:../src/lib/lpc177x_8x/Drivers/source/lpc177x_8x_mci.c **** 
 712:../src/lib/lpc177x_8x/Drivers/source/lpc177x_8x_mci.c ****         return;
 1157              		.loc 2 712 0
 1158 0588 08E0     		b	.L91
 1159              	.L95:
 713:../src/lib/lpc177x_8x/Drivers/source/lpc177x_8x_mci.c ****     }
 714:../src/lib/lpc177x_8x/Drivers/source/lpc177x_8x_mci.c ****     else if ( MCI_Status & CMD_INT_MASK )
 1160              		.loc 2 714 0
 1161 058a 7A68     		ldr	r2, [r7, #4]
 1162 058c 40F6C503 		movw	r3, #2245
 1163 0590 1340     		ands	r3, r3, r2
 1164 0592 002B     		cmp	r3, #0
 1165 0594 02D0     		beq	.L91
 715:../src/lib/lpc177x_8x/Drivers/source/lpc177x_8x_mci.c ****     {
 716:../src/lib/lpc177x_8x/Drivers/source/lpc177x_8x_mci.c ****         MCI_CmdProcess();
 1166              		.loc 2 716 0
 1167 0596 FFF7FEFF 		bl	MCI_CmdProcess
 717:../src/lib/lpc177x_8x/Drivers/source/lpc177x_8x_mci.c **** 
 718:../src/lib/lpc177x_8x/Drivers/source/lpc177x_8x_mci.c ****         return;
 1168              		.loc 2 718 0
 1169 059a 00BF     		nop
 1170              	.L91:
 719:../src/lib/lpc177x_8x/Drivers/source/lpc177x_8x_mci.c ****     }
 720:../src/lib/lpc177x_8x/Drivers/source/lpc177x_8x_mci.c **** }
 1171              		.loc 2 720 0
 1172 059c 07F10807 		add	r7, r7, #8
 1173 05a0 BD46     		mov	sp, r7
 1174 05a2 80BD     		pop	{r7, pc}
 1175              	.L97:
 1176              		.align	2
 1177              	.L96:
 1178 05a4 00000C40 		.word	1074528256
 1179 05a8 00C40F00 		.word	1033216
 1180              		.cfi_endproc
 1181              	.LFE68:
 1183              		.align	2
 1184              		.global	MCI_Set_MCIClock
 1185              		.thumb
 1186              		.thumb_func
 1188              	MCI_Set_MCIClock:
 1189              	.LFB69:
 721:../src/lib/lpc177x_8x/Drivers/source/lpc177x_8x_mci.c **** 
 722:../src/lib/lpc177x_8x/Drivers/source/lpc177x_8x_mci.c **** 
 723:../src/lib/lpc177x_8x/Drivers/source/lpc177x_8x_mci.c **** /**
 724:../src/lib/lpc177x_8x/Drivers/source/lpc177x_8x_mci.c ****  * @}
 725:../src/lib/lpc177x_8x/Drivers/source/lpc177x_8x_mci.c ****  */
 726:../src/lib/lpc177x_8x/Drivers/source/lpc177x_8x_mci.c **** 
 727:../src/lib/lpc177x_8x/Drivers/source/lpc177x_8x_mci.c **** 
 728:../src/lib/lpc177x_8x/Drivers/source/lpc177x_8x_mci.c **** 
 729:../src/lib/lpc177x_8x/Drivers/source/lpc177x_8x_mci.c **** /** @addtogroup MCI_Public_Functions
 730:../src/lib/lpc177x_8x/Drivers/source/lpc177x_8x_mci.c ****  * @{
 731:../src/lib/lpc177x_8x/Drivers/source/lpc177x_8x_mci.c ****  */
 732:../src/lib/lpc177x_8x/Drivers/source/lpc177x_8x_mci.c **** 
 733:../src/lib/lpc177x_8x/Drivers/source/lpc177x_8x_mci.c **** /*********************************************************************//**
 734:../src/lib/lpc177x_8x/Drivers/source/lpc177x_8x_mci.c ****  * @brief        Set MCI clock rate, during initialization phase < 400K
 735:../src/lib/lpc177x_8x/Drivers/source/lpc177x_8x_mci.c ****  *                during data phase < 20Mhz
 736:../src/lib/lpc177x_8x/Drivers/source/lpc177x_8x_mci.c ****  *
 737:../src/lib/lpc177x_8x/Drivers/source/lpc177x_8x_mci.c ****  * @param[in]    ClockRate Clock rate to be set (in Hz)
 738:../src/lib/lpc177x_8x/Drivers/source/lpc177x_8x_mci.c ****  *
 739:../src/lib/lpc177x_8x/Drivers/source/lpc177x_8x_mci.c ****  * @return       None
 740:../src/lib/lpc177x_8x/Drivers/source/lpc177x_8x_mci.c ****  **********************************************************************/
 741:../src/lib/lpc177x_8x/Drivers/source/lpc177x_8x_mci.c **** void MCI_Set_MCIClock( uint32_t ClockRate )
 742:../src/lib/lpc177x_8x/Drivers/source/lpc177x_8x_mci.c **** {
 1190              		.loc 2 742 0
 1191              		.cfi_startproc
 1192              		@ args = 0, pretend = 0, frame = 24
 1193              		@ frame_needed = 1, uses_anonymous_args = 0
 1194 05ac 80B5     		push	{r7, lr}
 1195              	.LCFI39:
 1196              		.cfi_def_cfa_offset 8
 1197              		.cfi_offset 7, -8
 1198              		.cfi_offset 14, -4
 1199 05ae 86B0     		sub	sp, sp, #24
 1200              	.LCFI40:
 1201              		.cfi_def_cfa_offset 32
 1202 05b0 00AF     		add	r7, sp, #0
 1203              	.LCFI41:
 1204              		.cfi_def_cfa_register 7
 1205 05b2 7860     		str	r0, [r7, #4]
 743:../src/lib/lpc177x_8x/Drivers/source/lpc177x_8x_mci.c ****     volatile uint32_t i;
 744:../src/lib/lpc177x_8x/Drivers/source/lpc177x_8x_mci.c ****     uint32_t ClkValue = 0;
 1206              		.loc 2 744 0
 1207 05b4 4FF00003 		mov	r3, #0
 1208 05b8 7B61     		str	r3, [r7, #20]
 745:../src/lib/lpc177x_8x/Drivers/source/lpc177x_8x_mci.c ****     uint32_t pclk;
 746:../src/lib/lpc177x_8x/Drivers/source/lpc177x_8x_mci.c ****     
 747:../src/lib/lpc177x_8x/Drivers/source/lpc177x_8x_mci.c ****     pclk = CLKPWR_GetCLK(CLKPWR_CLKTYPE_PER);
 1209              		.loc 2 747 0
 1210 05ba 4FF00100 		mov	r0, #1
 1211 05be FFF7FEFF 		bl	CLKPWR_GetCLK
 1212 05c2 3861     		str	r0, [r7, #16]
 748:../src/lib/lpc177x_8x/Drivers/source/lpc177x_8x_mci.c **** 
 749:../src/lib/lpc177x_8x/Drivers/source/lpc177x_8x_mci.c ****     ClkValue = (pclk + 2*ClockRate - 1) /(2*ClockRate); 
 1213              		.loc 2 749 0
 1214 05c4 7B68     		ldr	r3, [r7, #4]
 1215 05c6 4FEA4302 		lsl	r2, r3, #1
 1216 05ca 3B69     		ldr	r3, [r7, #16]
 1217 05cc D318     		adds	r3, r2, r3
 1218 05ce 03F1FF32 		add	r2, r3, #-1
 1219 05d2 7B68     		ldr	r3, [r7, #4]
 1220 05d4 4FEA4303 		lsl	r3, r3, #1
 1221 05d8 B2FBF3F3 		udiv	r3, r2, r3
 1222 05dc 7B61     		str	r3, [r7, #20]
 750:../src/lib/lpc177x_8x/Drivers/source/lpc177x_8x_mci.c ****     if(ClkValue)
 1223              		.loc 2 750 0
 1224 05de 7B69     		ldr	r3, [r7, #20]
 1225 05e0 002B     		cmp	r3, #0
 1226 05e2 03D0     		beq	.L99
 751:../src/lib/lpc177x_8x/Drivers/source/lpc177x_8x_mci.c ****         ClkValue -= 1;
 1227              		.loc 2 751 0
 1228 05e4 7B69     		ldr	r3, [r7, #20]
 1229 05e6 03F1FF33 		add	r3, r3, #-1
 1230 05ea 7B61     		str	r3, [r7, #20]
 1231              	.L99:
 752:../src/lib/lpc177x_8x/Drivers/source/lpc177x_8x_mci.c **** 
 753:../src/lib/lpc177x_8x/Drivers/source/lpc177x_8x_mci.c ****     LPC_MCI->CLOCK = (LPC_MCI->CLOCK & ~(0xFF)) | (1 << 8)  | ClkValue;
 1232              		.loc 2 753 0
 1233 05ec 0D4A     		ldr	r2, .L103
 1234 05ee 0D4B     		ldr	r3, .L103
 1235 05f0 5B68     		ldr	r3, [r3, #4]
 1236 05f2 23F4FF73 		bic	r3, r3, #510
 1237 05f6 23F00103 		bic	r3, r3, #1
 1238 05fa 7969     		ldr	r1, [r7, #20]
 1239 05fc 0B43     		orrs	r3, r3, r1
 1240 05fe 43F48073 		orr	r3, r3, #256
 1241 0602 5360     		str	r3, [r2, #4]
 754:../src/lib/lpc177x_8x/Drivers/source/lpc177x_8x_mci.c **** 
 755:../src/lib/lpc177x_8x/Drivers/source/lpc177x_8x_mci.c ****     for ( i = 0; i < 0x10; i++ );    /* delay 3MCLK + 2PCLK before next write */
 1242              		.loc 2 755 0
 1243 0604 4FF00003 		mov	r3, #0
 1244 0608 FB60     		str	r3, [r7, #12]
 1245 060a 03E0     		b	.L100
 1246              	.L101:
 1247              		.loc 2 755 0 is_stmt 0 discriminator 2
 1248 060c FB68     		ldr	r3, [r7, #12]
 1249 060e 03F10103 		add	r3, r3, #1
 1250 0612 FB60     		str	r3, [r7, #12]
 1251              	.L100:
 1252              		.loc 2 755 0 discriminator 1
 1253 0614 FB68     		ldr	r3, [r7, #12]
 1254 0616 0F2B     		cmp	r3, #15
 1255 0618 F8D9     		bls	.L101
 756:../src/lib/lpc177x_8x/Drivers/source/lpc177x_8x_mci.c **** 
 757:../src/lib/lpc177x_8x/Drivers/source/lpc177x_8x_mci.c ****     return;
 1256              		.loc 2 757 0 is_stmt 1
 1257 061a 00BF     		nop
 758:../src/lib/lpc177x_8x/Drivers/source/lpc177x_8x_mci.c **** }
 1258              		.loc 2 758 0
 1259 061c 07F11807 		add	r7, r7, #24
 1260 0620 BD46     		mov	sp, r7
 1261 0622 80BD     		pop	{r7, pc}
 1262              	.L104:
 1263              		.align	2
 1264              	.L103:
 1265 0624 00000C40 		.word	1074528256
 1266              		.cfi_endproc
 1267              	.LFE69:
 1269              		.align	2
 1270              		.global	MCI_SetBusWidth
 1271              		.thumb
 1272              		.thumb_func
 1274              	MCI_SetBusWidth:
 1275              	.LFB70:
 759:../src/lib/lpc177x_8x/Drivers/source/lpc177x_8x_mci.c **** 
 760:../src/lib/lpc177x_8x/Drivers/source/lpc177x_8x_mci.c **** 
 761:../src/lib/lpc177x_8x/Drivers/source/lpc177x_8x_mci.c **** /**********************************************************************//**
 762:../src/lib/lpc177x_8x/Drivers/source/lpc177x_8x_mci.c ****  * @brief        Set the Width to 1-bit Bus or 4-bit Bus
 763:../src/lib/lpc177x_8x/Drivers/source/lpc177x_8x_mci.c ****  *
 764:../src/lib/lpc177x_8x/Drivers/source/lpc177x_8x_mci.c ****  * @param[in]    width buswidth expected to set
 765:../src/lib/lpc177x_8x/Drivers/source/lpc177x_8x_mci.c ****  *
 766:../src/lib/lpc177x_8x/Drivers/source/lpc177x_8x_mci.c ****  * @return       MCI_FUNC_OK in case of success
 767:../src/lib/lpc177x_8x/Drivers/source/lpc177x_8x_mci.c ****  *************************************************************************/
 768:../src/lib/lpc177x_8x/Drivers/source/lpc177x_8x_mci.c **** int32_t MCI_SetBusWidth( uint32_t width )
 769:../src/lib/lpc177x_8x/Drivers/source/lpc177x_8x_mci.c **** {
 1276              		.loc 2 769 0
 1277              		.cfi_startproc
 1278              		@ args = 0, pretend = 0, frame = 16
 1279              		@ frame_needed = 1, uses_anonymous_args = 0
 1280 0628 80B5     		push	{r7, lr}
 1281              	.LCFI42:
 1282              		.cfi_def_cfa_offset 8
 1283              		.cfi_offset 7, -8
 1284              		.cfi_offset 14, -4
 1285 062a 84B0     		sub	sp, sp, #16
 1286              	.LCFI43:
 1287              		.cfi_def_cfa_offset 24
 1288 062c 00AF     		add	r7, sp, #0
 1289              	.LCFI44:
 1290              		.cfi_def_cfa_register 7
 1291 062e 7860     		str	r0, [r7, #4]
 770:../src/lib/lpc177x_8x/Drivers/source/lpc177x_8x_mci.c ****     volatile uint32_t i;
 771:../src/lib/lpc177x_8x/Drivers/source/lpc177x_8x_mci.c ****     uint8_t bus_width = BUS_WIDTH_1BIT;
 1292              		.loc 2 771 0
 1293 0630 4FF00003 		mov	r3, #0
 1294 0634 FB73     		strb	r3, [r7, #15]
 772:../src/lib/lpc177x_8x/Drivers/source/lpc177x_8x_mci.c **** 
 773:../src/lib/lpc177x_8x/Drivers/source/lpc177x_8x_mci.c ****     if ( width == SD_1_BIT )
 1295              		.loc 2 773 0
 1296 0636 7B68     		ldr	r3, [r7, #4]
 1297 0638 002B     		cmp	r3, #0
 1298 063a 06D1     		bne	.L106
 774:../src/lib/lpc177x_8x/Drivers/source/lpc177x_8x_mci.c ****     {
 775:../src/lib/lpc177x_8x/Drivers/source/lpc177x_8x_mci.c ****         LPC_MCI->CLOCK &=  ~(1 << 11);    /* 1 bit bus */
 1299              		.loc 2 775 0
 1300 063c 1F4B     		ldr	r3, .L113
 1301 063e 1F4A     		ldr	r2, .L113
 1302 0640 5268     		ldr	r2, [r2, #4]
 1303 0642 22F40062 		bic	r2, r2, #2048
 1304 0646 5A60     		str	r2, [r3, #4]
 1305 0648 0BE0     		b	.L107
 1306              	.L106:
 776:../src/lib/lpc177x_8x/Drivers/source/lpc177x_8x_mci.c ****     }
 777:../src/lib/lpc177x_8x/Drivers/source/lpc177x_8x_mci.c ****     else if ( width == SD_4_BIT )
 1307              		.loc 2 777 0
 1308 064a 7B68     		ldr	r3, [r7, #4]
 1309 064c 012B     		cmp	r3, #1
 1310 064e 08D1     		bne	.L107
 778:../src/lib/lpc177x_8x/Drivers/source/lpc177x_8x_mci.c ****     {
 779:../src/lib/lpc177x_8x/Drivers/source/lpc177x_8x_mci.c ****         LPC_MCI->CLOCK |=  (1 << 11);/* 4 bit bus */
 1311              		.loc 2 779 0
 1312 0650 1A4B     		ldr	r3, .L113
 1313 0652 1A4A     		ldr	r2, .L113
 1314 0654 5268     		ldr	r2, [r2, #4]
 1315 0656 42F40062 		orr	r2, r2, #2048
 1316 065a 5A60     		str	r2, [r3, #4]
 780:../src/lib/lpc177x_8x/Drivers/source/lpc177x_8x_mci.c ****         bus_width = BUS_WIDTH_4BITS;
 1317              		.loc 2 780 0
 1318 065c 4FF00A03 		mov	r3, #10
 1319 0660 FB73     		strb	r3, [r7, #15]
 1320              	.L107:
 781:../src/lib/lpc177x_8x/Drivers/source/lpc177x_8x_mci.c ****     }
 782:../src/lib/lpc177x_8x/Drivers/source/lpc177x_8x_mci.c **** 
 783:../src/lib/lpc177x_8x/Drivers/source/lpc177x_8x_mci.c ****     for ( i = 0; i < 0x10; i++ );    /* delay 3MCLK + 2PCLK  */
 1321              		.loc 2 783 0
 1322 0662 4FF00003 		mov	r3, #0
 1323 0666 BB60     		str	r3, [r7, #8]
 1324 0668 03E0     		b	.L108
 1325              	.L109:
 1326              		.loc 2 783 0 is_stmt 0 discriminator 2
 1327 066a BB68     		ldr	r3, [r7, #8]
 1328 066c 03F10103 		add	r3, r3, #1
 1329 0670 BB60     		str	r3, [r7, #8]
 1330              	.L108:
 1331              		.loc 2 783 0 discriminator 1
 1332 0672 BB68     		ldr	r3, [r7, #8]
 1333 0674 0F2B     		cmp	r3, #15
 1334 0676 F8D9     		bls	.L109
 784:../src/lib/lpc177x_8x/Drivers/source/lpc177x_8x_mci.c ****     
 785:../src/lib/lpc177x_8x/Drivers/source/lpc177x_8x_mci.c ****     if ((MCI_CardType == MCI_SDSC_V1_CARD) ||
 1335              		.loc 2 785 0 is_stmt 1
 1336 0678 114B     		ldr	r3, .L113+4
 1337 067a 1B78     		ldrb	r3, [r3, #0]
 1338 067c DBB2     		uxtb	r3, r3
 1339 067e 002B     		cmp	r3, #0
 1340 0680 0BD0     		beq	.L110
 786:../src/lib/lpc177x_8x/Drivers/source/lpc177x_8x_mci.c ****         (MCI_CardType == MCI_SDSC_V2_CARD) ||
 1341              		.loc 2 786 0 discriminator 1
 1342 0682 0F4B     		ldr	r3, .L113+4
 1343 0684 1B78     		ldrb	r3, [r3, #0]
 1344 0686 DBB2     		uxtb	r3, r3
 785:../src/lib/lpc177x_8x/Drivers/source/lpc177x_8x_mci.c ****     if ((MCI_CardType == MCI_SDSC_V1_CARD) ||
 1345              		.loc 2 785 0 discriminator 1
 1346 0688 5BB2     		sxtb	r3, r3
 1347 068a 022B     		cmp	r3, #2
 1348 068c 05D0     		beq	.L110
 787:../src/lib/lpc177x_8x/Drivers/source/lpc177x_8x_mci.c ****         (MCI_CardType == MCI_SDHC_SDXC_CARD)) 
 1349              		.loc 2 787 0
 1350 068e 0C4B     		ldr	r3, .L113+4
 1351 0690 1B78     		ldrb	r3, [r3, #0]
 1352 0692 DBB2     		uxtb	r3, r3
 786:../src/lib/lpc177x_8x/Drivers/source/lpc177x_8x_mci.c ****         (MCI_CardType == MCI_SDSC_V2_CARD) ||
 1353              		.loc 2 786 0
 1354 0694 5BB2     		sxtb	r3, r3
 1355 0696 032B     		cmp	r3, #3
 1356 0698 09D1     		bne	.L111
 1357              	.L110:
 788:../src/lib/lpc177x_8x/Drivers/source/lpc177x_8x_mci.c ****     {
 789:../src/lib/lpc177x_8x/Drivers/source/lpc177x_8x_mci.c ****         if ( MCI_Acmd_SendBusWidth( bus_width ) != MCI_FUNC_OK )
 1358              		.loc 2 789 0
 1359 069a FB7B     		ldrb	r3, [r7, #15]	@ zero_extendqisi2
 1360 069c 1846     		mov	r0, r3
 1361 069e FFF7FEFF 		bl	MCI_Acmd_SendBusWidth
 1362 06a2 0346     		mov	r3, r0
 1363 06a4 002B     		cmp	r3, #0
 1364 06a6 02D0     		beq	.L111
 790:../src/lib/lpc177x_8x/Drivers/source/lpc177x_8x_mci.c ****         {
 791:../src/lib/lpc177x_8x/Drivers/source/lpc177x_8x_mci.c ****             return(MCI_FUNC_FAILED);
 1365              		.loc 2 791 0
 1366 06a8 4FF0FF33 		mov	r3, #-1
 1367 06ac 01E0     		b	.L112
 1368              	.L111:
 792:../src/lib/lpc177x_8x/Drivers/source/lpc177x_8x_mci.c ****         }
 793:../src/lib/lpc177x_8x/Drivers/source/lpc177x_8x_mci.c ****     }
 794:../src/lib/lpc177x_8x/Drivers/source/lpc177x_8x_mci.c ****     return MCI_FUNC_OK;
 1369              		.loc 2 794 0
 1370 06ae 4FF00003 		mov	r3, #0
 1371              	.L112:
 795:../src/lib/lpc177x_8x/Drivers/source/lpc177x_8x_mci.c **** }
 1372              		.loc 2 795 0
 1373 06b2 1846     		mov	r0, r3
 1374 06b4 07F11007 		add	r7, r7, #16
 1375 06b8 BD46     		mov	sp, r7
 1376 06ba 80BD     		pop	{r7, pc}
 1377              	.L114:
 1378              		.align	2
 1379              	.L113:
 1380 06bc 00000C40 		.word	1074528256
 1381 06c0 00000000 		.word	MCI_CardType
 1382              		.cfi_endproc
 1383              	.LFE70:
 1385              		.align	2
 1386              		.global	MCI_Init
 1387              		.thumb
 1388              		.thumb_func
 1390              	MCI_Init:
 1391              	.LFB71:
 796:../src/lib/lpc177x_8x/Drivers/source/lpc177x_8x_mci.c **** 
 797:../src/lib/lpc177x_8x/Drivers/source/lpc177x_8x_mci.c **** 
 798:../src/lib/lpc177x_8x/Drivers/source/lpc177x_8x_mci.c **** /************************************************************************//**
 799:../src/lib/lpc177x_8x/Drivers/source/lpc177x_8x_mci.c ****  * @brief        Do initialization the MCI block as set its clock, registers,
 800:../src/lib/lpc177x_8x/Drivers/source/lpc177x_8x_mci.c ****  *                setup NVIC for interrupts, configure the pins used for MCI 
 801:../src/lib/lpc177x_8x/Drivers/source/lpc177x_8x_mci.c ****  *                function, do initialize the card in slot...
 802:../src/lib/lpc177x_8x/Drivers/source/lpc177x_8x_mci.c ****  *
 803:../src/lib/lpc177x_8x/Drivers/source/lpc177x_8x_mci.c ****  * @param[in]    powerActiveLevel the power level to activate the card in slot
 804:../src/lib/lpc177x_8x/Drivers/source/lpc177x_8x_mci.c ****  *
 805:../src/lib/lpc177x_8x/Drivers/source/lpc177x_8x_mci.c ****  * @return       MCI_FUNC_OK in case of success
 806:../src/lib/lpc177x_8x/Drivers/source/lpc177x_8x_mci.c ****  ***************************************************************************/
 807:../src/lib/lpc177x_8x/Drivers/source/lpc177x_8x_mci.c **** int32_t MCI_Init(uint8_t powerActiveLevel )
 808:../src/lib/lpc177x_8x/Drivers/source/lpc177x_8x_mci.c **** {
 1392              		.loc 2 808 0
 1393              		.cfi_startproc
 1394              		@ args = 0, pretend = 0, frame = 16
 1395              		@ frame_needed = 1, uses_anonymous_args = 0
 1396 06c4 80B5     		push	{r7, lr}
 1397              	.LCFI45:
 1398              		.cfi_def_cfa_offset 8
 1399              		.cfi_offset 7, -8
 1400              		.cfi_offset 14, -4
 1401 06c6 84B0     		sub	sp, sp, #16
 1402              	.LCFI46:
 1403              		.cfi_def_cfa_offset 24
 1404 06c8 00AF     		add	r7, sp, #0
 1405              	.LCFI47:
 1406              		.cfi_def_cfa_register 7
 1407 06ca 0346     		mov	r3, r0
 1408 06cc FB71     		strb	r3, [r7, #7]
 809:../src/lib/lpc177x_8x/Drivers/source/lpc177x_8x_mci.c ****     volatile uint32_t i;
 810:../src/lib/lpc177x_8x/Drivers/source/lpc177x_8x_mci.c **** 
 811:../src/lib/lpc177x_8x/Drivers/source/lpc177x_8x_mci.c ****     MCI_CardType = MCI_CARD_UNKNOWN;
 1409              		.loc 2 811 0
 1410 06ce A94B     		ldr	r3, .L137
 1411 06d0 4FF0FF02 		mov	r2, #255
 1412 06d4 1A70     		strb	r2, [r3, #0]
 812:../src/lib/lpc177x_8x/Drivers/source/lpc177x_8x_mci.c **** 
 813:../src/lib/lpc177x_8x/Drivers/source/lpc177x_8x_mci.c ****     // Following block of code added to ensure card VCC drops to zero
 814:../src/lib/lpc177x_8x/Drivers/source/lpc177x_8x_mci.c ****     // before card is initialized
 815:../src/lib/lpc177x_8x/Drivers/source/lpc177x_8x_mci.c ****   
 816:../src/lib/lpc177x_8x/Drivers/source/lpc177x_8x_mci.c ****     // Force all MCI control pins to basic I/O mode
 817:../src/lib/lpc177x_8x/Drivers/source/lpc177x_8x_mci.c ****     LPC_IOCON->P1_2  &= ~0x1F; /* SD_CLK @ P1.2 */
 1413              		.loc 2 817 0
 1414 06d6 A84B     		ldr	r3, .L137+4
 1415 06d8 A74A     		ldr	r2, .L137+4
 1416 06da D2F88820 		ldr	r2, [r2, #136]
 1417 06de 22F01F02 		bic	r2, r2, #31
 1418 06e2 C3F88820 		str	r2, [r3, #136]
 818:../src/lib/lpc177x_8x/Drivers/source/lpc177x_8x_mci.c ****     LPC_IOCON->P1_3  &= ~0x1F; /* SD_CMD @ P1.3 */
 1419              		.loc 2 818 0
 1420 06e6 A44B     		ldr	r3, .L137+4
 1421 06e8 A34A     		ldr	r2, .L137+4
 1422 06ea D2F88C20 		ldr	r2, [r2, #140]
 1423 06ee 22F01F02 		bic	r2, r2, #31
 1424 06f2 C3F88C20 		str	r2, [r3, #140]
 819:../src/lib/lpc177x_8x/Drivers/source/lpc177x_8x_mci.c ****     LPC_IOCON->P1_5  &= ~0x1F; /* SD_PWR @ P1.5 */
 1425              		.loc 2 819 0
 1426 06f6 A04B     		ldr	r3, .L137+4
 1427 06f8 9F4A     		ldr	r2, .L137+4
 1428 06fa D2F89420 		ldr	r2, [r2, #148]
 1429 06fe 22F01F02 		bic	r2, r2, #31
 1430 0702 C3F89420 		str	r2, [r3, #148]
 820:../src/lib/lpc177x_8x/Drivers/source/lpc177x_8x_mci.c ****     LPC_IOCON->P1_6  &= ~0x1F; /* SD_DAT_0 @ P1.6 */
 1431              		.loc 2 820 0
 1432 0706 9C4B     		ldr	r3, .L137+4
 1433 0708 9B4A     		ldr	r2, .L137+4
 1434 070a D2F89820 		ldr	r2, [r2, #152]
 1435 070e 22F01F02 		bic	r2, r2, #31
 1436 0712 C3F89820 		str	r2, [r3, #152]
 821:../src/lib/lpc177x_8x/Drivers/source/lpc177x_8x_mci.c ****     LPC_IOCON->P1_7  &= ~0x1F; /* SD_DAT_1 @ P1.7 */
 1437              		.loc 2 821 0
 1438 0716 984B     		ldr	r3, .L137+4
 1439 0718 974A     		ldr	r2, .L137+4
 1440 071a D2F89C20 		ldr	r2, [r2, #156]
 1441 071e 22F01F02 		bic	r2, r2, #31
 1442 0722 C3F89C20 		str	r2, [r3, #156]
 822:../src/lib/lpc177x_8x/Drivers/source/lpc177x_8x_mci.c ****     LPC_IOCON->P1_11 &= ~0x1F; /* SD_DAT_2 @ P1.11 */
 1443              		.loc 2 822 0
 1444 0726 944B     		ldr	r3, .L137+4
 1445 0728 934A     		ldr	r2, .L137+4
 1446 072a D2F8AC20 		ldr	r2, [r2, #172]
 1447 072e 22F01F02 		bic	r2, r2, #31
 1448 0732 C3F8AC20 		str	r2, [r3, #172]
 823:../src/lib/lpc177x_8x/Drivers/source/lpc177x_8x_mci.c ****     LPC_IOCON->P1_12 &= 0x1F; /* SD_DAT_3 @ P1.12 */
 1449              		.loc 2 823 0
 1450 0736 904B     		ldr	r3, .L137+4
 1451 0738 8F4A     		ldr	r2, .L137+4
 1452 073a D2F8B020 		ldr	r2, [r2, #176]
 1453 073e 02F01F02 		and	r2, r2, #31
 1454 0742 C3F8B020 		str	r2, [r3, #176]
 824:../src/lib/lpc177x_8x/Drivers/source/lpc177x_8x_mci.c **** 
 825:../src/lib/lpc177x_8x/Drivers/source/lpc177x_8x_mci.c ****     // Set all MCI pins to outputs
 826:../src/lib/lpc177x_8x/Drivers/source/lpc177x_8x_mci.c ****     LPC_GPIO1->DIR |= 0x18EC;
 1455              		.loc 2 826 0
 1456 0746 8D4A     		ldr	r2, .L137+8
 1457 0748 8C4B     		ldr	r3, .L137+8
 1458 074a 1B68     		ldr	r3, [r3, #0]
 1459 074c 43F4C753 		orr	r3, r3, #6368
 1460 0750 43F00C03 		orr	r3, r3, #12
 1461 0754 1360     		str	r3, [r2, #0]
 827:../src/lib/lpc177x_8x/Drivers/source/lpc177x_8x_mci.c ****   
 828:../src/lib/lpc177x_8x/Drivers/source/lpc177x_8x_mci.c ****     // Force all pins low (except power control pin)
 829:../src/lib/lpc177x_8x/Drivers/source/lpc177x_8x_mci.c ****     LPC_GPIO1->CLR = 0x1000;
 1462              		.loc 2 829 0
 1463 0756 894B     		ldr	r3, .L137+8
 1464 0758 4FF48052 		mov	r2, #4096
 1465 075c DA61     		str	r2, [r3, #28]
 830:../src/lib/lpc177x_8x/Drivers/source/lpc177x_8x_mci.c ****     LPC_GPIO1->CLR = 0x0800;
 1466              		.loc 2 830 0
 1467 075e 874B     		ldr	r3, .L137+8
 1468 0760 4FF40062 		mov	r2, #2048
 1469 0764 DA61     		str	r2, [r3, #28]
 831:../src/lib/lpc177x_8x/Drivers/source/lpc177x_8x_mci.c ****     LPC_GPIO1->CLR = 0x0080;
 1470              		.loc 2 831 0
 1471 0766 854B     		ldr	r3, .L137+8
 1472 0768 4FF08002 		mov	r2, #128
 1473 076c DA61     		str	r2, [r3, #28]
 832:../src/lib/lpc177x_8x/Drivers/source/lpc177x_8x_mci.c ****     LPC_GPIO1->CLR = 0x0040;
 1474              		.loc 2 832 0
 1475 076e 834B     		ldr	r3, .L137+8
 1476 0770 4FF04002 		mov	r2, #64
 1477 0774 DA61     		str	r2, [r3, #28]
 833:../src/lib/lpc177x_8x/Drivers/source/lpc177x_8x_mci.c ****   
 834:../src/lib/lpc177x_8x/Drivers/source/lpc177x_8x_mci.c ****     LPC_GPIO1->SET = 0x0020;
 1478              		.loc 2 834 0
 1479 0776 814B     		ldr	r3, .L137+8
 1480 0778 4FF02002 		mov	r2, #32
 1481 077c 9A61     		str	r2, [r3, #24]
 835:../src/lib/lpc177x_8x/Drivers/source/lpc177x_8x_mci.c ****   
 836:../src/lib/lpc177x_8x/Drivers/source/lpc177x_8x_mci.c ****     LPC_GPIO1->CLR = 0x0008;
 1482              		.loc 2 836 0
 1483 077e 7F4B     		ldr	r3, .L137+8
 1484 0780 4FF00802 		mov	r2, #8
 1485 0784 DA61     		str	r2, [r3, #28]
 837:../src/lib/lpc177x_8x/Drivers/source/lpc177x_8x_mci.c ****     LPC_GPIO1->CLR = 0x0004;
 1486              		.loc 2 837 0
 1487 0786 7D4B     		ldr	r3, .L137+8
 1488 0788 4FF00402 		mov	r2, #4
 1489 078c DA61     		str	r2, [r3, #28]
 838:../src/lib/lpc177x_8x/Drivers/source/lpc177x_8x_mci.c **** 
 839:../src/lib/lpc177x_8x/Drivers/source/lpc177x_8x_mci.c ****     // Crude delay of 50ms at 120MHz
 840:../src/lib/lpc177x_8x/Drivers/source/lpc177x_8x_mci.c ****     for ( i = 0; i < 0x100000; i++ );
 1490              		.loc 2 840 0
 1491 078e 4FF00003 		mov	r3, #0
 1492 0792 FB60     		str	r3, [r7, #12]
 1493 0794 03E0     		b	.L116
 1494              	.L117:
 1495              		.loc 2 840 0 is_stmt 0 discriminator 2
 1496 0796 FB68     		ldr	r3, [r7, #12]
 1497 0798 03F10103 		add	r3, r3, #1
 1498 079c FB60     		str	r3, [r7, #12]
 1499              	.L116:
 1500              		.loc 2 840 0 discriminator 1
 1501 079e FA68     		ldr	r2, [r7, #12]
 1502 07a0 774B     		ldr	r3, .L137+12
 1503 07a2 9A42     		cmp	r2, r3
 1504 07a4 F7D9     		bls	.L117
 841:../src/lib/lpc177x_8x/Drivers/source/lpc177x_8x_mci.c **** 
 842:../src/lib/lpc177x_8x/Drivers/source/lpc177x_8x_mci.c ****     LPC_SC->PCONP |= ( 1 << 28 );            /* Enable clock to the MCI block */
 1505              		.loc 2 842 0 is_stmt 1
 1506 07a6 774B     		ldr	r3, .L137+16
 1507 07a8 764A     		ldr	r2, .L137+16
 1508 07aa D2F8C420 		ldr	r2, [r2, #196]
 1509 07ae 42F08052 		orr	r2, r2, #268435456
 1510 07b2 C3F8C420 		str	r2, [r3, #196]
 843:../src/lib/lpc177x_8x/Drivers/source/lpc177x_8x_mci.c **** 
 844:../src/lib/lpc177x_8x/Drivers/source/lpc177x_8x_mci.c ****     if ( LPC_MCI->CLOCK & (1 << 8) )
 1511              		.loc 2 844 0
 1512 07b6 744B     		ldr	r3, .L137+20
 1513 07b8 5B68     		ldr	r3, [r3, #4]
 1514 07ba 03F48073 		and	r3, r3, #256
 1515 07be 002B     		cmp	r3, #0
 1516 07c0 10D0     		beq	.L118
 845:../src/lib/lpc177x_8x/Drivers/source/lpc177x_8x_mci.c ****     {
 846:../src/lib/lpc177x_8x/Drivers/source/lpc177x_8x_mci.c ****        LPC_MCI->CLOCK &= ~(1 << 8);
 1517              		.loc 2 846 0
 1518 07c2 714B     		ldr	r3, .L137+20
 1519 07c4 704A     		ldr	r2, .L137+20
 1520 07c6 5268     		ldr	r2, [r2, #4]
 1521 07c8 22F48072 		bic	r2, r2, #256
 1522 07cc 5A60     		str	r2, [r3, #4]
 847:../src/lib/lpc177x_8x/Drivers/source/lpc177x_8x_mci.c ****        for ( i = 0; i < 0x10; i++ );    /* delay 3MCLK + 2PCLK  */
 1523              		.loc 2 847 0
 1524 07ce 4FF00003 		mov	r3, #0
 1525 07d2 FB60     		str	r3, [r7, #12]
 1526 07d4 03E0     		b	.L119
 1527              	.L120:
 1528              		.loc 2 847 0 is_stmt 0 discriminator 2
 1529 07d6 FB68     		ldr	r3, [r7, #12]
 1530 07d8 03F10103 		add	r3, r3, #1
 1531 07dc FB60     		str	r3, [r7, #12]
 1532              	.L119:
 1533              		.loc 2 847 0 discriminator 1
 1534 07de FB68     		ldr	r3, [r7, #12]
 1535 07e0 0F2B     		cmp	r3, #15
 1536 07e2 F8D9     		bls	.L120
 1537              	.L118:
 848:../src/lib/lpc177x_8x/Drivers/source/lpc177x_8x_mci.c ****     }
 849:../src/lib/lpc177x_8x/Drivers/source/lpc177x_8x_mci.c **** 
 850:../src/lib/lpc177x_8x/Drivers/source/lpc177x_8x_mci.c ****     if ( LPC_MCI->POWER & 0x02 )
 1538              		.loc 2 850 0 is_stmt 1
 1539 07e4 684B     		ldr	r3, .L137+20
 1540 07e6 1B68     		ldr	r3, [r3, #0]
 1541 07e8 03F00203 		and	r3, r3, #2
 1542 07ec 002B     		cmp	r3, #0
 1543 07ee 0ED0     		beq	.L121
 851:../src/lib/lpc177x_8x/Drivers/source/lpc177x_8x_mci.c ****     {
 852:../src/lib/lpc177x_8x/Drivers/source/lpc177x_8x_mci.c ****        LPC_MCI->POWER = 0x00;
 1544              		.loc 2 852 0
 1545 07f0 654B     		ldr	r3, .L137+20
 1546 07f2 4FF00002 		mov	r2, #0
 1547 07f6 1A60     		str	r2, [r3, #0]
 853:../src/lib/lpc177x_8x/Drivers/source/lpc177x_8x_mci.c ****        for ( i = 0; i < 0x10; i++ );    /* delay 3MCLK + 2PCLK  */
 1548              		.loc 2 853 0
 1549 07f8 4FF00003 		mov	r3, #0
 1550 07fc FB60     		str	r3, [r7, #12]
 1551 07fe 03E0     		b	.L122
 1552              	.L123:
 1553              		.loc 2 853 0 is_stmt 0 discriminator 2
 1554 0800 FB68     		ldr	r3, [r7, #12]
 1555 0802 03F10103 		add	r3, r3, #1
 1556 0806 FB60     		str	r3, [r7, #12]
 1557              	.L122:
 1558              		.loc 2 853 0 discriminator 1
 1559 0808 FB68     		ldr	r3, [r7, #12]
 1560 080a 0F2B     		cmp	r3, #15
 1561 080c F8D9     		bls	.L123
 1562              	.L121:
 854:../src/lib/lpc177x_8x/Drivers/source/lpc177x_8x_mci.c ****     }
 855:../src/lib/lpc177x_8x/Drivers/source/lpc177x_8x_mci.c **** 
 856:../src/lib/lpc177x_8x/Drivers/source/lpc177x_8x_mci.c ****     /* Disable all interrupts for now */
 857:../src/lib/lpc177x_8x/Drivers/source/lpc177x_8x_mci.c ****     LPC_MCI->MASK0 = 0;
 1563              		.loc 2 857 0 is_stmt 1
 1564 080e 5E4B     		ldr	r3, .L137+20
 1565 0810 4FF00002 		mov	r2, #0
 1566 0814 DA63     		str	r2, [r3, #60]
 858:../src/lib/lpc177x_8x/Drivers/source/lpc177x_8x_mci.c **** 
 859:../src/lib/lpc177x_8x/Drivers/source/lpc177x_8x_mci.c ****     //SD_CLK
 860:../src/lib/lpc177x_8x/Drivers/source/lpc177x_8x_mci.c ****     PINSEL_ConfigPin(1, 2, 2);
 1567              		.loc 2 860 0
 1568 0816 4FF00100 		mov	r0, #1
 1569 081a 4FF00201 		mov	r1, #2
 1570 081e 4FF00202 		mov	r2, #2
 1571 0822 FFF7FEFF 		bl	PINSEL_ConfigPin
 861:../src/lib/lpc177x_8x/Drivers/source/lpc177x_8x_mci.c **** 
 862:../src/lib/lpc177x_8x/Drivers/source/lpc177x_8x_mci.c ****     //SD_CMD
 863:../src/lib/lpc177x_8x/Drivers/source/lpc177x_8x_mci.c ****     PINSEL_ConfigPin(1, 3, 2);
 1572              		.loc 2 863 0
 1573 0826 4FF00100 		mov	r0, #1
 1574 082a 4FF00301 		mov	r1, #3
 1575 082e 4FF00202 		mov	r2, #2
 1576 0832 FFF7FEFF 		bl	PINSEL_ConfigPin
 864:../src/lib/lpc177x_8x/Drivers/source/lpc177x_8x_mci.c **** 
 865:../src/lib/lpc177x_8x/Drivers/source/lpc177x_8x_mci.c ****     //SD_PWR
 866:../src/lib/lpc177x_8x/Drivers/source/lpc177x_8x_mci.c ****     PINSEL_ConfigPin(1, 5, 2);
 1577              		.loc 2 866 0
 1578 0836 4FF00100 		mov	r0, #1
 1579 083a 4FF00501 		mov	r1, #5
 1580 083e 4FF00202 		mov	r2, #2
 1581 0842 FFF7FEFF 		bl	PINSEL_ConfigPin
 867:../src/lib/lpc177x_8x/Drivers/source/lpc177x_8x_mci.c **** 
 868:../src/lib/lpc177x_8x/Drivers/source/lpc177x_8x_mci.c ****     //SD_DAT_0
 869:../src/lib/lpc177x_8x/Drivers/source/lpc177x_8x_mci.c ****     PINSEL_ConfigPin(1, 6, 2);
 1582              		.loc 2 869 0
 1583 0846 4FF00100 		mov	r0, #1
 1584 084a 4FF00601 		mov	r1, #6
 1585 084e 4FF00202 		mov	r2, #2
 1586 0852 FFF7FEFF 		bl	PINSEL_ConfigPin
 870:../src/lib/lpc177x_8x/Drivers/source/lpc177x_8x_mci.c **** 
 871:../src/lib/lpc177x_8x/Drivers/source/lpc177x_8x_mci.c ****     //SD_DAT_1
 872:../src/lib/lpc177x_8x/Drivers/source/lpc177x_8x_mci.c ****     PINSEL_ConfigPin(1, 7, 2);
 1587              		.loc 2 872 0
 1588 0856 4FF00100 		mov	r0, #1
 1589 085a 4FF00701 		mov	r1, #7
 1590 085e 4FF00202 		mov	r2, #2
 1591 0862 FFF7FEFF 		bl	PINSEL_ConfigPin
 873:../src/lib/lpc177x_8x/Drivers/source/lpc177x_8x_mci.c **** 
 874:../src/lib/lpc177x_8x/Drivers/source/lpc177x_8x_mci.c ****     //SD_DAT_2
 875:../src/lib/lpc177x_8x/Drivers/source/lpc177x_8x_mci.c ****     PINSEL_ConfigPin(1, 11, 2);
 1592              		.loc 2 875 0
 1593 0866 4FF00100 		mov	r0, #1
 1594 086a 4FF00B01 		mov	r1, #11
 1595 086e 4FF00202 		mov	r2, #2
 1596 0872 FFF7FEFF 		bl	PINSEL_ConfigPin
 876:../src/lib/lpc177x_8x/Drivers/source/lpc177x_8x_mci.c **** 
 877:../src/lib/lpc177x_8x/Drivers/source/lpc177x_8x_mci.c ****     //SD_DAT_3
 878:../src/lib/lpc177x_8x/Drivers/source/lpc177x_8x_mci.c ****     PINSEL_ConfigPin(1, 12, 2);
 1597              		.loc 2 878 0
 1598 0876 4FF00100 		mov	r0, #1
 1599 087a 4FF00C01 		mov	r1, #12
 1600 087e 4FF00202 		mov	r2, #2
 1601 0882 FFF7FEFF 		bl	PINSEL_ConfigPin
 879:../src/lib/lpc177x_8x/Drivers/source/lpc177x_8x_mci.c **** 
 880:../src/lib/lpc177x_8x/Drivers/source/lpc177x_8x_mci.c ****     // SD_PWR is active high (follows the output of the SD Card interface block).
 881:../src/lib/lpc177x_8x/Drivers/source/lpc177x_8x_mci.c ****     if(powerActiveLevel == LOW_LVL)
 1602              		.loc 2 881 0
 1603 0886 FB79     		ldrb	r3, [r7, #7]	@ zero_extendqisi2
 1604 0888 002B     		cmp	r3, #0
 1605 088a 08D1     		bne	.L124
 882:../src/lib/lpc177x_8x/Drivers/source/lpc177x_8x_mci.c ****     {
 883:../src/lib/lpc177x_8x/Drivers/source/lpc177x_8x_mci.c ****         LPC_SC->SCS &= ~ 0x08;//Becase on EA board SD_PWR is active low
 1606              		.loc 2 883 0
 1607 088c 3D4B     		ldr	r3, .L137+16
 1608 088e 3D4A     		ldr	r2, .L137+16
 1609 0890 D2F8A021 		ldr	r2, [r2, #416]
 1610 0894 22F00802 		bic	r2, r2, #8
 1611 0898 C3F8A021 		str	r2, [r3, #416]
 1612 089c 07E0     		b	.L125
 1613              	.L124:
 884:../src/lib/lpc177x_8x/Drivers/source/lpc177x_8x_mci.c ****     }
 885:../src/lib/lpc177x_8x/Drivers/source/lpc177x_8x_mci.c ****     else
 886:../src/lib/lpc177x_8x/Drivers/source/lpc177x_8x_mci.c ****     {
 887:../src/lib/lpc177x_8x/Drivers/source/lpc177x_8x_mci.c ****         LPC_SC->SCS |= 0x08;
 1614              		.loc 2 887 0
 1615 089e 394B     		ldr	r3, .L137+16
 1616 08a0 384A     		ldr	r2, .L137+16
 1617 08a2 D2F8A021 		ldr	r2, [r2, #416]
 1618 08a6 42F00802 		orr	r2, r2, #8
 1619 08aa C3F8A021 		str	r2, [r3, #416]
 1620              	.L125:
 888:../src/lib/lpc177x_8x/Drivers/source/lpc177x_8x_mci.c ****     }
 889:../src/lib/lpc177x_8x/Drivers/source/lpc177x_8x_mci.c **** 
 890:../src/lib/lpc177x_8x/Drivers/source/lpc177x_8x_mci.c ****     //Setting for timeout problem
 891:../src/lib/lpc177x_8x/Drivers/source/lpc177x_8x_mci.c ****     LPC_MCI->DATATMR = 0x1FFFFFFF;
 1621              		.loc 2 891 0
 1622 08ae 364B     		ldr	r3, .L137+20
 1623 08b0 6FF06042 		mvn	r2, #-536870912
 1624 08b4 5A62     		str	r2, [r3, #36]
 892:../src/lib/lpc177x_8x/Drivers/source/lpc177x_8x_mci.c **** 
 893:../src/lib/lpc177x_8x/Drivers/source/lpc177x_8x_mci.c ****     /*set up clocking default mode, clear any registers as needed */
 894:../src/lib/lpc177x_8x/Drivers/source/lpc177x_8x_mci.c ****     LPC_MCI->COMMAND = 0;
 1625              		.loc 2 894 0
 1626 08b6 344B     		ldr	r3, .L137+20
 1627 08b8 4FF00002 		mov	r2, #0
 1628 08bc DA60     		str	r2, [r3, #12]
 895:../src/lib/lpc177x_8x/Drivers/source/lpc177x_8x_mci.c ****     for ( i = 0; i < 0x10; i++ );    /* delay 3MCLK + 2PCLK  */
 1629              		.loc 2 895 0
 1630 08be 4FF00003 		mov	r3, #0
 1631 08c2 FB60     		str	r3, [r7, #12]
 1632 08c4 03E0     		b	.L126
 1633              	.L127:
 1634              		.loc 2 895 0 is_stmt 0 discriminator 2
 1635 08c6 FB68     		ldr	r3, [r7, #12]
 1636 08c8 03F10103 		add	r3, r3, #1
 1637 08cc FB60     		str	r3, [r7, #12]
 1638              	.L126:
 1639              		.loc 2 895 0 discriminator 1
 1640 08ce FB68     		ldr	r3, [r7, #12]
 1641 08d0 0F2B     		cmp	r3, #15
 1642 08d2 F8D9     		bls	.L127
 896:../src/lib/lpc177x_8x/Drivers/source/lpc177x_8x_mci.c ****     LPC_MCI->DATACTRL = 0;
 1643              		.loc 2 896 0 is_stmt 1
 1644 08d4 2C4B     		ldr	r3, .L137+20
 1645 08d6 4FF00002 		mov	r2, #0
 1646 08da DA62     		str	r2, [r3, #44]
 897:../src/lib/lpc177x_8x/Drivers/source/lpc177x_8x_mci.c ****     for ( i = 0; i < 0x10; i++ );    /* delay 3MCLK + 2PCLK  */
 1647              		.loc 2 897 0
 1648 08dc 4FF00003 		mov	r3, #0
 1649 08e0 FB60     		str	r3, [r7, #12]
 1650 08e2 03E0     		b	.L128
 1651              	.L129:
 1652              		.loc 2 897 0 is_stmt 0 discriminator 2
 1653 08e4 FB68     		ldr	r3, [r7, #12]
 1654 08e6 03F10103 		add	r3, r3, #1
 1655 08ea FB60     		str	r3, [r7, #12]
 1656              	.L128:
 1657              		.loc 2 897 0 discriminator 1
 1658 08ec FB68     		ldr	r3, [r7, #12]
 1659 08ee 0F2B     		cmp	r3, #15
 1660 08f0 F8D9     		bls	.L129
 898:../src/lib/lpc177x_8x/Drivers/source/lpc177x_8x_mci.c ****     LPC_MCI->CLEAR = 0x7FF;        /* clear all pending interrupts */
 1661              		.loc 2 898 0 is_stmt 1
 1662 08f2 254B     		ldr	r3, .L137+20
 1663 08f4 40F2FF72 		movw	r2, #2047
 1664 08f8 9A63     		str	r2, [r3, #56]
 899:../src/lib/lpc177x_8x/Drivers/source/lpc177x_8x_mci.c **** 
 900:../src/lib/lpc177x_8x/Drivers/source/lpc177x_8x_mci.c ****     LPC_MCI->POWER = 0x02;        /* power up */
 1665              		.loc 2 900 0
 1666 08fa 234B     		ldr	r3, .L137+20
 1667 08fc 4FF00202 		mov	r2, #2
 1668 0900 1A60     		str	r2, [r3, #0]
 901:../src/lib/lpc177x_8x/Drivers/source/lpc177x_8x_mci.c ****     for ( i = 0; i < 0x10; i++ );    /* delay 3MCLK + 2PCLK  */
 1669              		.loc 2 901 0
 1670 0902 4FF00003 		mov	r3, #0
 1671 0906 FB60     		str	r3, [r7, #12]
 1672 0908 03E0     		b	.L130
 1673              	.L131:
 1674              		.loc 2 901 0 is_stmt 0 discriminator 2
 1675 090a FB68     		ldr	r3, [r7, #12]
 1676 090c 03F10103 		add	r3, r3, #1
 1677 0910 FB60     		str	r3, [r7, #12]
 1678              	.L130:
 1679              		.loc 2 901 0 discriminator 1
 1680 0912 FB68     		ldr	r3, [r7, #12]
 1681 0914 0F2B     		cmp	r3, #15
 1682 0916 F8D9     		bls	.L131
 902:../src/lib/lpc177x_8x/Drivers/source/lpc177x_8x_mci.c **** 
 903:../src/lib/lpc177x_8x/Drivers/source/lpc177x_8x_mci.c ****     
 904:../src/lib/lpc177x_8x/Drivers/source/lpc177x_8x_mci.c ****     /* delays for the supply output is stable*/
 905:../src/lib/lpc177x_8x/Drivers/source/lpc177x_8x_mci.c ****     for ( i = 0; i < 0x80000; i++ );
 1683              		.loc 2 905 0 is_stmt 1
 1684 0918 4FF00003 		mov	r3, #0
 1685 091c FB60     		str	r3, [r7, #12]
 1686 091e 03E0     		b	.L132
 1687              	.L133:
 1688              		.loc 2 905 0 is_stmt 0 discriminator 2
 1689 0920 FB68     		ldr	r3, [r7, #12]
 1690 0922 03F10103 		add	r3, r3, #1
 1691 0926 FB60     		str	r3, [r7, #12]
 1692              	.L132:
 1693              		.loc 2 905 0 discriminator 1
 1694 0928 FA68     		ldr	r2, [r7, #12]
 1695 092a 184B     		ldr	r3, .L137+24
 1696 092c 9A42     		cmp	r2, r3
 1697 092e F7D9     		bls	.L133
 906:../src/lib/lpc177x_8x/Drivers/source/lpc177x_8x_mci.c ****     
 907:../src/lib/lpc177x_8x/Drivers/source/lpc177x_8x_mci.c ****     /* During identification phase, the clock should be less than
 908:../src/lib/lpc177x_8x/Drivers/source/lpc177x_8x_mci.c ****     400Khz. Once we pass this phase, the normal clock can be set up
 909:../src/lib/lpc177x_8x/Drivers/source/lpc177x_8x_mci.c ****     to 25Mhz on SD card and 20Mhz on MMC card. */
 910:../src/lib/lpc177x_8x/Drivers/source/lpc177x_8x_mci.c ****     MCI_Set_MCIClock(MCI_SLOW_RATE );
 1698              		.loc 2 910 0 is_stmt 1
 1699 0930 1748     		ldr	r0, .L137+28
 1700 0932 FFF7FEFF 		bl	MCI_Set_MCIClock
 911:../src/lib/lpc177x_8x/Drivers/source/lpc177x_8x_mci.c **** 
 912:../src/lib/lpc177x_8x/Drivers/source/lpc177x_8x_mci.c ****     LPC_MCI->POWER |= 0x01;        /* bit 1 is set already, from power up to power on */
 1701              		.loc 2 912 0
 1702 0936 144B     		ldr	r3, .L137+20
 1703 0938 134A     		ldr	r2, .L137+20
 1704 093a 1268     		ldr	r2, [r2, #0]
 1705 093c 42F00102 		orr	r2, r2, #1
 1706 0940 1A60     		str	r2, [r3, #0]
 913:../src/lib/lpc177x_8x/Drivers/source/lpc177x_8x_mci.c ****     for ( i = 0; i < 0x10; i++ );    /* delay 3MCLK + 2PCLK  */
 1707              		.loc 2 913 0
 1708 0942 4FF00003 		mov	r3, #0
 1709 0946 FB60     		str	r3, [r7, #12]
 1710 0948 03E0     		b	.L134
 1711              	.L135:
 1712              		.loc 2 913 0 is_stmt 0 discriminator 2
 1713 094a FB68     		ldr	r3, [r7, #12]
 1714 094c 03F10103 		add	r3, r3, #1
 1715 0950 FB60     		str	r3, [r7, #12]
 1716              	.L134:
 1717              		.loc 2 913 0 discriminator 1
 1718 0952 FB68     		ldr	r3, [r7, #12]
 1719 0954 0F2B     		cmp	r3, #15
 1720 0956 F8D9     		bls	.L135
 914:../src/lib/lpc177x_8x/Drivers/source/lpc177x_8x_mci.c **** 
 915:../src/lib/lpc177x_8x/Drivers/source/lpc177x_8x_mci.c ****     NVIC_EnableIRQ(MCI_IRQn);
 1721              		.loc 2 915 0 is_stmt 1
 1722 0958 4FF01D00 		mov	r0, #29
 1723 095c FFF750FB 		bl	NVIC_EnableIRQ
 916:../src/lib/lpc177x_8x/Drivers/source/lpc177x_8x_mci.c **** 
 917:../src/lib/lpc177x_8x/Drivers/source/lpc177x_8x_mci.c ****     MCI_CardInit();
 1724              		.loc 2 917 0
 1725 0960 FFF7FEFF 		bl	MCI_CardInit
 918:../src/lib/lpc177x_8x/Drivers/source/lpc177x_8x_mci.c **** 
 919:../src/lib/lpc177x_8x/Drivers/source/lpc177x_8x_mci.c ****     /* During the initialization phase, to simplify the process, the CMD related
 920:../src/lib/lpc177x_8x/Drivers/source/lpc177x_8x_mci.c ****     interrupts are disabled. The DATA related interrupts are enabled when
 921:../src/lib/lpc177x_8x/Drivers/source/lpc177x_8x_mci.c ****     the FIFOs are used and just before WRITE_BLOCK READ_BLOCK cmds are issues, and
 922:../src/lib/lpc177x_8x/Drivers/source/lpc177x_8x_mci.c ****     disabled after the data block has been written and read. Please also note,
 923:../src/lib/lpc177x_8x/Drivers/source/lpc177x_8x_mci.c ****     before WRITE_BLOCK only TX related data interrupts are enabled, and before
 924:../src/lib/lpc177x_8x/Drivers/source/lpc177x_8x_mci.c ****     READ_BLOCK only RX related data interrupts are enabled. */
 925:../src/lib/lpc177x_8x/Drivers/source/lpc177x_8x_mci.c ****     return MCI_FUNC_OK;
 1726              		.loc 2 925 0
 1727 0964 4FF00003 		mov	r3, #0
 926:../src/lib/lpc177x_8x/Drivers/source/lpc177x_8x_mci.c **** }
 1728              		.loc 2 926 0
 1729 0968 1846     		mov	r0, r3
 1730 096a 07F11007 		add	r7, r7, #16
 1731 096e BD46     		mov	sp, r7
 1732 0970 80BD     		pop	{r7, pc}
 1733              	.L138:
 1734 0972 00BF     		.align	2
 1735              	.L137:
 1736 0974 00000000 		.word	MCI_CardType
 1737 0978 00C00240 		.word	1073922048
 1738 097c 20800920 		.word	537493536
 1739 0980 FFFF0F00 		.word	1048575
 1740 0984 00C00F40 		.word	1074774016
 1741 0988 00000C40 		.word	1074528256
 1742 098c FFFF0700 		.word	524287
 1743 0990 801A0600 		.word	400000
 1744              		.cfi_endproc
 1745              	.LFE71:
 1747              		.align	2
 1748              		.global	MCI_SetOutputMode
 1749              		.thumb
 1750              		.thumb_func
 1752              	MCI_SetOutputMode:
 1753              	.LFB72:
 927:../src/lib/lpc177x_8x/Drivers/source/lpc177x_8x_mci.c **** 
 928:../src/lib/lpc177x_8x/Drivers/source/lpc177x_8x_mci.c **** 
 929:../src/lib/lpc177x_8x/Drivers/source/lpc177x_8x_mci.c **** /************************************************************************//**
 930:../src/lib/lpc177x_8x/Drivers/source/lpc177x_8x_mci.c ****  * @brief         Set output in open drain mode or pushpull mode
 931:../src/lib/lpc177x_8x/Drivers/source/lpc177x_8x_mci.c ****  *
 932:../src/lib/lpc177x_8x/Drivers/source/lpc177x_8x_mci.c ****  * @param[in]    mode the mode going to set
 933:../src/lib/lpc177x_8x/Drivers/source/lpc177x_8x_mci.c ****  *
 934:../src/lib/lpc177x_8x/Drivers/source/lpc177x_8x_mci.c ****  * @return         None
 935:../src/lib/lpc177x_8x/Drivers/source/lpc177x_8x_mci.c ****  ***************************************************************************/
 936:../src/lib/lpc177x_8x/Drivers/source/lpc177x_8x_mci.c **** void MCI_SetOutputMode(uint32_t mode)
 937:../src/lib/lpc177x_8x/Drivers/source/lpc177x_8x_mci.c **** {
 1754              		.loc 2 937 0
 1755              		.cfi_startproc
 1756              		@ args = 0, pretend = 0, frame = 16
 1757              		@ frame_needed = 1, uses_anonymous_args = 0
 1758              		@ link register save eliminated.
 1759 0994 80B4     		push	{r7}
 1760              	.LCFI48:
 1761              		.cfi_def_cfa_offset 4
 1762              		.cfi_offset 7, -4
 1763 0996 85B0     		sub	sp, sp, #20
 1764              	.LCFI49:
 1765              		.cfi_def_cfa_offset 24
 1766 0998 00AF     		add	r7, sp, #0
 1767              	.LCFI50:
 1768              		.cfi_def_cfa_register 7
 1769 099a 7860     		str	r0, [r7, #4]
 938:../src/lib/lpc177x_8x/Drivers/source/lpc177x_8x_mci.c ****     uint32_t i = 0;
 1770              		.loc 2 938 0
 1771 099c 4FF00003 		mov	r3, #0
 1772 09a0 FB60     		str	r3, [r7, #12]
 939:../src/lib/lpc177x_8x/Drivers/source/lpc177x_8x_mci.c ****     if(mode == MCI_OUTPUT_MODE_OPENDRAIN)
 1773              		.loc 2 939 0
 1774 09a2 7B68     		ldr	r3, [r7, #4]
 1775 09a4 012B     		cmp	r3, #1
 1776 09a6 06D1     		bne	.L140
 940:../src/lib/lpc177x_8x/Drivers/source/lpc177x_8x_mci.c ****     {
 941:../src/lib/lpc177x_8x/Drivers/source/lpc177x_8x_mci.c ****         /* Set Open Drain output control for MMC */
 942:../src/lib/lpc177x_8x/Drivers/source/lpc177x_8x_mci.c ****         LPC_MCI->POWER |= (1 << MCI_PWRCTRL_OPENDRAIN_POS) & MCI_PWRCTRL_BMASK;
 1777              		.loc 2 942 0
 1778 09a8 0E4B     		ldr	r3, .L144
 1779 09aa 0E4A     		ldr	r2, .L144
 1780 09ac 1268     		ldr	r2, [r2, #0]
 1781 09ae 42F04002 		orr	r2, r2, #64
 1782 09b2 1A60     		str	r2, [r3, #0]
 1783 09b4 05E0     		b	.L141
 1784              	.L140:
 943:../src/lib/lpc177x_8x/Drivers/source/lpc177x_8x_mci.c ****     }
 944:../src/lib/lpc177x_8x/Drivers/source/lpc177x_8x_mci.c ****     else
 945:../src/lib/lpc177x_8x/Drivers/source/lpc177x_8x_mci.c ****     {
 946:../src/lib/lpc177x_8x/Drivers/source/lpc177x_8x_mci.c ****         /* Clear Open Drain output control for SD */
 947:../src/lib/lpc177x_8x/Drivers/source/lpc177x_8x_mci.c ****         LPC_MCI->POWER &= (~(1 << MCI_PWRCTRL_OPENDRAIN_POS) & MCI_PWRCTRL_BMASK);
 1785              		.loc 2 947 0
 1786 09b6 0B4B     		ldr	r3, .L144
 1787 09b8 0A4A     		ldr	r2, .L144
 1788 09ba 1268     		ldr	r2, [r2, #0]
 1789 09bc 02F08302 		and	r2, r2, #131
 1790 09c0 1A60     		str	r2, [r3, #0]
 1791              	.L141:
 948:../src/lib/lpc177x_8x/Drivers/source/lpc177x_8x_mci.c ****     }
 949:../src/lib/lpc177x_8x/Drivers/source/lpc177x_8x_mci.c ****     for ( i = 0; i < 0x10; i++ );    /* delay 3MCLK + 2PCLK  */
 1792              		.loc 2 949 0
 1793 09c2 4FF00003 		mov	r3, #0
 1794 09c6 FB60     		str	r3, [r7, #12]
 1795 09c8 03E0     		b	.L142
 1796              	.L143:
 1797              		.loc 2 949 0 is_stmt 0 discriminator 2
 1798 09ca FB68     		ldr	r3, [r7, #12]
 1799 09cc 03F10103 		add	r3, r3, #1
 1800 09d0 FB60     		str	r3, [r7, #12]
 1801              	.L142:
 1802              		.loc 2 949 0 discriminator 1
 1803 09d2 FB68     		ldr	r3, [r7, #12]
 1804 09d4 0F2B     		cmp	r3, #15
 1805 09d6 F8D9     		bls	.L143
 950:../src/lib/lpc177x_8x/Drivers/source/lpc177x_8x_mci.c **** }
 1806              		.loc 2 950 0 is_stmt 1
 1807 09d8 07F11407 		add	r7, r7, #20
 1808 09dc BD46     		mov	sp, r7
 1809 09de 80BC     		pop	{r7}
 1810 09e0 7047     		bx	lr
 1811              	.L145:
 1812 09e2 00BF     		.align	2
 1813              	.L144:
 1814 09e4 00000C40 		.word	1074528256
 1815              		.cfi_endproc
 1816              	.LFE72:
 1818              		.align	2
 1819              		.global	MCI_SendCmd
 1820              		.thumb
 1821              		.thumb_func
 1823              	MCI_SendCmd:
 1824              	.LFB73:
 951:../src/lib/lpc177x_8x/Drivers/source/lpc177x_8x_mci.c **** 
 952:../src/lib/lpc177x_8x/Drivers/source/lpc177x_8x_mci.c **** 
 953:../src/lib/lpc177x_8x/Drivers/source/lpc177x_8x_mci.c **** /************************************************************************//**
 954:../src/lib/lpc177x_8x/Drivers/source/lpc177x_8x_mci.c ****  * @brief        The routine is used to send a CMD to the card
 955:../src/lib/lpc177x_8x/Drivers/source/lpc177x_8x_mci.c ****  *
 956:../src/lib/lpc177x_8x/Drivers/source/lpc177x_8x_mci.c ****  * @param[in]    CmdIndex the command to be sent to cards
 957:../src/lib/lpc177x_8x/Drivers/source/lpc177x_8x_mci.c ****  *
 958:../src/lib/lpc177x_8x/Drivers/source/lpc177x_8x_mci.c ****  * @param[in]    Argument the argument follows the command
 959:../src/lib/lpc177x_8x/Drivers/source/lpc177x_8x_mci.c ****  *
 960:../src/lib/lpc177x_8x/Drivers/source/lpc177x_8x_mci.c ****  * @param[in]    ExpectResp the response type for the command. They may be:
 961:../src/lib/lpc177x_8x/Drivers/source/lpc177x_8x_mci.c ****  *                - EXPECT_NO_RESP: means no response required
 962:../src/lib/lpc177x_8x/Drivers/source/lpc177x_8x_mci.c ****  *                - EXPECT_SHORT_RESP: means a response in a word needed
 963:../src/lib/lpc177x_8x/Drivers/source/lpc177x_8x_mci.c ****  *                - EXPECT_LONG_RESP: means a response in 4 words needed
 964:../src/lib/lpc177x_8x/Drivers/source/lpc177x_8x_mci.c ****  *
 965:../src/lib/lpc177x_8x/Drivers/source/lpc177x_8x_mci.c ****  * @param[in]    AllowTimeout allow timeout the command or not
 966:../src/lib/lpc177x_8x/Drivers/source/lpc177x_8x_mci.c ****  *
 967:../src/lib/lpc177x_8x/Drivers/source/lpc177x_8x_mci.c ****  * @return       None
 968:../src/lib/lpc177x_8x/Drivers/source/lpc177x_8x_mci.c ****  ***************************************************************************/
 969:../src/lib/lpc177x_8x/Drivers/source/lpc177x_8x_mci.c **** void MCI_SendCmd(st_Mci_CmdInfo* pCmdIf)
 970:../src/lib/lpc177x_8x/Drivers/source/lpc177x_8x_mci.c **** {
 1825              		.loc 2 970 0
 1826              		.cfi_startproc
 1827              		@ args = 0, pretend = 0, frame = 40
 1828              		@ frame_needed = 1, uses_anonymous_args = 0
 1829              		@ link register save eliminated.
 1830 09e8 80B4     		push	{r7}
 1831              	.LCFI51:
 1832              		.cfi_def_cfa_offset 4
 1833              		.cfi_offset 7, -4
 1834 09ea 8BB0     		sub	sp, sp, #44
 1835              	.LCFI52:
 1836              		.cfi_def_cfa_offset 48
 1837 09ec 00AF     		add	r7, sp, #0
 1838              	.LCFI53:
 1839              		.cfi_def_cfa_register 7
 1840 09ee 7860     		str	r0, [r7, #4]
 971:../src/lib/lpc177x_8x/Drivers/source/lpc177x_8x_mci.c ****     volatile uint32_t i;
 972:../src/lib/lpc177x_8x/Drivers/source/lpc177x_8x_mci.c ****     uint32_t CmdData = 0;
 1841              		.loc 2 972 0
 1842 09f0 4FF00003 		mov	r3, #0
 1843 09f4 7B62     		str	r3, [r7, #36]
 973:../src/lib/lpc177x_8x/Drivers/source/lpc177x_8x_mci.c ****     uint32_t CmdStatus;
 974:../src/lib/lpc177x_8x/Drivers/source/lpc177x_8x_mci.c **** 
 975:../src/lib/lpc177x_8x/Drivers/source/lpc177x_8x_mci.c ****     uint32_t CmdIndex = pCmdIf->CmdIndex;
 1844              		.loc 2 975 0
 1845 09f6 7B68     		ldr	r3, [r7, #4]
 1846 09f8 1B68     		ldr	r3, [r3, #0]
 1847 09fa 3B62     		str	r3, [r7, #32]
 976:../src/lib/lpc177x_8x/Drivers/source/lpc177x_8x_mci.c ****     uint32_t Argument = pCmdIf->Argument;
 1848              		.loc 2 976 0
 1849 09fc 7B68     		ldr	r3, [r7, #4]
 1850 09fe 5B68     		ldr	r3, [r3, #4]
 1851 0a00 FB61     		str	r3, [r7, #28]
 977:../src/lib/lpc177x_8x/Drivers/source/lpc177x_8x_mci.c ****     uint32_t ExpectResp = pCmdIf->ExpectResp;
 1852              		.loc 2 977 0
 1853 0a02 7B68     		ldr	r3, [r7, #4]
 1854 0a04 9B68     		ldr	r3, [r3, #8]
 1855 0a06 BB61     		str	r3, [r7, #24]
 978:../src/lib/lpc177x_8x/Drivers/source/lpc177x_8x_mci.c ****     uint32_t AllowTimeout = pCmdIf->AllowTimeout;
 1856              		.loc 2 978 0
 1857 0a08 7B68     		ldr	r3, [r7, #4]
 1858 0a0a DB68     		ldr	r3, [r3, #12]
 1859 0a0c 7B61     		str	r3, [r7, #20]
 979:../src/lib/lpc177x_8x/Drivers/source/lpc177x_8x_mci.c ****     
 980:../src/lib/lpc177x_8x/Drivers/source/lpc177x_8x_mci.c ****     /* the command engine must be disabled when we modify the argument
 981:../src/lib/lpc177x_8x/Drivers/source/lpc177x_8x_mci.c ****     or the peripheral resends */
 982:../src/lib/lpc177x_8x/Drivers/source/lpc177x_8x_mci.c ****     while ( (CmdStatus = LPC_MCI->STATUS) & MCI_CMD_ACTIVE )    /* Command in progress. */
 1860              		.loc 2 982 0
 1861 0a0e 13E0     		b	.L147
 1862              	.L150:
 983:../src/lib/lpc177x_8x/Drivers/source/lpc177x_8x_mci.c ****     {
 984:../src/lib/lpc177x_8x/Drivers/source/lpc177x_8x_mci.c ****         LPC_MCI->COMMAND = 0;
 1863              		.loc 2 984 0
 1864 0a10 374B     		ldr	r3, .L161
 1865 0a12 4FF00002 		mov	r2, #0
 1866 0a16 DA60     		str	r2, [r3, #12]
 985:../src/lib/lpc177x_8x/Drivers/source/lpc177x_8x_mci.c ****         for ( i = 0; i < 0x10; i++ );    /* delay 3MCLK + 2PCLK  */
 1867              		.loc 2 985 0
 1868 0a18 4FF00003 		mov	r3, #0
 1869 0a1c FB60     		str	r3, [r7, #12]
 1870 0a1e 03E0     		b	.L148
 1871              	.L149:
 1872              		.loc 2 985 0 is_stmt 0 discriminator 2
 1873 0a20 FB68     		ldr	r3, [r7, #12]
 1874 0a22 03F10103 		add	r3, r3, #1
 1875 0a26 FB60     		str	r3, [r7, #12]
 1876              	.L148:
 1877              		.loc 2 985 0 discriminator 1
 1878 0a28 FB68     		ldr	r3, [r7, #12]
 1879 0a2a 0F2B     		cmp	r3, #15
 1880 0a2c F8D9     		bls	.L149
 986:../src/lib/lpc177x_8x/Drivers/source/lpc177x_8x_mci.c ****         LPC_MCI->CLEAR = CmdStatus | MCI_CMD_ACTIVE;
 1881              		.loc 2 986 0 is_stmt 1
 1882 0a2e 304B     		ldr	r3, .L161
 1883 0a30 3A69     		ldr	r2, [r7, #16]
 1884 0a32 42F40062 		orr	r2, r2, #2048
 1885 0a36 9A63     		str	r2, [r3, #56]
 1886              	.L147:
 982:../src/lib/lpc177x_8x/Drivers/source/lpc177x_8x_mci.c ****     while ( (CmdStatus = LPC_MCI->STATUS) & MCI_CMD_ACTIVE )    /* Command in progress. */
 1887              		.loc 2 982 0 discriminator 1
 1888 0a38 2D4B     		ldr	r3, .L161
 1889 0a3a 5B6B     		ldr	r3, [r3, #52]
 1890 0a3c 3B61     		str	r3, [r7, #16]
 1891 0a3e 3B69     		ldr	r3, [r7, #16]
 1892 0a40 03F40063 		and	r3, r3, #2048
 1893 0a44 002B     		cmp	r3, #0
 1894 0a46 E3D1     		bne	.L150
 987:../src/lib/lpc177x_8x/Drivers/source/lpc177x_8x_mci.c ****     }
 988:../src/lib/lpc177x_8x/Drivers/source/lpc177x_8x_mci.c **** 
 989:../src/lib/lpc177x_8x/Drivers/source/lpc177x_8x_mci.c **** 
 990:../src/lib/lpc177x_8x/Drivers/source/lpc177x_8x_mci.c ****     /*set the command details, the CmdIndex should 0 through 0x3F only */
 991:../src/lib/lpc177x_8x/Drivers/source/lpc177x_8x_mci.c ****     CmdData |= (CmdIndex & 0x3F);    /* bit 0 through 5 only */
 1895              		.loc 2 991 0
 1896 0a48 3B6A     		ldr	r3, [r7, #32]
 1897 0a4a 03F03F03 		and	r3, r3, #63
 1898 0a4e 7A6A     		ldr	r2, [r7, #36]
 1899 0a50 1343     		orrs	r3, r3, r2
 1900 0a52 7B62     		str	r3, [r7, #36]
 992:../src/lib/lpc177x_8x/Drivers/source/lpc177x_8x_mci.c **** 
 993:../src/lib/lpc177x_8x/Drivers/source/lpc177x_8x_mci.c ****     if ( ExpectResp == EXPECT_NO_RESP )            /* no response */
 1901              		.loc 2 993 0
 1902 0a54 BB69     		ldr	r3, [r7, #24]
 1903 0a56 002B     		cmp	r3, #0
 1904 0a58 04D1     		bne	.L151
 994:../src/lib/lpc177x_8x/Drivers/source/lpc177x_8x_mci.c ****     {
 995:../src/lib/lpc177x_8x/Drivers/source/lpc177x_8x_mci.c ****         CmdData &= ~((1 << 6) | (1 << 7));        /* Clear long response bit as well */
 1905              		.loc 2 995 0
 1906 0a5a 7B6A     		ldr	r3, [r7, #36]
 1907 0a5c 23F0C003 		bic	r3, r3, #192
 1908 0a60 7B62     		str	r3, [r7, #36]
 1909 0a62 0EE0     		b	.L152
 1910              	.L151:
 996:../src/lib/lpc177x_8x/Drivers/source/lpc177x_8x_mci.c ****     }
 997:../src/lib/lpc177x_8x/Drivers/source/lpc177x_8x_mci.c ****     else if ( ExpectResp == EXPECT_SHORT_RESP )    /* expect short response */
 1911              		.loc 2 997 0
 1912 0a64 BB69     		ldr	r3, [r7, #24]
 1913 0a66 012B     		cmp	r3, #1
 1914 0a68 04D1     		bne	.L153
 998:../src/lib/lpc177x_8x/Drivers/source/lpc177x_8x_mci.c ****     {
 999:../src/lib/lpc177x_8x/Drivers/source/lpc177x_8x_mci.c ****         CmdData |= (1 << 6);
 1915              		.loc 2 999 0
 1916 0a6a 7B6A     		ldr	r3, [r7, #36]
 1917 0a6c 43F04003 		orr	r3, r3, #64
 1918 0a70 7B62     		str	r3, [r7, #36]
 1919 0a72 06E0     		b	.L152
 1920              	.L153:
1000:../src/lib/lpc177x_8x/Drivers/source/lpc177x_8x_mci.c ****     }
1001:../src/lib/lpc177x_8x/Drivers/source/lpc177x_8x_mci.c ****     else if ( ExpectResp == EXPECT_LONG_RESP )    /* expect long response */
 1921              		.loc 2 1001 0
 1922 0a74 BB69     		ldr	r3, [r7, #24]
 1923 0a76 022B     		cmp	r3, #2
 1924 0a78 03D1     		bne	.L152
1002:../src/lib/lpc177x_8x/Drivers/source/lpc177x_8x_mci.c ****     {
1003:../src/lib/lpc177x_8x/Drivers/source/lpc177x_8x_mci.c ****         CmdData |= (1 << 6) | (1 << 7);
 1925              		.loc 2 1003 0
 1926 0a7a 7B6A     		ldr	r3, [r7, #36]
 1927 0a7c 43F0C003 		orr	r3, r3, #192
 1928 0a80 7B62     		str	r3, [r7, #36]
 1929              	.L152:
1004:../src/lib/lpc177x_8x/Drivers/source/lpc177x_8x_mci.c ****     }
1005:../src/lib/lpc177x_8x/Drivers/source/lpc177x_8x_mci.c **** 
1006:../src/lib/lpc177x_8x/Drivers/source/lpc177x_8x_mci.c ****     if ( AllowTimeout == ALLOW_CMD_TIMER )            /* allow timeout or not */
 1930              		.loc 2 1006 0
 1931 0a82 7B69     		ldr	r3, [r7, #20]
 1932 0a84 012B     		cmp	r3, #1
 1933 0a86 04D1     		bne	.L154
1007:../src/lib/lpc177x_8x/Drivers/source/lpc177x_8x_mci.c ****     {
1008:../src/lib/lpc177x_8x/Drivers/source/lpc177x_8x_mci.c ****         CmdData &= ~ MCI_DISABLE_CMD_TIMER;
 1934              		.loc 2 1008 0
 1935 0a88 7B6A     		ldr	r3, [r7, #36]
 1936 0a8a 23F48073 		bic	r3, r3, #256
 1937 0a8e 7B62     		str	r3, [r7, #36]
 1938 0a90 03E0     		b	.L155
 1939              	.L154:
1009:../src/lib/lpc177x_8x/Drivers/source/lpc177x_8x_mci.c ****     }
1010:../src/lib/lpc177x_8x/Drivers/source/lpc177x_8x_mci.c ****     else
1011:../src/lib/lpc177x_8x/Drivers/source/lpc177x_8x_mci.c ****     {
1012:../src/lib/lpc177x_8x/Drivers/source/lpc177x_8x_mci.c ****         CmdData |= MCI_DISABLE_CMD_TIMER;
 1940              		.loc 2 1012 0
 1941 0a92 7B6A     		ldr	r3, [r7, #36]
 1942 0a94 43F48073 		orr	r3, r3, #256
 1943 0a98 7B62     		str	r3, [r7, #36]
 1944              	.L155:
1013:../src/lib/lpc177x_8x/Drivers/source/lpc177x_8x_mci.c ****     }
1014:../src/lib/lpc177x_8x/Drivers/source/lpc177x_8x_mci.c **** 
1015:../src/lib/lpc177x_8x/Drivers/source/lpc177x_8x_mci.c ****     /*send the command*/
1016:../src/lib/lpc177x_8x/Drivers/source/lpc177x_8x_mci.c ****     CmdData |= (1 << 10);        /* This bit needs to be set last. */
 1945              		.loc 2 1016 0
 1946 0a9a 7B6A     		ldr	r3, [r7, #36]
 1947 0a9c 43F48063 		orr	r3, r3, #1024
 1948 0aa0 7B62     		str	r3, [r7, #36]
1017:../src/lib/lpc177x_8x/Drivers/source/lpc177x_8x_mci.c **** 
1018:../src/lib/lpc177x_8x/Drivers/source/lpc177x_8x_mci.c ****     // clear status register
1019:../src/lib/lpc177x_8x/Drivers/source/lpc177x_8x_mci.c ****     LPC_MCI->CLEAR = 0x7FF;
 1949              		.loc 2 1019 0
 1950 0aa2 134B     		ldr	r3, .L161
 1951 0aa4 40F2FF72 		movw	r2, #2047
 1952 0aa8 9A63     		str	r2, [r3, #56]
1020:../src/lib/lpc177x_8x/Drivers/source/lpc177x_8x_mci.c **** 
1021:../src/lib/lpc177x_8x/Drivers/source/lpc177x_8x_mci.c ****     LPC_MCI->ARGUMENT = Argument;    /* Set the argument first, finally command */
 1953              		.loc 2 1021 0
 1954 0aaa 114B     		ldr	r3, .L161
 1955 0aac FA69     		ldr	r2, [r7, #28]
 1956 0aae 9A60     		str	r2, [r3, #8]
1022:../src/lib/lpc177x_8x/Drivers/source/lpc177x_8x_mci.c **** 
1023:../src/lib/lpc177x_8x/Drivers/source/lpc177x_8x_mci.c ****     LPC_MCI->COMMAND = CmdData;
 1957              		.loc 2 1023 0
 1958 0ab0 0F4B     		ldr	r3, .L161
 1959 0ab2 7A6A     		ldr	r2, [r7, #36]
 1960 0ab4 DA60     		str	r2, [r3, #12]
1024:../src/lib/lpc177x_8x/Drivers/source/lpc177x_8x_mci.c **** 
1025:../src/lib/lpc177x_8x/Drivers/source/lpc177x_8x_mci.c ****     for ( i = 0; i < 0x10; i++ );    /* delay 3MCLK + 2PCLK  */
 1961              		.loc 2 1025 0
 1962 0ab6 4FF00003 		mov	r3, #0
 1963 0aba FB60     		str	r3, [r7, #12]
 1964 0abc 03E0     		b	.L156
 1965              	.L157:
 1966              		.loc 2 1025 0 is_stmt 0 discriminator 2
 1967 0abe FB68     		ldr	r3, [r7, #12]
 1968 0ac0 03F10103 		add	r3, r3, #1
 1969 0ac4 FB60     		str	r3, [r7, #12]
 1970              	.L156:
 1971              		.loc 2 1025 0 discriminator 1
 1972 0ac6 FB68     		ldr	r3, [r7, #12]
 1973 0ac8 0F2B     		cmp	r3, #15
 1974 0aca F8D9     		bls	.L157
1026:../src/lib/lpc177x_8x/Drivers/source/lpc177x_8x_mci.c **** 
1027:../src/lib/lpc177x_8x/Drivers/source/lpc177x_8x_mci.c ****     // Wait until command is processed
1028:../src/lib/lpc177x_8x/Drivers/source/lpc177x_8x_mci.c ****     while(!LPC_MCI->STATUS);
 1975              		.loc 2 1028 0 is_stmt 1
 1976 0acc 00BF     		nop
 1977              	.L158:
 1978              		.loc 2 1028 0 is_stmt 0 discriminator 1
 1979 0ace 084B     		ldr	r3, .L161
 1980 0ad0 5B6B     		ldr	r3, [r3, #52]
 1981 0ad2 002B     		cmp	r3, #0
 1982 0ad4 FBD0     		beq	.L158
1029:../src/lib/lpc177x_8x/Drivers/source/lpc177x_8x_mci.c ****     
1030:../src/lib/lpc177x_8x/Drivers/source/lpc177x_8x_mci.c ****     // Wait until command sent
1031:../src/lib/lpc177x_8x/Drivers/source/lpc177x_8x_mci.c ****     while(LPC_MCI->STATUS & MCI_CMD_ACTIVE);
 1983              		.loc 2 1031 0 is_stmt 1
 1984 0ad6 00BF     		nop
 1985              	.L159:
 1986              		.loc 2 1031 0 is_stmt 0 discriminator 1
 1987 0ad8 054B     		ldr	r3, .L161
 1988 0ada 5B6B     		ldr	r3, [r3, #52]
 1989 0adc 03F40063 		and	r3, r3, #2048
 1990 0ae0 002B     		cmp	r3, #0
 1991 0ae2 F9D1     		bne	.L159
1032:../src/lib/lpc177x_8x/Drivers/source/lpc177x_8x_mci.c ****     
1033:../src/lib/lpc177x_8x/Drivers/source/lpc177x_8x_mci.c ****     return;
 1992              		.loc 2 1033 0 is_stmt 1
 1993 0ae4 00BF     		nop
1034:../src/lib/lpc177x_8x/Drivers/source/lpc177x_8x_mci.c **** }
 1994              		.loc 2 1034 0
 1995 0ae6 07F12C07 		add	r7, r7, #44
 1996 0aea BD46     		mov	sp, r7
 1997 0aec 80BC     		pop	{r7}
 1998 0aee 7047     		bx	lr
 1999              	.L162:
 2000              		.align	2
 2001              	.L161:
 2002 0af0 00000C40 		.word	1074528256
 2003              		.cfi_endproc
 2004              	.LFE73:
 2006              		.align	2
 2007              		.global	MCI_GetCmdResp
 2008              		.thumb
 2009              		.thumb_func
 2011              	MCI_GetCmdResp:
 2012              	.LFB74:
1035:../src/lib/lpc177x_8x/Drivers/source/lpc177x_8x_mci.c **** 
1036:../src/lib/lpc177x_8x/Drivers/source/lpc177x_8x_mci.c **** 
1037:../src/lib/lpc177x_8x/Drivers/source/lpc177x_8x_mci.c **** /************************************************************************//**
1038:../src/lib/lpc177x_8x/Drivers/source/lpc177x_8x_mci.c ****  * @brief        The routine is to get the reponse from card after commands.
1039:../src/lib/lpc177x_8x/Drivers/source/lpc177x_8x_mci.c ****  *               This function is always used in pair of MCI_SendCmd() func
1040:../src/lib/lpc177x_8x/Drivers/source/lpc177x_8x_mci.c ****  *
1041:../src/lib/lpc177x_8x/Drivers/source/lpc177x_8x_mci.c ****  * @param[in]    ExpectCmdData specify the command of which the data will be
1042:../src/lib/lpc177x_8x/Drivers/source/lpc177x_8x_mci.c ****  *                retrieved. This field should be the same with CmdIndex of
1043:../src/lib/lpc177x_8x/Drivers/source/lpc177x_8x_mci.c ****  *                MCI_SendCmd() function.
1044:../src/lib/lpc177x_8x/Drivers/source/lpc177x_8x_mci.c ****  *
1045:../src/lib/lpc177x_8x/Drivers/source/lpc177x_8x_mci.c ****  * @param[in]    ExpectResp the response type for the command. They may be:
1046:../src/lib/lpc177x_8x/Drivers/source/lpc177x_8x_mci.c ****  *                - EXPECT_NO_RESP: means no response required
1047:../src/lib/lpc177x_8x/Drivers/source/lpc177x_8x_mci.c ****  *                - EXPECT_SHORT_RESP: means a response in a word needed
1048:../src/lib/lpc177x_8x/Drivers/source/lpc177x_8x_mci.c ****  *                - EXPECT_LONG_RESP: means a response in 4 words needed
1049:../src/lib/lpc177x_8x/Drivers/source/lpc177x_8x_mci.c ****  *
1050:../src/lib/lpc177x_8x/Drivers/source/lpc177x_8x_mci.c ****  * @param[out]   CmdResp the buffer stored the data replied from cards
1051:../src/lib/lpc177x_8x/Drivers/source/lpc177x_8x_mci.c ****  *
1052:../src/lib/lpc177x_8x/Drivers/source/lpc177x_8x_mci.c ****  * @return       MCI_FUNC_OK in case of success
1053:../src/lib/lpc177x_8x/Drivers/source/lpc177x_8x_mci.c ****  ***************************************************************************/
1054:../src/lib/lpc177x_8x/Drivers/source/lpc177x_8x_mci.c **** int32_t MCI_GetCmdResp(uint32_t ExpectCmdData, uint32_t ExpectResp, uint32_t *CmdResp)
1055:../src/lib/lpc177x_8x/Drivers/source/lpc177x_8x_mci.c **** {
 2013              		.loc 2 1055 0
 2014              		.cfi_startproc
 2015              		@ args = 0, pretend = 0, frame = 32
 2016              		@ frame_needed = 1, uses_anonymous_args = 0
 2017              		@ link register save eliminated.
 2018 0af4 80B4     		push	{r7}
 2019              	.LCFI54:
 2020              		.cfi_def_cfa_offset 4
 2021              		.cfi_offset 7, -4
 2022 0af6 89B0     		sub	sp, sp, #36
 2023              	.LCFI55:
 2024              		.cfi_def_cfa_offset 40
 2025 0af8 00AF     		add	r7, sp, #0
 2026              	.LCFI56:
 2027              		.cfi_def_cfa_register 7
 2028 0afa F860     		str	r0, [r7, #12]
 2029 0afc B960     		str	r1, [r7, #8]
 2030 0afe 7A60     		str	r2, [r7, #4]
1056:../src/lib/lpc177x_8x/Drivers/source/lpc177x_8x_mci.c ****     uint32_t CmdRespStatus = 0;
 2031              		.loc 2 1056 0
 2032 0b00 4FF00003 		mov	r3, #0
 2033 0b04 BB61     		str	r3, [r7, #24]
1057:../src/lib/lpc177x_8x/Drivers/source/lpc177x_8x_mci.c ****     uint32_t LastCmdIndex;
1058:../src/lib/lpc177x_8x/Drivers/source/lpc177x_8x_mci.c ****     uint32_t i = 0;
 2034              		.loc 2 1058 0
 2035 0b06 4FF00003 		mov	r3, #0
 2036 0b0a FB61     		str	r3, [r7, #28]
1059:../src/lib/lpc177x_8x/Drivers/source/lpc177x_8x_mci.c **** 
1060:../src/lib/lpc177x_8x/Drivers/source/lpc177x_8x_mci.c ****     if ( ExpectResp == EXPECT_NO_RESP )
 2037              		.loc 2 1060 0
 2038 0b0c BB68     		ldr	r3, [r7, #8]
 2039 0b0e 002B     		cmp	r3, #0
 2040 0b10 03D1     		bne	.L164
1061:../src/lib/lpc177x_8x/Drivers/source/lpc177x_8x_mci.c ****     {
1062:../src/lib/lpc177x_8x/Drivers/source/lpc177x_8x_mci.c ****         return MCI_FUNC_OK;
 2041              		.loc 2 1062 0
 2042 0b12 4FF00003 		mov	r3, #0
 2043 0b16 9AE0     		b	.L165
 2044              	.L179:
1063:../src/lib/lpc177x_8x/Drivers/source/lpc177x_8x_mci.c ****     }
1064:../src/lib/lpc177x_8x/Drivers/source/lpc177x_8x_mci.c **** 
1065:../src/lib/lpc177x_8x/Drivers/source/lpc177x_8x_mci.c ****     while (1)
1066:../src/lib/lpc177x_8x/Drivers/source/lpc177x_8x_mci.c ****     {
1067:../src/lib/lpc177x_8x/Drivers/source/lpc177x_8x_mci.c ****         // Get the status of the component
1068:../src/lib/lpc177x_8x/Drivers/source/lpc177x_8x_mci.c ****         CmdRespStatus = LPC_MCI->STATUS;
1069:../src/lib/lpc177x_8x/Drivers/source/lpc177x_8x_mci.c **** 
1070:../src/lib/lpc177x_8x/Drivers/source/lpc177x_8x_mci.c ****         if ( CmdRespStatus & (MCI_CMD_TIMEOUT) )
1071:../src/lib/lpc177x_8x/Drivers/source/lpc177x_8x_mci.c ****         {
1072:../src/lib/lpc177x_8x/Drivers/source/lpc177x_8x_mci.c ****             LPC_MCI->CLEAR = CmdRespStatus | MCI_CMD_TIMEOUT;
1073:../src/lib/lpc177x_8x/Drivers/source/lpc177x_8x_mci.c **** 
1074:../src/lib/lpc177x_8x/Drivers/source/lpc177x_8x_mci.c ****             LPC_MCI->COMMAND = 0;
1075:../src/lib/lpc177x_8x/Drivers/source/lpc177x_8x_mci.c ****             LPC_MCI->ARGUMENT = 0xFFFFFFFF;
1076:../src/lib/lpc177x_8x/Drivers/source/lpc177x_8x_mci.c **** 
1077:../src/lib/lpc177x_8x/Drivers/source/lpc177x_8x_mci.c ****             for ( i = 0; i < 0x10; i++ );    /* delay 3MCLK + 2PCLK  */
1078:../src/lib/lpc177x_8x/Drivers/source/lpc177x_8x_mci.c ****             
1079:../src/lib/lpc177x_8x/Drivers/source/lpc177x_8x_mci.c ****             return (CmdRespStatus);
1080:../src/lib/lpc177x_8x/Drivers/source/lpc177x_8x_mci.c ****         }
1081:../src/lib/lpc177x_8x/Drivers/source/lpc177x_8x_mci.c **** 
1082:../src/lib/lpc177x_8x/Drivers/source/lpc177x_8x_mci.c ****         if (  CmdRespStatus & MCI_CMD_CRC_FAIL )
1083:../src/lib/lpc177x_8x/Drivers/source/lpc177x_8x_mci.c ****         {
1084:../src/lib/lpc177x_8x/Drivers/source/lpc177x_8x_mci.c ****             LPC_MCI->CLEAR = CmdRespStatus | MCI_CMD_CRC_FAIL;
1085:../src/lib/lpc177x_8x/Drivers/source/lpc177x_8x_mci.c ****             LastCmdIndex = LPC_MCI->COMMAND & 0x003F;
1086:../src/lib/lpc177x_8x/Drivers/source/lpc177x_8x_mci.c **** 
1087:../src/lib/lpc177x_8x/Drivers/source/lpc177x_8x_mci.c ****             if ( (LastCmdIndex == CMD1_SEND_OP_COND) || (LastCmdIndex == ACMD41_SEND_APP_OP_COND)
1088:../src/lib/lpc177x_8x/Drivers/source/lpc177x_8x_mci.c ****                                                     || (LastCmdIndex == CMD12_STOP_TRANSMISSION) )
1089:../src/lib/lpc177x_8x/Drivers/source/lpc177x_8x_mci.c ****             {
1090:../src/lib/lpc177x_8x/Drivers/source/lpc177x_8x_mci.c ****                 LPC_MCI->COMMAND = 0;
1091:../src/lib/lpc177x_8x/Drivers/source/lpc177x_8x_mci.c ****                 LPC_MCI->ARGUMENT = 0xFFFFFFFF;
1092:../src/lib/lpc177x_8x/Drivers/source/lpc177x_8x_mci.c ****                 for ( i = 0; i < 0x10; i++ );    /* delay 3MCLK + 2PCLK  */
1093:../src/lib/lpc177x_8x/Drivers/source/lpc177x_8x_mci.c ****                 break;            /* ignore CRC error if it's a resp for SEND_OP_COND
1094:../src/lib/lpc177x_8x/Drivers/source/lpc177x_8x_mci.c ****                                 or STOP_TRANSMISSION. */
1095:../src/lib/lpc177x_8x/Drivers/source/lpc177x_8x_mci.c ****             }
1096:../src/lib/lpc177x_8x/Drivers/source/lpc177x_8x_mci.c ****             else
1097:../src/lib/lpc177x_8x/Drivers/source/lpc177x_8x_mci.c ****             {
1098:../src/lib/lpc177x_8x/Drivers/source/lpc177x_8x_mci.c ****                 return (CmdRespStatus);
1099:../src/lib/lpc177x_8x/Drivers/source/lpc177x_8x_mci.c ****             }
1100:../src/lib/lpc177x_8x/Drivers/source/lpc177x_8x_mci.c ****         }
1101:../src/lib/lpc177x_8x/Drivers/source/lpc177x_8x_mci.c ****         else if (CmdRespStatus & MCI_CMD_RESP_END)
1102:../src/lib/lpc177x_8x/Drivers/source/lpc177x_8x_mci.c ****         {
1103:../src/lib/lpc177x_8x/Drivers/source/lpc177x_8x_mci.c ****             LPC_MCI->CLEAR = CmdRespStatus | MCI_CMD_RESP_END;
1104:../src/lib/lpc177x_8x/Drivers/source/lpc177x_8x_mci.c ****             break;    /* cmd response is received, expecting response */
1105:../src/lib/lpc177x_8x/Drivers/source/lpc177x_8x_mci.c ****         }
1106:../src/lib/lpc177x_8x/Drivers/source/lpc177x_8x_mci.c ****         
1107:../src/lib/lpc177x_8x/Drivers/source/lpc177x_8x_mci.c ****     }
 2045              		.loc 2 1107 0
 2046 0b18 00BF     		nop
 2047              	.L164:
1068:../src/lib/lpc177x_8x/Drivers/source/lpc177x_8x_mci.c ****         CmdRespStatus = LPC_MCI->STATUS;
 2048              		.loc 2 1068 0
 2049 0b1a 504B     		ldr	r3, .L180
 2050 0b1c 5B6B     		ldr	r3, [r3, #52]
 2051 0b1e BB61     		str	r3, [r7, #24]
1070:../src/lib/lpc177x_8x/Drivers/source/lpc177x_8x_mci.c ****         if ( CmdRespStatus & (MCI_CMD_TIMEOUT) )
 2052              		.loc 2 1070 0
 2053 0b20 BB69     		ldr	r3, [r7, #24]
 2054 0b22 03F00403 		and	r3, r3, #4
 2055 0b26 002B     		cmp	r3, #0
 2056 0b28 19D0     		beq	.L166
1072:../src/lib/lpc177x_8x/Drivers/source/lpc177x_8x_mci.c ****             LPC_MCI->CLEAR = CmdRespStatus | MCI_CMD_TIMEOUT;
 2057              		.loc 2 1072 0
 2058 0b2a 4C4B     		ldr	r3, .L180
 2059 0b2c BA69     		ldr	r2, [r7, #24]
 2060 0b2e 42F00402 		orr	r2, r2, #4
 2061 0b32 9A63     		str	r2, [r3, #56]
1074:../src/lib/lpc177x_8x/Drivers/source/lpc177x_8x_mci.c ****             LPC_MCI->COMMAND = 0;
 2062              		.loc 2 1074 0
 2063 0b34 494B     		ldr	r3, .L180
 2064 0b36 4FF00002 		mov	r2, #0
 2065 0b3a DA60     		str	r2, [r3, #12]
1075:../src/lib/lpc177x_8x/Drivers/source/lpc177x_8x_mci.c ****             LPC_MCI->ARGUMENT = 0xFFFFFFFF;
 2066              		.loc 2 1075 0
 2067 0b3c 474B     		ldr	r3, .L180
 2068 0b3e 4FF0FF32 		mov	r2, #-1
 2069 0b42 9A60     		str	r2, [r3, #8]
1077:../src/lib/lpc177x_8x/Drivers/source/lpc177x_8x_mci.c ****             for ( i = 0; i < 0x10; i++ );    /* delay 3MCLK + 2PCLK  */
 2070              		.loc 2 1077 0
 2071 0b44 4FF00003 		mov	r3, #0
 2072 0b48 FB61     		str	r3, [r7, #28]
 2073 0b4a 03E0     		b	.L167
 2074              	.L168:
1077:../src/lib/lpc177x_8x/Drivers/source/lpc177x_8x_mci.c ****             for ( i = 0; i < 0x10; i++ );    /* delay 3MCLK + 2PCLK  */
 2075              		.loc 2 1077 0 is_stmt 0 discriminator 2
 2076 0b4c FB69     		ldr	r3, [r7, #28]
 2077 0b4e 03F10103 		add	r3, r3, #1
 2078 0b52 FB61     		str	r3, [r7, #28]
 2079              	.L167:
1077:../src/lib/lpc177x_8x/Drivers/source/lpc177x_8x_mci.c ****             for ( i = 0; i < 0x10; i++ );    /* delay 3MCLK + 2PCLK  */
 2080              		.loc 2 1077 0 discriminator 1
 2081 0b54 FB69     		ldr	r3, [r7, #28]
 2082 0b56 0F2B     		cmp	r3, #15
 2083 0b58 F8D9     		bls	.L168
1079:../src/lib/lpc177x_8x/Drivers/source/lpc177x_8x_mci.c ****             return (CmdRespStatus);
 2084              		.loc 2 1079 0 is_stmt 1
 2085 0b5a BB69     		ldr	r3, [r7, #24]
 2086 0b5c 77E0     		b	.L165
 2087              	.L166:
1082:../src/lib/lpc177x_8x/Drivers/source/lpc177x_8x_mci.c ****         if (  CmdRespStatus & MCI_CMD_CRC_FAIL )
 2088              		.loc 2 1082 0
 2089 0b5e BB69     		ldr	r3, [r7, #24]
 2090 0b60 03F00103 		and	r3, r3, #1
 2091 0b64 002B     		cmp	r3, #0
 2092 0b66 28D0     		beq	.L169
1084:../src/lib/lpc177x_8x/Drivers/source/lpc177x_8x_mci.c ****             LPC_MCI->CLEAR = CmdRespStatus | MCI_CMD_CRC_FAIL;
 2093              		.loc 2 1084 0
 2094 0b68 3C4B     		ldr	r3, .L180
 2095 0b6a BA69     		ldr	r2, [r7, #24]
 2096 0b6c 42F00102 		orr	r2, r2, #1
 2097 0b70 9A63     		str	r2, [r3, #56]
1085:../src/lib/lpc177x_8x/Drivers/source/lpc177x_8x_mci.c ****             LastCmdIndex = LPC_MCI->COMMAND & 0x003F;
 2098              		.loc 2 1085 0
 2099 0b72 3A4B     		ldr	r3, .L180
 2100 0b74 DB68     		ldr	r3, [r3, #12]
 2101 0b76 03F03F03 		and	r3, r3, #63
 2102 0b7a 7B61     		str	r3, [r7, #20]
1087:../src/lib/lpc177x_8x/Drivers/source/lpc177x_8x_mci.c ****             if ( (LastCmdIndex == CMD1_SEND_OP_COND) || (LastCmdIndex == ACMD41_SEND_APP_OP_COND)
 2103              		.loc 2 1087 0
 2104 0b7c 7B69     		ldr	r3, [r7, #20]
 2105 0b7e 012B     		cmp	r3, #1
 2106 0b80 05D0     		beq	.L170
1087:../src/lib/lpc177x_8x/Drivers/source/lpc177x_8x_mci.c ****             if ( (LastCmdIndex == CMD1_SEND_OP_COND) || (LastCmdIndex == ACMD41_SEND_APP_OP_COND)
 2107              		.loc 2 1087 0 is_stmt 0 discriminator 1
 2108 0b82 7B69     		ldr	r3, [r7, #20]
 2109 0b84 292B     		cmp	r3, #41
 2110 0b86 02D0     		beq	.L170
1088:../src/lib/lpc177x_8x/Drivers/source/lpc177x_8x_mci.c ****                                                     || (LastCmdIndex == CMD12_STOP_TRANSMISSION) )
 2111              		.loc 2 1088 0 is_stmt 1
 2112 0b88 7B69     		ldr	r3, [r7, #20]
 2113 0b8a 0C2B     		cmp	r3, #12
 2114 0b8c 13D1     		bne	.L171
 2115              	.L170:
1090:../src/lib/lpc177x_8x/Drivers/source/lpc177x_8x_mci.c ****                 LPC_MCI->COMMAND = 0;
 2116              		.loc 2 1090 0
 2117 0b8e 334B     		ldr	r3, .L180
 2118 0b90 4FF00002 		mov	r2, #0
 2119 0b94 DA60     		str	r2, [r3, #12]
1091:../src/lib/lpc177x_8x/Drivers/source/lpc177x_8x_mci.c ****                 LPC_MCI->ARGUMENT = 0xFFFFFFFF;
 2120              		.loc 2 1091 0
 2121 0b96 314B     		ldr	r3, .L180
 2122 0b98 4FF0FF32 		mov	r2, #-1
 2123 0b9c 9A60     		str	r2, [r3, #8]
1092:../src/lib/lpc177x_8x/Drivers/source/lpc177x_8x_mci.c ****                 for ( i = 0; i < 0x10; i++ );    /* delay 3MCLK + 2PCLK  */
 2124              		.loc 2 1092 0
 2125 0b9e 4FF00003 		mov	r3, #0
 2126 0ba2 FB61     		str	r3, [r7, #28]
 2127 0ba4 03E0     		b	.L172
 2128              	.L173:
1092:../src/lib/lpc177x_8x/Drivers/source/lpc177x_8x_mci.c ****                 for ( i = 0; i < 0x10; i++ );    /* delay 3MCLK + 2PCLK  */
 2129              		.loc 2 1092 0 is_stmt 0 discriminator 2
 2130 0ba6 FB69     		ldr	r3, [r7, #28]
 2131 0ba8 03F10103 		add	r3, r3, #1
 2132 0bac FB61     		str	r3, [r7, #28]
 2133              	.L172:
1092:../src/lib/lpc177x_8x/Drivers/source/lpc177x_8x_mci.c ****                 for ( i = 0; i < 0x10; i++ );    /* delay 3MCLK + 2PCLK  */
 2134              		.loc 2 1092 0 discriminator 1
 2135 0bae FB69     		ldr	r3, [r7, #28]
 2136 0bb0 0F2B     		cmp	r3, #15
 2137 0bb2 F8D9     		bls	.L173
1093:../src/lib/lpc177x_8x/Drivers/source/lpc177x_8x_mci.c ****                 break;            /* ignore CRC error if it's a resp for SEND_OP_COND
 2138              		.loc 2 1093 0 is_stmt 1
 2139 0bb4 0CE0     		b	.L174
 2140              	.L171:
1098:../src/lib/lpc177x_8x/Drivers/source/lpc177x_8x_mci.c ****                 return (CmdRespStatus);
 2141              		.loc 2 1098 0
 2142 0bb6 BB69     		ldr	r3, [r7, #24]
 2143 0bb8 49E0     		b	.L165
 2144              	.L169:
1101:../src/lib/lpc177x_8x/Drivers/source/lpc177x_8x_mci.c ****         else if (CmdRespStatus & MCI_CMD_RESP_END)
 2145              		.loc 2 1101 0
 2146 0bba BB69     		ldr	r3, [r7, #24]
 2147 0bbc 03F04003 		and	r3, r3, #64
 2148 0bc0 002B     		cmp	r3, #0
 2149 0bc2 A9D0     		beq	.L179
1103:../src/lib/lpc177x_8x/Drivers/source/lpc177x_8x_mci.c ****             LPC_MCI->CLEAR = CmdRespStatus | MCI_CMD_RESP_END;
 2150              		.loc 2 1103 0
 2151 0bc4 254B     		ldr	r3, .L180
 2152 0bc6 BA69     		ldr	r2, [r7, #24]
 2153 0bc8 42F04002 		orr	r2, r2, #64
 2154 0bcc 9A63     		str	r2, [r3, #56]
1104:../src/lib/lpc177x_8x/Drivers/source/lpc177x_8x_mci.c ****             break;    /* cmd response is received, expecting response */
 2155              		.loc 2 1104 0
 2156 0bce 00BF     		nop
 2157              	.L174:
1108:../src/lib/lpc177x_8x/Drivers/source/lpc177x_8x_mci.c **** 
1109:../src/lib/lpc177x_8x/Drivers/source/lpc177x_8x_mci.c ****     if ((LPC_MCI->RESP_CMD & 0x3F) != ExpectCmdData)
 2158              		.loc 2 1109 0
 2159 0bd0 224B     		ldr	r3, .L180
 2160 0bd2 1B69     		ldr	r3, [r3, #16]
 2161 0bd4 03F03F02 		and	r2, r3, #63
 2162 0bd8 FB68     		ldr	r3, [r7, #12]
 2163 0bda 9A42     		cmp	r2, r3
 2164 0bdc 11D0     		beq	.L176
1110:../src/lib/lpc177x_8x/Drivers/source/lpc177x_8x_mci.c ****     {
1111:../src/lib/lpc177x_8x/Drivers/source/lpc177x_8x_mci.c ****         /* If the response is not R1, in the response field, the Expected Cmd data
1112:../src/lib/lpc177x_8x/Drivers/source/lpc177x_8x_mci.c ****         won't be the same as the CMD data in SendCmd(). Below four cmds have
1113:../src/lib/lpc177x_8x/Drivers/source/lpc177x_8x_mci.c ****         R2 or R3 response. We don't need to check if MCI_RESP_CMD is the same
1114:../src/lib/lpc177x_8x/Drivers/source/lpc177x_8x_mci.c ****         as the Expected or not. */
1115:../src/lib/lpc177x_8x/Drivers/source/lpc177x_8x_mci.c ****         if ((ExpectCmdData != CMD1_SEND_OP_COND) && (ExpectCmdData != ACMD41_SEND_APP_OP_COND)
 2165              		.loc 2 1115 0
 2166 0bde FB68     		ldr	r3, [r7, #12]
 2167 0be0 012B     		cmp	r3, #1
 2168 0be2 0ED0     		beq	.L176
 2169              		.loc 2 1115 0 is_stmt 0 discriminator 1
 2170 0be4 FB68     		ldr	r3, [r7, #12]
 2171 0be6 292B     		cmp	r3, #41
 2172 0be8 0BD0     		beq	.L176
1116:../src/lib/lpc177x_8x/Drivers/source/lpc177x_8x_mci.c ****                     && (ExpectCmdData != CMD2_ALL_SEND_CID) && (ExpectCmdData != CMD9_SEND_CSD))
 2173              		.loc 2 1116 0 is_stmt 1
 2174 0bea FB68     		ldr	r3, [r7, #12]
 2175 0bec 022B     		cmp	r3, #2
 2176 0bee 08D0     		beq	.L176
 2177              		.loc 2 1116 0 is_stmt 0 discriminator 1
 2178 0bf0 FB68     		ldr	r3, [r7, #12]
 2179 0bf2 092B     		cmp	r3, #9
 2180 0bf4 05D0     		beq	.L176
1117:../src/lib/lpc177x_8x/Drivers/source/lpc177x_8x_mci.c ****         {
1118:../src/lib/lpc177x_8x/Drivers/source/lpc177x_8x_mci.c ****             CmdRespStatus = INVALID_RESPONSE;    /* Reuse error status */
 2181              		.loc 2 1118 0 is_stmt 1
 2182 0bf6 4FF0FF33 		mov	r3, #-1
 2183 0bfa BB61     		str	r3, [r7, #24]
1119:../src/lib/lpc177x_8x/Drivers/source/lpc177x_8x_mci.c ****             return (INVALID_RESPONSE);
 2184              		.loc 2 1119 0
 2185 0bfc 4FF0FF33 		mov	r3, #-1
 2186 0c00 25E0     		b	.L165
 2187              	.L176:
1120:../src/lib/lpc177x_8x/Drivers/source/lpc177x_8x_mci.c ****         }
1121:../src/lib/lpc177x_8x/Drivers/source/lpc177x_8x_mci.c ****     }
1122:../src/lib/lpc177x_8x/Drivers/source/lpc177x_8x_mci.c **** 
1123:../src/lib/lpc177x_8x/Drivers/source/lpc177x_8x_mci.c ****     /* Read MCI_RESP0 register assuming it's not long response. */
1124:../src/lib/lpc177x_8x/Drivers/source/lpc177x_8x_mci.c ****     if (CmdResp != NULL)
 2188              		.loc 2 1124 0
 2189 0c02 7B68     		ldr	r3, [r7, #4]
 2190 0c04 002B     		cmp	r3, #0
 2191 0c06 20D0     		beq	.L177
1125:../src/lib/lpc177x_8x/Drivers/source/lpc177x_8x_mci.c ****     {
1126:../src/lib/lpc177x_8x/Drivers/source/lpc177x_8x_mci.c ****         if (ExpectResp == EXPECT_SHORT_RESP)
 2192              		.loc 2 1126 0
 2193 0c08 BB68     		ldr	r3, [r7, #8]
 2194 0c0a 012B     		cmp	r3, #1
 2195 0c0c 04D1     		bne	.L178
1127:../src/lib/lpc177x_8x/Drivers/source/lpc177x_8x_mci.c ****         {
1128:../src/lib/lpc177x_8x/Drivers/source/lpc177x_8x_mci.c ****             *(CmdResp + 0) = LPC_MCI->RESP0;
 2196              		.loc 2 1128 0
 2197 0c0e 134B     		ldr	r3, .L180
 2198 0c10 5A69     		ldr	r2, [r3, #20]
 2199 0c12 7B68     		ldr	r3, [r7, #4]
 2200 0c14 1A60     		str	r2, [r3, #0]
 2201 0c16 18E0     		b	.L177
 2202              	.L178:
1129:../src/lib/lpc177x_8x/Drivers/source/lpc177x_8x_mci.c ****         }
1130:../src/lib/lpc177x_8x/Drivers/source/lpc177x_8x_mci.c ****         else if (ExpectResp == EXPECT_LONG_RESP)
 2203              		.loc 2 1130 0
 2204 0c18 BB68     		ldr	r3, [r7, #8]
 2205 0c1a 022B     		cmp	r3, #2
 2206 0c1c 15D1     		bne	.L177
1131:../src/lib/lpc177x_8x/Drivers/source/lpc177x_8x_mci.c ****         {
1132:../src/lib/lpc177x_8x/Drivers/source/lpc177x_8x_mci.c ****             *(CmdResp + 0) = LPC_MCI->RESP0;
 2207              		.loc 2 1132 0
 2208 0c1e 0F4B     		ldr	r3, .L180
 2209 0c20 5A69     		ldr	r2, [r3, #20]
 2210 0c22 7B68     		ldr	r3, [r7, #4]
 2211 0c24 1A60     		str	r2, [r3, #0]
1133:../src/lib/lpc177x_8x/Drivers/source/lpc177x_8x_mci.c ****             *(CmdResp + 1) = LPC_MCI->RESP1;
 2212              		.loc 2 1133 0
 2213 0c26 7B68     		ldr	r3, [r7, #4]
 2214 0c28 03F10403 		add	r3, r3, #4
 2215 0c2c 0B4A     		ldr	r2, .L180
 2216 0c2e 9269     		ldr	r2, [r2, #24]
 2217 0c30 1A60     		str	r2, [r3, #0]
1134:../src/lib/lpc177x_8x/Drivers/source/lpc177x_8x_mci.c ****             *(CmdResp + 2) = LPC_MCI->RESP2;
 2218              		.loc 2 1134 0
 2219 0c32 7B68     		ldr	r3, [r7, #4]
 2220 0c34 03F10803 		add	r3, r3, #8
 2221 0c38 084A     		ldr	r2, .L180
 2222 0c3a D269     		ldr	r2, [r2, #28]
 2223 0c3c 1A60     		str	r2, [r3, #0]
1135:../src/lib/lpc177x_8x/Drivers/source/lpc177x_8x_mci.c ****             *(CmdResp + 3) = LPC_MCI->RESP3;
 2224              		.loc 2 1135 0
 2225 0c3e 7B68     		ldr	r3, [r7, #4]
 2226 0c40 03F10C03 		add	r3, r3, #12
 2227 0c44 054A     		ldr	r2, .L180
 2228 0c46 126A     		ldr	r2, [r2, #32]
 2229 0c48 1A60     		str	r2, [r3, #0]
 2230              	.L177:
1136:../src/lib/lpc177x_8x/Drivers/source/lpc177x_8x_mci.c ****         }
1137:../src/lib/lpc177x_8x/Drivers/source/lpc177x_8x_mci.c ****         }
1138:../src/lib/lpc177x_8x/Drivers/source/lpc177x_8x_mci.c **** 
1139:../src/lib/lpc177x_8x/Drivers/source/lpc177x_8x_mci.c ****     return MCI_FUNC_OK;
 2231              		.loc 2 1139 0
 2232 0c4a 4FF00003 		mov	r3, #0
 2233              	.L165:
1140:../src/lib/lpc177x_8x/Drivers/source/lpc177x_8x_mci.c **** }
 2234              		.loc 2 1140 0
 2235 0c4e 1846     		mov	r0, r3
 2236 0c50 07F12407 		add	r7, r7, #36
 2237 0c54 BD46     		mov	sp, r7
 2238 0c56 80BC     		pop	{r7}
 2239 0c58 7047     		bx	lr
 2240              	.L181:
 2241 0c5a 00BF     		.align	2
 2242              	.L180:
 2243 0c5c 00000C40 		.word	1074528256
 2244              		.cfi_endproc
 2245              	.LFE74:
 2247              		.align	2
 2248              		.global	MCI_CmdResp
 2249              		.thumb
 2250              		.thumb_func
 2252              	MCI_CmdResp:
 2253              	.LFB75:
1141:../src/lib/lpc177x_8x/Drivers/source/lpc177x_8x_mci.c **** 
1142:../src/lib/lpc177x_8x/Drivers/source/lpc177x_8x_mci.c **** 
1143:../src/lib/lpc177x_8x/Drivers/source/lpc177x_8x_mci.c **** /************************************************************************//**
1144:../src/lib/lpc177x_8x/Drivers/source/lpc177x_8x_mci.c ****  * @brief        The routine is to send command to cards then get back the 
1145:../src/lib/lpc177x_8x/Drivers/source/lpc177x_8x_mci.c ****  *               reponses (if required).
1146:../src/lib/lpc177x_8x/Drivers/source/lpc177x_8x_mci.c ****  *
1147:../src/lib/lpc177x_8x/Drivers/source/lpc177x_8x_mci.c ****  * @param[in]    CmdIndex the command to be sent to cards
1148:../src/lib/lpc177x_8x/Drivers/source/lpc177x_8x_mci.c ****  *
1149:../src/lib/lpc177x_8x/Drivers/source/lpc177x_8x_mci.c ****  * @param[in]    Argument the argument follows the command
1150:../src/lib/lpc177x_8x/Drivers/source/lpc177x_8x_mci.c ****  *
1151:../src/lib/lpc177x_8x/Drivers/source/lpc177x_8x_mci.c ****  * @param[in]    ExpectResp the response type for the command. They may be:
1152:../src/lib/lpc177x_8x/Drivers/source/lpc177x_8x_mci.c ****  *                - EXPECT_NO_RESP: means no response required
1153:../src/lib/lpc177x_8x/Drivers/source/lpc177x_8x_mci.c ****  *                - EXPECT_SHORT_RESP: means a response in a word needed
1154:../src/lib/lpc177x_8x/Drivers/source/lpc177x_8x_mci.c ****  *                - EXPECT_LONG_RESP: means a response in 4 words needed
1155:../src/lib/lpc177x_8x/Drivers/source/lpc177x_8x_mci.c ****  *
1156:../src/lib/lpc177x_8x/Drivers/source/lpc177x_8x_mci.c ****  * @param[out]    CmdResp the buffer stored the data replied from cards
1157:../src/lib/lpc177x_8x/Drivers/source/lpc177x_8x_mci.c ****  *
1158:../src/lib/lpc177x_8x/Drivers/source/lpc177x_8x_mci.c ****  * @param[in]    AllowTimeout allow timeout the command or not
1159:../src/lib/lpc177x_8x/Drivers/source/lpc177x_8x_mci.c ****  *
1160:../src/lib/lpc177x_8x/Drivers/source/lpc177x_8x_mci.c ****  * @return       MCI_FUNC_OK in case of success
1161:../src/lib/lpc177x_8x/Drivers/source/lpc177x_8x_mci.c ****  ***************************************************************************/
1162:../src/lib/lpc177x_8x/Drivers/source/lpc177x_8x_mci.c **** int32_t MCI_CmdResp(st_Mci_CmdInfo* pCmdIf)
1163:../src/lib/lpc177x_8x/Drivers/source/lpc177x_8x_mci.c **** {
 2254              		.loc 2 1163 0
 2255              		.cfi_startproc
 2256              		@ args = 0, pretend = 0, frame = 24
 2257              		@ frame_needed = 1, uses_anonymous_args = 0
 2258 0c60 80B5     		push	{r7, lr}
 2259              	.LCFI57:
 2260              		.cfi_def_cfa_offset 8
 2261              		.cfi_offset 7, -8
 2262              		.cfi_offset 14, -4
 2263 0c62 86B0     		sub	sp, sp, #24
 2264              	.LCFI58:
 2265              		.cfi_def_cfa_offset 32
 2266 0c64 00AF     		add	r7, sp, #0
 2267              	.LCFI59:
 2268              		.cfi_def_cfa_register 7
 2269 0c66 7860     		str	r0, [r7, #4]
1164:../src/lib/lpc177x_8x/Drivers/source/lpc177x_8x_mci.c ****     int32_t respStatus;
1165:../src/lib/lpc177x_8x/Drivers/source/lpc177x_8x_mci.c ****     uint32_t CmdIndex = pCmdIf->CmdIndex;
 2270              		.loc 2 1165 0
 2271 0c68 7B68     		ldr	r3, [r7, #4]
 2272 0c6a 1B68     		ldr	r3, [r3, #0]
 2273 0c6c 3B61     		str	r3, [r7, #16]
1166:../src/lib/lpc177x_8x/Drivers/source/lpc177x_8x_mci.c ****     uint32_t ExpectResp = pCmdIf->ExpectResp;
 2274              		.loc 2 1166 0
 2275 0c6e 7B68     		ldr	r3, [r7, #4]
 2276 0c70 9B68     		ldr	r3, [r3, #8]
 2277 0c72 FB60     		str	r3, [r7, #12]
1167:../src/lib/lpc177x_8x/Drivers/source/lpc177x_8x_mci.c ****     uint32_t *CmdResp = pCmdIf->CmdResp;
 2278              		.loc 2 1167 0
 2279 0c74 7B68     		ldr	r3, [r7, #4]
 2280 0c76 1B69     		ldr	r3, [r3, #16]
 2281 0c78 BB60     		str	r3, [r7, #8]
1168:../src/lib/lpc177x_8x/Drivers/source/lpc177x_8x_mci.c ****     
1169:../src/lib/lpc177x_8x/Drivers/source/lpc177x_8x_mci.c **** 
1170:../src/lib/lpc177x_8x/Drivers/source/lpc177x_8x_mci.c ****     MCI_SendCmd(pCmdIf);
 2282              		.loc 2 1170 0
 2283 0c7a 7868     		ldr	r0, [r7, #4]
 2284 0c7c FFF7FEFF 		bl	MCI_SendCmd
1171:../src/lib/lpc177x_8x/Drivers/source/lpc177x_8x_mci.c **** 
1172:../src/lib/lpc177x_8x/Drivers/source/lpc177x_8x_mci.c ****     if((CmdResp != NULL) || (ExpectResp != EXPECT_NO_RESP))
 2285              		.loc 2 1172 0
 2286 0c80 BB68     		ldr	r3, [r7, #8]
 2287 0c82 002B     		cmp	r3, #0
 2288 0c84 02D1     		bne	.L183
 2289              		.loc 2 1172 0 is_stmt 0 discriminator 1
 2290 0c86 FB68     		ldr	r3, [r7, #12]
 2291 0c88 002B     		cmp	r3, #0
 2292 0c8a 06D0     		beq	.L184
 2293              	.L183:
1173:../src/lib/lpc177x_8x/Drivers/source/lpc177x_8x_mci.c ****     {
1174:../src/lib/lpc177x_8x/Drivers/source/lpc177x_8x_mci.c ****         respStatus = MCI_GetCmdResp(CmdIndex, ExpectResp, CmdResp);
 2294              		.loc 2 1174 0 is_stmt 1
 2295 0c8c 3869     		ldr	r0, [r7, #16]
 2296 0c8e F968     		ldr	r1, [r7, #12]
 2297 0c90 BA68     		ldr	r2, [r7, #8]
 2298 0c92 FFF7FEFF 		bl	MCI_GetCmdResp
 2299 0c96 7861     		str	r0, [r7, #20]
 2300 0c98 02E0     		b	.L185
 2301              	.L184:
1175:../src/lib/lpc177x_8x/Drivers/source/lpc177x_8x_mci.c ****     }
1176:../src/lib/lpc177x_8x/Drivers/source/lpc177x_8x_mci.c ****     else
1177:../src/lib/lpc177x_8x/Drivers/source/lpc177x_8x_mci.c ****     {
1178:../src/lib/lpc177x_8x/Drivers/source/lpc177x_8x_mci.c ****         respStatus = MCI_FUNC_BAD_PARAMETERS;
 2302              		.loc 2 1178 0
 2303 0c9a 6FF00103 		mvn	r3, #1
 2304 0c9e 7B61     		str	r3, [r7, #20]
 2305              	.L185:
1179:../src/lib/lpc177x_8x/Drivers/source/lpc177x_8x_mci.c ****     }
1180:../src/lib/lpc177x_8x/Drivers/source/lpc177x_8x_mci.c **** 
1181:../src/lib/lpc177x_8x/Drivers/source/lpc177x_8x_mci.c ****     return respStatus;
 2306              		.loc 2 1181 0
 2307 0ca0 7B69     		ldr	r3, [r7, #20]
1182:../src/lib/lpc177x_8x/Drivers/source/lpc177x_8x_mci.c **** }
 2308              		.loc 2 1182 0
 2309 0ca2 1846     		mov	r0, r3
 2310 0ca4 07F11807 		add	r7, r7, #24
 2311 0ca8 BD46     		mov	sp, r7
 2312 0caa 80BD     		pop	{r7, pc}
 2313              		.cfi_endproc
 2314              	.LFE75:
 2316              		.align	2
 2317              		.global	MCI_CardReset
 2318              		.thumb
 2319              		.thumb_func
 2321              	MCI_CardReset:
 2322              	.LFB76:
1183:../src/lib/lpc177x_8x/Drivers/source/lpc177x_8x_mci.c **** 
1184:../src/lib/lpc177x_8x/Drivers/source/lpc177x_8x_mci.c **** 
1185:../src/lib/lpc177x_8x/Drivers/source/lpc177x_8x_mci.c **** /************************************************************************//**
1186:../src/lib/lpc177x_8x/Drivers/source/lpc177x_8x_mci.c ****  * @brief        To reset the card, the CMD0 is sent and then the card is put
1187:../src/lib/lpc177x_8x/Drivers/source/lpc177x_8x_mci.c ****  *               in idle state. This is the very first command to be sent to
1188:../src/lib/lpc177x_8x/Drivers/source/lpc177x_8x_mci.c ****  *               initialize either MMC or SD card.
1189:../src/lib/lpc177x_8x/Drivers/source/lpc177x_8x_mci.c ****  *
1190:../src/lib/lpc177x_8x/Drivers/source/lpc177x_8x_mci.c ****  * @param        None
1191:../src/lib/lpc177x_8x/Drivers/source/lpc177x_8x_mci.c ****  *
1192:../src/lib/lpc177x_8x/Drivers/source/lpc177x_8x_mci.c ****  * @return       Always MCI_FUNC_OK
1193:../src/lib/lpc177x_8x/Drivers/source/lpc177x_8x_mci.c ****  ***************************************************************************/
1194:../src/lib/lpc177x_8x/Drivers/source/lpc177x_8x_mci.c **** int32_t MCI_CardReset(void)
1195:../src/lib/lpc177x_8x/Drivers/source/lpc177x_8x_mci.c **** {
 2323              		.loc 2 1195 0
 2324              		.cfi_startproc
 2325              		@ args = 0, pretend = 0, frame = 24
 2326              		@ frame_needed = 1, uses_anonymous_args = 0
 2327 0cac 80B5     		push	{r7, lr}
 2328              	.LCFI60:
 2329              		.cfi_def_cfa_offset 8
 2330              		.cfi_offset 7, -8
 2331              		.cfi_offset 14, -4
 2332 0cae 86B0     		sub	sp, sp, #24
 2333              	.LCFI61:
 2334              		.cfi_def_cfa_offset 32
 2335 0cb0 00AF     		add	r7, sp, #0
 2336              	.LCFI62:
 2337              		.cfi_def_cfa_register 7
1196:../src/lib/lpc177x_8x/Drivers/source/lpc177x_8x_mci.c ****     st_Mci_CmdInfo cmdIf;
1197:../src/lib/lpc177x_8x/Drivers/source/lpc177x_8x_mci.c ****     /* Because CMD0 command to put the device to idle state does not need response 
1198:../src/lib/lpc177x_8x/Drivers/source/lpc177x_8x_mci.c ****     since, it's only sending commad */
1199:../src/lib/lpc177x_8x/Drivers/source/lpc177x_8x_mci.c ****     cmdIf.CmdIndex = CMD0_GO_IDLE_STATE;
 2338              		.loc 2 1199 0
 2339 0cb2 4FF00003 		mov	r3, #0
 2340 0cb6 7B60     		str	r3, [r7, #4]
1200:../src/lib/lpc177x_8x/Drivers/source/lpc177x_8x_mci.c ****     cmdIf.Argument = 0x00000000;
 2341              		.loc 2 1200 0
 2342 0cb8 4FF00003 		mov	r3, #0
 2343 0cbc BB60     		str	r3, [r7, #8]
1201:../src/lib/lpc177x_8x/Drivers/source/lpc177x_8x_mci.c ****     cmdIf.ExpectResp = EXPECT_NO_RESP;
 2344              		.loc 2 1201 0
 2345 0cbe 4FF00003 		mov	r3, #0
 2346 0cc2 FB60     		str	r3, [r7, #12]
1202:../src/lib/lpc177x_8x/Drivers/source/lpc177x_8x_mci.c ****     cmdIf.AllowTimeout = 0;
 2347              		.loc 2 1202 0
 2348 0cc4 4FF00003 		mov	r3, #0
 2349 0cc8 3B61     		str	r3, [r7, #16]
1203:../src/lib/lpc177x_8x/Drivers/source/lpc177x_8x_mci.c ****     cmdIf.CmdResp = 0;
 2350              		.loc 2 1203 0
 2351 0cca 4FF00003 		mov	r3, #0
 2352 0cce 7B61     		str	r3, [r7, #20]
1204:../src/lib/lpc177x_8x/Drivers/source/lpc177x_8x_mci.c ****     MCI_SendCmd(&cmdIf);
 2353              		.loc 2 1204 0
 2354 0cd0 07F10403 		add	r3, r7, #4
 2355 0cd4 1846     		mov	r0, r3
 2356 0cd6 FFF7FEFF 		bl	MCI_SendCmd
1205:../src/lib/lpc177x_8x/Drivers/source/lpc177x_8x_mci.c **** 
1206:../src/lib/lpc177x_8x/Drivers/source/lpc177x_8x_mci.c ****     return MCI_FUNC_OK;
 2357              		.loc 2 1206 0
 2358 0cda 4FF00003 		mov	r3, #0
1207:../src/lib/lpc177x_8x/Drivers/source/lpc177x_8x_mci.c **** }
 2359              		.loc 2 1207 0
 2360 0cde 1846     		mov	r0, r3
 2361 0ce0 07F11807 		add	r7, r7, #24
 2362 0ce4 BD46     		mov	sp, r7
 2363 0ce6 80BD     		pop	{r7, pc}
 2364              		.cfi_endproc
 2365              	.LFE76:
 2367              		.align	2
 2368              		.global	MCI_Cmd_SendOpCond
 2369              		.thumb
 2370              		.thumb_func
 2372              	MCI_Cmd_SendOpCond:
 2373              	.LFB77:
1208:../src/lib/lpc177x_8x/Drivers/source/lpc177x_8x_mci.c **** 
1209:../src/lib/lpc177x_8x/Drivers/source/lpc177x_8x_mci.c **** 
1210:../src/lib/lpc177x_8x/Drivers/source/lpc177x_8x_mci.c **** /************************************************************************//**
1211:../src/lib/lpc177x_8x/Drivers/source/lpc177x_8x_mci.c ****  * @brief        Send CMD1 (SEND_OP_COND) to card.
1212:../src/lib/lpc177x_8x/Drivers/source/lpc177x_8x_mci.c ****  *
1213:../src/lib/lpc177x_8x/Drivers/source/lpc177x_8x_mci.c ****  * @param        None
1214:../src/lib/lpc177x_8x/Drivers/source/lpc177x_8x_mci.c ****  *
1215:../src/lib/lpc177x_8x/Drivers/source/lpc177x_8x_mci.c ****  * @return       MCI_FUNC_OK if all success
1216:../src/lib/lpc177x_8x/Drivers/source/lpc177x_8x_mci.c ****  ****************************************************************************/
1217:../src/lib/lpc177x_8x/Drivers/source/lpc177x_8x_mci.c **** int32_t MCI_Cmd_SendOpCond( void )
1218:../src/lib/lpc177x_8x/Drivers/source/lpc177x_8x_mci.c **** {
 2374              		.loc 2 1218 0
 2375              		.cfi_startproc
 2376              		@ args = 0, pretend = 0, frame = 56
 2377              		@ frame_needed = 1, uses_anonymous_args = 0
 2378 0ce8 80B5     		push	{r7, lr}
 2379              	.LCFI63:
 2380              		.cfi_def_cfa_offset 8
 2381              		.cfi_offset 7, -8
 2382              		.cfi_offset 14, -4
 2383 0cea 8EB0     		sub	sp, sp, #56
 2384              	.LCFI64:
 2385              		.cfi_def_cfa_offset 64
 2386 0cec 00AF     		add	r7, sp, #0
 2387              	.LCFI65:
 2388              		.cfi_def_cfa_register 7
1219:../src/lib/lpc177x_8x/Drivers/source/lpc177x_8x_mci.c ****     volatile uint32_t i;
1220:../src/lib/lpc177x_8x/Drivers/source/lpc177x_8x_mci.c ****     uint32_t retryCount;
1221:../src/lib/lpc177x_8x/Drivers/source/lpc177x_8x_mci.c ****     uint32_t respStatus;
1222:../src/lib/lpc177x_8x/Drivers/source/lpc177x_8x_mci.c ****     uint32_t respValue[4];
1223:../src/lib/lpc177x_8x/Drivers/source/lpc177x_8x_mci.c ****     st_Mci_CmdInfo cmdIf;
1224:../src/lib/lpc177x_8x/Drivers/source/lpc177x_8x_mci.c ****     int32_t retval = MCI_FUNC_FAILED;
 2389              		.loc 2 1224 0
 2390 0cee 4FF0FF33 		mov	r3, #-1
 2391 0cf2 3B63     		str	r3, [r7, #48]
1225:../src/lib/lpc177x_8x/Drivers/source/lpc177x_8x_mci.c **** 
1226:../src/lib/lpc177x_8x/Drivers/source/lpc177x_8x_mci.c ****     retryCount = 0x200;            /* reset retry counter */
 2392              		.loc 2 1226 0
 2393 0cf4 4FF40073 		mov	r3, #512
 2394 0cf8 7B63     		str	r3, [r7, #52]
1227:../src/lib/lpc177x_8x/Drivers/source/lpc177x_8x_mci.c **** 
1228:../src/lib/lpc177x_8x/Drivers/source/lpc177x_8x_mci.c ****     cmdIf.CmdIndex = CMD1_SEND_OP_COND;
 2395              		.loc 2 1228 0
 2396 0cfa 4FF00103 		mov	r3, #1
 2397 0cfe 7B60     		str	r3, [r7, #4]
1229:../src/lib/lpc177x_8x/Drivers/source/lpc177x_8x_mci.c ****     cmdIf.Argument = OCR_INDEX;
 2398              		.loc 2 1229 0
 2399 0d00 1F4B     		ldr	r3, .L199
 2400 0d02 BB60     		str	r3, [r7, #8]
1230:../src/lib/lpc177x_8x/Drivers/source/lpc177x_8x_mci.c ****     cmdIf.ExpectResp = EXPECT_SHORT_RESP;
 2401              		.loc 2 1230 0
 2402 0d04 4FF00103 		mov	r3, #1
 2403 0d08 FB60     		str	r3, [r7, #12]
1231:../src/lib/lpc177x_8x/Drivers/source/lpc177x_8x_mci.c ****     cmdIf.AllowTimeout = ALLOW_CMD_TIMER;
 2404              		.loc 2 1231 0
 2405 0d0a 4FF00103 		mov	r3, #1
 2406 0d0e 3B61     		str	r3, [r7, #16]
1232:../src/lib/lpc177x_8x/Drivers/source/lpc177x_8x_mci.c ****     cmdIf.CmdResp = (uint32_t *)&respValue[0];
 2407              		.loc 2 1232 0
 2408 0d10 07F11803 		add	r3, r7, #24
 2409 0d14 7B61     		str	r3, [r7, #20]
1233:../src/lib/lpc177x_8x/Drivers/source/lpc177x_8x_mci.c ****     /* continuously sends until the busy bit is cleared */
1234:../src/lib/lpc177x_8x/Drivers/source/lpc177x_8x_mci.c ****     while ( retryCount > 0 ) 
 2410              		.loc 2 1234 0
 2411 0d16 29E0     		b	.L190
 2412              	.L197:
1235:../src/lib/lpc177x_8x/Drivers/source/lpc177x_8x_mci.c ****     {
1236:../src/lib/lpc177x_8x/Drivers/source/lpc177x_8x_mci.c ****         respStatus = MCI_CmdResp(&cmdIf);
 2413              		.loc 2 1236 0
 2414 0d18 07F10403 		add	r3, r7, #4
 2415 0d1c 1846     		mov	r0, r3
 2416 0d1e FFF7FEFF 		bl	MCI_CmdResp
 2417 0d22 0346     		mov	r3, r0
 2418 0d24 FB62     		str	r3, [r7, #44]
1237:../src/lib/lpc177x_8x/Drivers/source/lpc177x_8x_mci.c **** 
1238:../src/lib/lpc177x_8x/Drivers/source/lpc177x_8x_mci.c ****         if(respStatus & MCI_CMD_TIMEOUT)
 2419              		.loc 2 1238 0
 2420 0d26 FB6A     		ldr	r3, [r7, #44]
 2421 0d28 03F00403 		and	r3, r3, #4
 2422 0d2c 002B     		cmp	r3, #0
 2423 0d2e 03D0     		beq	.L191
1239:../src/lib/lpc177x_8x/Drivers/source/lpc177x_8x_mci.c ****         {
1240:../src/lib/lpc177x_8x/Drivers/source/lpc177x_8x_mci.c ****             retval = MCI_FUNC_TIMEOUT;
 2424              		.loc 2 1240 0
 2425 0d30 6FF00203 		mvn	r3, #2
 2426 0d34 3B63     		str	r3, [r7, #48]
 2427 0d36 0AE0     		b	.L192
 2428              	.L191:
1241:../src/lib/lpc177x_8x/Drivers/source/lpc177x_8x_mci.c ****         }
1242:../src/lib/lpc177x_8x/Drivers/source/lpc177x_8x_mci.c ****         else if ((respValue[0] & 0x80000000) == 0)
 2429              		.loc 2 1242 0
 2430 0d38 BB69     		ldr	r3, [r7, #24]
 2431 0d3a 002B     		cmp	r3, #0
 2432 0d3c 03DB     		blt	.L193
1243:../src/lib/lpc177x_8x/Drivers/source/lpc177x_8x_mci.c ****         {
1244:../src/lib/lpc177x_8x/Drivers/source/lpc177x_8x_mci.c ****             //The card has not finished the power up routine
1245:../src/lib/lpc177x_8x/Drivers/source/lpc177x_8x_mci.c ****             retval = MCI_FUNC_BUS_NOT_IDLE;
 2433              		.loc 2 1245 0
 2434 0d3e 6FF00203 		mvn	r3, #2
 2435 0d42 3B63     		str	r3, [r7, #48]
 2436 0d44 03E0     		b	.L192
 2437              	.L193:
1246:../src/lib/lpc177x_8x/Drivers/source/lpc177x_8x_mci.c ****         }
1247:../src/lib/lpc177x_8x/Drivers/source/lpc177x_8x_mci.c ****         else
1248:../src/lib/lpc177x_8x/Drivers/source/lpc177x_8x_mci.c ****         {
1249:../src/lib/lpc177x_8x/Drivers/source/lpc177x_8x_mci.c ****             retval = MCI_FUNC_OK;
 2438              		.loc 2 1249 0
 2439 0d46 4FF00003 		mov	r3, #0
 2440 0d4a 3B63     		str	r3, [r7, #48]
1250:../src/lib/lpc177x_8x/Drivers/source/lpc177x_8x_mci.c ****             break;
 2441              		.loc 2 1250 0
 2442 0d4c 11E0     		b	.L194
 2443              	.L192:
1251:../src/lib/lpc177x_8x/Drivers/source/lpc177x_8x_mci.c ****         }
1252:../src/lib/lpc177x_8x/Drivers/source/lpc177x_8x_mci.c **** 
1253:../src/lib/lpc177x_8x/Drivers/source/lpc177x_8x_mci.c ****         for ( i = 0; i < 0x20; i++ );
 2444              		.loc 2 1253 0
 2445 0d4e 4FF00003 		mov	r3, #0
 2446 0d52 BB62     		str	r3, [r7, #40]
 2447 0d54 03E0     		b	.L195
 2448              	.L196:
 2449              		.loc 2 1253 0 is_stmt 0 discriminator 2
 2450 0d56 BB6A     		ldr	r3, [r7, #40]
 2451 0d58 03F10103 		add	r3, r3, #1
 2452 0d5c BB62     		str	r3, [r7, #40]
 2453              	.L195:
 2454              		.loc 2 1253 0 discriminator 1
 2455 0d5e BB6A     		ldr	r3, [r7, #40]
 2456 0d60 1F2B     		cmp	r3, #31
 2457 0d62 F8D9     		bls	.L196
1254:../src/lib/lpc177x_8x/Drivers/source/lpc177x_8x_mci.c **** 
1255:../src/lib/lpc177x_8x/Drivers/source/lpc177x_8x_mci.c ****         retryCount--;
 2458              		.loc 2 1255 0 is_stmt 1
 2459 0d64 7B6B     		ldr	r3, [r7, #52]
 2460 0d66 03F1FF33 		add	r3, r3, #-1
 2461 0d6a 7B63     		str	r3, [r7, #52]
 2462              	.L190:
1234:../src/lib/lpc177x_8x/Drivers/source/lpc177x_8x_mci.c ****     while ( retryCount > 0 ) 
 2463              		.loc 2 1234 0 discriminator 1
 2464 0d6c 7B6B     		ldr	r3, [r7, #52]
 2465 0d6e 002B     		cmp	r3, #0
 2466 0d70 D2D1     		bne	.L197
 2467              	.L194:
1256:../src/lib/lpc177x_8x/Drivers/source/lpc177x_8x_mci.c ****     }
1257:../src/lib/lpc177x_8x/Drivers/source/lpc177x_8x_mci.c **** 
1258:../src/lib/lpc177x_8x/Drivers/source/lpc177x_8x_mci.c ****     return(retval);
 2468              		.loc 2 1258 0
 2469 0d72 3B6B     		ldr	r3, [r7, #48]
1259:../src/lib/lpc177x_8x/Drivers/source/lpc177x_8x_mci.c **** }
 2470              		.loc 2 1259 0
 2471 0d74 1846     		mov	r0, r3
 2472 0d76 07F13807 		add	r7, r7, #56
 2473 0d7a BD46     		mov	sp, r7
 2474 0d7c 80BD     		pop	{r7, pc}
 2475              	.L200:
 2476 0d7e 00BF     		.align	2
 2477              	.L199:
 2478 0d80 0080FF00 		.word	16744448
 2479              		.cfi_endproc
 2480              	.LFE77:
 2482              		.align	2
 2483              		.global	MCI_Cmd_SendIfCond
 2484              		.thumb
 2485              		.thumb_func
 2487              	MCI_Cmd_SendIfCond:
 2488              	.LFB78:
1260:../src/lib/lpc177x_8x/Drivers/source/lpc177x_8x_mci.c **** 
1261:../src/lib/lpc177x_8x/Drivers/source/lpc177x_8x_mci.c **** 
1262:../src/lib/lpc177x_8x/Drivers/source/lpc177x_8x_mci.c **** /************************************************************************//**
1263:../src/lib/lpc177x_8x/Drivers/source/lpc177x_8x_mci.c ****  * @brief        Send CMD8 (SEND_IF_COND) for interface condition to card.
1264:../src/lib/lpc177x_8x/Drivers/source/lpc177x_8x_mci.c ****  *
1265:../src/lib/lpc177x_8x/Drivers/source/lpc177x_8x_mci.c ****  * @param        None
1266:../src/lib/lpc177x_8x/Drivers/source/lpc177x_8x_mci.c ****  *
1267:../src/lib/lpc177x_8x/Drivers/source/lpc177x_8x_mci.c ****  * @return       MCI_FUNC_OK if all success
1268:../src/lib/lpc177x_8x/Drivers/source/lpc177x_8x_mci.c ****  ****************************************************************************/
1269:../src/lib/lpc177x_8x/Drivers/source/lpc177x_8x_mci.c **** int32_t MCI_Cmd_SendIfCond(void)
1270:../src/lib/lpc177x_8x/Drivers/source/lpc177x_8x_mci.c **** {
 2489              		.loc 2 1270 0
 2490              		.cfi_startproc
 2491              		@ args = 0, pretend = 0, frame = 64
 2492              		@ frame_needed = 1, uses_anonymous_args = 0
 2493 0d84 80B5     		push	{r7, lr}
 2494              	.LCFI66:
 2495              		.cfi_def_cfa_offset 8
 2496              		.cfi_offset 7, -8
 2497              		.cfi_offset 14, -4
 2498 0d86 90B0     		sub	sp, sp, #64
 2499              	.LCFI67:
 2500              		.cfi_def_cfa_offset 72
 2501 0d88 00AF     		add	r7, sp, #0
 2502              	.LCFI68:
 2503              		.cfi_def_cfa_register 7
1271:../src/lib/lpc177x_8x/Drivers/source/lpc177x_8x_mci.c ****     volatile uint32_t i;
1272:../src/lib/lpc177x_8x/Drivers/source/lpc177x_8x_mci.c ****     uint32_t retryCount;
1273:../src/lib/lpc177x_8x/Drivers/source/lpc177x_8x_mci.c ****     uint32_t CmdArgument;
1274:../src/lib/lpc177x_8x/Drivers/source/lpc177x_8x_mci.c ****     uint32_t respStatus;
1275:../src/lib/lpc177x_8x/Drivers/source/lpc177x_8x_mci.c ****     uint32_t respValue[4];
1276:../src/lib/lpc177x_8x/Drivers/source/lpc177x_8x_mci.c **** 
1277:../src/lib/lpc177x_8x/Drivers/source/lpc177x_8x_mci.c ****     int32_t retval = MCI_FUNC_FAILED;
 2504              		.loc 2 1277 0
 2505 0d8a 4FF0FF33 		mov	r3, #-1
 2506 0d8e BB63     		str	r3, [r7, #56]
1278:../src/lib/lpc177x_8x/Drivers/source/lpc177x_8x_mci.c **** 
1279:../src/lib/lpc177x_8x/Drivers/source/lpc177x_8x_mci.c ****     uint8_t voltageSupplied = MCI_CMD8_VOLATAGESUPPLIED_27_36;//in range 2.7-3.6V
 2507              		.loc 2 1279 0
 2508 0d90 4FF00103 		mov	r3, #1
 2509 0d94 87F83730 		strb	r3, [r7, #55]
1280:../src/lib/lpc177x_8x/Drivers/source/lpc177x_8x_mci.c ****     uint8_t checkPattern = 0xAA;
 2510              		.loc 2 1280 0
 2511 0d98 4FF0AA03 		mov	r3, #170
 2512 0d9c 87F83630 		strb	r3, [r7, #54]
1281:../src/lib/lpc177x_8x/Drivers/source/lpc177x_8x_mci.c ****     st_Mci_CmdInfo cmdIf;
1282:../src/lib/lpc177x_8x/Drivers/source/lpc177x_8x_mci.c ****    
1283:../src/lib/lpc177x_8x/Drivers/source/lpc177x_8x_mci.c ****     CmdArgument = (voltageSupplied << MCI_CMD8_VOLTAGESUPPLIED_POS) | (checkPattern << MCI_CMD8_CHE
 2513              		.loc 2 1283 0
 2514 0da0 97F83730 		ldrb	r3, [r7, #55]	@ zero_extendqisi2
 2515 0da4 4FEA0322 		lsl	r2, r3, #8
 2516 0da8 97F83630 		ldrb	r3, [r7, #54]	@ zero_extendqisi2
 2517 0dac 1343     		orrs	r3, r3, r2
 2518 0dae 3B63     		str	r3, [r7, #48]
1284:../src/lib/lpc177x_8x/Drivers/source/lpc177x_8x_mci.c **** 
1285:../src/lib/lpc177x_8x/Drivers/source/lpc177x_8x_mci.c ****     retryCount = 20;
 2519              		.loc 2 1285 0
 2520 0db0 4FF01403 		mov	r3, #20
 2521 0db4 FB63     		str	r3, [r7, #60]
1286:../src/lib/lpc177x_8x/Drivers/source/lpc177x_8x_mci.c **** 
1287:../src/lib/lpc177x_8x/Drivers/source/lpc177x_8x_mci.c ****     cmdIf.CmdIndex = CMD8_SEND_IF_COND;
 2522              		.loc 2 1287 0
 2523 0db6 4FF00803 		mov	r3, #8
 2524 0dba 7B60     		str	r3, [r7, #4]
1288:../src/lib/lpc177x_8x/Drivers/source/lpc177x_8x_mci.c ****     cmdIf.Argument = CmdArgument;
 2525              		.loc 2 1288 0
 2526 0dbc 3B6B     		ldr	r3, [r7, #48]
 2527 0dbe BB60     		str	r3, [r7, #8]
1289:../src/lib/lpc177x_8x/Drivers/source/lpc177x_8x_mci.c ****     cmdIf.ExpectResp = EXPECT_SHORT_RESP;
 2528              		.loc 2 1289 0
 2529 0dc0 4FF00103 		mov	r3, #1
 2530 0dc4 FB60     		str	r3, [r7, #12]
1290:../src/lib/lpc177x_8x/Drivers/source/lpc177x_8x_mci.c ****     cmdIf.AllowTimeout = ALLOW_CMD_TIMER;
 2531              		.loc 2 1290 0
 2532 0dc6 4FF00103 		mov	r3, #1
 2533 0dca 3B61     		str	r3, [r7, #16]
1291:../src/lib/lpc177x_8x/Drivers/source/lpc177x_8x_mci.c ****     cmdIf.CmdResp = (uint32_t *)&respValue[0];
 2534              		.loc 2 1291 0
 2535 0dcc 07F11803 		add	r3, r7, #24
 2536 0dd0 7B61     		str	r3, [r7, #20]
1292:../src/lib/lpc177x_8x/Drivers/source/lpc177x_8x_mci.c ****     while ( retryCount > 0 )
 2537              		.loc 2 1292 0
 2538 0dd2 35E0     		b	.L202
 2539              	.L209:
1293:../src/lib/lpc177x_8x/Drivers/source/lpc177x_8x_mci.c ****     {
1294:../src/lib/lpc177x_8x/Drivers/source/lpc177x_8x_mci.c ****         respStatus = MCI_CmdResp(&cmdIf);
 2540              		.loc 2 1294 0
 2541 0dd4 07F10403 		add	r3, r7, #4
 2542 0dd8 1846     		mov	r0, r3
 2543 0dda FFF7FEFF 		bl	MCI_CmdResp
 2544 0dde 0346     		mov	r3, r0
 2545 0de0 FB62     		str	r3, [r7, #44]
1295:../src/lib/lpc177x_8x/Drivers/source/lpc177x_8x_mci.c **** 
1296:../src/lib/lpc177x_8x/Drivers/source/lpc177x_8x_mci.c ****         if(respStatus & MCI_CMD_TIMEOUT)
 2546              		.loc 2 1296 0
 2547 0de2 FB6A     		ldr	r3, [r7, #44]
 2548 0de4 03F00403 		and	r3, r3, #4
 2549 0de8 002B     		cmp	r3, #0
 2550 0dea 06D0     		beq	.L203
1297:../src/lib/lpc177x_8x/Drivers/source/lpc177x_8x_mci.c ****         {
1298:../src/lib/lpc177x_8x/Drivers/source/lpc177x_8x_mci.c ****             //Consider as no response
1299:../src/lib/lpc177x_8x/Drivers/source/lpc177x_8x_mci.c ****             retval = MCI_FUNC_TIMEOUT;
 2551              		.loc 2 1299 0
 2552 0dec 6FF00203 		mvn	r3, #2
 2553 0df0 BB63     		str	r3, [r7, #56]
1300:../src/lib/lpc177x_8x/Drivers/source/lpc177x_8x_mci.c ****         }
1301:../src/lib/lpc177x_8x/Drivers/source/lpc177x_8x_mci.c ****         else if (((respValue[0]>>MCI_CMD8_CHECKPATTERN_POS) & MCI_CMD8_CHECKPATTERN_BMASK) != check
1302:../src/lib/lpc177x_8x/Drivers/source/lpc177x_8x_mci.c ****         {
1303:../src/lib/lpc177x_8x/Drivers/source/lpc177x_8x_mci.c ****             return MCI_FUNC_BAD_PARAMETERS;
1304:../src/lib/lpc177x_8x/Drivers/source/lpc177x_8x_mci.c ****         }
1305:../src/lib/lpc177x_8x/Drivers/source/lpc177x_8x_mci.c ****         else if (((respValue[0] >> MCI_CMD8_VOLTAGESUPPLIED_POS) & MCI_CMD8_VOLTAGESUPPLIED_BMASK)
1306:../src/lib/lpc177x_8x/Drivers/source/lpc177x_8x_mci.c ****                         != voltageSupplied)
1307:../src/lib/lpc177x_8x/Drivers/source/lpc177x_8x_mci.c ****         {
1308:../src/lib/lpc177x_8x/Drivers/source/lpc177x_8x_mci.c ****             return MCI_FUNC_BAD_PARAMETERS;
1309:../src/lib/lpc177x_8x/Drivers/source/lpc177x_8x_mci.c ****         }
1310:../src/lib/lpc177x_8x/Drivers/source/lpc177x_8x_mci.c ****         else
1311:../src/lib/lpc177x_8x/Drivers/source/lpc177x_8x_mci.c ****         {
1312:../src/lib/lpc177x_8x/Drivers/source/lpc177x_8x_mci.c ****             return MCI_FUNC_OK;
1313:../src/lib/lpc177x_8x/Drivers/source/lpc177x_8x_mci.c ****         }
1314:../src/lib/lpc177x_8x/Drivers/source/lpc177x_8x_mci.c **** 
1315:../src/lib/lpc177x_8x/Drivers/source/lpc177x_8x_mci.c ****         for ( i = 0; i < 0x20; i++ );
 2554              		.loc 2 1315 0
 2555 0df2 4FF00003 		mov	r3, #0
 2556 0df6 BB62     		str	r3, [r7, #40]
 2557 0df8 1BE0     		b	.L204
 2558              	.L203:
1301:../src/lib/lpc177x_8x/Drivers/source/lpc177x_8x_mci.c ****         else if (((respValue[0]>>MCI_CMD8_CHECKPATTERN_POS) & MCI_CMD8_CHECKPATTERN_BMASK) != check
 2559              		.loc 2 1301 0
 2560 0dfa BB69     		ldr	r3, [r7, #24]
 2561 0dfc DAB2     		uxtb	r2, r3
 2562 0dfe 97F83630 		ldrb	r3, [r7, #54]	@ zero_extendqisi2
 2563 0e02 9A42     		cmp	r2, r3
 2564 0e04 02D0     		beq	.L205
1303:../src/lib/lpc177x_8x/Drivers/source/lpc177x_8x_mci.c ****             return MCI_FUNC_BAD_PARAMETERS;
 2565              		.loc 2 1303 0
 2566 0e06 6FF00103 		mvn	r3, #1
 2567 0e0a 1DE0     		b	.L210
 2568              	.L205:
1305:../src/lib/lpc177x_8x/Drivers/source/lpc177x_8x_mci.c ****         else if (((respValue[0] >> MCI_CMD8_VOLTAGESUPPLIED_POS) & MCI_CMD8_VOLTAGESUPPLIED_BMASK)
 2569              		.loc 2 1305 0
 2570 0e0c BB69     		ldr	r3, [r7, #24]
 2571 0e0e 4FEA1323 		lsr	r3, r3, #8
 2572 0e12 03F00F02 		and	r2, r3, #15
1306:../src/lib/lpc177x_8x/Drivers/source/lpc177x_8x_mci.c ****                         != voltageSupplied)
 2573              		.loc 2 1306 0
 2574 0e16 97F83730 		ldrb	r3, [r7, #55]	@ zero_extendqisi2
1305:../src/lib/lpc177x_8x/Drivers/source/lpc177x_8x_mci.c ****         else if (((respValue[0] >> MCI_CMD8_VOLTAGESUPPLIED_POS) & MCI_CMD8_VOLTAGESUPPLIED_BMASK)
 2575              		.loc 2 1305 0
 2576 0e1a 9A42     		cmp	r2, r3
 2577 0e1c 02D0     		beq	.L207
1308:../src/lib/lpc177x_8x/Drivers/source/lpc177x_8x_mci.c ****             return MCI_FUNC_BAD_PARAMETERS;
 2578              		.loc 2 1308 0
 2579 0e1e 6FF00103 		mvn	r3, #1
 2580 0e22 11E0     		b	.L210
 2581              	.L207:
1312:../src/lib/lpc177x_8x/Drivers/source/lpc177x_8x_mci.c ****             return MCI_FUNC_OK;
 2582              		.loc 2 1312 0
 2583 0e24 4FF00003 		mov	r3, #0
 2584 0e28 0EE0     		b	.L210
 2585              	.L208:
 2586              		.loc 2 1315 0 discriminator 2
 2587 0e2a BB6A     		ldr	r3, [r7, #40]
 2588 0e2c 03F10103 		add	r3, r3, #1
 2589 0e30 BB62     		str	r3, [r7, #40]
 2590              	.L204:
 2591              		.loc 2 1315 0 is_stmt 0 discriminator 1
 2592 0e32 BB6A     		ldr	r3, [r7, #40]
 2593 0e34 1F2B     		cmp	r3, #31
 2594 0e36 F8D9     		bls	.L208
1316:../src/lib/lpc177x_8x/Drivers/source/lpc177x_8x_mci.c **** 
1317:../src/lib/lpc177x_8x/Drivers/source/lpc177x_8x_mci.c ****         retryCount--;
 2595              		.loc 2 1317 0 is_stmt 1
 2596 0e38 FB6B     		ldr	r3, [r7, #60]
 2597 0e3a 03F1FF33 		add	r3, r3, #-1
 2598 0e3e FB63     		str	r3, [r7, #60]
 2599              	.L202:
1292:../src/lib/lpc177x_8x/Drivers/source/lpc177x_8x_mci.c ****     while ( retryCount > 0 )
 2600              		.loc 2 1292 0 discriminator 1
 2601 0e40 FB6B     		ldr	r3, [r7, #60]
 2602 0e42 002B     		cmp	r3, #0
 2603 0e44 C6D1     		bne	.L209
1318:../src/lib/lpc177x_8x/Drivers/source/lpc177x_8x_mci.c ****     }
1319:../src/lib/lpc177x_8x/Drivers/source/lpc177x_8x_mci.c **** 
1320:../src/lib/lpc177x_8x/Drivers/source/lpc177x_8x_mci.c ****     return retval;
 2604              		.loc 2 1320 0
 2605 0e46 BB6B     		ldr	r3, [r7, #56]
 2606              	.L210:
1321:../src/lib/lpc177x_8x/Drivers/source/lpc177x_8x_mci.c **** }
 2607              		.loc 2 1321 0
 2608 0e48 1846     		mov	r0, r3
 2609 0e4a 07F14007 		add	r7, r7, #64
 2610 0e4e BD46     		mov	sp, r7
 2611 0e50 80BD     		pop	{r7, pc}
 2612              		.cfi_endproc
 2613              	.LFE78:
 2615 0e52 00BF     		.align	2
 2616              		.global	MCI_Cmd_SendACMD
 2617              		.thumb
 2618              		.thumb_func
 2620              	MCI_Cmd_SendACMD:
 2621              	.LFB79:
1322:../src/lib/lpc177x_8x/Drivers/source/lpc177x_8x_mci.c **** 
1323:../src/lib/lpc177x_8x/Drivers/source/lpc177x_8x_mci.c **** 
1324:../src/lib/lpc177x_8x/Drivers/source/lpc177x_8x_mci.c **** /************************************************************************//**
1325:../src/lib/lpc177x_8x/Drivers/source/lpc177x_8x_mci.c ****  * @brief        Send CMD55 (APP_CMD) to indicate to the card that the next
1326:../src/lib/lpc177x_8x/Drivers/source/lpc177x_8x_mci.c ****  *               command is an application specific command rather than a 
1327:../src/lib/lpc177x_8x/Drivers/source/lpc177x_8x_mci.c ****  *               standard command. Before an ACMD, call this routine first
1328:../src/lib/lpc177x_8x/Drivers/source/lpc177x_8x_mci.c ****  *
1329:../src/lib/lpc177x_8x/Drivers/source/lpc177x_8x_mci.c ****  * @param        None
1330:../src/lib/lpc177x_8x/Drivers/source/lpc177x_8x_mci.c ****  *
1331:../src/lib/lpc177x_8x/Drivers/source/lpc177x_8x_mci.c ****  * @return       MCI_FUNC_OK if all success
1332:../src/lib/lpc177x_8x/Drivers/source/lpc177x_8x_mci.c ****  ****************************************************************************/
1333:../src/lib/lpc177x_8x/Drivers/source/lpc177x_8x_mci.c **** int32_t MCI_Cmd_SendACMD( void )
1334:../src/lib/lpc177x_8x/Drivers/source/lpc177x_8x_mci.c **** {
 2622              		.loc 2 1334 0
 2623              		.cfi_startproc
 2624              		@ args = 0, pretend = 0, frame = 56
 2625              		@ frame_needed = 1, uses_anonymous_args = 0
 2626 0e54 80B5     		push	{r7, lr}
 2627              	.LCFI69:
 2628              		.cfi_def_cfa_offset 8
 2629              		.cfi_offset 7, -8
 2630              		.cfi_offset 14, -4
 2631 0e56 8EB0     		sub	sp, sp, #56
 2632              	.LCFI70:
 2633              		.cfi_def_cfa_offset 64
 2634 0e58 00AF     		add	r7, sp, #0
 2635              	.LCFI71:
 2636              		.cfi_def_cfa_register 7
1335:../src/lib/lpc177x_8x/Drivers/source/lpc177x_8x_mci.c ****     volatile uint32_t i;
1336:../src/lib/lpc177x_8x/Drivers/source/lpc177x_8x_mci.c ****     uint32_t retryCount;
1337:../src/lib/lpc177x_8x/Drivers/source/lpc177x_8x_mci.c ****     uint32_t CmdArgument;
1338:../src/lib/lpc177x_8x/Drivers/source/lpc177x_8x_mci.c ****     uint32_t respStatus;
1339:../src/lib/lpc177x_8x/Drivers/source/lpc177x_8x_mci.c ****     uint32_t respValue[4];
1340:../src/lib/lpc177x_8x/Drivers/source/lpc177x_8x_mci.c ****     st_Mci_CmdInfo cmdIf;
1341:../src/lib/lpc177x_8x/Drivers/source/lpc177x_8x_mci.c ****     int32_t retval = MCI_FUNC_FAILED;
 2637              		.loc 2 1341 0
 2638 0e5a 4FF0FF33 		mov	r3, #-1
 2639 0e5e FB62     		str	r3, [r7, #44]
1342:../src/lib/lpc177x_8x/Drivers/source/lpc177x_8x_mci.c **** 
1343:../src/lib/lpc177x_8x/Drivers/source/lpc177x_8x_mci.c ****     if ((MCI_CardType == MCI_SDSC_V1_CARD) ||
 2640              		.loc 2 1343 0
 2641 0e60 2D4B     		ldr	r3, .L224
 2642 0e62 1B78     		ldrb	r3, [r3, #0]
 2643 0e64 DBB2     		uxtb	r3, r3
 2644 0e66 002B     		cmp	r3, #0
 2645 0e68 0BD0     		beq	.L212
1344:../src/lib/lpc177x_8x/Drivers/source/lpc177x_8x_mci.c ****         (MCI_CardType == MCI_SDSC_V2_CARD) ||
 2646              		.loc 2 1344 0 discriminator 1
 2647 0e6a 2B4B     		ldr	r3, .L224
 2648 0e6c 1B78     		ldrb	r3, [r3, #0]
 2649 0e6e DBB2     		uxtb	r3, r3
1343:../src/lib/lpc177x_8x/Drivers/source/lpc177x_8x_mci.c ****     if ((MCI_CardType == MCI_SDSC_V1_CARD) ||
 2650              		.loc 2 1343 0 discriminator 1
 2651 0e70 5BB2     		sxtb	r3, r3
 2652 0e72 022B     		cmp	r3, #2
 2653 0e74 05D0     		beq	.L212
1345:../src/lib/lpc177x_8x/Drivers/source/lpc177x_8x_mci.c ****         (MCI_CardType == MCI_SDHC_SDXC_CARD)) 
 2654              		.loc 2 1345 0
 2655 0e76 284B     		ldr	r3, .L224
 2656 0e78 1B78     		ldrb	r3, [r3, #0]
 2657 0e7a DBB2     		uxtb	r3, r3
1344:../src/lib/lpc177x_8x/Drivers/source/lpc177x_8x_mci.c ****         (MCI_CardType == MCI_SDSC_V2_CARD) ||
 2658              		.loc 2 1344 0
 2659 0e7c 5BB2     		sxtb	r3, r3
 2660 0e7e 032B     		cmp	r3, #3
 2661 0e80 03D1     		bne	.L213
 2662              	.L212:
1346:../src/lib/lpc177x_8x/Drivers/source/lpc177x_8x_mci.c ****     {
1347:../src/lib/lpc177x_8x/Drivers/source/lpc177x_8x_mci.c ****         CmdArgument = CardRCA;    /* Use the address from SET_RELATIVE_ADDR cmd */
 2663              		.loc 2 1347 0
 2664 0e82 264B     		ldr	r3, .L224+4
 2665 0e84 1B68     		ldr	r3, [r3, #0]
 2666 0e86 3B63     		str	r3, [r7, #48]
 2667 0e88 02E0     		b	.L214
 2668              	.L213:
1348:../src/lib/lpc177x_8x/Drivers/source/lpc177x_8x_mci.c ****     }
1349:../src/lib/lpc177x_8x/Drivers/source/lpc177x_8x_mci.c ****     else            /* if MMC or unknown card type, use 0x0. */
1350:../src/lib/lpc177x_8x/Drivers/source/lpc177x_8x_mci.c ****     {
1351:../src/lib/lpc177x_8x/Drivers/source/lpc177x_8x_mci.c ****         CmdArgument = 0x00000000;
 2669              		.loc 2 1351 0
 2670 0e8a 4FF00003 		mov	r3, #0
 2671 0e8e 3B63     		str	r3, [r7, #48]
 2672              	.L214:
1352:../src/lib/lpc177x_8x/Drivers/source/lpc177x_8x_mci.c ****     }
1353:../src/lib/lpc177x_8x/Drivers/source/lpc177x_8x_mci.c **** 
1354:../src/lib/lpc177x_8x/Drivers/source/lpc177x_8x_mci.c ****     retryCount = 20;
 2673              		.loc 2 1354 0
 2674 0e90 4FF01403 		mov	r3, #20
 2675 0e94 7B63     		str	r3, [r7, #52]
1355:../src/lib/lpc177x_8x/Drivers/source/lpc177x_8x_mci.c **** 
1356:../src/lib/lpc177x_8x/Drivers/source/lpc177x_8x_mci.c ****     cmdIf.CmdIndex = CMD55_APP_CMD;
 2676              		.loc 2 1356 0
 2677 0e96 4FF03703 		mov	r3, #55
 2678 0e9a 3B60     		str	r3, [r7, #0]
1357:../src/lib/lpc177x_8x/Drivers/source/lpc177x_8x_mci.c ****     cmdIf.Argument = CmdArgument;
 2679              		.loc 2 1357 0
 2680 0e9c 3B6B     		ldr	r3, [r7, #48]
 2681 0e9e 7B60     		str	r3, [r7, #4]
1358:../src/lib/lpc177x_8x/Drivers/source/lpc177x_8x_mci.c ****     cmdIf.ExpectResp = EXPECT_SHORT_RESP;
 2682              		.loc 2 1358 0
 2683 0ea0 4FF00103 		mov	r3, #1
 2684 0ea4 BB60     		str	r3, [r7, #8]
1359:../src/lib/lpc177x_8x/Drivers/source/lpc177x_8x_mci.c ****     cmdIf.AllowTimeout = ALLOW_CMD_TIMER;
 2685              		.loc 2 1359 0
 2686 0ea6 4FF00103 		mov	r3, #1
 2687 0eaa FB60     		str	r3, [r7, #12]
1360:../src/lib/lpc177x_8x/Drivers/source/lpc177x_8x_mci.c ****     cmdIf.CmdResp = (uint32_t *)&respValue[0];
 2688              		.loc 2 1360 0
 2689 0eac 07F11403 		add	r3, r7, #20
 2690 0eb0 3B61     		str	r3, [r7, #16]
1361:../src/lib/lpc177x_8x/Drivers/source/lpc177x_8x_mci.c ****     while ( retryCount > 0 )
 2691              		.loc 2 1361 0
 2692 0eb2 27E0     		b	.L215
 2693              	.L222:
1362:../src/lib/lpc177x_8x/Drivers/source/lpc177x_8x_mci.c ****     {
1363:../src/lib/lpc177x_8x/Drivers/source/lpc177x_8x_mci.c ****         respStatus = MCI_CmdResp(&cmdIf);
 2694              		.loc 2 1363 0
 2695 0eb4 3B46     		mov	r3, r7
 2696 0eb6 1846     		mov	r0, r3
 2697 0eb8 FFF7FEFF 		bl	MCI_CmdResp
 2698 0ebc 0346     		mov	r3, r0
 2699 0ebe BB62     		str	r3, [r7, #40]
1364:../src/lib/lpc177x_8x/Drivers/source/lpc177x_8x_mci.c **** 
1365:../src/lib/lpc177x_8x/Drivers/source/lpc177x_8x_mci.c ****         if(respStatus != 0)
 2700              		.loc 2 1365 0
 2701 0ec0 BB6A     		ldr	r3, [r7, #40]
 2702 0ec2 002B     		cmp	r3, #0
 2703 0ec4 03D0     		beq	.L216
1366:../src/lib/lpc177x_8x/Drivers/source/lpc177x_8x_mci.c ****         {
1367:../src/lib/lpc177x_8x/Drivers/source/lpc177x_8x_mci.c ****             retval = MCI_FUNC_FAILED;
 2704              		.loc 2 1367 0
 2705 0ec6 4FF0FF33 		mov	r3, #-1
 2706 0eca FB62     		str	r3, [r7, #44]
 2707 0ecc 0BE0     		b	.L217
 2708              	.L216:
1368:../src/lib/lpc177x_8x/Drivers/source/lpc177x_8x_mci.c ****         }
1369:../src/lib/lpc177x_8x/Drivers/source/lpc177x_8x_mci.c ****         else if (respValue[0] & CARD_STATUS_ACMD_ENABLE)
 2709              		.loc 2 1369 0
 2710 0ece 7B69     		ldr	r3, [r7, #20]
 2711 0ed0 03F02003 		and	r3, r3, #32
 2712 0ed4 002B     		cmp	r3, #0
 2713 0ed6 03D0     		beq	.L218
1370:../src/lib/lpc177x_8x/Drivers/source/lpc177x_8x_mci.c ****         {
1371:../src/lib/lpc177x_8x/Drivers/source/lpc177x_8x_mci.c ****             retval = MCI_FUNC_OK;
 2714              		.loc 2 1371 0
 2715 0ed8 4FF00003 		mov	r3, #0
 2716 0edc FB62     		str	r3, [r7, #44]
1372:../src/lib/lpc177x_8x/Drivers/source/lpc177x_8x_mci.c ****             break;
 2717              		.loc 2 1372 0
 2718 0ede 14E0     		b	.L219
 2719              	.L218:
1373:../src/lib/lpc177x_8x/Drivers/source/lpc177x_8x_mci.c ****         }
1374:../src/lib/lpc177x_8x/Drivers/source/lpc177x_8x_mci.c ****         else
1375:../src/lib/lpc177x_8x/Drivers/source/lpc177x_8x_mci.c ****         {
1376:../src/lib/lpc177x_8x/Drivers/source/lpc177x_8x_mci.c ****             retval = MCI_FUNC_NOT_READY;
 2720              		.loc 2 1376 0
 2721 0ee0 6FF00403 		mvn	r3, #4
 2722 0ee4 FB62     		str	r3, [r7, #44]
 2723              	.L217:
1377:../src/lib/lpc177x_8x/Drivers/source/lpc177x_8x_mci.c ****         }
1378:../src/lib/lpc177x_8x/Drivers/source/lpc177x_8x_mci.c **** 
1379:../src/lib/lpc177x_8x/Drivers/source/lpc177x_8x_mci.c ****         for ( i = 0; i < 0x20; i++ );
 2724              		.loc 2 1379 0
 2725 0ee6 4FF00003 		mov	r3, #0
 2726 0eea 7B62     		str	r3, [r7, #36]
 2727 0eec 03E0     		b	.L220
 2728              	.L221:
 2729              		.loc 2 1379 0 is_stmt 0 discriminator 2
 2730 0eee 7B6A     		ldr	r3, [r7, #36]
 2731 0ef0 03F10103 		add	r3, r3, #1
 2732 0ef4 7B62     		str	r3, [r7, #36]
 2733              	.L220:
 2734              		.loc 2 1379 0 discriminator 1
 2735 0ef6 7B6A     		ldr	r3, [r7, #36]
 2736 0ef8 1F2B     		cmp	r3, #31
 2737 0efa F8D9     		bls	.L221
1380:../src/lib/lpc177x_8x/Drivers/source/lpc177x_8x_mci.c **** 
1381:../src/lib/lpc177x_8x/Drivers/source/lpc177x_8x_mci.c ****         retryCount--;
 2738              		.loc 2 1381 0 is_stmt 1
 2739 0efc 7B6B     		ldr	r3, [r7, #52]
 2740 0efe 03F1FF33 		add	r3, r3, #-1
 2741 0f02 7B63     		str	r3, [r7, #52]
 2742              	.L215:
1361:../src/lib/lpc177x_8x/Drivers/source/lpc177x_8x_mci.c ****     while ( retryCount > 0 )
 2743              		.loc 2 1361 0 discriminator 1
 2744 0f04 7B6B     		ldr	r3, [r7, #52]
 2745 0f06 002B     		cmp	r3, #0
 2746 0f08 D4D1     		bne	.L222
 2747              	.L219:
1382:../src/lib/lpc177x_8x/Drivers/source/lpc177x_8x_mci.c ****     }
1383:../src/lib/lpc177x_8x/Drivers/source/lpc177x_8x_mci.c **** 
1384:../src/lib/lpc177x_8x/Drivers/source/lpc177x_8x_mci.c ****     return retval;
 2748              		.loc 2 1384 0
 2749 0f0a FB6A     		ldr	r3, [r7, #44]
1385:../src/lib/lpc177x_8x/Drivers/source/lpc177x_8x_mci.c **** }
 2750              		.loc 2 1385 0
 2751 0f0c 1846     		mov	r0, r3
 2752 0f0e 07F13807 		add	r7, r7, #56
 2753 0f12 BD46     		mov	sp, r7
 2754 0f14 80BD     		pop	{r7, pc}
 2755              	.L225:
 2756 0f16 00BF     		.align	2
 2757              	.L224:
 2758 0f18 00000000 		.word	MCI_CardType
 2759 0f1c 00000000 		.word	CardRCA
 2760              		.cfi_endproc
 2761              	.LFE79:
 2763              		.align	2
 2764              		.global	MCI_Acmd_SendOpCond
 2765              		.thumb
 2766              		.thumb_func
 2768              	MCI_Acmd_SendOpCond:
 2769              	.LFB80:
1386:../src/lib/lpc177x_8x/Drivers/source/lpc177x_8x_mci.c **** 
1387:../src/lib/lpc177x_8x/Drivers/source/lpc177x_8x_mci.c **** 
1388:../src/lib/lpc177x_8x/Drivers/source/lpc177x_8x_mci.c **** /************************************************************************//**
1389:../src/lib/lpc177x_8x/Drivers/source/lpc177x_8x_mci.c ****  * @brief        Send ACMD41 (SEND_APP_OP_COND) to Host Capacity Support (HCS)
1390:../src/lib/lpc177x_8x/Drivers/source/lpc177x_8x_mci.c ****  *               information and asks the accessed card to send its operating
1391:../src/lib/lpc177x_8x/Drivers/source/lpc177x_8x_mci.c ****  *               condition (OCR).
1392:../src/lib/lpc177x_8x/Drivers/source/lpc177x_8x_mci.c ****  *
1393:../src/lib/lpc177x_8x/Drivers/source/lpc177x_8x_mci.c ****  * @param[in]    hcsVal input the Host Capacity Support
1394:../src/lib/lpc177x_8x/Drivers/source/lpc177x_8x_mci.c ****  *
1395:../src/lib/lpc177x_8x/Drivers/source/lpc177x_8x_mci.c ****  * @return       MCI_FUNC_OK if all success
1396:../src/lib/lpc177x_8x/Drivers/source/lpc177x_8x_mci.c ****  *
1397:../src/lib/lpc177x_8x/Drivers/source/lpc177x_8x_mci.c ****  * @note         If SEND_APP_OP_COND is timeout, the card in the slot is not MMC
1398:../src/lib/lpc177x_8x/Drivers/source/lpc177x_8x_mci.c ****  *                type, try this combination to see if we can communicate with
1399:../src/lib/lpc177x_8x/Drivers/source/lpc177x_8x_mci.c ****  *                a SD type.
1400:../src/lib/lpc177x_8x/Drivers/source/lpc177x_8x_mci.c ****  ****************************************************************************/
1401:../src/lib/lpc177x_8x/Drivers/source/lpc177x_8x_mci.c **** int32_t MCI_Acmd_SendOpCond(uint8_t hcsVal)
1402:../src/lib/lpc177x_8x/Drivers/source/lpc177x_8x_mci.c **** {
 2770              		.loc 2 1402 0
 2771              		.cfi_startproc
 2772              		@ args = 0, pretend = 0, frame = 64
 2773              		@ frame_needed = 1, uses_anonymous_args = 0
 2774 0f20 80B5     		push	{r7, lr}
 2775              	.LCFI72:
 2776              		.cfi_def_cfa_offset 8
 2777              		.cfi_offset 7, -8
 2778              		.cfi_offset 14, -4
 2779 0f22 90B0     		sub	sp, sp, #64
 2780              	.LCFI73:
 2781              		.cfi_def_cfa_offset 72
 2782 0f24 00AF     		add	r7, sp, #0
 2783              	.LCFI74:
 2784              		.cfi_def_cfa_register 7
 2785 0f26 0346     		mov	r3, r0
 2786 0f28 FB71     		strb	r3, [r7, #7]
1403:../src/lib/lpc177x_8x/Drivers/source/lpc177x_8x_mci.c ****     volatile uint32_t i;
1404:../src/lib/lpc177x_8x/Drivers/source/lpc177x_8x_mci.c ****     uint32_t retryCount;
1405:../src/lib/lpc177x_8x/Drivers/source/lpc177x_8x_mci.c ****     uint32_t respStatus, argument;
1406:../src/lib/lpc177x_8x/Drivers/source/lpc177x_8x_mci.c ****     uint32_t respValue[4];
1407:../src/lib/lpc177x_8x/Drivers/source/lpc177x_8x_mci.c ****     st_Mci_CmdInfo cmdIf;
1408:../src/lib/lpc177x_8x/Drivers/source/lpc177x_8x_mci.c **** 
1409:../src/lib/lpc177x_8x/Drivers/source/lpc177x_8x_mci.c ****     int32_t retval = MCI_FUNC_FAILED;
 2787              		.loc 2 1409 0
 2788 0f2a 4FF0FF33 		mov	r3, #-1
 2789 0f2e BB63     		str	r3, [r7, #56]
1410:../src/lib/lpc177x_8x/Drivers/source/lpc177x_8x_mci.c **** 
1411:../src/lib/lpc177x_8x/Drivers/source/lpc177x_8x_mci.c ****     argument = OCR_INDEX | (hcsVal << MCI_ACMD41_HCS_POS);
 2790              		.loc 2 1411 0
 2791 0f30 FB79     		ldrb	r3, [r7, #7]	@ zero_extendqisi2
 2792 0f32 4FEA8373 		lsl	r3, r3, #30
 2793 0f36 43F47F03 		orr	r3, r3, #16711680
 2794 0f3a 43F40043 		orr	r3, r3, #32768
 2795 0f3e 7B63     		str	r3, [r7, #52]
1412:../src/lib/lpc177x_8x/Drivers/source/lpc177x_8x_mci.c **** 
1413:../src/lib/lpc177x_8x/Drivers/source/lpc177x_8x_mci.c ****     /* timeout on SEND_OP_COND command on MMC, now, try SEND_APP_OP_COND
1414:../src/lib/lpc177x_8x/Drivers/source/lpc177x_8x_mci.c ****     command to SD */
1415:../src/lib/lpc177x_8x/Drivers/source/lpc177x_8x_mci.c ****     retryCount = 0x2000;            /* reset retry counter */
 2796              		.loc 2 1415 0
 2797 0f40 4FF40053 		mov	r3, #8192
 2798 0f44 FB63     		str	r3, [r7, #60]
1416:../src/lib/lpc177x_8x/Drivers/source/lpc177x_8x_mci.c ****     
1417:../src/lib/lpc177x_8x/Drivers/source/lpc177x_8x_mci.c ****     cmdIf.CmdIndex = ACMD41_SEND_APP_OP_COND;
 2799              		.loc 2 1417 0
 2800 0f46 4FF02903 		mov	r3, #41
 2801 0f4a BB60     		str	r3, [r7, #8]
1418:../src/lib/lpc177x_8x/Drivers/source/lpc177x_8x_mci.c ****     cmdIf.Argument = argument;
 2802              		.loc 2 1418 0
 2803 0f4c 7B6B     		ldr	r3, [r7, #52]
 2804 0f4e FB60     		str	r3, [r7, #12]
1419:../src/lib/lpc177x_8x/Drivers/source/lpc177x_8x_mci.c ****     cmdIf.ExpectResp = EXPECT_SHORT_RESP;
 2805              		.loc 2 1419 0
 2806 0f50 4FF00103 		mov	r3, #1
 2807 0f54 3B61     		str	r3, [r7, #16]
1420:../src/lib/lpc177x_8x/Drivers/source/lpc177x_8x_mci.c ****     cmdIf.AllowTimeout = ALLOW_CMD_TIMER;
 2808              		.loc 2 1420 0
 2809 0f56 4FF00103 		mov	r3, #1
 2810 0f5a 7B61     		str	r3, [r7, #20]
1421:../src/lib/lpc177x_8x/Drivers/source/lpc177x_8x_mci.c ****     cmdIf.CmdResp = (uint32_t *)&respValue[0];
 2811              		.loc 2 1421 0
 2812 0f5c 07F11C03 		add	r3, r7, #28
 2813 0f60 BB61     		str	r3, [r7, #24]
1422:../src/lib/lpc177x_8x/Drivers/source/lpc177x_8x_mci.c **** 
1423:../src/lib/lpc177x_8x/Drivers/source/lpc177x_8x_mci.c ****     /* Clear Open Drain output control for SD */
1424:../src/lib/lpc177x_8x/Drivers/source/lpc177x_8x_mci.c ****     MCI_SetOutputMode(MCI_OUTPUT_MODE_PUSHPULL);
 2814              		.loc 2 1424 0
 2815 0f62 4FF00000 		mov	r0, #0
 2816 0f66 FFF7FEFF 		bl	MCI_SetOutputMode
1425:../src/lib/lpc177x_8x/Drivers/source/lpc177x_8x_mci.c **** 
1426:../src/lib/lpc177x_8x/Drivers/source/lpc177x_8x_mci.c ****     /* The host repeatedly issues ACMD41 for at least 1 second or */
1427:../src/lib/lpc177x_8x/Drivers/source/lpc177x_8x_mci.c ****     /* until the busy bit are set to 1 */
1428:../src/lib/lpc177x_8x/Drivers/source/lpc177x_8x_mci.c ****     while ( retryCount > 0 )
 2817              		.loc 2 1428 0
 2818 0f6a 3CE0     		b	.L227
 2819              	.L236:
1429:../src/lib/lpc177x_8x/Drivers/source/lpc177x_8x_mci.c ****     {
1430:../src/lib/lpc177x_8x/Drivers/source/lpc177x_8x_mci.c ****         if ((retval = MCI_Cmd_SendACMD()) == MCI_FUNC_OK)
 2820              		.loc 2 1430 0
 2821 0f6c FFF7FEFF 		bl	MCI_Cmd_SendACMD
 2822 0f70 B863     		str	r0, [r7, #56]
 2823 0f72 BB6B     		ldr	r3, [r7, #56]
 2824 0f74 002B     		cmp	r3, #0
 2825 0f76 25D1     		bne	.L228
1431:../src/lib/lpc177x_8x/Drivers/source/lpc177x_8x_mci.c ****         {   
1432:../src/lib/lpc177x_8x/Drivers/source/lpc177x_8x_mci.c ****             respStatus = MCI_CmdResp(&cmdIf);
 2826              		.loc 2 1432 0
 2827 0f78 07F10803 		add	r3, r7, #8
 2828 0f7c 1846     		mov	r0, r3
 2829 0f7e FFF7FEFF 		bl	MCI_CmdResp
 2830 0f82 0346     		mov	r3, r0
 2831 0f84 3B63     		str	r3, [r7, #48]
1433:../src/lib/lpc177x_8x/Drivers/source/lpc177x_8x_mci.c **** 
1434:../src/lib/lpc177x_8x/Drivers/source/lpc177x_8x_mci.c ****             if(respStatus & MCI_CMD_TIMEOUT)
 2832              		.loc 2 1434 0
 2833 0f86 3B6B     		ldr	r3, [r7, #48]
 2834 0f88 03F00403 		and	r3, r3, #4
 2835 0f8c 002B     		cmp	r3, #0
 2836 0f8e 03D0     		beq	.L229
1435:../src/lib/lpc177x_8x/Drivers/source/lpc177x_8x_mci.c ****             {
1436:../src/lib/lpc177x_8x/Drivers/source/lpc177x_8x_mci.c ****                 retval = MCI_FUNC_TIMEOUT;
 2837              		.loc 2 1436 0
 2838 0f90 6FF00203 		mvn	r3, #2
 2839 0f94 BB63     		str	r3, [r7, #56]
 2840 0f96 17E0     		b	.L230
 2841              	.L229:
1437:../src/lib/lpc177x_8x/Drivers/source/lpc177x_8x_mci.c ****             }
1438:../src/lib/lpc177x_8x/Drivers/source/lpc177x_8x_mci.c ****             else if (!(respValue[0] & 0x80000000))
 2842              		.loc 2 1438 0
 2843 0f98 FB69     		ldr	r3, [r7, #28]
 2844 0f9a 002B     		cmp	r3, #0
 2845 0f9c 03DB     		blt	.L231
1439:../src/lib/lpc177x_8x/Drivers/source/lpc177x_8x_mci.c ****             {
1440:../src/lib/lpc177x_8x/Drivers/source/lpc177x_8x_mci.c ****                 retval = MCI_FUNC_BUS_NOT_IDLE;
 2846              		.loc 2 1440 0
 2847 0f9e 6FF00203 		mvn	r3, #2
 2848 0fa2 BB63     		str	r3, [r7, #56]
 2849 0fa4 10E0     		b	.L230
 2850              	.L231:
1441:../src/lib/lpc177x_8x/Drivers/source/lpc177x_8x_mci.c ****             }
1442:../src/lib/lpc177x_8x/Drivers/source/lpc177x_8x_mci.c ****             else
1443:../src/lib/lpc177x_8x/Drivers/source/lpc177x_8x_mci.c ****             {
1444:../src/lib/lpc177x_8x/Drivers/source/lpc177x_8x_mci.c ****                 CCS = (respValue[0]&(1<<30)) ? 1:0;
 2851              		.loc 2 1444 0
 2852 0fa6 FB69     		ldr	r3, [r7, #28]
 2853 0fa8 03F08043 		and	r3, r3, #1073741824
 2854 0fac 002B     		cmp	r3, #0
 2855 0fae 0CBF     		ite	eq
 2856 0fb0 0023     		moveq	r3, #0
 2857 0fb2 0123     		movne	r3, #1
 2858 0fb4 DBB2     		uxtb	r3, r3
 2859 0fb6 1A46     		mov	r2, r3
 2860 0fb8 0F4B     		ldr	r3, .L238
 2861 0fba 1A70     		strb	r2, [r3, #0]
1445:../src/lib/lpc177x_8x/Drivers/source/lpc177x_8x_mci.c ****                 retval = MCI_FUNC_OK;
 2862              		.loc 2 1445 0
 2863 0fbc 4FF00003 		mov	r3, #0
 2864 0fc0 BB63     		str	r3, [r7, #56]
1446:../src/lib/lpc177x_8x/Drivers/source/lpc177x_8x_mci.c ****                 break;
 2865              		.loc 2 1446 0
 2866 0fc2 13E0     		b	.L232
 2867              	.L228:
1447:../src/lib/lpc177x_8x/Drivers/source/lpc177x_8x_mci.c ****             }
1448:../src/lib/lpc177x_8x/Drivers/source/lpc177x_8x_mci.c ****         }
1449:../src/lib/lpc177x_8x/Drivers/source/lpc177x_8x_mci.c ****         else    /* The command isn't accepted by the card.*/
1450:../src/lib/lpc177x_8x/Drivers/source/lpc177x_8x_mci.c ****         {
1451:../src/lib/lpc177x_8x/Drivers/source/lpc177x_8x_mci.c ****             return retval;
 2868              		.loc 2 1451 0
 2869 0fc4 BB6B     		ldr	r3, [r7, #56]
 2870 0fc6 12E0     		b	.L237
 2871              	.L230:
1452:../src/lib/lpc177x_8x/Drivers/source/lpc177x_8x_mci.c ****         }
1453:../src/lib/lpc177x_8x/Drivers/source/lpc177x_8x_mci.c **** 
1454:../src/lib/lpc177x_8x/Drivers/source/lpc177x_8x_mci.c ****         for ( i = 0; i < 0x20; i++ );
 2872              		.loc 2 1454 0
 2873 0fc8 4FF00003 		mov	r3, #0
 2874 0fcc FB62     		str	r3, [r7, #44]
 2875 0fce 03E0     		b	.L234
 2876              	.L235:
 2877              		.loc 2 1454 0 is_stmt 0 discriminator 2
 2878 0fd0 FB6A     		ldr	r3, [r7, #44]
 2879 0fd2 03F10103 		add	r3, r3, #1
 2880 0fd6 FB62     		str	r3, [r7, #44]
 2881              	.L234:
 2882              		.loc 2 1454 0 discriminator 1
 2883 0fd8 FB6A     		ldr	r3, [r7, #44]
 2884 0fda 1F2B     		cmp	r3, #31
 2885 0fdc F8D9     		bls	.L235
1455:../src/lib/lpc177x_8x/Drivers/source/lpc177x_8x_mci.c **** 
1456:../src/lib/lpc177x_8x/Drivers/source/lpc177x_8x_mci.c ****         retryCount--;
 2886              		.loc 2 1456 0 is_stmt 1
 2887 0fde FB6B     		ldr	r3, [r7, #60]
 2888 0fe0 03F1FF33 		add	r3, r3, #-1
 2889 0fe4 FB63     		str	r3, [r7, #60]
 2890              	.L227:
1428:../src/lib/lpc177x_8x/Drivers/source/lpc177x_8x_mci.c ****     while ( retryCount > 0 )
 2891              		.loc 2 1428 0 discriminator 1
 2892 0fe6 FB6B     		ldr	r3, [r7, #60]
 2893 0fe8 002B     		cmp	r3, #0
 2894 0fea BFD1     		bne	.L236
 2895              	.L232:
1457:../src/lib/lpc177x_8x/Drivers/source/lpc177x_8x_mci.c ****     }
1458:../src/lib/lpc177x_8x/Drivers/source/lpc177x_8x_mci.c **** 
1459:../src/lib/lpc177x_8x/Drivers/source/lpc177x_8x_mci.c ****     return retval;
 2896              		.loc 2 1459 0
 2897 0fec BB6B     		ldr	r3, [r7, #56]
 2898              	.L237:
1460:../src/lib/lpc177x_8x/Drivers/source/lpc177x_8x_mci.c **** }
 2899              		.loc 2 1460 0
 2900 0fee 1846     		mov	r0, r3
 2901 0ff0 07F14007 		add	r7, r7, #64
 2902 0ff4 BD46     		mov	sp, r7
 2903 0ff6 80BD     		pop	{r7, pc}
 2904              	.L239:
 2905              		.align	2
 2906              	.L238:
 2907 0ff8 00000000 		.word	CCS
 2908              		.cfi_endproc
 2909              	.LFE80:
 2911              		.align	2
 2912              		.global	MCI_CardInit
 2913              		.thumb
 2914              		.thumb_func
 2916              	MCI_CardInit:
 2917              	.LFB81:
1461:../src/lib/lpc177x_8x/Drivers/source/lpc177x_8x_mci.c **** 
1462:../src/lib/lpc177x_8x/Drivers/source/lpc177x_8x_mci.c **** /************************************************************************//**
1463:../src/lib/lpc177x_8x/Drivers/source/lpc177x_8x_mci.c ****  * @brief         Do initialization for the card in the slot
1464:../src/lib/lpc177x_8x/Drivers/source/lpc177x_8x_mci.c ****  *
1465:../src/lib/lpc177x_8x/Drivers/source/lpc177x_8x_mci.c ****  * @details        Try CMD1 first for MMC, if it's timeout, try CMD55
1466:../src/lib/lpc177x_8x/Drivers/source/lpc177x_8x_mci.c ****  *                and CMD41 for SD, if both failed, initialization faliure,
1467:../src/lib/lpc177x_8x/Drivers/source/lpc177x_8x_mci.c ****  *                bailout with unknown card type. Otherwise, return the
1468:../src/lib/lpc177x_8x/Drivers/source/lpc177x_8x_mci.c ****  *                card type, either MMC or SD. <<<KHOA_110708: checking>>>
1469:../src/lib/lpc177x_8x/Drivers/source/lpc177x_8x_mci.c ****  *
1470:../src/lib/lpc177x_8x/Drivers/source/lpc177x_8x_mci.c ****  *                This is followed Figure 4-2: Card Initialization and
1471:../src/lib/lpc177x_8x/Drivers/source/lpc177x_8x_mci.c ****  *                Identification Flow (SD mode) in Physical Layer Simplified
1472:../src/lib/lpc177x_8x/Drivers/source/lpc177x_8x_mci.c ****  *                Specification Version 2.00 document        
1473:../src/lib/lpc177x_8x/Drivers/source/lpc177x_8x_mci.c ****  *
1474:../src/lib/lpc177x_8x/Drivers/source/lpc177x_8x_mci.c ****  * @param         None
1475:../src/lib/lpc177x_8x/Drivers/source/lpc177x_8x_mci.c ****  *
1476:../src/lib/lpc177x_8x/Drivers/source/lpc177x_8x_mci.c ****  * @return        MCI_FUNC_OK if success
1477:../src/lib/lpc177x_8x/Drivers/source/lpc177x_8x_mci.c ****  ****************************************************************************/
1478:../src/lib/lpc177x_8x/Drivers/source/lpc177x_8x_mci.c **** int32_t MCI_CardInit( void )
1479:../src/lib/lpc177x_8x/Drivers/source/lpc177x_8x_mci.c **** {
 2918              		.loc 2 1479 0
 2919              		.cfi_startproc
 2920              		@ args = 0, pretend = 0, frame = 8
 2921              		@ frame_needed = 1, uses_anonymous_args = 0
 2922 0ffc 80B5     		push	{r7, lr}
 2923              	.LCFI75:
 2924              		.cfi_def_cfa_offset 8
 2925              		.cfi_offset 7, -8
 2926              		.cfi_offset 14, -4
 2927 0ffe 82B0     		sub	sp, sp, #8
 2928              	.LCFI76:
 2929              		.cfi_def_cfa_offset 16
 2930 1000 00AF     		add	r7, sp, #0
 2931              	.LCFI77:
 2932              		.cfi_def_cfa_register 7
1480:../src/lib/lpc177x_8x/Drivers/source/lpc177x_8x_mci.c ****     volatile uint32_t i;
1481:../src/lib/lpc177x_8x/Drivers/source/lpc177x_8x_mci.c ****     int32_t retval = MCI_FUNC_FAILED;
 2933              		.loc 2 1481 0
 2934 1002 4FF0FF33 		mov	r3, #-1
 2935 1006 7B60     		str	r3, [r7, #4]
1482:../src/lib/lpc177x_8x/Drivers/source/lpc177x_8x_mci.c **** 
1483:../src/lib/lpc177x_8x/Drivers/source/lpc177x_8x_mci.c ****     MCI_CardType = MCI_CARD_UNKNOWN;
 2936              		.loc 2 1483 0
 2937 1008 3C4B     		ldr	r3, .L252
 2938 100a 4FF0FF02 		mov	r2, #255
 2939 100e 1A70     		strb	r2, [r3, #0]
1484:../src/lib/lpc177x_8x/Drivers/source/lpc177x_8x_mci.c **** 
1485:../src/lib/lpc177x_8x/Drivers/source/lpc177x_8x_mci.c ****     if (MCI_CardReset() != MCI_FUNC_OK)
 2940              		.loc 2 1485 0
 2941 1010 FFF7FEFF 		bl	MCI_CardReset
 2942 1014 0346     		mov	r3, r0
 2943 1016 002B     		cmp	r3, #0
 2944 1018 02D0     		beq	.L241
1486:../src/lib/lpc177x_8x/Drivers/source/lpc177x_8x_mci.c ****     {
1487:../src/lib/lpc177x_8x/Drivers/source/lpc177x_8x_mci.c ****         return MCI_FUNC_FAILED;
 2945              		.loc 2 1487 0
 2946 101a 4FF0FF33 		mov	r3, #-1
 2947 101e 68E0     		b	.L242
 2948              	.L241:
1488:../src/lib/lpc177x_8x/Drivers/source/lpc177x_8x_mci.c ****     }
1489:../src/lib/lpc177x_8x/Drivers/source/lpc177x_8x_mci.c **** 
1490:../src/lib/lpc177x_8x/Drivers/source/lpc177x_8x_mci.c ****     /* Clear Open Drain output control for SD */
1491:../src/lib/lpc177x_8x/Drivers/source/lpc177x_8x_mci.c ****     MCI_SetOutputMode(MCI_OUTPUT_MODE_PUSHPULL);
 2949              		.loc 2 1491 0
 2950 1020 4FF00000 		mov	r0, #0
 2951 1024 FFF7FEFF 		bl	MCI_SetOutputMode
1492:../src/lib/lpc177x_8x/Drivers/source/lpc177x_8x_mci.c **** 
1493:../src/lib/lpc177x_8x/Drivers/source/lpc177x_8x_mci.c ****     for ( i = 0; i < 0x3000; i++ );
 2952              		.loc 2 1493 0
 2953 1028 4FF00003 		mov	r3, #0
 2954 102c 3B60     		str	r3, [r7, #0]
 2955 102e 03E0     		b	.L243
 2956              	.L244:
 2957              		.loc 2 1493 0 is_stmt 0 discriminator 2
 2958 1030 3B68     		ldr	r3, [r7, #0]
 2959 1032 03F10103 		add	r3, r3, #1
 2960 1036 3B60     		str	r3, [r7, #0]
 2961              	.L243:
 2962              		.loc 2 1493 0 discriminator 1
 2963 1038 3A68     		ldr	r2, [r7, #0]
 2964 103a 42F6FF73 		movw	r3, #12287
 2965 103e 9A42     		cmp	r2, r3
 2966 1040 F6D9     		bls	.L244
1494:../src/lib/lpc177x_8x/Drivers/source/lpc177x_8x_mci.c **** 
1495:../src/lib/lpc177x_8x/Drivers/source/lpc177x_8x_mci.c ****     retval = MCI_Cmd_SendIfCond();
 2967              		.loc 2 1495 0 is_stmt 1
 2968 1042 FFF7FEFF 		bl	MCI_Cmd_SendIfCond
 2969 1046 7860     		str	r0, [r7, #4]
1496:../src/lib/lpc177x_8x/Drivers/source/lpc177x_8x_mci.c **** 
1497:../src/lib/lpc177x_8x/Drivers/source/lpc177x_8x_mci.c ****     if(retval == MCI_FUNC_BAD_PARAMETERS)
 2970              		.loc 2 1497 0
 2971 1048 7B68     		ldr	r3, [r7, #4]
 2972 104a 13F1020F 		cmn	r3, #2
 2973 104e 01D1     		bne	.L245
1498:../src/lib/lpc177x_8x/Drivers/source/lpc177x_8x_mci.c ****     {
1499:../src/lib/lpc177x_8x/Drivers/source/lpc177x_8x_mci.c ****         //Unknow card is unusable
1500:../src/lib/lpc177x_8x/Drivers/source/lpc177x_8x_mci.c ****         return retval;
 2974              		.loc 2 1500 0
 2975 1050 7B68     		ldr	r3, [r7, #4]
 2976 1052 4EE0     		b	.L242
 2977              	.L245:
1501:../src/lib/lpc177x_8x/Drivers/source/lpc177x_8x_mci.c ****     }
1502:../src/lib/lpc177x_8x/Drivers/source/lpc177x_8x_mci.c **** 
1503:../src/lib/lpc177x_8x/Drivers/source/lpc177x_8x_mci.c ****     if(retval == MCI_FUNC_OK) /* Ver2.00 or later*/
 2978              		.loc 2 1503 0
 2979 1054 7B68     		ldr	r3, [r7, #4]
 2980 1056 002B     		cmp	r3, #0
 2981 1058 17D1     		bne	.L246
1504:../src/lib/lpc177x_8x/Drivers/source/lpc177x_8x_mci.c ****     {
1505:../src/lib/lpc177x_8x/Drivers/source/lpc177x_8x_mci.c ****         //Check in case of High Capacity Supporting Host
1506:../src/lib/lpc177x_8x/Drivers/source/lpc177x_8x_mci.c ****         if ((retval = MCI_Acmd_SendOpCond(1)) == MCI_FUNC_OK)
 2982              		.loc 2 1506 0
 2983 105a 4FF00100 		mov	r0, #1
 2984 105e FFF7FEFF 		bl	MCI_Acmd_SendOpCond
 2985 1062 7860     		str	r0, [r7, #4]
 2986 1064 7B68     		ldr	r3, [r7, #4]
 2987 1066 002B     		cmp	r3, #0
 2988 1068 0FD1     		bne	.L246
1507:../src/lib/lpc177x_8x/Drivers/source/lpc177x_8x_mci.c ****         {
1508:../src/lib/lpc177x_8x/Drivers/source/lpc177x_8x_mci.c ****             MCI_CardType = MCI_SDSC_V2_CARD;//SDSC
 2989              		.loc 2 1508 0
 2990 106a 244B     		ldr	r3, .L252
 2991 106c 4FF00202 		mov	r2, #2
 2992 1070 1A70     		strb	r2, [r3, #0]
1509:../src/lib/lpc177x_8x/Drivers/source/lpc177x_8x_mci.c ****             
1510:../src/lib/lpc177x_8x/Drivers/source/lpc177x_8x_mci.c ****             if(CCS )
 2993              		.loc 2 1510 0
 2994 1072 234B     		ldr	r3, .L252+4
 2995 1074 1B78     		ldrb	r3, [r3, #0]
 2996 1076 DBB2     		uxtb	r3, r3
 2997 1078 002B     		cmp	r3, #0
 2998 107a 03D0     		beq	.L247
1511:../src/lib/lpc177x_8x/Drivers/source/lpc177x_8x_mci.c ****             {
1512:../src/lib/lpc177x_8x/Drivers/source/lpc177x_8x_mci.c ****                 MCI_CardType = MCI_SDHC_SDXC_CARD;//SDHC or SDXC 
 2999              		.loc 2 1512 0
 3000 107c 1F4B     		ldr	r3, .L252
 3001 107e 4FF00302 		mov	r2, #3
 3002 1082 1A70     		strb	r2, [r3, #0]
 3003              	.L247:
1513:../src/lib/lpc177x_8x/Drivers/source/lpc177x_8x_mci.c ****             }
1514:../src/lib/lpc177x_8x/Drivers/source/lpc177x_8x_mci.c **** 
1515:../src/lib/lpc177x_8x/Drivers/source/lpc177x_8x_mci.c ****             return MCI_FUNC_OK;    /* Found the card, it's a hD */
 3004              		.loc 2 1515 0
 3005 1084 4FF00003 		mov	r3, #0
 3006 1088 33E0     		b	.L242
 3007              	.L246:
1516:../src/lib/lpc177x_8x/Drivers/source/lpc177x_8x_mci.c ****         }
1517:../src/lib/lpc177x_8x/Drivers/source/lpc177x_8x_mci.c ****     }
1518:../src/lib/lpc177x_8x/Drivers/source/lpc177x_8x_mci.c **** 
1519:../src/lib/lpc177x_8x/Drivers/source/lpc177x_8x_mci.c ****     if(retval != MCI_FUNC_OK) /* voltage mismatch (ver2.00)or ver1.X SD Card or not SD Card*/
 3008              		.loc 2 1519 0
 3009 108a 7B68     		ldr	r3, [r7, #4]
 3010 108c 002B     		cmp	r3, #0
 3011 108e 0ED0     		beq	.L248
1520:../src/lib/lpc177x_8x/Drivers/source/lpc177x_8x_mci.c ****     {
1521:../src/lib/lpc177x_8x/Drivers/source/lpc177x_8x_mci.c ****         
1522:../src/lib/lpc177x_8x/Drivers/source/lpc177x_8x_mci.c ****         //Check in case of Standard Capacity Supporting Host
1523:../src/lib/lpc177x_8x/Drivers/source/lpc177x_8x_mci.c ****         if ((retval = MCI_Acmd_SendOpCond(0)) == MCI_FUNC_OK)
 3012              		.loc 2 1523 0
 3013 1090 4FF00000 		mov	r0, #0
 3014 1094 FFF7FEFF 		bl	MCI_Acmd_SendOpCond
 3015 1098 7860     		str	r0, [r7, #4]
 3016 109a 7B68     		ldr	r3, [r7, #4]
 3017 109c 002B     		cmp	r3, #0
 3018 109e 06D1     		bne	.L248
1524:../src/lib/lpc177x_8x/Drivers/source/lpc177x_8x_mci.c ****         {
1525:../src/lib/lpc177x_8x/Drivers/source/lpc177x_8x_mci.c ****             MCI_CardType = MCI_SDSC_V1_CARD;//Support Standard Capacity only
 3019              		.loc 2 1525 0
 3020 10a0 164B     		ldr	r3, .L252
 3021 10a2 4FF00002 		mov	r2, #0
 3022 10a6 1A70     		strb	r2, [r3, #0]
1526:../src/lib/lpc177x_8x/Drivers/source/lpc177x_8x_mci.c **** 
1527:../src/lib/lpc177x_8x/Drivers/source/lpc177x_8x_mci.c ****             return MCI_FUNC_OK;    /* Found the card, it's a SD */
 3023              		.loc 2 1527 0
 3024 10a8 4FF00003 		mov	r3, #0
 3025 10ac 21E0     		b	.L242
 3026              	.L248:
1528:../src/lib/lpc177x_8x/Drivers/source/lpc177x_8x_mci.c ****         }
1529:../src/lib/lpc177x_8x/Drivers/source/lpc177x_8x_mci.c ****     }
1530:../src/lib/lpc177x_8x/Drivers/source/lpc177x_8x_mci.c **** 
1531:../src/lib/lpc177x_8x/Drivers/source/lpc177x_8x_mci.c ****     if(retval != MCI_FUNC_OK)
 3027              		.loc 2 1531 0
 3028 10ae 7B68     		ldr	r3, [r7, #4]
 3029 10b0 002B     		cmp	r3, #0
 3030 10b2 1CD0     		beq	.L249
1532:../src/lib/lpc177x_8x/Drivers/source/lpc177x_8x_mci.c ****     {
1533:../src/lib/lpc177x_8x/Drivers/source/lpc177x_8x_mci.c ****         /* Set Open Drain output control for MMC */
1534:../src/lib/lpc177x_8x/Drivers/source/lpc177x_8x_mci.c ****         MCI_SetOutputMode(MCI_OUTPUT_MODE_OPENDRAIN);
 3031              		.loc 2 1534 0
 3032 10b4 4FF00100 		mov	r0, #1
 3033 10b8 FFF7FEFF 		bl	MCI_SetOutputMode
1535:../src/lib/lpc177x_8x/Drivers/source/lpc177x_8x_mci.c **** 
1536:../src/lib/lpc177x_8x/Drivers/source/lpc177x_8x_mci.c ****         for ( i = 0; i < 0x3000; i++ );
 3034              		.loc 2 1536 0
 3035 10bc 4FF00003 		mov	r3, #0
 3036 10c0 3B60     		str	r3, [r7, #0]
 3037 10c2 03E0     		b	.L250
 3038              	.L251:
 3039              		.loc 2 1536 0 is_stmt 0 discriminator 2
 3040 10c4 3B68     		ldr	r3, [r7, #0]
 3041 10c6 03F10103 		add	r3, r3, #1
 3042 10ca 3B60     		str	r3, [r7, #0]
 3043              	.L250:
 3044              		.loc 2 1536 0 discriminator 1
 3045 10cc 3A68     		ldr	r2, [r7, #0]
 3046 10ce 42F6FF73 		movw	r3, #12287
 3047 10d2 9A42     		cmp	r2, r3
 3048 10d4 F6D9     		bls	.L251
1537:../src/lib/lpc177x_8x/Drivers/source/lpc177x_8x_mci.c **** 
1538:../src/lib/lpc177x_8x/Drivers/source/lpc177x_8x_mci.c ****         /* Try CMD1 first for MMC, if it's timeout, try CMD55 and CMD41 for SD,
1539:../src/lib/lpc177x_8x/Drivers/source/lpc177x_8x_mci.c ****         if both failed, initialization faIlure, bailout. */
1540:../src/lib/lpc177x_8x/Drivers/source/lpc177x_8x_mci.c ****         if (MCI_Cmd_SendOpCond() == MCI_FUNC_OK)
 3049              		.loc 2 1540 0 is_stmt 1
 3050 10d6 FFF7FEFF 		bl	MCI_Cmd_SendOpCond
 3051 10da 0346     		mov	r3, r0
 3052 10dc 002B     		cmp	r3, #0
 3053 10de 06D1     		bne	.L249
1541:../src/lib/lpc177x_8x/Drivers/source/lpc177x_8x_mci.c ****         {
1542:../src/lib/lpc177x_8x/Drivers/source/lpc177x_8x_mci.c ****             MCI_CardType = MCI_MMC_CARD;
 3054              		.loc 2 1542 0
 3055 10e0 064B     		ldr	r3, .L252
 3056 10e2 4FF00102 		mov	r2, #1
 3057 10e6 1A70     		strb	r2, [r3, #0]
1543:../src/lib/lpc177x_8x/Drivers/source/lpc177x_8x_mci.c **** 
1544:../src/lib/lpc177x_8x/Drivers/source/lpc177x_8x_mci.c ****             return MCI_FUNC_OK;    /* Found the card, it's a MMC */
 3058              		.loc 2 1544 0
 3059 10e8 4FF00003 		mov	r3, #0
 3060 10ec 01E0     		b	.L242
 3061              	.L249:
1545:../src/lib/lpc177x_8x/Drivers/source/lpc177x_8x_mci.c ****         }
1546:../src/lib/lpc177x_8x/Drivers/source/lpc177x_8x_mci.c ****     }
1547:../src/lib/lpc177x_8x/Drivers/source/lpc177x_8x_mci.c **** 
1548:../src/lib/lpc177x_8x/Drivers/source/lpc177x_8x_mci.c ****     /* tried both MMC and SD card, give up */
1549:../src/lib/lpc177x_8x/Drivers/source/lpc177x_8x_mci.c ****     return MCI_FUNC_OK;
 3062              		.loc 2 1549 0
 3063 10ee 4FF00003 		mov	r3, #0
 3064              	.L242:
1550:../src/lib/lpc177x_8x/Drivers/source/lpc177x_8x_mci.c **** }
 3065              		.loc 2 1550 0
 3066 10f2 1846     		mov	r0, r3
 3067 10f4 07F10807 		add	r7, r7, #8
 3068 10f8 BD46     		mov	sp, r7
 3069 10fa 80BD     		pop	{r7, pc}
 3070              	.L253:
 3071              		.align	2
 3072              	.L252:
 3073 10fc 00000000 		.word	MCI_CardType
 3074 1100 00000000 		.word	CCS
 3075              		.cfi_endproc
 3076              	.LFE81:
 3078              		.align	2
 3079              		.global	MCI_GetCardType
 3080              		.thumb
 3081              		.thumb_func
 3083              	MCI_GetCardType:
 3084              	.LFB82:
1551:../src/lib/lpc177x_8x/Drivers/source/lpc177x_8x_mci.c **** 
1552:../src/lib/lpc177x_8x/Drivers/source/lpc177x_8x_mci.c **** 
1553:../src/lib/lpc177x_8x/Drivers/source/lpc177x_8x_mci.c **** /************************************************************************//**
1554:../src/lib/lpc177x_8x/Drivers/source/lpc177x_8x_mci.c ****  * @brief         Get the type of card that is currently used in the slot
1555:../src/lib/lpc177x_8x/Drivers/source/lpc177x_8x_mci.c ****  *
1556:../src/lib/lpc177x_8x/Drivers/source/lpc177x_8x_mci.c ****  * @param         None
1557:../src/lib/lpc177x_8x/Drivers/source/lpc177x_8x_mci.c ****  *
1558:../src/lib/lpc177x_8x/Drivers/source/lpc177x_8x_mci.c ****  * @return        Card Type: MMC Card or SD card
1559:../src/lib/lpc177x_8x/Drivers/source/lpc177x_8x_mci.c ****  ****************************************************************************/
1560:../src/lib/lpc177x_8x/Drivers/source/lpc177x_8x_mci.c **** en_Mci_CardType MCI_GetCardType(void)
1561:../src/lib/lpc177x_8x/Drivers/source/lpc177x_8x_mci.c **** {
 3085              		.loc 2 1561 0
 3086              		.cfi_startproc
 3087              		@ args = 0, pretend = 0, frame = 0
 3088              		@ frame_needed = 1, uses_anonymous_args = 0
 3089              		@ link register save eliminated.
 3090 1104 80B4     		push	{r7}
 3091              	.LCFI78:
 3092              		.cfi_def_cfa_offset 4
 3093              		.cfi_offset 7, -4
 3094 1106 00AF     		add	r7, sp, #0
 3095              	.LCFI79:
 3096              		.cfi_def_cfa_register 7
1562:../src/lib/lpc177x_8x/Drivers/source/lpc177x_8x_mci.c ****     return MCI_CardType;
 3097              		.loc 2 1562 0
 3098 1108 034B     		ldr	r3, .L256
 3099 110a 1B78     		ldrb	r3, [r3, #0]
 3100 110c DBB2     		uxtb	r3, r3
 3101 110e 5BB2     		sxtb	r3, r3
1563:../src/lib/lpc177x_8x/Drivers/source/lpc177x_8x_mci.c **** }
 3102              		.loc 2 1563 0
 3103 1110 1846     		mov	r0, r3
 3104 1112 BD46     		mov	sp, r7
 3105 1114 80BC     		pop	{r7}
 3106 1116 7047     		bx	lr
 3107              	.L257:
 3108              		.align	2
 3109              	.L256:
 3110 1118 00000000 		.word	MCI_CardType
 3111              		.cfi_endproc
 3112              	.LFE82:
 3114              		.align	2
 3115              		.global	MCI_GetCID
 3116              		.thumb
 3117              		.thumb_func
 3119              	MCI_GetCID:
 3120              	.LFB83:
1564:../src/lib/lpc177x_8x/Drivers/source/lpc177x_8x_mci.c **** 
1565:../src/lib/lpc177x_8x/Drivers/source/lpc177x_8x_mci.c **** 
1566:../src/lib/lpc177x_8x/Drivers/source/lpc177x_8x_mci.c **** /************************************************************************//**
1567:../src/lib/lpc177x_8x/Drivers/source/lpc177x_8x_mci.c ****  * @brief         Get the all the Identifier (CID) of the card by sending the 
1568:../src/lib/lpc177x_8x/Drivers/source/lpc177x_8x_mci.c ****  *                CMD2 (ALL_SEND_CID) command. Then parse 4-byte data obtained
1569:../src/lib/lpc177x_8x/Drivers/source/lpc177x_8x_mci.c ****  *                from the card by the CID meaning.    
1570:../src/lib/lpc177x_8x/Drivers/source/lpc177x_8x_mci.c ****  *
1571:../src/lib/lpc177x_8x/Drivers/source/lpc177x_8x_mci.c ****  * @param[out]    cidValue the CID Result after parsing the data from the card
1572:../src/lib/lpc177x_8x/Drivers/source/lpc177x_8x_mci.c ****  *
1573:../src/lib/lpc177x_8x/Drivers/source/lpc177x_8x_mci.c ****  * @return        MCI_FUNC_OK if all success
1574:../src/lib/lpc177x_8x/Drivers/source/lpc177x_8x_mci.c ****  ****************************************************************************/
1575:../src/lib/lpc177x_8x/Drivers/source/lpc177x_8x_mci.c **** int32_t MCI_GetCID(st_Mci_CardId* cidValue)
1576:../src/lib/lpc177x_8x/Drivers/source/lpc177x_8x_mci.c **** {
 3121              		.loc 2 1576 0
 3122              		.cfi_startproc
 3123              		@ args = 0, pretend = 0, frame = 56
 3124              		@ frame_needed = 1, uses_anonymous_args = 0
 3125 111c 80B5     		push	{r7, lr}
 3126              	.LCFI80:
 3127              		.cfi_def_cfa_offset 8
 3128              		.cfi_offset 7, -8
 3129              		.cfi_offset 14, -4
 3130 111e 8EB0     		sub	sp, sp, #56
 3131              	.LCFI81:
 3132              		.cfi_def_cfa_offset 64
 3133 1120 00AF     		add	r7, sp, #0
 3134              	.LCFI82:
 3135              		.cfi_def_cfa_register 7
 3136 1122 7860     		str	r0, [r7, #4]
1577:../src/lib/lpc177x_8x/Drivers/source/lpc177x_8x_mci.c ****     volatile uint32_t i;
1578:../src/lib/lpc177x_8x/Drivers/source/lpc177x_8x_mci.c ****     uint32_t retryCount;
1579:../src/lib/lpc177x_8x/Drivers/source/lpc177x_8x_mci.c ****     uint32_t respStatus;
1580:../src/lib/lpc177x_8x/Drivers/source/lpc177x_8x_mci.c ****     uint32_t respValue[4];
1581:../src/lib/lpc177x_8x/Drivers/source/lpc177x_8x_mci.c ****     st_Mci_CmdInfo cmdIf;
1582:../src/lib/lpc177x_8x/Drivers/source/lpc177x_8x_mci.c ****     
1583:../src/lib/lpc177x_8x/Drivers/source/lpc177x_8x_mci.c ****     /* This command is normally after CMD1(MMC) or ACMD41(SD). */
1584:../src/lib/lpc177x_8x/Drivers/source/lpc177x_8x_mci.c ****     retryCount = 0x200;// 0x20;            /* reset retry counter */
 3137              		.loc 2 1584 0
 3138 1124 4FF40073 		mov	r3, #512
 3139 1128 7B63     		str	r3, [r7, #52]
1585:../src/lib/lpc177x_8x/Drivers/source/lpc177x_8x_mci.c ****     
1586:../src/lib/lpc177x_8x/Drivers/source/lpc177x_8x_mci.c ****     cmdIf.CmdIndex = CMD2_ALL_SEND_CID;
 3140              		.loc 2 1586 0
 3141 112a 4FF00203 		mov	r3, #2
 3142 112e BB60     		str	r3, [r7, #8]
1587:../src/lib/lpc177x_8x/Drivers/source/lpc177x_8x_mci.c ****     cmdIf.Argument = 0;
 3143              		.loc 2 1587 0
 3144 1130 4FF00003 		mov	r3, #0
 3145 1134 FB60     		str	r3, [r7, #12]
1588:../src/lib/lpc177x_8x/Drivers/source/lpc177x_8x_mci.c ****     cmdIf.ExpectResp = EXPECT_LONG_RESP;
 3146              		.loc 2 1588 0
 3147 1136 4FF00203 		mov	r3, #2
 3148 113a 3B61     		str	r3, [r7, #16]
1589:../src/lib/lpc177x_8x/Drivers/source/lpc177x_8x_mci.c ****     cmdIf.AllowTimeout = ALLOW_CMD_TIMER;
 3149              		.loc 2 1589 0
 3150 113c 4FF00103 		mov	r3, #1
 3151 1140 7B61     		str	r3, [r7, #20]
1590:../src/lib/lpc177x_8x/Drivers/source/lpc177x_8x_mci.c ****     cmdIf.CmdResp = (uint32_t *)&respValue[0];
 3152              		.loc 2 1590 0
 3153 1142 07F11C03 		add	r3, r7, #28
 3154 1146 BB61     		str	r3, [r7, #24]
1591:../src/lib/lpc177x_8x/Drivers/source/lpc177x_8x_mci.c ****     while ( retryCount > 0 )
 3155              		.loc 2 1591 0
 3156 1148 66E0     		b	.L259
 3157              	.L265:
1592:../src/lib/lpc177x_8x/Drivers/source/lpc177x_8x_mci.c ****     {
1593:../src/lib/lpc177x_8x/Drivers/source/lpc177x_8x_mci.c ****         respStatus = MCI_CmdResp(&cmdIf);
 3158              		.loc 2 1593 0
 3159 114a 07F10803 		add	r3, r7, #8
 3160 114e 1846     		mov	r0, r3
 3161 1150 FFF7FEFF 		bl	MCI_CmdResp
 3162 1154 0346     		mov	r3, r0
 3163 1156 3B63     		str	r3, [r7, #48]
1594:../src/lib/lpc177x_8x/Drivers/source/lpc177x_8x_mci.c **** 
1595:../src/lib/lpc177x_8x/Drivers/source/lpc177x_8x_mci.c ****         /* bit 0 and bit 2 must be zero, or it's timeout or CRC error */
1596:../src/lib/lpc177x_8x/Drivers/source/lpc177x_8x_mci.c ****         //if ((!(respStatus & MCI_CMD_TIMEOUT)) && (!(respStatus & MCI_CMD_CRC_FAIL)))
1597:../src/lib/lpc177x_8x/Drivers/source/lpc177x_8x_mci.c ****         if (!(respStatus & MCI_CMD_TIMEOUT))
 3164              		.loc 2 1597 0
 3165 1158 3B6B     		ldr	r3, [r7, #48]
 3166 115a 03F00403 		and	r3, r3, #4
 3167 115e 002B     		cmp	r3, #0
 3168 1160 4BD1     		bne	.L260
1598:../src/lib/lpc177x_8x/Drivers/source/lpc177x_8x_mci.c ****         {
1599:../src/lib/lpc177x_8x/Drivers/source/lpc177x_8x_mci.c ****             // Parsing the data retrieved
1600:../src/lib/lpc177x_8x/Drivers/source/lpc177x_8x_mci.c ****             if(cidValue != NULL)
 3169              		.loc 2 1600 0
 3170 1162 7B68     		ldr	r3, [r7, #4]
 3171 1164 002B     		cmp	r3, #0
 3172 1166 45D0     		beq	.L261
1601:../src/lib/lpc177x_8x/Drivers/source/lpc177x_8x_mci.c ****             {
1602:../src/lib/lpc177x_8x/Drivers/source/lpc177x_8x_mci.c ****                 cidValue->MID = (respValue[0] >> MCI_CID_MANUFACTURER_ID_WPOS) & MCI_CID_MANUFACTUR
 3173              		.loc 2 1602 0
 3174 1168 FB69     		ldr	r3, [r7, #28]
 3175 116a 4FEA1363 		lsr	r3, r3, #24
 3176 116e DAB2     		uxtb	r2, r3
 3177 1170 7B68     		ldr	r3, [r7, #4]
 3178 1172 1A70     		strb	r2, [r3, #0]
1603:../src/lib/lpc177x_8x/Drivers/source/lpc177x_8x_mci.c **** 
1604:../src/lib/lpc177x_8x/Drivers/source/lpc177x_8x_mci.c ****                 cidValue->OID = (respValue[0] >> MCI_CID_OEMAPPLICATION_ID_WPOS) & MCI_CID_OEMAPPLI
 3179              		.loc 2 1604 0
 3180 1174 FB69     		ldr	r3, [r7, #28]
 3181 1176 4FEA1323 		lsr	r3, r3, #8
 3182 117a 9AB2     		uxth	r2, r3
 3183 117c 7B68     		ldr	r3, [r7, #4]
 3184 117e 5A80     		strh	r2, [r3, #2]	@ movhi
1605:../src/lib/lpc177x_8x/Drivers/source/lpc177x_8x_mci.c **** 
1606:../src/lib/lpc177x_8x/Drivers/source/lpc177x_8x_mci.c ****                 cidValue->PNM_H = (respValue[0] >> MCI_CID_PRODUCTNAME_ID_H_WPOS) & MCI_CID_PRODUCT
 3185              		.loc 2 1606 0
 3186 1180 FB69     		ldr	r3, [r7, #28]
 3187 1182 DAB2     		uxtb	r2, r3
 3188 1184 7B68     		ldr	r3, [r7, #4]
 3189 1186 1A71     		strb	r2, [r3, #4]
1607:../src/lib/lpc177x_8x/Drivers/source/lpc177x_8x_mci.c **** 
1608:../src/lib/lpc177x_8x/Drivers/source/lpc177x_8x_mci.c ****                 cidValue->PNM_L = (respValue[1] >> MCI_CID_PRODUCTNAME_ID_L_WPOS) & MCI_CID_PRODUCT
 3190              		.loc 2 1608 0
 3191 1188 3A6A     		ldr	r2, [r7, #32]
 3192 118a 7B68     		ldr	r3, [r7, #4]
 3193 118c 9A60     		str	r2, [r3, #8]
1609:../src/lib/lpc177x_8x/Drivers/source/lpc177x_8x_mci.c **** 
1610:../src/lib/lpc177x_8x/Drivers/source/lpc177x_8x_mci.c ****                 cidValue->PRV = (respValue[2] >> MCI_CID_PRODUCTREVISION_ID_WPOS) & MCI_CID_PRODUCT
 3194              		.loc 2 1610 0
 3195 118e 7B6A     		ldr	r3, [r7, #36]
 3196 1190 4FEA1363 		lsr	r3, r3, #24
 3197 1194 DAB2     		uxtb	r2, r3
 3198 1196 7B68     		ldr	r3, [r7, #4]
 3199 1198 1A73     		strb	r2, [r3, #12]
1611:../src/lib/lpc177x_8x/Drivers/source/lpc177x_8x_mci.c **** 
1612:../src/lib/lpc177x_8x/Drivers/source/lpc177x_8x_mci.c ****                 cidValue->PSN = (((respValue[2] >> MCI_CID_PRODUCTSERIALNUM_ID_H_WPOS) & MCI_CID_PR
 3200              		.loc 2 1612 0
 3201 119a 7B6A     		ldr	r3, [r7, #36]
 3202 119c 4FEA0322 		lsl	r2, r3, #8
1613:../src/lib/lpc177x_8x/Drivers/source/lpc177x_8x_mci.c ****                                             | ((respValue[3] >> MCI_CID_PRODUCTSERIALNUM_ID_L_WPOS)
 3203              		.loc 2 1613 0
 3204 11a0 BB6A     		ldr	r3, [r7, #40]
 3205 11a2 4FEA1363 		lsr	r3, r3, #24
 3206 11a6 1A43     		orrs	r2, r2, r3
1612:../src/lib/lpc177x_8x/Drivers/source/lpc177x_8x_mci.c ****                 cidValue->PSN = (((respValue[2] >> MCI_CID_PRODUCTSERIALNUM_ID_H_WPOS) & MCI_CID_PR
 3207              		.loc 2 1612 0
 3208 11a8 7B68     		ldr	r3, [r7, #4]
 3209 11aa 1A61     		str	r2, [r3, #16]
1614:../src/lib/lpc177x_8x/Drivers/source/lpc177x_8x_mci.c **** 
1615:../src/lib/lpc177x_8x/Drivers/source/lpc177x_8x_mci.c ****                 cidValue->reserved = (respValue[3] >> MCI_CID_RESERVED_ID_WPOS) & MCI_CID_RESERVED_
 3210              		.loc 2 1615 0
 3211 11ac BB6A     		ldr	r3, [r7, #40]
 3212 11ae 4FEA1353 		lsr	r3, r3, #20
 3213 11b2 DBB2     		uxtb	r3, r3
 3214 11b4 03F01F03 		and	r3, r3, #31
 3215 11b8 DAB2     		uxtb	r2, r3
 3216 11ba 7B68     		ldr	r3, [r7, #4]
 3217 11bc 1A75     		strb	r2, [r3, #20]
1616:../src/lib/lpc177x_8x/Drivers/source/lpc177x_8x_mci.c **** 
1617:../src/lib/lpc177x_8x/Drivers/source/lpc177x_8x_mci.c ****                 cidValue->MDT = (respValue[3] >> MCI_CID_MANUFACTURINGDATE_ID_WPOS) & MCI_CID_MANUF
 3218              		.loc 2 1617 0
 3219 11be BB6A     		ldr	r3, [r7, #40]
 3220 11c0 4FEA1323 		lsr	r3, r3, #8
 3221 11c4 9BB2     		uxth	r3, r3
 3222 11c6 4FEA0353 		lsl	r3, r3, #20
 3223 11ca 4FEA1353 		lsr	r3, r3, #20
 3224 11ce 9AB2     		uxth	r2, r3
 3225 11d0 7B68     		ldr	r3, [r7, #4]
 3226 11d2 DA82     		strh	r2, [r3, #22]	@ movhi
1618:../src/lib/lpc177x_8x/Drivers/source/lpc177x_8x_mci.c **** 
1619:../src/lib/lpc177x_8x/Drivers/source/lpc177x_8x_mci.c ****                 cidValue->CRC = (respValue[3] >> MCI_CID_CHECKSUM_ID_WPOS) & MCI_CID_CHECKSUM_ID_WB
 3227              		.loc 2 1619 0
 3228 11d4 BB6A     		ldr	r3, [r7, #40]
 3229 11d6 4FEA5303 		lsr	r3, r3, #1
 3230 11da DBB2     		uxtb	r3, r3
 3231 11dc 03F07F03 		and	r3, r3, #127
 3232 11e0 DAB2     		uxtb	r2, r3
 3233 11e2 7B68     		ldr	r3, [r7, #4]
 3234 11e4 1A76     		strb	r2, [r3, #24]
1620:../src/lib/lpc177x_8x/Drivers/source/lpc177x_8x_mci.c **** 
1621:../src/lib/lpc177x_8x/Drivers/source/lpc177x_8x_mci.c ****                 cidValue->unused = (respValue[3] >> MCI_CID_UNUSED_ID_WPOS) & MCI_CID_UNUSED_ID_WBM
 3235              		.loc 2 1621 0
 3236 11e6 BB6A     		ldr	r3, [r7, #40]
 3237 11e8 DBB2     		uxtb	r3, r3
 3238 11ea 03F00103 		and	r3, r3, #1
 3239 11ee DAB2     		uxtb	r2, r3
 3240 11f0 7B68     		ldr	r3, [r7, #4]
 3241 11f2 5A76     		strb	r2, [r3, #25]
 3242              	.L261:
1622:../src/lib/lpc177x_8x/Drivers/source/lpc177x_8x_mci.c **** 
1623:../src/lib/lpc177x_8x/Drivers/source/lpc177x_8x_mci.c ****             }
1624:../src/lib/lpc177x_8x/Drivers/source/lpc177x_8x_mci.c **** 
1625:../src/lib/lpc177x_8x/Drivers/source/lpc177x_8x_mci.c ****             return  MCI_FUNC_OK;    /* response is back and correct. */
 3243              		.loc 2 1625 0
 3244 11f4 4FF00003 		mov	r3, #0
 3245 11f8 13E0     		b	.L266
 3246              	.L260:
1626:../src/lib/lpc177x_8x/Drivers/source/lpc177x_8x_mci.c ****         }
1627:../src/lib/lpc177x_8x/Drivers/source/lpc177x_8x_mci.c **** 
1628:../src/lib/lpc177x_8x/Drivers/source/lpc177x_8x_mci.c **** 
1629:../src/lib/lpc177x_8x/Drivers/source/lpc177x_8x_mci.c ****         for ( i = 0; i < 0x20; i++ );
 3247              		.loc 2 1629 0
 3248 11fa 4FF00003 		mov	r3, #0
 3249 11fe FB62     		str	r3, [r7, #44]
 3250 1200 03E0     		b	.L263
 3251              	.L264:
 3252              		.loc 2 1629 0 is_stmt 0 discriminator 2
 3253 1202 FB6A     		ldr	r3, [r7, #44]
 3254 1204 03F10103 		add	r3, r3, #1
 3255 1208 FB62     		str	r3, [r7, #44]
 3256              	.L263:
 3257              		.loc 2 1629 0 discriminator 1
 3258 120a FB6A     		ldr	r3, [r7, #44]
 3259 120c 1F2B     		cmp	r3, #31
 3260 120e F8D9     		bls	.L264
1630:../src/lib/lpc177x_8x/Drivers/source/lpc177x_8x_mci.c **** 
1631:../src/lib/lpc177x_8x/Drivers/source/lpc177x_8x_mci.c ****         retryCount--;
 3261              		.loc 2 1631 0 is_stmt 1
 3262 1210 7B6B     		ldr	r3, [r7, #52]
 3263 1212 03F1FF33 		add	r3, r3, #-1
 3264 1216 7B63     		str	r3, [r7, #52]
 3265              	.L259:
1591:../src/lib/lpc177x_8x/Drivers/source/lpc177x_8x_mci.c ****     while ( retryCount > 0 )
 3266              		.loc 2 1591 0 discriminator 1
 3267 1218 7B6B     		ldr	r3, [r7, #52]
 3268 121a 002B     		cmp	r3, #0
 3269 121c 95D1     		bne	.L265
1632:../src/lib/lpc177x_8x/Drivers/source/lpc177x_8x_mci.c ****     }
1633:../src/lib/lpc177x_8x/Drivers/source/lpc177x_8x_mci.c **** 
1634:../src/lib/lpc177x_8x/Drivers/source/lpc177x_8x_mci.c ****     return MCI_FUNC_TIMEOUT;
 3270              		.loc 2 1634 0
 3271 121e 6FF00203 		mvn	r3, #2
 3272              	.L266:
1635:../src/lib/lpc177x_8x/Drivers/source/lpc177x_8x_mci.c **** }
 3273              		.loc 2 1635 0
 3274 1222 1846     		mov	r0, r3
 3275 1224 07F13807 		add	r7, r7, #56
 3276 1228 BD46     		mov	sp, r7
 3277 122a 80BD     		pop	{r7, pc}
 3278              		.cfi_endproc
 3279              	.LFE83:
 3281              		.align	2
 3282              		.global	MCI_SetCardAddress
 3283              		.thumb
 3284              		.thumb_func
 3286              	MCI_SetCardAddress:
 3287              	.LFB84:
1636:../src/lib/lpc177x_8x/Drivers/source/lpc177x_8x_mci.c **** 
1637:../src/lib/lpc177x_8x/Drivers/source/lpc177x_8x_mci.c **** 
1638:../src/lib/lpc177x_8x/Drivers/source/lpc177x_8x_mci.c **** /************************************************************************//**
1639:../src/lib/lpc177x_8x/Drivers/source/lpc177x_8x_mci.c ****  * @brief        Set the address for the card in the slot by sending CMD3 
1640:../src/lib/lpc177x_8x/Drivers/source/lpc177x_8x_mci.c ****  *                (SET_RELATIVE_ADDR) command. To get the address of the card
1641:../src/lib/lpc177x_8x/Drivers/source/lpc177x_8x_mci.c ****  *                currently in used, needs to call MCI_GetCardAddress()
1642:../src/lib/lpc177x_8x/Drivers/source/lpc177x_8x_mci.c ****  *
1643:../src/lib/lpc177x_8x/Drivers/source/lpc177x_8x_mci.c ****  * @param        None
1644:../src/lib/lpc177x_8x/Drivers/source/lpc177x_8x_mci.c ****  *
1645:../src/lib/lpc177x_8x/Drivers/source/lpc177x_8x_mci.c ****  * @return       MCI_FUNC_OK if all success
1646:../src/lib/lpc177x_8x/Drivers/source/lpc177x_8x_mci.c ****  ****************************************************************************/
1647:../src/lib/lpc177x_8x/Drivers/source/lpc177x_8x_mci.c **** int32_t MCI_SetCardAddress( void )
1648:../src/lib/lpc177x_8x/Drivers/source/lpc177x_8x_mci.c **** {
 3288              		.loc 2 1648 0
 3289              		.cfi_startproc
 3290              		@ args = 0, pretend = 0, frame = 48
 3291              		@ frame_needed = 1, uses_anonymous_args = 0
 3292 122c 80B5     		push	{r7, lr}
 3293              	.LCFI83:
 3294              		.cfi_def_cfa_offset 8
 3295              		.cfi_offset 7, -8
 3296              		.cfi_offset 14, -4
 3297 122e 8CB0     		sub	sp, sp, #48
 3298              	.LCFI84:
 3299              		.cfi_def_cfa_offset 56
 3300 1230 00AF     		add	r7, sp, #0
 3301              	.LCFI85:
 3302              		.cfi_def_cfa_register 7
1649:../src/lib/lpc177x_8x/Drivers/source/lpc177x_8x_mci.c ****     volatile uint32_t i;
1650:../src/lib/lpc177x_8x/Drivers/source/lpc177x_8x_mci.c ****     uint32_t retryCount;
1651:../src/lib/lpc177x_8x/Drivers/source/lpc177x_8x_mci.c ****     uint32_t respStatus;
1652:../src/lib/lpc177x_8x/Drivers/source/lpc177x_8x_mci.c ****     uint32_t respValue;
1653:../src/lib/lpc177x_8x/Drivers/source/lpc177x_8x_mci.c ****     uint32_t CmdArgument;
1654:../src/lib/lpc177x_8x/Drivers/source/lpc177x_8x_mci.c ****     st_Mci_CmdInfo cmdIf;
1655:../src/lib/lpc177x_8x/Drivers/source/lpc177x_8x_mci.c ****     int32_t retval = MCI_FUNC_FAILED;
 3303              		.loc 2 1655 0
 3304 1232 4FF0FF33 		mov	r3, #-1
 3305 1236 7B62     		str	r3, [r7, #36]
1656:../src/lib/lpc177x_8x/Drivers/source/lpc177x_8x_mci.c ****     
1657:../src/lib/lpc177x_8x/Drivers/source/lpc177x_8x_mci.c ****     /* If it's a SD card, SET_RELATIVE_ADDR is to get the address
1658:../src/lib/lpc177x_8x/Drivers/source/lpc177x_8x_mci.c ****     from the card and use this value in RCA, if it's a MMC, set default
1659:../src/lib/lpc177x_8x/Drivers/source/lpc177x_8x_mci.c ****     RCA addr. 0x00010000. */
1660:../src/lib/lpc177x_8x/Drivers/source/lpc177x_8x_mci.c ****     if ((MCI_CardType == MCI_SDSC_V1_CARD) ||
 3306              		.loc 2 1660 0
 3307 1238 3B4B     		ldr	r3, .L281
 3308 123a 1B78     		ldrb	r3, [r3, #0]
 3309 123c DBB2     		uxtb	r3, r3
 3310 123e 002B     		cmp	r3, #0
 3311 1240 0BD0     		beq	.L268
1661:../src/lib/lpc177x_8x/Drivers/source/lpc177x_8x_mci.c ****         (MCI_CardType == MCI_SDSC_V2_CARD) ||
 3312              		.loc 2 1661 0 discriminator 1
 3313 1242 394B     		ldr	r3, .L281
 3314 1244 1B78     		ldrb	r3, [r3, #0]
 3315 1246 DBB2     		uxtb	r3, r3
1660:../src/lib/lpc177x_8x/Drivers/source/lpc177x_8x_mci.c ****     if ((MCI_CardType == MCI_SDSC_V1_CARD) ||
 3316              		.loc 2 1660 0 discriminator 1
 3317 1248 5BB2     		sxtb	r3, r3
 3318 124a 022B     		cmp	r3, #2
 3319 124c 05D0     		beq	.L268
1662:../src/lib/lpc177x_8x/Drivers/source/lpc177x_8x_mci.c ****         (MCI_CardType == MCI_SDHC_SDXC_CARD))
 3320              		.loc 2 1662 0
 3321 124e 364B     		ldr	r3, .L281
 3322 1250 1B78     		ldrb	r3, [r3, #0]
 3323 1252 DBB2     		uxtb	r3, r3
1661:../src/lib/lpc177x_8x/Drivers/source/lpc177x_8x_mci.c ****         (MCI_CardType == MCI_SDSC_V2_CARD) ||
 3324              		.loc 2 1661 0
 3325 1254 5BB2     		sxtb	r3, r3
 3326 1256 032B     		cmp	r3, #3
 3327 1258 03D1     		bne	.L269
 3328              	.L268:
1663:../src/lib/lpc177x_8x/Drivers/source/lpc177x_8x_mci.c ****     {
1664:../src/lib/lpc177x_8x/Drivers/source/lpc177x_8x_mci.c ****         CmdArgument = 0;
 3329              		.loc 2 1664 0
 3330 125a 4FF00003 		mov	r3, #0
 3331 125e BB62     		str	r3, [r7, #40]
 3332 1260 02E0     		b	.L270
 3333              	.L269:
1665:../src/lib/lpc177x_8x/Drivers/source/lpc177x_8x_mci.c ****     }
1666:../src/lib/lpc177x_8x/Drivers/source/lpc177x_8x_mci.c ****     else            /* If it's unknown or MMC_CARD, fix the RCA address */
1667:../src/lib/lpc177x_8x/Drivers/source/lpc177x_8x_mci.c ****     {
1668:../src/lib/lpc177x_8x/Drivers/source/lpc177x_8x_mci.c ****         CmdArgument = 0x00010000;
 3334              		.loc 2 1668 0
 3335 1262 4FF48033 		mov	r3, #65536
 3336 1266 BB62     		str	r3, [r7, #40]
 3337              	.L270:
1669:../src/lib/lpc177x_8x/Drivers/source/lpc177x_8x_mci.c ****     }
1670:../src/lib/lpc177x_8x/Drivers/source/lpc177x_8x_mci.c **** 
1671:../src/lib/lpc177x_8x/Drivers/source/lpc177x_8x_mci.c ****     retryCount = 0x20;            /* reset retry counter */
 3338              		.loc 2 1671 0
 3339 1268 4FF02003 		mov	r3, #32
 3340 126c FB62     		str	r3, [r7, #44]
1672:../src/lib/lpc177x_8x/Drivers/source/lpc177x_8x_mci.c ****     cmdIf.CmdIndex = CMD3_SET_RELATIVE_ADDR;
 3341              		.loc 2 1672 0
 3342 126e 4FF00303 		mov	r3, #3
 3343 1272 7B60     		str	r3, [r7, #4]
1673:../src/lib/lpc177x_8x/Drivers/source/lpc177x_8x_mci.c ****     cmdIf.Argument = CmdArgument;
 3344              		.loc 2 1673 0
 3345 1274 BB6A     		ldr	r3, [r7, #40]
 3346 1276 BB60     		str	r3, [r7, #8]
1674:../src/lib/lpc177x_8x/Drivers/source/lpc177x_8x_mci.c ****     cmdIf.ExpectResp = EXPECT_SHORT_RESP;
 3347              		.loc 2 1674 0
 3348 1278 4FF00103 		mov	r3, #1
 3349 127c FB60     		str	r3, [r7, #12]
1675:../src/lib/lpc177x_8x/Drivers/source/lpc177x_8x_mci.c ****     cmdIf.AllowTimeout = ALLOW_CMD_TIMER;
 3350              		.loc 2 1675 0
 3351 127e 4FF00103 		mov	r3, #1
 3352 1282 3B61     		str	r3, [r7, #16]
1676:../src/lib/lpc177x_8x/Drivers/source/lpc177x_8x_mci.c ****     cmdIf.CmdResp = &respValue;
 3353              		.loc 2 1676 0
 3354 1284 07F11803 		add	r3, r7, #24
 3355 1288 7B61     		str	r3, [r7, #20]
1677:../src/lib/lpc177x_8x/Drivers/source/lpc177x_8x_mci.c ****     while ( retryCount > 0 )
 3356              		.loc 2 1677 0
 3357 128a 44E0     		b	.L271
 3358              	.L279:
1678:../src/lib/lpc177x_8x/Drivers/source/lpc177x_8x_mci.c ****     {
1679:../src/lib/lpc177x_8x/Drivers/source/lpc177x_8x_mci.c ****         /* Send CMD3 command repeatedly until the response is back correctly */
1680:../src/lib/lpc177x_8x/Drivers/source/lpc177x_8x_mci.c ****         respStatus = MCI_CmdResp(&cmdIf);
 3359              		.loc 2 1680 0
 3360 128c 07F10403 		add	r3, r7, #4
 3361 1290 1846     		mov	r0, r3
 3362 1292 FFF7FEFF 		bl	MCI_CmdResp
 3363 1296 0346     		mov	r3, r0
 3364 1298 3B62     		str	r3, [r7, #32]
1681:../src/lib/lpc177x_8x/Drivers/source/lpc177x_8x_mci.c **** 
1682:../src/lib/lpc177x_8x/Drivers/source/lpc177x_8x_mci.c ****         if(respStatus & MCI_CMD_TIMEOUT)
 3365              		.loc 2 1682 0
 3366 129a 3B6A     		ldr	r3, [r7, #32]
 3367 129c 03F00403 		and	r3, r3, #4
 3368 12a0 002B     		cmp	r3, #0
 3369 12a2 03D0     		beq	.L272
1683:../src/lib/lpc177x_8x/Drivers/source/lpc177x_8x_mci.c ****         {
1684:../src/lib/lpc177x_8x/Drivers/source/lpc177x_8x_mci.c ****             retval = MCI_FUNC_TIMEOUT;
 3370              		.loc 2 1684 0
 3371 12a4 6FF00203 		mvn	r3, #2
 3372 12a8 7B62     		str	r3, [r7, #36]
 3373 12aa 25E0     		b	.L273
 3374              	.L272:
1685:../src/lib/lpc177x_8x/Drivers/source/lpc177x_8x_mci.c ****         }
1686:../src/lib/lpc177x_8x/Drivers/source/lpc177x_8x_mci.c ****         else if(!((respValue >> RCA_RES_CARD_STATUS_POS)& CARD_STATUS_READY_FOR_DATA))
 3375              		.loc 2 1686 0
 3376 12ac BB69     		ldr	r3, [r7, #24]
 3377 12ae 03F48073 		and	r3, r3, #256
 3378 12b2 002B     		cmp	r3, #0
 3379 12b4 03D1     		bne	.L274
1687:../src/lib/lpc177x_8x/Drivers/source/lpc177x_8x_mci.c ****         {
1688:../src/lib/lpc177x_8x/Drivers/source/lpc177x_8x_mci.c ****             retval = MCI_FUNC_NOT_READY;
 3380              		.loc 2 1688 0
 3381 12b6 6FF00403 		mvn	r3, #4
 3382 12ba 7B62     		str	r3, [r7, #36]
 3383 12bc 1CE0     		b	.L273
 3384              	.L274:
1689:../src/lib/lpc177x_8x/Drivers/source/lpc177x_8x_mci.c ****         }
1690:../src/lib/lpc177x_8x/Drivers/source/lpc177x_8x_mci.c ****         else if((CARDSTATEOF(respValue) != MCI_CARDSTATE_IDENDTIFIED))
 3385              		.loc 2 1690 0
 3386 12be BB69     		ldr	r3, [r7, #24]
 3387 12c0 4FEA5323 		lsr	r3, r3, #9
 3388 12c4 03F00F03 		and	r3, r3, #15
 3389 12c8 022B     		cmp	r3, #2
 3390 12ca 03D0     		beq	.L275
1691:../src/lib/lpc177x_8x/Drivers/source/lpc177x_8x_mci.c ****         {
1692:../src/lib/lpc177x_8x/Drivers/source/lpc177x_8x_mci.c ****             retval = MCI_FUNC_ERR_STATE;
 3391              		.loc 2 1692 0
 3392 12cc 6FF00303 		mvn	r3, #3
 3393 12d0 7B62     		str	r3, [r7, #36]
 3394 12d2 11E0     		b	.L273
 3395              	.L275:
1693:../src/lib/lpc177x_8x/Drivers/source/lpc177x_8x_mci.c ****         }
1694:../src/lib/lpc177x_8x/Drivers/source/lpc177x_8x_mci.c ****         else
1695:../src/lib/lpc177x_8x/Drivers/source/lpc177x_8x_mci.c ****         {
1696:../src/lib/lpc177x_8x/Drivers/source/lpc177x_8x_mci.c ****             CardRCA = (respValue >> RCA_RES_NEW_PUBLISHED_RCA_POS) & RCA_RES_NEW_PUBLISHED_RCA_MASK
 3396              		.loc 2 1696 0
 3397 12d4 BB69     		ldr	r3, [r7, #24]
 3398 12d6 4FEA1342 		lsr	r2, r3, #16
 3399 12da 144B     		ldr	r3, .L281+4
 3400 12dc 1A60     		str	r2, [r3, #0]
1697:../src/lib/lpc177x_8x/Drivers/source/lpc177x_8x_mci.c **** 
1698:../src/lib/lpc177x_8x/Drivers/source/lpc177x_8x_mci.c ****             CardRCA <<= RCA_ARGUMENT_POS;
 3401              		.loc 2 1698 0
 3402 12de 134B     		ldr	r3, .L281+4
 3403 12e0 1B68     		ldr	r3, [r3, #0]
 3404 12e2 4FEA0342 		lsl	r2, r3, #16
 3405 12e6 114B     		ldr	r3, .L281+4
 3406 12e8 1A60     		str	r2, [r3, #0]
1699:../src/lib/lpc177x_8x/Drivers/source/lpc177x_8x_mci.c **** 
1700:../src/lib/lpc177x_8x/Drivers/source/lpc177x_8x_mci.c ****             MCI_SetOutputMode(MCI_OUTPUT_MODE_PUSHPULL);
 3407              		.loc 2 1700 0
 3408 12ea 4FF00000 		mov	r0, #0
 3409 12ee FFF7FEFF 		bl	MCI_SetOutputMode
1701:../src/lib/lpc177x_8x/Drivers/source/lpc177x_8x_mci.c ****             
1702:../src/lib/lpc177x_8x/Drivers/source/lpc177x_8x_mci.c ****             return (MCI_FUNC_OK);    /* response is back and correct. */
 3410              		.loc 2 1702 0
 3411 12f2 4FF00003 		mov	r3, #0
 3412 12f6 12E0     		b	.L280
 3413              	.L273:
1703:../src/lib/lpc177x_8x/Drivers/source/lpc177x_8x_mci.c ****         }
1704:../src/lib/lpc177x_8x/Drivers/source/lpc177x_8x_mci.c **** 
1705:../src/lib/lpc177x_8x/Drivers/source/lpc177x_8x_mci.c ****         for ( i = 0; i < 0x20; i++ );
 3414              		.loc 2 1705 0
 3415 12f8 4FF00003 		mov	r3, #0
 3416 12fc FB61     		str	r3, [r7, #28]
 3417 12fe 03E0     		b	.L277
 3418              	.L278:
 3419              		.loc 2 1705 0 is_stmt 0 discriminator 2
 3420 1300 FB69     		ldr	r3, [r7, #28]
 3421 1302 03F10103 		add	r3, r3, #1
 3422 1306 FB61     		str	r3, [r7, #28]
 3423              	.L277:
 3424              		.loc 2 1705 0 discriminator 1
 3425 1308 FB69     		ldr	r3, [r7, #28]
 3426 130a 1F2B     		cmp	r3, #31
 3427 130c F8D9     		bls	.L278
1706:../src/lib/lpc177x_8x/Drivers/source/lpc177x_8x_mci.c **** 
1707:../src/lib/lpc177x_8x/Drivers/source/lpc177x_8x_mci.c ****         retryCount--;
 3428              		.loc 2 1707 0 is_stmt 1
 3429 130e FB6A     		ldr	r3, [r7, #44]
 3430 1310 03F1FF33 		add	r3, r3, #-1
 3431 1314 FB62     		str	r3, [r7, #44]
 3432              	.L271:
1677:../src/lib/lpc177x_8x/Drivers/source/lpc177x_8x_mci.c ****     while ( retryCount > 0 )
 3433              		.loc 2 1677 0 discriminator 1
 3434 1316 FB6A     		ldr	r3, [r7, #44]
 3435 1318 002B     		cmp	r3, #0
 3436 131a B7D1     		bne	.L279
1708:../src/lib/lpc177x_8x/Drivers/source/lpc177x_8x_mci.c ****     }
1709:../src/lib/lpc177x_8x/Drivers/source/lpc177x_8x_mci.c **** 
1710:../src/lib/lpc177x_8x/Drivers/source/lpc177x_8x_mci.c ****     return retval;
 3437              		.loc 2 1710 0
 3438 131c 7B6A     		ldr	r3, [r7, #36]
 3439              	.L280:
1711:../src/lib/lpc177x_8x/Drivers/source/lpc177x_8x_mci.c **** }
 3440              		.loc 2 1711 0
 3441 131e 1846     		mov	r0, r3
 3442 1320 07F13007 		add	r7, r7, #48
 3443 1324 BD46     		mov	sp, r7
 3444 1326 80BD     		pop	{r7, pc}
 3445              	.L282:
 3446              		.align	2
 3447              	.L281:
 3448 1328 00000000 		.word	MCI_CardType
 3449 132c 00000000 		.word	CardRCA
 3450              		.cfi_endproc
 3451              	.LFE84:
 3453              		.align	2
 3454              		.global	MCI_GetCardAddress
 3455              		.thumb
 3456              		.thumb_func
 3458              	MCI_GetCardAddress:
 3459              	.LFB85:
1712:../src/lib/lpc177x_8x/Drivers/source/lpc177x_8x_mci.c **** 
1713:../src/lib/lpc177x_8x/Drivers/source/lpc177x_8x_mci.c **** 
1714:../src/lib/lpc177x_8x/Drivers/source/lpc177x_8x_mci.c **** /************************************************************************//**
1715:../src/lib/lpc177x_8x/Drivers/source/lpc177x_8x_mci.c ****  * @brief        Get the address for the card in the slot
1716:../src/lib/lpc177x_8x/Drivers/source/lpc177x_8x_mci.c ****  *
1717:../src/lib/lpc177x_8x/Drivers/source/lpc177x_8x_mci.c ****  * @param        None
1718:../src/lib/lpc177x_8x/Drivers/source/lpc177x_8x_mci.c ****  *
1719:../src/lib/lpc177x_8x/Drivers/source/lpc177x_8x_mci.c ****  * @return       MCI_FUNC_OK if all success
1720:../src/lib/lpc177x_8x/Drivers/source/lpc177x_8x_mci.c ****  *
1721:../src/lib/lpc177x_8x/Drivers/source/lpc177x_8x_mci.c ****  * @note        This function must be called after MCI_SetCardAddress() executing
1722:../src/lib/lpc177x_8x/Drivers/source/lpc177x_8x_mci.c ****  ****************************************************************************/
1723:../src/lib/lpc177x_8x/Drivers/source/lpc177x_8x_mci.c **** uint32_t MCI_GetCardAddress(void)
1724:../src/lib/lpc177x_8x/Drivers/source/lpc177x_8x_mci.c **** {
 3460              		.loc 2 1724 0
 3461              		.cfi_startproc
 3462              		@ args = 0, pretend = 0, frame = 0
 3463              		@ frame_needed = 1, uses_anonymous_args = 0
 3464              		@ link register save eliminated.
 3465 1330 80B4     		push	{r7}
 3466              	.LCFI86:
 3467              		.cfi_def_cfa_offset 4
 3468              		.cfi_offset 7, -4
 3469 1332 00AF     		add	r7, sp, #0
 3470              	.LCFI87:
 3471              		.cfi_def_cfa_register 7
1725:../src/lib/lpc177x_8x/Drivers/source/lpc177x_8x_mci.c ****     return CardRCA;
 3472              		.loc 2 1725 0
 3473 1334 024B     		ldr	r3, .L285
 3474 1336 1B68     		ldr	r3, [r3, #0]
1726:../src/lib/lpc177x_8x/Drivers/source/lpc177x_8x_mci.c **** }
 3475              		.loc 2 1726 0
 3476 1338 1846     		mov	r0, r3
 3477 133a BD46     		mov	sp, r7
 3478 133c 80BC     		pop	{r7}
 3479 133e 7047     		bx	lr
 3480              	.L286:
 3481              		.align	2
 3482              	.L285:
 3483 1340 00000000 		.word	CardRCA
 3484              		.cfi_endproc
 3485              	.LFE85:
 3487              		.align	2
 3488              		.global	MCI_GetCSD
 3489              		.thumb
 3490              		.thumb_func
 3492              	MCI_GetCSD:
 3493              	.LFB86:
1727:../src/lib/lpc177x_8x/Drivers/source/lpc177x_8x_mci.c **** 
1728:../src/lib/lpc177x_8x/Drivers/source/lpc177x_8x_mci.c **** 
1729:../src/lib/lpc177x_8x/Drivers/source/lpc177x_8x_mci.c **** /************************************************************************//**
1730:../src/lib/lpc177x_8x/Drivers/source/lpc177x_8x_mci.c ****  * @brief       Get the Card-Specific Data of in-slot card by sending CMD9
1731:../src/lib/lpc177x_8x/Drivers/source/lpc177x_8x_mci.c ****  *                (SEND_CSD) command
1732:../src/lib/lpc177x_8x/Drivers/source/lpc177x_8x_mci.c ****  *
1733:../src/lib/lpc177x_8x/Drivers/source/lpc177x_8x_mci.c ****  * @param[out]  csdVal a buffer stored the value of CSD obtained from the card
1734:../src/lib/lpc177x_8x/Drivers/source/lpc177x_8x_mci.c ****  *
1735:../src/lib/lpc177x_8x/Drivers/source/lpc177x_8x_mci.c ****  * @return      MCI_FUNC_OK if all success
1736:../src/lib/lpc177x_8x/Drivers/source/lpc177x_8x_mci.c ****  *
1737:../src/lib/lpc177x_8x/Drivers/source/lpc177x_8x_mci.c ****  * @note        CMD9 (SEND_CSD) command should be sent only at standby state 
1738:../src/lib/lpc177x_8x/Drivers/source/lpc177x_8x_mci.c ****  *                (STBY) after CMD3
1739:../src/lib/lpc177x_8x/Drivers/source/lpc177x_8x_mci.c ****  ****************************************************************************/
1740:../src/lib/lpc177x_8x/Drivers/source/lpc177x_8x_mci.c **** int32_t MCI_GetCSD(uint32_t* csdVal)
1741:../src/lib/lpc177x_8x/Drivers/source/lpc177x_8x_mci.c **** {
 3494              		.loc 2 1741 0
 3495              		.cfi_startproc
 3496              		@ args = 0, pretend = 0, frame = 64
 3497              		@ frame_needed = 1, uses_anonymous_args = 0
 3498 1344 80B5     		push	{r7, lr}
 3499              	.LCFI88:
 3500              		.cfi_def_cfa_offset 8
 3501              		.cfi_offset 7, -8
 3502              		.cfi_offset 14, -4
 3503 1346 90B0     		sub	sp, sp, #64
 3504              	.LCFI89:
 3505              		.cfi_def_cfa_offset 72
 3506 1348 00AF     		add	r7, sp, #0
 3507              	.LCFI90:
 3508              		.cfi_def_cfa_register 7
 3509 134a 7860     		str	r0, [r7, #4]
1742:../src/lib/lpc177x_8x/Drivers/source/lpc177x_8x_mci.c ****     volatile uint32_t i;
1743:../src/lib/lpc177x_8x/Drivers/source/lpc177x_8x_mci.c ****     uint32_t retryCount;
1744:../src/lib/lpc177x_8x/Drivers/source/lpc177x_8x_mci.c ****     uint32_t respStatus;
1745:../src/lib/lpc177x_8x/Drivers/source/lpc177x_8x_mci.c ****     uint32_t respValue[4];
1746:../src/lib/lpc177x_8x/Drivers/source/lpc177x_8x_mci.c ****     uint32_t CmdArgument;
1747:../src/lib/lpc177x_8x/Drivers/source/lpc177x_8x_mci.c ****     st_Mci_CmdInfo cmdIf;
1748:../src/lib/lpc177x_8x/Drivers/source/lpc177x_8x_mci.c **** 
1749:../src/lib/lpc177x_8x/Drivers/source/lpc177x_8x_mci.c ****     if ((MCI_CardType == MCI_SDSC_V1_CARD) ||
 3510              		.loc 2 1749 0
 3511 134c 374B     		ldr	r3, .L300
 3512 134e 1B78     		ldrb	r3, [r3, #0]
 3513 1350 DBB2     		uxtb	r3, r3
 3514 1352 002B     		cmp	r3, #0
 3515 1354 0BD0     		beq	.L288
1750:../src/lib/lpc177x_8x/Drivers/source/lpc177x_8x_mci.c ****         (MCI_CardType == MCI_SDSC_V2_CARD) ||
 3516              		.loc 2 1750 0 discriminator 1
 3517 1356 354B     		ldr	r3, .L300
 3518 1358 1B78     		ldrb	r3, [r3, #0]
 3519 135a DBB2     		uxtb	r3, r3
1749:../src/lib/lpc177x_8x/Drivers/source/lpc177x_8x_mci.c ****     if ((MCI_CardType == MCI_SDSC_V1_CARD) ||
 3520              		.loc 2 1749 0 discriminator 1
 3521 135c 5BB2     		sxtb	r3, r3
 3522 135e 022B     		cmp	r3, #2
 3523 1360 05D0     		beq	.L288
1751:../src/lib/lpc177x_8x/Drivers/source/lpc177x_8x_mci.c ****         (MCI_CardType == MCI_SDHC_SDXC_CARD))
 3524              		.loc 2 1751 0
 3525 1362 324B     		ldr	r3, .L300
 3526 1364 1B78     		ldrb	r3, [r3, #0]
 3527 1366 DBB2     		uxtb	r3, r3
1750:../src/lib/lpc177x_8x/Drivers/source/lpc177x_8x_mci.c ****         (MCI_CardType == MCI_SDSC_V2_CARD) ||
 3528              		.loc 2 1750 0
 3529 1368 5BB2     		sxtb	r3, r3
 3530 136a 032B     		cmp	r3, #3
 3531 136c 03D1     		bne	.L289
 3532              	.L288:
1752:../src/lib/lpc177x_8x/Drivers/source/lpc177x_8x_mci.c ****     {
1753:../src/lib/lpc177x_8x/Drivers/source/lpc177x_8x_mci.c ****         CmdArgument = CardRCA;
 3533              		.loc 2 1753 0
 3534 136e 304B     		ldr	r3, .L300+4
 3535 1370 1B68     		ldr	r3, [r3, #0]
 3536 1372 BB63     		str	r3, [r7, #56]
 3537 1374 02E0     		b	.L290
 3538              	.L289:
1754:../src/lib/lpc177x_8x/Drivers/source/lpc177x_8x_mci.c ****     }
1755:../src/lib/lpc177x_8x/Drivers/source/lpc177x_8x_mci.c ****     else            /* if MMC or unknown card type, use default RCA addr. */
1756:../src/lib/lpc177x_8x/Drivers/source/lpc177x_8x_mci.c ****     {
1757:../src/lib/lpc177x_8x/Drivers/source/lpc177x_8x_mci.c ****         CmdArgument = 0x00010000;
 3539              		.loc 2 1757 0
 3540 1376 4FF48033 		mov	r3, #65536
 3541 137a BB63     		str	r3, [r7, #56]
 3542              	.L290:
1758:../src/lib/lpc177x_8x/Drivers/source/lpc177x_8x_mci.c ****     }
1759:../src/lib/lpc177x_8x/Drivers/source/lpc177x_8x_mci.c **** 
1760:../src/lib/lpc177x_8x/Drivers/source/lpc177x_8x_mci.c ****     retryCount = 0x20;
 3543              		.loc 2 1760 0
 3544 137c 4FF02003 		mov	r3, #32
 3545 1380 FB63     		str	r3, [r7, #60]
1761:../src/lib/lpc177x_8x/Drivers/source/lpc177x_8x_mci.c ****     cmdIf.CmdIndex = CMD9_SEND_CSD;
 3546              		.loc 2 1761 0
 3547 1382 4FF00903 		mov	r3, #9
 3548 1386 FB60     		str	r3, [r7, #12]
1762:../src/lib/lpc177x_8x/Drivers/source/lpc177x_8x_mci.c ****     cmdIf.Argument = CmdArgument;
 3549              		.loc 2 1762 0
 3550 1388 BB6B     		ldr	r3, [r7, #56]
 3551 138a 3B61     		str	r3, [r7, #16]
1763:../src/lib/lpc177x_8x/Drivers/source/lpc177x_8x_mci.c ****     cmdIf.ExpectResp = EXPECT_LONG_RESP;
 3552              		.loc 2 1763 0
 3553 138c 4FF00203 		mov	r3, #2
 3554 1390 7B61     		str	r3, [r7, #20]
1764:../src/lib/lpc177x_8x/Drivers/source/lpc177x_8x_mci.c ****     cmdIf.AllowTimeout = ALLOW_CMD_TIMER;
 3555              		.loc 2 1764 0
 3556 1392 4FF00103 		mov	r3, #1
 3557 1396 BB61     		str	r3, [r7, #24]
1765:../src/lib/lpc177x_8x/Drivers/source/lpc177x_8x_mci.c ****     cmdIf.CmdResp = (uint32_t *)&respValue[0];
 3558              		.loc 2 1765 0
 3559 1398 07F12003 		add	r3, r7, #32
 3560 139c FB61     		str	r3, [r7, #28]
1766:../src/lib/lpc177x_8x/Drivers/source/lpc177x_8x_mci.c ****     while ( retryCount > 0 )
 3561              		.loc 2 1766 0
 3562 139e 3AE0     		b	.L291
 3563              	.L298:
1767:../src/lib/lpc177x_8x/Drivers/source/lpc177x_8x_mci.c ****     {
1768:../src/lib/lpc177x_8x/Drivers/source/lpc177x_8x_mci.c ****          /* Check current status */
1769:../src/lib/lpc177x_8x/Drivers/source/lpc177x_8x_mci.c ****        if(((MCI_CheckStatus(CARD_STATE_STBY) != MCI_FUNC_OK)))
 3564              		.loc 2 1769 0
 3565 13a0 4FF00300 		mov	r0, #3
 3566 13a4 FFF7FEFF 		bl	MCI_CheckStatus
 3567 13a8 0346     		mov	r3, r0
 3568 13aa 002B     		cmp	r3, #0
 3569 13ac 02D0     		beq	.L292
1770:../src/lib/lpc177x_8x/Drivers/source/lpc177x_8x_mci.c ****             return MCI_FUNC_ERR_STATE;
 3570              		.loc 2 1770 0
 3571 13ae 6FF00303 		mvn	r3, #3
 3572 13b2 35E0     		b	.L299
 3573              	.L292:
1771:../src/lib/lpc177x_8x/Drivers/source/lpc177x_8x_mci.c **** 
1772:../src/lib/lpc177x_8x/Drivers/source/lpc177x_8x_mci.c ****         respStatus = MCI_CmdResp(&cmdIf);
 3574              		.loc 2 1772 0
 3575 13b4 07F10C03 		add	r3, r7, #12
 3576 13b8 1846     		mov	r0, r3
 3577 13ba FFF7FEFF 		bl	MCI_CmdResp
 3578 13be 0346     		mov	r3, r0
 3579 13c0 7B63     		str	r3, [r7, #52]
1773:../src/lib/lpc177x_8x/Drivers/source/lpc177x_8x_mci.c **** 
1774:../src/lib/lpc177x_8x/Drivers/source/lpc177x_8x_mci.c ****         if ( !respStatus )
 3580              		.loc 2 1774 0
 3581 13c2 7B6B     		ldr	r3, [r7, #52]
 3582 13c4 002B     		cmp	r3, #0
 3583 13c6 17D1     		bne	.L294
1775:../src/lib/lpc177x_8x/Drivers/source/lpc177x_8x_mci.c ****         {
1776:../src/lib/lpc177x_8x/Drivers/source/lpc177x_8x_mci.c ****             if(csdVal != NULL)
 3584              		.loc 2 1776 0
 3585 13c8 7B68     		ldr	r3, [r7, #4]
 3586 13ca 002B     		cmp	r3, #0
 3587 13cc 11D0     		beq	.L295
1777:../src/lib/lpc177x_8x/Drivers/source/lpc177x_8x_mci.c ****             {
1778:../src/lib/lpc177x_8x/Drivers/source/lpc177x_8x_mci.c ****                 csdVal[0] = respValue[0];
 3588              		.loc 2 1778 0
 3589 13ce 3A6A     		ldr	r2, [r7, #32]
 3590 13d0 7B68     		ldr	r3, [r7, #4]
 3591 13d2 1A60     		str	r2, [r3, #0]
1779:../src/lib/lpc177x_8x/Drivers/source/lpc177x_8x_mci.c ****                 csdVal[1] = respValue[1];
 3592              		.loc 2 1779 0
 3593 13d4 7B68     		ldr	r3, [r7, #4]
 3594 13d6 03F10403 		add	r3, r3, #4
 3595 13da 7A6A     		ldr	r2, [r7, #36]
 3596 13dc 1A60     		str	r2, [r3, #0]
1780:../src/lib/lpc177x_8x/Drivers/source/lpc177x_8x_mci.c ****                 csdVal[2] = respValue[2];
 3597              		.loc 2 1780 0
 3598 13de 7B68     		ldr	r3, [r7, #4]
 3599 13e0 03F10803 		add	r3, r3, #8
 3600 13e4 BA6A     		ldr	r2, [r7, #40]
 3601 13e6 1A60     		str	r2, [r3, #0]
1781:../src/lib/lpc177x_8x/Drivers/source/lpc177x_8x_mci.c ****                 csdVal[3] = respValue[3];
 3602              		.loc 2 1781 0
 3603 13e8 7B68     		ldr	r3, [r7, #4]
 3604 13ea 03F10C03 		add	r3, r3, #12
 3605 13ee FA6A     		ldr	r2, [r7, #44]
 3606 13f0 1A60     		str	r2, [r3, #0]
 3607              	.L295:
1782:../src/lib/lpc177x_8x/Drivers/source/lpc177x_8x_mci.c ****             }
1783:../src/lib/lpc177x_8x/Drivers/source/lpc177x_8x_mci.c **** 
1784:../src/lib/lpc177x_8x/Drivers/source/lpc177x_8x_mci.c ****             return (MCI_FUNC_OK);
 3608              		.loc 2 1784 0
 3609 13f2 4FF00003 		mov	r3, #0
 3610 13f6 13E0     		b	.L299
 3611              	.L294:
1785:../src/lib/lpc177x_8x/Drivers/source/lpc177x_8x_mci.c ****         }
1786:../src/lib/lpc177x_8x/Drivers/source/lpc177x_8x_mci.c **** 
1787:../src/lib/lpc177x_8x/Drivers/source/lpc177x_8x_mci.c ****         for ( i = 0; i < 0x20; i++ );
 3612              		.loc 2 1787 0
 3613 13f8 4FF00003 		mov	r3, #0
 3614 13fc 3B63     		str	r3, [r7, #48]
 3615 13fe 03E0     		b	.L296
 3616              	.L297:
 3617              		.loc 2 1787 0 is_stmt 0 discriminator 2
 3618 1400 3B6B     		ldr	r3, [r7, #48]
 3619 1402 03F10103 		add	r3, r3, #1
 3620 1406 3B63     		str	r3, [r7, #48]
 3621              	.L296:
 3622              		.loc 2 1787 0 discriminator 1
 3623 1408 3B6B     		ldr	r3, [r7, #48]
 3624 140a 1F2B     		cmp	r3, #31
 3625 140c F8D9     		bls	.L297
1788:../src/lib/lpc177x_8x/Drivers/source/lpc177x_8x_mci.c **** 
1789:../src/lib/lpc177x_8x/Drivers/source/lpc177x_8x_mci.c ****         retryCount--;
 3626              		.loc 2 1789 0 is_stmt 1
 3627 140e FB6B     		ldr	r3, [r7, #60]
 3628 1410 03F1FF33 		add	r3, r3, #-1
 3629 1414 FB63     		str	r3, [r7, #60]
 3630              	.L291:
1766:../src/lib/lpc177x_8x/Drivers/source/lpc177x_8x_mci.c ****     while ( retryCount > 0 )
 3631              		.loc 2 1766 0 discriminator 1
 3632 1416 FB6B     		ldr	r3, [r7, #60]
 3633 1418 002B     		cmp	r3, #0
 3634 141a C1D1     		bne	.L298
1790:../src/lib/lpc177x_8x/Drivers/source/lpc177x_8x_mci.c ****     }
1791:../src/lib/lpc177x_8x/Drivers/source/lpc177x_8x_mci.c **** 
1792:../src/lib/lpc177x_8x/Drivers/source/lpc177x_8x_mci.c ****     return (MCI_FUNC_FAILED);
 3635              		.loc 2 1792 0
 3636 141c 4FF0FF33 		mov	r3, #-1
 3637              	.L299:
1793:../src/lib/lpc177x_8x/Drivers/source/lpc177x_8x_mci.c **** }
 3638              		.loc 2 1793 0
 3639 1420 1846     		mov	r0, r3
 3640 1422 07F14007 		add	r7, r7, #64
 3641 1426 BD46     		mov	sp, r7
 3642 1428 80BD     		pop	{r7, pc}
 3643              	.L301:
 3644 142a 00BF     		.align	2
 3645              	.L300:
 3646 142c 00000000 		.word	MCI_CardType
 3647 1430 00000000 		.word	CardRCA
 3648              		.cfi_endproc
 3649              	.LFE86:
 3651              		.align	2
 3652              		.global	MCI_Cmd_SelectCard
 3653              		.thumb
 3654              		.thumb_func
 3656              	MCI_Cmd_SelectCard:
 3657              	.LFB87:
1794:../src/lib/lpc177x_8x/Drivers/source/lpc177x_8x_mci.c **** 
1795:../src/lib/lpc177x_8x/Drivers/source/lpc177x_8x_mci.c **** 
1796:../src/lib/lpc177x_8x/Drivers/source/lpc177x_8x_mci.c **** /************************************************************************//**
1797:../src/lib/lpc177x_8x/Drivers/source/lpc177x_8x_mci.c ****  * @brief       Select the card by the specified address. This is done by sending
1798:../src/lib/lpc177x_8x/Drivers/source/lpc177x_8x_mci.c ****  *              out the CMD7 with the address argument to needed card
1799:../src/lib/lpc177x_8x/Drivers/source/lpc177x_8x_mci.c ****  *
1800:../src/lib/lpc177x_8x/Drivers/source/lpc177x_8x_mci.c ****  * @param       None
1801:../src/lib/lpc177x_8x/Drivers/source/lpc177x_8x_mci.c ****  *
1802:../src/lib/lpc177x_8x/Drivers/source/lpc177x_8x_mci.c ****  * @return      MCI_FUNC_OK if all success
1803:../src/lib/lpc177x_8x/Drivers/source/lpc177x_8x_mci.c ****  *
1804:../src/lib/lpc177x_8x/Drivers/source/lpc177x_8x_mci.c ****  * @note        CMD7 (SELECT_CARD) command should be sent after CMD9 ((SEND_CSD).
1805:../src/lib/lpc177x_8x/Drivers/source/lpc177x_8x_mci.c ****  *                The state will be inter-changed between STBY to TRANS by this 
1806:../src/lib/lpc177x_8x/Drivers/source/lpc177x_8x_mci.c ****  *                CMD7 command
1807:../src/lib/lpc177x_8x/Drivers/source/lpc177x_8x_mci.c ****  ****************************************************************************/
1808:../src/lib/lpc177x_8x/Drivers/source/lpc177x_8x_mci.c **** int32_t MCI_Cmd_SelectCard( void )
1809:../src/lib/lpc177x_8x/Drivers/source/lpc177x_8x_mci.c **** {
 3658              		.loc 2 1809 0
 3659              		.cfi_startproc
 3660              		@ args = 0, pretend = 0, frame = 56
 3661              		@ frame_needed = 1, uses_anonymous_args = 0
 3662 1434 80B5     		push	{r7, lr}
 3663              	.LCFI91:
 3664              		.cfi_def_cfa_offset 8
 3665              		.cfi_offset 7, -8
 3666              		.cfi_offset 14, -4
 3667 1436 8EB0     		sub	sp, sp, #56
 3668              	.LCFI92:
 3669              		.cfi_def_cfa_offset 64
 3670 1438 00AF     		add	r7, sp, #0
 3671              	.LCFI93:
 3672              		.cfi_def_cfa_register 7
1810:../src/lib/lpc177x_8x/Drivers/source/lpc177x_8x_mci.c ****     volatile uint32_t i;
1811:../src/lib/lpc177x_8x/Drivers/source/lpc177x_8x_mci.c ****     uint32_t retryCount;
1812:../src/lib/lpc177x_8x/Drivers/source/lpc177x_8x_mci.c ****     uint32_t respStatus;
1813:../src/lib/lpc177x_8x/Drivers/source/lpc177x_8x_mci.c ****     uint32_t respValue[4];
1814:../src/lib/lpc177x_8x/Drivers/source/lpc177x_8x_mci.c ****     uint32_t CmdArgument;
1815:../src/lib/lpc177x_8x/Drivers/source/lpc177x_8x_mci.c ****     st_Mci_CmdInfo cmdIf;
1816:../src/lib/lpc177x_8x/Drivers/source/lpc177x_8x_mci.c ****     int32_t retval = MCI_FUNC_FAILED;
 3673              		.loc 2 1816 0
 3674 143a 4FF0FF33 		mov	r3, #-1
 3675 143e FB62     		str	r3, [r7, #44]
1817:../src/lib/lpc177x_8x/Drivers/source/lpc177x_8x_mci.c **** 
1818:../src/lib/lpc177x_8x/Drivers/source/lpc177x_8x_mci.c ****     if ((MCI_CardType == MCI_SDSC_V1_CARD) ||
 3676              		.loc 2 1818 0
 3677 1440 4E4B     		ldr	r3, .L316
 3678 1442 1B78     		ldrb	r3, [r3, #0]
 3679 1444 DBB2     		uxtb	r3, r3
 3680 1446 002B     		cmp	r3, #0
 3681 1448 0BD0     		beq	.L303
1819:../src/lib/lpc177x_8x/Drivers/source/lpc177x_8x_mci.c ****             (MCI_CardType == MCI_SDSC_V2_CARD) ||
 3682              		.loc 2 1819 0 discriminator 1
 3683 144a 4C4B     		ldr	r3, .L316
 3684 144c 1B78     		ldrb	r3, [r3, #0]
 3685 144e DBB2     		uxtb	r3, r3
1818:../src/lib/lpc177x_8x/Drivers/source/lpc177x_8x_mci.c ****     if ((MCI_CardType == MCI_SDSC_V1_CARD) ||
 3686              		.loc 2 1818 0 discriminator 1
 3687 1450 5BB2     		sxtb	r3, r3
 3688 1452 022B     		cmp	r3, #2
 3689 1454 05D0     		beq	.L303
1820:../src/lib/lpc177x_8x/Drivers/source/lpc177x_8x_mci.c ****             (MCI_CardType == MCI_SDHC_SDXC_CARD)) 
 3690              		.loc 2 1820 0
 3691 1456 494B     		ldr	r3, .L316
 3692 1458 1B78     		ldrb	r3, [r3, #0]
 3693 145a DBB2     		uxtb	r3, r3
1819:../src/lib/lpc177x_8x/Drivers/source/lpc177x_8x_mci.c ****             (MCI_CardType == MCI_SDSC_V2_CARD) ||
 3694              		.loc 2 1819 0
 3695 145c 5BB2     		sxtb	r3, r3
 3696 145e 032B     		cmp	r3, #3
 3697 1460 03D1     		bne	.L304
 3698              	.L303:
1821:../src/lib/lpc177x_8x/Drivers/source/lpc177x_8x_mci.c ****     {
1822:../src/lib/lpc177x_8x/Drivers/source/lpc177x_8x_mci.c ****         CmdArgument = CardRCA;
 3699              		.loc 2 1822 0
 3700 1462 474B     		ldr	r3, .L316+4
 3701 1464 1B68     		ldr	r3, [r3, #0]
 3702 1466 3B63     		str	r3, [r7, #48]
 3703 1468 02E0     		b	.L305
 3704              	.L304:
1823:../src/lib/lpc177x_8x/Drivers/source/lpc177x_8x_mci.c ****     }
1824:../src/lib/lpc177x_8x/Drivers/source/lpc177x_8x_mci.c ****     else            /* if MMC or unknown card type, use default RCA addr. */
1825:../src/lib/lpc177x_8x/Drivers/source/lpc177x_8x_mci.c ****     {
1826:../src/lib/lpc177x_8x/Drivers/source/lpc177x_8x_mci.c ****         CmdArgument = 0x00010000;
 3705              		.loc 2 1826 0
 3706 146a 4FF48033 		mov	r3, #65536
 3707 146e 3B63     		str	r3, [r7, #48]
 3708              	.L305:
1827:../src/lib/lpc177x_8x/Drivers/source/lpc177x_8x_mci.c ****     }
1828:../src/lib/lpc177x_8x/Drivers/source/lpc177x_8x_mci.c **** 
1829:../src/lib/lpc177x_8x/Drivers/source/lpc177x_8x_mci.c ****     retryCount = 0x20;
 3709              		.loc 2 1829 0
 3710 1470 4FF02003 		mov	r3, #32
 3711 1474 7B63     		str	r3, [r7, #52]
1830:../src/lib/lpc177x_8x/Drivers/source/lpc177x_8x_mci.c ****     cmdIf.CmdIndex = CMD7_SELECT_CARD;
 3712              		.loc 2 1830 0
 3713 1476 4FF00703 		mov	r3, #7
 3714 147a 3B60     		str	r3, [r7, #0]
1831:../src/lib/lpc177x_8x/Drivers/source/lpc177x_8x_mci.c ****     cmdIf.Argument = CmdArgument;
 3715              		.loc 2 1831 0
 3716 147c 3B6B     		ldr	r3, [r7, #48]
 3717 147e 7B60     		str	r3, [r7, #4]
1832:../src/lib/lpc177x_8x/Drivers/source/lpc177x_8x_mci.c ****     cmdIf.ExpectResp = EXPECT_SHORT_RESP;
 3718              		.loc 2 1832 0
 3719 1480 4FF00103 		mov	r3, #1
 3720 1484 BB60     		str	r3, [r7, #8]
1833:../src/lib/lpc177x_8x/Drivers/source/lpc177x_8x_mci.c ****     cmdIf.AllowTimeout = ALLOW_CMD_TIMER;
 3721              		.loc 2 1833 0
 3722 1486 4FF00103 		mov	r3, #1
 3723 148a FB60     		str	r3, [r7, #12]
1834:../src/lib/lpc177x_8x/Drivers/source/lpc177x_8x_mci.c ****     cmdIf.CmdResp =  (uint32_t *)&respValue[0];
 3724              		.loc 2 1834 0
 3725 148c 07F11403 		add	r3, r7, #20
 3726 1490 3B61     		str	r3, [r7, #16]
1835:../src/lib/lpc177x_8x/Drivers/source/lpc177x_8x_mci.c ****     while ( retryCount > 0 )
 3727              		.loc 2 1835 0
 3728 1492 6AE0     		b	.L306
 3729              	.L314:
1836:../src/lib/lpc177x_8x/Drivers/source/lpc177x_8x_mci.c ****     {
1837:../src/lib/lpc177x_8x/Drivers/source/lpc177x_8x_mci.c ****          /* Check current status */
1838:../src/lib/lpc177x_8x/Drivers/source/lpc177x_8x_mci.c ****        if(((MCI_CheckStatus(CARD_STATE_STBY) != MCI_FUNC_OK)) &&
 3730              		.loc 2 1838 0
 3731 1494 4FF00300 		mov	r0, #3
 3732 1498 FFF7FEFF 		bl	MCI_CheckStatus
 3733 149c 0346     		mov	r3, r0
 3734 149e 002B     		cmp	r3, #0
 3735 14a0 1ED0     		beq	.L307
1839:../src/lib/lpc177x_8x/Drivers/source/lpc177x_8x_mci.c ****             (MCI_CheckStatus(CARD_STATE_TRAN) != MCI_FUNC_OK) &&
 3736              		.loc 2 1839 0 discriminator 1
 3737 14a2 4FF00400 		mov	r0, #4
 3738 14a6 FFF7FEFF 		bl	MCI_CheckStatus
 3739 14aa 0346     		mov	r3, r0
1838:../src/lib/lpc177x_8x/Drivers/source/lpc177x_8x_mci.c ****        if(((MCI_CheckStatus(CARD_STATE_STBY) != MCI_FUNC_OK)) &&
 3740              		.loc 2 1838 0 discriminator 1
 3741 14ac 002B     		cmp	r3, #0
 3742 14ae 17D0     		beq	.L307
1840:../src/lib/lpc177x_8x/Drivers/source/lpc177x_8x_mci.c ****             (MCI_CheckStatus(CARD_STATE_DATA) != MCI_FUNC_OK) &&
 3743              		.loc 2 1840 0
 3744 14b0 4FF00500 		mov	r0, #5
 3745 14b4 FFF7FEFF 		bl	MCI_CheckStatus
 3746 14b8 0346     		mov	r3, r0
1839:../src/lib/lpc177x_8x/Drivers/source/lpc177x_8x_mci.c ****             (MCI_CheckStatus(CARD_STATE_TRAN) != MCI_FUNC_OK) &&
 3747              		.loc 2 1839 0
 3748 14ba 002B     		cmp	r3, #0
 3749 14bc 10D0     		beq	.L307
1841:../src/lib/lpc177x_8x/Drivers/source/lpc177x_8x_mci.c ****             (MCI_CheckStatus(CARD_STATE_PRG) != MCI_FUNC_OK) &&
 3750              		.loc 2 1841 0
 3751 14be 4FF00700 		mov	r0, #7
 3752 14c2 FFF7FEFF 		bl	MCI_CheckStatus
 3753 14c6 0346     		mov	r3, r0
1840:../src/lib/lpc177x_8x/Drivers/source/lpc177x_8x_mci.c ****             (MCI_CheckStatus(CARD_STATE_DATA) != MCI_FUNC_OK) &&
 3754              		.loc 2 1840 0
 3755 14c8 002B     		cmp	r3, #0
 3756 14ca 09D0     		beq	.L307
1842:../src/lib/lpc177x_8x/Drivers/source/lpc177x_8x_mci.c ****             (MCI_CheckStatus(CARD_STATE_DIS) != MCI_FUNC_OK))
 3757              		.loc 2 1842 0
 3758 14cc 4FF00800 		mov	r0, #8
 3759 14d0 FFF7FEFF 		bl	MCI_CheckStatus
 3760 14d4 0346     		mov	r3, r0
1841:../src/lib/lpc177x_8x/Drivers/source/lpc177x_8x_mci.c ****             (MCI_CheckStatus(CARD_STATE_PRG) != MCI_FUNC_OK) &&
 3761              		.loc 2 1841 0
 3762 14d6 002B     		cmp	r3, #0
 3763 14d8 02D0     		beq	.L307
1843:../src/lib/lpc177x_8x/Drivers/source/lpc177x_8x_mci.c ****             return MCI_FUNC_ERR_STATE;
 3764              		.loc 2 1843 0
 3765 14da 6FF00303 		mvn	r3, #3
 3766 14de 48E0     		b	.L315
 3767              	.L307:
1844:../src/lib/lpc177x_8x/Drivers/source/lpc177x_8x_mci.c **** 
1845:../src/lib/lpc177x_8x/Drivers/source/lpc177x_8x_mci.c ****         respStatus = MCI_CmdResp(&cmdIf);
 3768              		.loc 2 1845 0
 3769 14e0 3B46     		mov	r3, r7
 3770 14e2 1846     		mov	r0, r3
 3771 14e4 FFF7FEFF 		bl	MCI_CmdResp
 3772 14e8 0346     		mov	r3, r0
 3773 14ea BB62     		str	r3, [r7, #40]
1846:../src/lib/lpc177x_8x/Drivers/source/lpc177x_8x_mci.c **** 
1847:../src/lib/lpc177x_8x/Drivers/source/lpc177x_8x_mci.c ****         if(respStatus)
 3774              		.loc 2 1847 0
 3775 14ec BB6A     		ldr	r3, [r7, #40]
 3776 14ee 002B     		cmp	r3, #0
 3777 14f0 06D0     		beq	.L309
1848:../src/lib/lpc177x_8x/Drivers/source/lpc177x_8x_mci.c ****         {
1849:../src/lib/lpc177x_8x/Drivers/source/lpc177x_8x_mci.c ****             retval = MCI_FUNC_FAILED;
 3778              		.loc 2 1849 0
 3779 14f2 4FF0FF33 		mov	r3, #-1
 3780 14f6 FB62     		str	r3, [r7, #44]
1850:../src/lib/lpc177x_8x/Drivers/source/lpc177x_8x_mci.c ****         }
1851:../src/lib/lpc177x_8x/Drivers/source/lpc177x_8x_mci.c ****         else if (respValue[0] & CARD_STATUS_ERR_MASK)
1852:../src/lib/lpc177x_8x/Drivers/source/lpc177x_8x_mci.c ****         {
1853:../src/lib/lpc177x_8x/Drivers/source/lpc177x_8x_mci.c ****             return MCI_FUNC_BAD_PARAMETERS;
1854:../src/lib/lpc177x_8x/Drivers/source/lpc177x_8x_mci.c ****         }
1855:../src/lib/lpc177x_8x/Drivers/source/lpc177x_8x_mci.c ****         else
1856:../src/lib/lpc177x_8x/Drivers/source/lpc177x_8x_mci.c ****         {
1857:../src/lib/lpc177x_8x/Drivers/source/lpc177x_8x_mci.c ****             if(((MCI_CheckStatus(CARD_STATE_STBY) != MCI_FUNC_OK)) &&
1858:../src/lib/lpc177x_8x/Drivers/source/lpc177x_8x_mci.c ****                 (MCI_CheckStatus(CARD_STATE_TRAN) != MCI_FUNC_OK) &&
1859:../src/lib/lpc177x_8x/Drivers/source/lpc177x_8x_mci.c ****                 (MCI_CheckStatus(CARD_STATE_PRG) != MCI_FUNC_OK) &&
1860:../src/lib/lpc177x_8x/Drivers/source/lpc177x_8x_mci.c ****                 (MCI_CheckStatus(CARD_STATE_DIS) != MCI_FUNC_OK))
1861:../src/lib/lpc177x_8x/Drivers/source/lpc177x_8x_mci.c ****                 return MCI_FUNC_ERR_STATE;
1862:../src/lib/lpc177x_8x/Drivers/source/lpc177x_8x_mci.c ****             return MCI_FUNC_OK;
1863:../src/lib/lpc177x_8x/Drivers/source/lpc177x_8x_mci.c ****         }
1864:../src/lib/lpc177x_8x/Drivers/source/lpc177x_8x_mci.c **** 
1865:../src/lib/lpc177x_8x/Drivers/source/lpc177x_8x_mci.c ****         for ( i = 0; i < 0x20; i++ );
 3781              		.loc 2 1865 0
 3782 14f8 4FF00003 		mov	r3, #0
 3783 14fc 7B62     		str	r3, [r7, #36]
 3784 14fe 2DE0     		b	.L310
 3785              	.L309:
1851:../src/lib/lpc177x_8x/Drivers/source/lpc177x_8x_mci.c ****         else if (respValue[0] & CARD_STATUS_ERR_MASK)
 3786              		.loc 2 1851 0
 3787 1500 7A69     		ldr	r2, [r7, #20]
 3788 1502 204B     		ldr	r3, .L316+8
 3789 1504 1340     		ands	r3, r3, r2
 3790 1506 002B     		cmp	r3, #0
 3791 1508 02D0     		beq	.L311
1853:../src/lib/lpc177x_8x/Drivers/source/lpc177x_8x_mci.c ****             return MCI_FUNC_BAD_PARAMETERS;
 3792              		.loc 2 1853 0
 3793 150a 6FF00103 		mvn	r3, #1
 3794 150e 30E0     		b	.L315
 3795              	.L311:
1857:../src/lib/lpc177x_8x/Drivers/source/lpc177x_8x_mci.c ****             if(((MCI_CheckStatus(CARD_STATE_STBY) != MCI_FUNC_OK)) &&
 3796              		.loc 2 1857 0
 3797 1510 4FF00300 		mov	r0, #3
 3798 1514 FFF7FEFF 		bl	MCI_CheckStatus
 3799 1518 0346     		mov	r3, r0
 3800 151a 002B     		cmp	r3, #0
 3801 151c 17D0     		beq	.L312
1858:../src/lib/lpc177x_8x/Drivers/source/lpc177x_8x_mci.c ****                 (MCI_CheckStatus(CARD_STATE_TRAN) != MCI_FUNC_OK) &&
 3802              		.loc 2 1858 0 discriminator 1
 3803 151e 4FF00400 		mov	r0, #4
 3804 1522 FFF7FEFF 		bl	MCI_CheckStatus
 3805 1526 0346     		mov	r3, r0
1857:../src/lib/lpc177x_8x/Drivers/source/lpc177x_8x_mci.c ****             if(((MCI_CheckStatus(CARD_STATE_STBY) != MCI_FUNC_OK)) &&
 3806              		.loc 2 1857 0 discriminator 1
 3807 1528 002B     		cmp	r3, #0
 3808 152a 10D0     		beq	.L312
1859:../src/lib/lpc177x_8x/Drivers/source/lpc177x_8x_mci.c ****                 (MCI_CheckStatus(CARD_STATE_PRG) != MCI_FUNC_OK) &&
 3809              		.loc 2 1859 0
 3810 152c 4FF00700 		mov	r0, #7
 3811 1530 FFF7FEFF 		bl	MCI_CheckStatus
 3812 1534 0346     		mov	r3, r0
1858:../src/lib/lpc177x_8x/Drivers/source/lpc177x_8x_mci.c ****                 (MCI_CheckStatus(CARD_STATE_TRAN) != MCI_FUNC_OK) &&
 3813              		.loc 2 1858 0
 3814 1536 002B     		cmp	r3, #0
 3815 1538 09D0     		beq	.L312
1860:../src/lib/lpc177x_8x/Drivers/source/lpc177x_8x_mci.c ****                 (MCI_CheckStatus(CARD_STATE_DIS) != MCI_FUNC_OK))
 3816              		.loc 2 1860 0
 3817 153a 4FF00800 		mov	r0, #8
 3818 153e FFF7FEFF 		bl	MCI_CheckStatus
 3819 1542 0346     		mov	r3, r0
1859:../src/lib/lpc177x_8x/Drivers/source/lpc177x_8x_mci.c ****                 (MCI_CheckStatus(CARD_STATE_PRG) != MCI_FUNC_OK) &&
 3820              		.loc 2 1859 0
 3821 1544 002B     		cmp	r3, #0
 3822 1546 02D0     		beq	.L312
1861:../src/lib/lpc177x_8x/Drivers/source/lpc177x_8x_mci.c ****                 return MCI_FUNC_ERR_STATE;
 3823              		.loc 2 1861 0
 3824 1548 6FF00303 		mvn	r3, #3
 3825 154c 11E0     		b	.L315
 3826              	.L312:
1862:../src/lib/lpc177x_8x/Drivers/source/lpc177x_8x_mci.c ****             return MCI_FUNC_OK;
 3827              		.loc 2 1862 0
 3828 154e 4FF00003 		mov	r3, #0
 3829 1552 0EE0     		b	.L315
 3830              	.L313:
 3831              		.loc 2 1865 0 discriminator 2
 3832 1554 7B6A     		ldr	r3, [r7, #36]
 3833 1556 03F10103 		add	r3, r3, #1
 3834 155a 7B62     		str	r3, [r7, #36]
 3835              	.L310:
 3836              		.loc 2 1865 0 is_stmt 0 discriminator 1
 3837 155c 7B6A     		ldr	r3, [r7, #36]
 3838 155e 1F2B     		cmp	r3, #31
 3839 1560 F8D9     		bls	.L313
1866:../src/lib/lpc177x_8x/Drivers/source/lpc177x_8x_mci.c **** 
1867:../src/lib/lpc177x_8x/Drivers/source/lpc177x_8x_mci.c ****         retryCount--;
 3840              		.loc 2 1867 0 is_stmt 1
 3841 1562 7B6B     		ldr	r3, [r7, #52]
 3842 1564 03F1FF33 		add	r3, r3, #-1
 3843 1568 7B63     		str	r3, [r7, #52]
 3844              	.L306:
1835:../src/lib/lpc177x_8x/Drivers/source/lpc177x_8x_mci.c ****     while ( retryCount > 0 )
 3845              		.loc 2 1835 0 discriminator 1
 3846 156a 7B6B     		ldr	r3, [r7, #52]
 3847 156c 002B     		cmp	r3, #0
 3848 156e 91D1     		bne	.L314
1868:../src/lib/lpc177x_8x/Drivers/source/lpc177x_8x_mci.c ****     }
1869:../src/lib/lpc177x_8x/Drivers/source/lpc177x_8x_mci.c **** 
1870:../src/lib/lpc177x_8x/Drivers/source/lpc177x_8x_mci.c ****     return retval;
 3849              		.loc 2 1870 0
 3850 1570 FB6A     		ldr	r3, [r7, #44]
 3851              	.L315:
1871:../src/lib/lpc177x_8x/Drivers/source/lpc177x_8x_mci.c **** }
 3852              		.loc 2 1871 0
 3853 1572 1846     		mov	r0, r3
 3854 1574 07F13807 		add	r7, r7, #56
 3855 1578 BD46     		mov	sp, r7
 3856 157a 80BD     		pop	{r7, pc}
 3857              	.L317:
 3858              		.align	2
 3859              	.L316:
 3860 157c 00000000 		.word	MCI_CardType
 3861 1580 00000000 		.word	CardRCA
 3862 1584 0880F8FD 		.word	-34045944
 3863              		.cfi_endproc
 3864              	.LFE87:
 3866              		.align	2
 3867              		.global	MCI_GetCardStatus
 3868              		.thumb
 3869              		.thumb_func
 3871              	MCI_GetCardStatus:
 3872              	.LFB88:
1872:../src/lib/lpc177x_8x/Drivers/source/lpc177x_8x_mci.c **** 
1873:../src/lib/lpc177x_8x/Drivers/source/lpc177x_8x_mci.c **** 
1874:../src/lib/lpc177x_8x/Drivers/source/lpc177x_8x_mci.c **** /************************************************************************//**
1875:../src/lib/lpc177x_8x/Drivers/source/lpc177x_8x_mci.c ****  * @brief         Get the status of the card. The return is from the card.
1876:../src/lib/lpc177x_8x/Drivers/source/lpc177x_8x_mci.c ****  *                By sending CMD13 (SEND_STATUS), the status of the card
1877:../src/lib/lpc177x_8x/Drivers/source/lpc177x_8x_mci.c ****  *                will be responded from card addressed
1878:../src/lib/lpc177x_8x/Drivers/source/lpc177x_8x_mci.c ****  *
1879:../src/lib/lpc177x_8x/Drivers/source/lpc177x_8x_mci.c ****  * @param[out]    cardStatus the status returned from the card
1880:../src/lib/lpc177x_8x/Drivers/source/lpc177x_8x_mci.c ****  *
1881:../src/lib/lpc177x_8x/Drivers/source/lpc177x_8x_mci.c ****  * @return        MCI_FUNC_OK if all success
1882:../src/lib/lpc177x_8x/Drivers/source/lpc177x_8x_mci.c ****  ****************************************************************************/
1883:../src/lib/lpc177x_8x/Drivers/source/lpc177x_8x_mci.c **** int32_t MCI_GetCardStatus(int32_t* cardStatus)
1884:../src/lib/lpc177x_8x/Drivers/source/lpc177x_8x_mci.c **** {
 3873              		.loc 2 1884 0
 3874              		.cfi_startproc
 3875              		@ args = 0, pretend = 0, frame = 64
 3876              		@ frame_needed = 1, uses_anonymous_args = 0
 3877 1588 80B5     		push	{r7, lr}
 3878              	.LCFI94:
 3879              		.cfi_def_cfa_offset 8
 3880              		.cfi_offset 7, -8
 3881              		.cfi_offset 14, -4
 3882 158a 90B0     		sub	sp, sp, #64
 3883              	.LCFI95:
 3884              		.cfi_def_cfa_offset 72
 3885 158c 00AF     		add	r7, sp, #0
 3886              	.LCFI96:
 3887              		.cfi_def_cfa_register 7
 3888 158e 7860     		str	r0, [r7, #4]
1885:../src/lib/lpc177x_8x/Drivers/source/lpc177x_8x_mci.c ****     volatile uint32_t i;
1886:../src/lib/lpc177x_8x/Drivers/source/lpc177x_8x_mci.c ****     uint32_t retryCount;
1887:../src/lib/lpc177x_8x/Drivers/source/lpc177x_8x_mci.c ****     uint32_t respStatus;
1888:../src/lib/lpc177x_8x/Drivers/source/lpc177x_8x_mci.c ****     uint32_t respValue[4];
1889:../src/lib/lpc177x_8x/Drivers/source/lpc177x_8x_mci.c ****     uint32_t CmdArgument;
1890:../src/lib/lpc177x_8x/Drivers/source/lpc177x_8x_mci.c ****     st_Mci_CmdInfo cmdIf;
1891:../src/lib/lpc177x_8x/Drivers/source/lpc177x_8x_mci.c ****     int32_t retval = MCI_FUNC_FAILED;
 3889              		.loc 2 1891 0
 3890 1590 4FF0FF33 		mov	r3, #-1
 3891 1594 7B63     		str	r3, [r7, #52]
1892:../src/lib/lpc177x_8x/Drivers/source/lpc177x_8x_mci.c **** 
1893:../src/lib/lpc177x_8x/Drivers/source/lpc177x_8x_mci.c ****     if(cardStatus == NULL)
 3892              		.loc 2 1893 0
 3893 1596 7B68     		ldr	r3, [r7, #4]
 3894 1598 002B     		cmp	r3, #0
 3895 159a 02D1     		bne	.L319
1894:../src/lib/lpc177x_8x/Drivers/source/lpc177x_8x_mci.c ****         return MCI_FUNC_OK;
 3896              		.loc 2 1894 0
 3897 159c 4FF00003 		mov	r3, #0
 3898 15a0 50E0     		b	.L329
 3899              	.L319:
1895:../src/lib/lpc177x_8x/Drivers/source/lpc177x_8x_mci.c ****     
1896:../src/lib/lpc177x_8x/Drivers/source/lpc177x_8x_mci.c ****     if ((MCI_CardType == MCI_SDSC_V1_CARD) ||
 3900              		.loc 2 1896 0
 3901 15a2 2B4B     		ldr	r3, .L330
 3902 15a4 1B78     		ldrb	r3, [r3, #0]
 3903 15a6 DBB2     		uxtb	r3, r3
 3904 15a8 002B     		cmp	r3, #0
 3905 15aa 0BD0     		beq	.L321
1897:../src/lib/lpc177x_8x/Drivers/source/lpc177x_8x_mci.c ****         (MCI_CardType == MCI_SDSC_V2_CARD) ||
 3906              		.loc 2 1897 0 discriminator 1
 3907 15ac 284B     		ldr	r3, .L330
 3908 15ae 1B78     		ldrb	r3, [r3, #0]
 3909 15b0 DBB2     		uxtb	r3, r3
1896:../src/lib/lpc177x_8x/Drivers/source/lpc177x_8x_mci.c ****     if ((MCI_CardType == MCI_SDSC_V1_CARD) ||
 3910              		.loc 2 1896 0 discriminator 1
 3911 15b2 5BB2     		sxtb	r3, r3
 3912 15b4 022B     		cmp	r3, #2
 3913 15b6 05D0     		beq	.L321
1898:../src/lib/lpc177x_8x/Drivers/source/lpc177x_8x_mci.c ****         (MCI_CardType == MCI_SDHC_SDXC_CARD)) 
 3914              		.loc 2 1898 0
 3915 15b8 254B     		ldr	r3, .L330
 3916 15ba 1B78     		ldrb	r3, [r3, #0]
 3917 15bc DBB2     		uxtb	r3, r3
1897:../src/lib/lpc177x_8x/Drivers/source/lpc177x_8x_mci.c ****         (MCI_CardType == MCI_SDSC_V2_CARD) ||
 3918              		.loc 2 1897 0
 3919 15be 5BB2     		sxtb	r3, r3
 3920 15c0 032B     		cmp	r3, #3
 3921 15c2 03D1     		bne	.L322
 3922              	.L321:
1899:../src/lib/lpc177x_8x/Drivers/source/lpc177x_8x_mci.c ****     {
1900:../src/lib/lpc177x_8x/Drivers/source/lpc177x_8x_mci.c ****         CmdArgument = CardRCA;
 3923              		.loc 2 1900 0
 3924 15c4 234B     		ldr	r3, .L330+4
 3925 15c6 1B68     		ldr	r3, [r3, #0]
 3926 15c8 BB63     		str	r3, [r7, #56]
 3927 15ca 02E0     		b	.L323
 3928              	.L322:
1901:../src/lib/lpc177x_8x/Drivers/source/lpc177x_8x_mci.c ****     }
1902:../src/lib/lpc177x_8x/Drivers/source/lpc177x_8x_mci.c ****     else            /* if MMC or unknown card type, use default RCA addr. */
1903:../src/lib/lpc177x_8x/Drivers/source/lpc177x_8x_mci.c ****     {
1904:../src/lib/lpc177x_8x/Drivers/source/lpc177x_8x_mci.c ****         CmdArgument = 0x00010000;
 3929              		.loc 2 1904 0
 3930 15cc 4FF48033 		mov	r3, #65536
 3931 15d0 BB63     		str	r3, [r7, #56]
 3932              	.L323:
1905:../src/lib/lpc177x_8x/Drivers/source/lpc177x_8x_mci.c ****     }
1906:../src/lib/lpc177x_8x/Drivers/source/lpc177x_8x_mci.c **** 
1907:../src/lib/lpc177x_8x/Drivers/source/lpc177x_8x_mci.c ****     retryCount = 0x20;
 3933              		.loc 2 1907 0
 3934 15d2 4FF02003 		mov	r3, #32
 3935 15d6 FB63     		str	r3, [r7, #60]
1908:../src/lib/lpc177x_8x/Drivers/source/lpc177x_8x_mci.c ****     cmdIf.CmdIndex = CMD13_SEND_STATUS;
 3936              		.loc 2 1908 0
 3937 15d8 4FF00D03 		mov	r3, #13
 3938 15dc BB60     		str	r3, [r7, #8]
1909:../src/lib/lpc177x_8x/Drivers/source/lpc177x_8x_mci.c ****     cmdIf.Argument = CmdArgument;
 3939              		.loc 2 1909 0
 3940 15de BB6B     		ldr	r3, [r7, #56]
 3941 15e0 FB60     		str	r3, [r7, #12]
1910:../src/lib/lpc177x_8x/Drivers/source/lpc177x_8x_mci.c ****     cmdIf.ExpectResp = EXPECT_SHORT_RESP;
 3942              		.loc 2 1910 0
 3943 15e2 4FF00103 		mov	r3, #1
 3944 15e6 3B61     		str	r3, [r7, #16]
1911:../src/lib/lpc177x_8x/Drivers/source/lpc177x_8x_mci.c ****     cmdIf.AllowTimeout = ALLOW_CMD_TIMER;
 3945              		.loc 2 1911 0
 3946 15e8 4FF00103 		mov	r3, #1
 3947 15ec 7B61     		str	r3, [r7, #20]
1912:../src/lib/lpc177x_8x/Drivers/source/lpc177x_8x_mci.c ****     cmdIf.CmdResp =  (uint32_t *)&respValue[0];
 3948              		.loc 2 1912 0
 3949 15ee 07F11C03 		add	r3, r7, #28
 3950 15f2 BB61     		str	r3, [r7, #24]
1913:../src/lib/lpc177x_8x/Drivers/source/lpc177x_8x_mci.c ****     while ( retryCount > 0 )
 3951              		.loc 2 1913 0
 3952 15f4 22E0     		b	.L324
 3953              	.L328:
1914:../src/lib/lpc177x_8x/Drivers/source/lpc177x_8x_mci.c ****     {
1915:../src/lib/lpc177x_8x/Drivers/source/lpc177x_8x_mci.c ****         respStatus = MCI_CmdResp(&cmdIf);
 3954              		.loc 2 1915 0
 3955 15f6 07F10803 		add	r3, r7, #8
 3956 15fa 1846     		mov	r0, r3
 3957 15fc FFF7FEFF 		bl	MCI_CmdResp
 3958 1600 0346     		mov	r3, r0
 3959 1602 3B63     		str	r3, [r7, #48]
1916:../src/lib/lpc177x_8x/Drivers/source/lpc177x_8x_mci.c **** 
1917:../src/lib/lpc177x_8x/Drivers/source/lpc177x_8x_mci.c ****         if(respStatus)  /* only retry if sending command failed */
 3960              		.loc 2 1917 0
 3961 1604 3B6B     		ldr	r3, [r7, #48]
 3962 1606 002B     		cmp	r3, #0
 3963 1608 0AD0     		beq	.L325
1918:../src/lib/lpc177x_8x/Drivers/source/lpc177x_8x_mci.c ****         {
1919:../src/lib/lpc177x_8x/Drivers/source/lpc177x_8x_mci.c ****             retval = MCI_FUNC_FAILED;
 3964              		.loc 2 1919 0
 3965 160a 4FF0FF33 		mov	r3, #-1
 3966 160e 7B63     		str	r3, [r7, #52]
1920:../src/lib/lpc177x_8x/Drivers/source/lpc177x_8x_mci.c ****         }
1921:../src/lib/lpc177x_8x/Drivers/source/lpc177x_8x_mci.c ****         else
1922:../src/lib/lpc177x_8x/Drivers/source/lpc177x_8x_mci.c ****         {
1923:../src/lib/lpc177x_8x/Drivers/source/lpc177x_8x_mci.c ****             *cardStatus = respValue[0];
1924:../src/lib/lpc177x_8x/Drivers/source/lpc177x_8x_mci.c **** 
1925:../src/lib/lpc177x_8x/Drivers/source/lpc177x_8x_mci.c ****             return MCI_FUNC_OK;
1926:../src/lib/lpc177x_8x/Drivers/source/lpc177x_8x_mci.c ****         }
1927:../src/lib/lpc177x_8x/Drivers/source/lpc177x_8x_mci.c **** 
1928:../src/lib/lpc177x_8x/Drivers/source/lpc177x_8x_mci.c ****         retryCount--;
 3967              		.loc 2 1928 0
 3968 1610 FB6B     		ldr	r3, [r7, #60]
 3969 1612 03F1FF33 		add	r3, r3, #-1
 3970 1616 FB63     		str	r3, [r7, #60]
1929:../src/lib/lpc177x_8x/Drivers/source/lpc177x_8x_mci.c ****         for ( i = 0; i < 0x10; i++ );
 3971              		.loc 2 1929 0
 3972 1618 4FF00003 		mov	r3, #0
 3973 161c FB62     		str	r3, [r7, #44]
 3974 161e 0AE0     		b	.L326
 3975              	.L325:
1923:../src/lib/lpc177x_8x/Drivers/source/lpc177x_8x_mci.c ****             *cardStatus = respValue[0];
 3976              		.loc 2 1923 0
 3977 1620 FB69     		ldr	r3, [r7, #28]
 3978 1622 1A46     		mov	r2, r3
 3979 1624 7B68     		ldr	r3, [r7, #4]
 3980 1626 1A60     		str	r2, [r3, #0]
1925:../src/lib/lpc177x_8x/Drivers/source/lpc177x_8x_mci.c ****             return MCI_FUNC_OK;
 3981              		.loc 2 1925 0
 3982 1628 4FF00003 		mov	r3, #0
 3983 162c 0AE0     		b	.L329
 3984              	.L327:
 3985              		.loc 2 1929 0 discriminator 2
 3986 162e FB6A     		ldr	r3, [r7, #44]
 3987 1630 03F10103 		add	r3, r3, #1
 3988 1634 FB62     		str	r3, [r7, #44]
 3989              	.L326:
 3990              		.loc 2 1929 0 is_stmt 0 discriminator 1
 3991 1636 FB6A     		ldr	r3, [r7, #44]
 3992 1638 0F2B     		cmp	r3, #15
 3993 163a F8D9     		bls	.L327
 3994              	.L324:
1913:../src/lib/lpc177x_8x/Drivers/source/lpc177x_8x_mci.c ****     while ( retryCount > 0 )
 3995              		.loc 2 1913 0 is_stmt 1 discriminator 1
 3996 163c FB6B     		ldr	r3, [r7, #60]
 3997 163e 002B     		cmp	r3, #0
 3998 1640 D9D1     		bne	.L328
1930:../src/lib/lpc177x_8x/Drivers/source/lpc177x_8x_mci.c ****     }
1931:../src/lib/lpc177x_8x/Drivers/source/lpc177x_8x_mci.c **** 
1932:../src/lib/lpc177x_8x/Drivers/source/lpc177x_8x_mci.c ****     return retval;
 3999              		.loc 2 1932 0
 4000 1642 7B6B     		ldr	r3, [r7, #52]
 4001              	.L329:
1933:../src/lib/lpc177x_8x/Drivers/source/lpc177x_8x_mci.c **** }
 4002              		.loc 2 1933 0
 4003 1644 1846     		mov	r0, r3
 4004 1646 07F14007 		add	r7, r7, #64
 4005 164a BD46     		mov	sp, r7
 4006 164c 80BD     		pop	{r7, pc}
 4007              	.L331:
 4008 164e 00BF     		.align	2
 4009              	.L330:
 4010 1650 00000000 		.word	MCI_CardType
 4011 1654 00000000 		.word	CardRCA
 4012              		.cfi_endproc
 4013              	.LFE88:
 4015              		.align	2
 4016              		.global	MCI_SetBlockLen
 4017              		.thumb
 4018              		.thumb_func
 4020              	MCI_SetBlockLen:
 4021              	.LFB89:
1934:../src/lib/lpc177x_8x/Drivers/source/lpc177x_8x_mci.c **** 
1935:../src/lib/lpc177x_8x/Drivers/source/lpc177x_8x_mci.c **** /************************************************************************//**
1936:../src/lib/lpc177x_8x/Drivers/source/lpc177x_8x_mci.c ****  * @brief        Set the length for the blocks in the next action on data 
1937:../src/lib/lpc177x_8x/Drivers/source/lpc177x_8x_mci.c ****  *                manipulation (as read, write, erase). This function is to
1938:../src/lib/lpc177x_8x/Drivers/source/lpc177x_8x_mci.c ****  *                send CMD16 (SET_BLOCK_LEN) to cards.
1939:../src/lib/lpc177x_8x/Drivers/source/lpc177x_8x_mci.c ****  *
1940:../src/lib/lpc177x_8x/Drivers/source/lpc177x_8x_mci.c ****  * @param[in]    blockLength the value for the length of block will be handled
1941:../src/lib/lpc177x_8x/Drivers/source/lpc177x_8x_mci.c ****  *
1942:../src/lib/lpc177x_8x/Drivers/source/lpc177x_8x_mci.c ****  * @return         MCI_FUNC_OK if all success
1943:../src/lib/lpc177x_8x/Drivers/source/lpc177x_8x_mci.c ****  *
1944:../src/lib/lpc177x_8x/Drivers/source/lpc177x_8x_mci.c ****  * @note         CMD16 command should be sent after the card is selected by CMD7 
1945:../src/lib/lpc177x_8x/Drivers/source/lpc177x_8x_mci.c ****  *                (SELECT_CARD).
1946:../src/lib/lpc177x_8x/Drivers/source/lpc177x_8x_mci.c ****  *  In the case of SDHC and SDXC Cards, block length set by CMD16 command doen't 
1947:../src/lib/lpc177x_8x/Drivers/source/lpc177x_8x_mci.c ****  *  affect memory read and write commands. Always 512 Bytes fixed block length is 
1948:../src/lib/lpc177x_8x/Drivers/source/lpc177x_8x_mci.c ****  *  used. This command is effective for LOCK_UNLOCK command..
1949:../src/lib/lpc177x_8x/Drivers/source/lpc177x_8x_mci.c ****  ****************************************************************************/
1950:../src/lib/lpc177x_8x/Drivers/source/lpc177x_8x_mci.c **** int32_t MCI_SetBlockLen(uint32_t blockLength)
1951:../src/lib/lpc177x_8x/Drivers/source/lpc177x_8x_mci.c **** {
 4022              		.loc 2 1951 0
 4023              		.cfi_startproc
 4024              		@ args = 0, pretend = 0, frame = 64
 4025              		@ frame_needed = 1, uses_anonymous_args = 0
 4026 1658 80B5     		push	{r7, lr}
 4027              	.LCFI97:
 4028              		.cfi_def_cfa_offset 8
 4029              		.cfi_offset 7, -8
 4030              		.cfi_offset 14, -4
 4031 165a 90B0     		sub	sp, sp, #64
 4032              	.LCFI98:
 4033              		.cfi_def_cfa_offset 72
 4034 165c 00AF     		add	r7, sp, #0
 4035              	.LCFI99:
 4036              		.cfi_def_cfa_register 7
 4037 165e 7860     		str	r0, [r7, #4]
1952:../src/lib/lpc177x_8x/Drivers/source/lpc177x_8x_mci.c ****     volatile uint32_t i;
1953:../src/lib/lpc177x_8x/Drivers/source/lpc177x_8x_mci.c ****     uint32_t retryCount;
1954:../src/lib/lpc177x_8x/Drivers/source/lpc177x_8x_mci.c ****     uint32_t respStatus;
1955:../src/lib/lpc177x_8x/Drivers/source/lpc177x_8x_mci.c ****     uint32_t respValue[4];
1956:../src/lib/lpc177x_8x/Drivers/source/lpc177x_8x_mci.c ****     st_Mci_CmdInfo cmdIf;
1957:../src/lib/lpc177x_8x/Drivers/source/lpc177x_8x_mci.c ****     int32_t retval = MCI_FUNC_FAILED;
 4038              		.loc 2 1957 0
 4039 1660 4FF0FF33 		mov	r3, #-1
 4040 1664 BB63     		str	r3, [r7, #56]
1958:../src/lib/lpc177x_8x/Drivers/source/lpc177x_8x_mci.c **** 
1959:../src/lib/lpc177x_8x/Drivers/source/lpc177x_8x_mci.c ****     retryCount = 0x20;
 4041              		.loc 2 1959 0
 4042 1666 4FF02003 		mov	r3, #32
 4043 166a FB63     		str	r3, [r7, #60]
1960:../src/lib/lpc177x_8x/Drivers/source/lpc177x_8x_mci.c ****     cmdIf.CmdIndex = CMD16_SET_BLOCK_LEN;
 4044              		.loc 2 1960 0
 4045 166c 4FF01003 		mov	r3, #16
 4046 1670 FB60     		str	r3, [r7, #12]
1961:../src/lib/lpc177x_8x/Drivers/source/lpc177x_8x_mci.c ****     cmdIf.Argument = blockLength;
 4047              		.loc 2 1961 0
 4048 1672 7B68     		ldr	r3, [r7, #4]
 4049 1674 3B61     		str	r3, [r7, #16]
1962:../src/lib/lpc177x_8x/Drivers/source/lpc177x_8x_mci.c ****     cmdIf.ExpectResp = EXPECT_SHORT_RESP;
 4050              		.loc 2 1962 0
 4051 1676 4FF00103 		mov	r3, #1
 4052 167a 7B61     		str	r3, [r7, #20]
1963:../src/lib/lpc177x_8x/Drivers/source/lpc177x_8x_mci.c ****     cmdIf.AllowTimeout = ALLOW_CMD_TIMER;
 4053              		.loc 2 1963 0
 4054 167c 4FF00103 		mov	r3, #1
 4055 1680 BB61     		str	r3, [r7, #24]
1964:../src/lib/lpc177x_8x/Drivers/source/lpc177x_8x_mci.c ****     cmdIf.CmdResp =  (uint32_t *)&respValue[0];
 4056              		.loc 2 1964 0
 4057 1682 07F12003 		add	r3, r7, #32
 4058 1686 FB61     		str	r3, [r7, #28]
1965:../src/lib/lpc177x_8x/Drivers/source/lpc177x_8x_mci.c ****     while ( retryCount > 0 )
 4059              		.loc 2 1965 0
 4060 1688 33E0     		b	.L333
 4061              	.L340:
1966:../src/lib/lpc177x_8x/Drivers/source/lpc177x_8x_mci.c ****     {
1967:../src/lib/lpc177x_8x/Drivers/source/lpc177x_8x_mci.c ****          /* Check current status */
1968:../src/lib/lpc177x_8x/Drivers/source/lpc177x_8x_mci.c ****        if((MCI_CheckStatus(CARD_STATE_TRAN) != MCI_FUNC_OK) )
 4062              		.loc 2 1968 0
 4063 168a 4FF00400 		mov	r0, #4
 4064 168e FFF7FEFF 		bl	MCI_CheckStatus
 4065 1692 0346     		mov	r3, r0
 4066 1694 002B     		cmp	r3, #0
 4067 1696 02D0     		beq	.L334
1969:../src/lib/lpc177x_8x/Drivers/source/lpc177x_8x_mci.c ****             return MCI_FUNC_ERR_STATE;
 4068              		.loc 2 1969 0
 4069 1698 6FF00303 		mvn	r3, #3
 4070 169c 2DE0     		b	.L341
 4071              	.L334:
1970:../src/lib/lpc177x_8x/Drivers/source/lpc177x_8x_mci.c **** 
1971:../src/lib/lpc177x_8x/Drivers/source/lpc177x_8x_mci.c ****         respStatus = MCI_CmdResp(&cmdIf);
 4072              		.loc 2 1971 0
 4073 169e 07F10C03 		add	r3, r7, #12
 4074 16a2 1846     		mov	r0, r3
 4075 16a4 FFF7FEFF 		bl	MCI_CmdResp
 4076 16a8 0346     		mov	r3, r0
 4077 16aa 7B63     		str	r3, [r7, #52]
1972:../src/lib/lpc177x_8x/Drivers/source/lpc177x_8x_mci.c **** 
1973:../src/lib/lpc177x_8x/Drivers/source/lpc177x_8x_mci.c ****         if(respStatus)
 4078              		.loc 2 1973 0
 4079 16ac 7B6B     		ldr	r3, [r7, #52]
 4080 16ae 002B     		cmp	r3, #0
 4081 16b0 06D0     		beq	.L336
1974:../src/lib/lpc177x_8x/Drivers/source/lpc177x_8x_mci.c ****         {
1975:../src/lib/lpc177x_8x/Drivers/source/lpc177x_8x_mci.c ****             retval = MCI_FUNC_FAILED;
 4082              		.loc 2 1975 0
 4083 16b2 4FF0FF33 		mov	r3, #-1
 4084 16b6 BB63     		str	r3, [r7, #56]
1976:../src/lib/lpc177x_8x/Drivers/source/lpc177x_8x_mci.c ****         }
1977:../src/lib/lpc177x_8x/Drivers/source/lpc177x_8x_mci.c ****         else if (respValue[0] & CARD_STATUS_ERR_MASK)
1978:../src/lib/lpc177x_8x/Drivers/source/lpc177x_8x_mci.c ****         {
1979:../src/lib/lpc177x_8x/Drivers/source/lpc177x_8x_mci.c ****             return MCI_FUNC_BAD_PARAMETERS;
1980:../src/lib/lpc177x_8x/Drivers/source/lpc177x_8x_mci.c ****         }
1981:../src/lib/lpc177x_8x/Drivers/source/lpc177x_8x_mci.c ****         else
1982:../src/lib/lpc177x_8x/Drivers/source/lpc177x_8x_mci.c ****         {
1983:../src/lib/lpc177x_8x/Drivers/source/lpc177x_8x_mci.c ****             return MCI_CheckStatus(CARD_STATE_TRAN);
1984:../src/lib/lpc177x_8x/Drivers/source/lpc177x_8x_mci.c ****         }
1985:../src/lib/lpc177x_8x/Drivers/source/lpc177x_8x_mci.c ****         
1986:../src/lib/lpc177x_8x/Drivers/source/lpc177x_8x_mci.c **** 
1987:../src/lib/lpc177x_8x/Drivers/source/lpc177x_8x_mci.c ****         for ( i = 0; i < 0x20; i++ );
 4085              		.loc 2 1987 0
 4086 16b8 4FF00003 		mov	r3, #0
 4087 16bc 3B63     		str	r3, [r7, #48]
 4088 16be 11E0     		b	.L337
 4089              	.L336:
1977:../src/lib/lpc177x_8x/Drivers/source/lpc177x_8x_mci.c ****         else if (respValue[0] & CARD_STATUS_ERR_MASK)
 4090              		.loc 2 1977 0
 4091 16c0 3A6A     		ldr	r2, [r7, #32]
 4092 16c2 104B     		ldr	r3, .L342
 4093 16c4 1340     		ands	r3, r3, r2
 4094 16c6 002B     		cmp	r3, #0
 4095 16c8 02D0     		beq	.L338
1979:../src/lib/lpc177x_8x/Drivers/source/lpc177x_8x_mci.c ****             return MCI_FUNC_BAD_PARAMETERS;
 4096              		.loc 2 1979 0
 4097 16ca 6FF00103 		mvn	r3, #1
 4098 16ce 14E0     		b	.L341
 4099              	.L338:
1983:../src/lib/lpc177x_8x/Drivers/source/lpc177x_8x_mci.c ****             return MCI_CheckStatus(CARD_STATE_TRAN);
 4100              		.loc 2 1983 0
 4101 16d0 4FF00400 		mov	r0, #4
 4102 16d4 FFF7FEFF 		bl	MCI_CheckStatus
 4103 16d8 0346     		mov	r3, r0
 4104 16da 0EE0     		b	.L341
 4105              	.L339:
 4106              		.loc 2 1987 0 discriminator 2
 4107 16dc 3B6B     		ldr	r3, [r7, #48]
 4108 16de 03F10103 		add	r3, r3, #1
 4109 16e2 3B63     		str	r3, [r7, #48]
 4110              	.L337:
 4111              		.loc 2 1987 0 is_stmt 0 discriminator 1
 4112 16e4 3B6B     		ldr	r3, [r7, #48]
 4113 16e6 1F2B     		cmp	r3, #31
 4114 16e8 F8D9     		bls	.L339
1988:../src/lib/lpc177x_8x/Drivers/source/lpc177x_8x_mci.c **** 
1989:../src/lib/lpc177x_8x/Drivers/source/lpc177x_8x_mci.c ****         retryCount--;
 4115              		.loc 2 1989 0 is_stmt 1
 4116 16ea FB6B     		ldr	r3, [r7, #60]
 4117 16ec 03F1FF33 		add	r3, r3, #-1
 4118 16f0 FB63     		str	r3, [r7, #60]
 4119              	.L333:
1965:../src/lib/lpc177x_8x/Drivers/source/lpc177x_8x_mci.c ****     while ( retryCount > 0 )
 4120              		.loc 2 1965 0 discriminator 1
 4121 16f2 FB6B     		ldr	r3, [r7, #60]
 4122 16f4 002B     		cmp	r3, #0
 4123 16f6 C8D1     		bne	.L340
1990:../src/lib/lpc177x_8x/Drivers/source/lpc177x_8x_mci.c ****     }
1991:../src/lib/lpc177x_8x/Drivers/source/lpc177x_8x_mci.c **** 
1992:../src/lib/lpc177x_8x/Drivers/source/lpc177x_8x_mci.c ****     return retval;
 4124              		.loc 2 1992 0
 4125 16f8 BB6B     		ldr	r3, [r7, #56]
 4126              	.L341:
1993:../src/lib/lpc177x_8x/Drivers/source/lpc177x_8x_mci.c **** }
 4127              		.loc 2 1993 0
 4128 16fa 1846     		mov	r0, r3
 4129 16fc 07F14007 		add	r7, r7, #64
 4130 1700 BD46     		mov	sp, r7
 4131 1702 80BD     		pop	{r7, pc}
 4132              	.L343:
 4133              		.align	2
 4134              	.L342:
 4135 1704 0880F8FD 		.word	-34045944
 4136              		.cfi_endproc
 4137              	.LFE89:
 4139              		.align	2
 4140              		.global	MCI_Acmd_SendBusWidth
 4141              		.thumb
 4142              		.thumb_func
 4144              	MCI_Acmd_SendBusWidth:
 4145              	.LFB90:
1994:../src/lib/lpc177x_8x/Drivers/source/lpc177x_8x_mci.c **** 
1995:../src/lib/lpc177x_8x/Drivers/source/lpc177x_8x_mci.c **** 
1996:../src/lib/lpc177x_8x/Drivers/source/lpc177x_8x_mci.c **** /************************************************************************//**
1997:../src/lib/lpc177x_8x/Drivers/source/lpc177x_8x_mci.c ****  * @brief         Set bus-width (1 bit or 4 bit) to work with the card by command
1998:../src/lib/lpc177x_8x/Drivers/source/lpc177x_8x_mci.c ****  *                CMD6 (SET_ACMD_BUS_WIDTH).
1999:../src/lib/lpc177x_8x/Drivers/source/lpc177x_8x_mci.c ****  *
2000:../src/lib/lpc177x_8x/Drivers/source/lpc177x_8x_mci.c ****  * @param[in]    buswidth The value represented for bus-width
2001:../src/lib/lpc177x_8x/Drivers/source/lpc177x_8x_mci.c ****  *                - 0b00: 1-bit bus-width
2002:../src/lib/lpc177x_8x/Drivers/source/lpc177x_8x_mci.c ****  *                - 0b10: 4-bit bus-width
2003:../src/lib/lpc177x_8x/Drivers/source/lpc177x_8x_mci.c ****  *
2004:../src/lib/lpc177x_8x/Drivers/source/lpc177x_8x_mci.c ****  * @return         MCI_FUNC_OK if all success
2005:../src/lib/lpc177x_8x/Drivers/source/lpc177x_8x_mci.c ****  *
2006:../src/lib/lpc177x_8x/Drivers/source/lpc177x_8x_mci.c ****  * @note        
2007:../src/lib/lpc177x_8x/Drivers/source/lpc177x_8x_mci.c ****  *                - If SD card is currently in used, it's possible to enable 4-bit
2008:../src/lib/lpc177x_8x/Drivers/source/lpc177x_8x_mci.c ****  *                bus-width instead of 1-bit to speed up.
2009:../src/lib/lpc177x_8x/Drivers/source/lpc177x_8x_mci.c ****  *                - This command can only be transferred during TRANS state.
2010:../src/lib/lpc177x_8x/Drivers/source/lpc177x_8x_mci.c ****  *                - Since, it's a ACMD, CMD55 (APP_CMD) needs to be sent out first
2011:../src/lib/lpc177x_8x/Drivers/source/lpc177x_8x_mci.c ****  ****************************************************************************/
2012:../src/lib/lpc177x_8x/Drivers/source/lpc177x_8x_mci.c **** int32_t MCI_Acmd_SendBusWidth( uint32_t buswidth )
2013:../src/lib/lpc177x_8x/Drivers/source/lpc177x_8x_mci.c **** {
 4146              		.loc 2 2013 0
 4147              		.cfi_startproc
 4148              		@ args = 0, pretend = 0, frame = 64
 4149              		@ frame_needed = 1, uses_anonymous_args = 0
 4150 1708 80B5     		push	{r7, lr}
 4151              	.LCFI100:
 4152              		.cfi_def_cfa_offset 8
 4153              		.cfi_offset 7, -8
 4154              		.cfi_offset 14, -4
 4155 170a 90B0     		sub	sp, sp, #64
 4156              	.LCFI101:
 4157              		.cfi_def_cfa_offset 72
 4158 170c 00AF     		add	r7, sp, #0
 4159              	.LCFI102:
 4160              		.cfi_def_cfa_register 7
 4161 170e 7860     		str	r0, [r7, #4]
2014:../src/lib/lpc177x_8x/Drivers/source/lpc177x_8x_mci.c ****     volatile uint32_t i;
2015:../src/lib/lpc177x_8x/Drivers/source/lpc177x_8x_mci.c ****     uint32_t retryCount;
2016:../src/lib/lpc177x_8x/Drivers/source/lpc177x_8x_mci.c ****     uint32_t respStatus;
2017:../src/lib/lpc177x_8x/Drivers/source/lpc177x_8x_mci.c ****     uint32_t respValue[4];
2018:../src/lib/lpc177x_8x/Drivers/source/lpc177x_8x_mci.c ****     st_Mci_CmdInfo cmdIf;
2019:../src/lib/lpc177x_8x/Drivers/source/lpc177x_8x_mci.c ****     int32_t retval = MCI_FUNC_FAILED;
 4162              		.loc 2 2019 0
 4163 1710 4FF0FF33 		mov	r3, #-1
 4164 1714 BB63     		str	r3, [r7, #56]
2020:../src/lib/lpc177x_8x/Drivers/source/lpc177x_8x_mci.c **** 
2021:../src/lib/lpc177x_8x/Drivers/source/lpc177x_8x_mci.c ****     retryCount = 0x20;            /* reset retry counter */
 4165              		.loc 2 2021 0
 4166 1716 4FF02003 		mov	r3, #32
 4167 171a FB63     		str	r3, [r7, #60]
2022:../src/lib/lpc177x_8x/Drivers/source/lpc177x_8x_mci.c ****     cmdIf.CmdIndex = ACMD6_SET_BUS_WIDTH;
 4168              		.loc 2 2022 0
 4169 171c 4FF00603 		mov	r3, #6
 4170 1720 FB60     		str	r3, [r7, #12]
2023:../src/lib/lpc177x_8x/Drivers/source/lpc177x_8x_mci.c ****     cmdIf.Argument = buswidth;
 4171              		.loc 2 2023 0
 4172 1722 7B68     		ldr	r3, [r7, #4]
 4173 1724 3B61     		str	r3, [r7, #16]
2024:../src/lib/lpc177x_8x/Drivers/source/lpc177x_8x_mci.c ****     cmdIf.ExpectResp = EXPECT_SHORT_RESP;
 4174              		.loc 2 2024 0
 4175 1726 4FF00103 		mov	r3, #1
 4176 172a 7B61     		str	r3, [r7, #20]
2025:../src/lib/lpc177x_8x/Drivers/source/lpc177x_8x_mci.c ****     cmdIf.AllowTimeout = ALLOW_CMD_TIMER;
 4177              		.loc 2 2025 0
 4178 172c 4FF00103 		mov	r3, #1
 4179 1730 BB61     		str	r3, [r7, #24]
2026:../src/lib/lpc177x_8x/Drivers/source/lpc177x_8x_mci.c ****     cmdIf.CmdResp =  (uint32_t *)&respValue[0];
 4180              		.loc 2 2026 0
 4181 1732 07F12003 		add	r3, r7, #32
 4182 1736 FB61     		str	r3, [r7, #28]
2027:../src/lib/lpc177x_8x/Drivers/source/lpc177x_8x_mci.c ****     while ( retryCount > 0 )
 4183              		.loc 2 2027 0
 4184 1738 39E0     		b	.L345
 4185              	.L353:
2028:../src/lib/lpc177x_8x/Drivers/source/lpc177x_8x_mci.c ****     {
2029:../src/lib/lpc177x_8x/Drivers/source/lpc177x_8x_mci.c ****          /* The card must be in tran state in order to change the bus width */
2030:../src/lib/lpc177x_8x/Drivers/source/lpc177x_8x_mci.c ****         retval = MCI_CheckStatus(CARD_STATE_TRAN);
 4186              		.loc 2 2030 0
 4187 173a 4FF00400 		mov	r0, #4
 4188 173e FFF7FEFF 		bl	MCI_CheckStatus
 4189 1742 B863     		str	r0, [r7, #56]
2031:../src/lib/lpc177x_8x/Drivers/source/lpc177x_8x_mci.c ****         if(retval!= MCI_FUNC_OK)
 4190              		.loc 2 2031 0
 4191 1744 BB6B     		ldr	r3, [r7, #56]
 4192 1746 002B     		cmp	r3, #0
 4193 1748 01D0     		beq	.L346
2032:../src/lib/lpc177x_8x/Drivers/source/lpc177x_8x_mci.c ****             return retval;
 4194              		.loc 2 2032 0
 4195 174a BB6B     		ldr	r3, [r7, #56]
 4196 174c 33E0     		b	.L354
 4197              	.L346:
2033:../src/lib/lpc177x_8x/Drivers/source/lpc177x_8x_mci.c ****     
2034:../src/lib/lpc177x_8x/Drivers/source/lpc177x_8x_mci.c ****         if (MCI_Cmd_SendACMD() == MCI_FUNC_OK)
 4198              		.loc 2 2034 0
 4199 174e FFF7FEFF 		bl	MCI_Cmd_SendACMD
 4200 1752 0346     		mov	r3, r0
 4201 1754 002B     		cmp	r3, #0
 4202 1756 1BD1     		bne	.L348
2035:../src/lib/lpc177x_8x/Drivers/source/lpc177x_8x_mci.c ****         {
2036:../src/lib/lpc177x_8x/Drivers/source/lpc177x_8x_mci.c ****             respStatus = MCI_CmdResp(&cmdIf);
 4203              		.loc 2 2036 0
 4204 1758 07F10C03 		add	r3, r7, #12
 4205 175c 1846     		mov	r0, r3
 4206 175e FFF7FEFF 		bl	MCI_CmdResp
 4207 1762 0346     		mov	r3, r0
 4208 1764 7B63     		str	r3, [r7, #52]
2037:../src/lib/lpc177x_8x/Drivers/source/lpc177x_8x_mci.c **** 
2038:../src/lib/lpc177x_8x/Drivers/source/lpc177x_8x_mci.c ****             if(respStatus)
 4209              		.loc 2 2038 0
 4210 1766 7B6B     		ldr	r3, [r7, #52]
 4211 1768 002B     		cmp	r3, #0
 4212 176a 03D0     		beq	.L349
2039:../src/lib/lpc177x_8x/Drivers/source/lpc177x_8x_mci.c ****             {
2040:../src/lib/lpc177x_8x/Drivers/source/lpc177x_8x_mci.c ****                 retval = MCI_FUNC_FAILED;
 4213              		.loc 2 2040 0
 4214 176c 4FF0FF33 		mov	r3, #-1
 4215 1770 BB63     		str	r3, [r7, #56]
 4216 1772 0DE0     		b	.L348
 4217              	.L349:
2041:../src/lib/lpc177x_8x/Drivers/source/lpc177x_8x_mci.c ****             }
2042:../src/lib/lpc177x_8x/Drivers/source/lpc177x_8x_mci.c ****             else if (respValue[0] & CARD_STATUS_ERR_MASK)
 4218              		.loc 2 2042 0
 4219 1774 3A6A     		ldr	r2, [r7, #32]
 4220 1776 124B     		ldr	r3, .L355
 4221 1778 1340     		ands	r3, r3, r2
 4222 177a 002B     		cmp	r3, #0
 4223 177c 02D0     		beq	.L350
2043:../src/lib/lpc177x_8x/Drivers/source/lpc177x_8x_mci.c ****             {
2044:../src/lib/lpc177x_8x/Drivers/source/lpc177x_8x_mci.c ****                 return MCI_FUNC_BAD_PARAMETERS;
 4224              		.loc 2 2044 0
 4225 177e 6FF00103 		mvn	r3, #1
 4226 1782 18E0     		b	.L354
 4227              	.L350:
2045:../src/lib/lpc177x_8x/Drivers/source/lpc177x_8x_mci.c ****             }
2046:../src/lib/lpc177x_8x/Drivers/source/lpc177x_8x_mci.c ****             else
2047:../src/lib/lpc177x_8x/Drivers/source/lpc177x_8x_mci.c ****             {
2048:../src/lib/lpc177x_8x/Drivers/source/lpc177x_8x_mci.c ****                 return MCI_CheckStatus(CARD_STATE_TRAN);
 4228              		.loc 2 2048 0
 4229 1784 4FF00400 		mov	r0, #4
 4230 1788 FFF7FEFF 		bl	MCI_CheckStatus
 4231 178c 0346     		mov	r3, r0
 4232 178e 12E0     		b	.L354
 4233              	.L348:
2049:../src/lib/lpc177x_8x/Drivers/source/lpc177x_8x_mci.c ****             }
2050:../src/lib/lpc177x_8x/Drivers/source/lpc177x_8x_mci.c ****         }
2051:../src/lib/lpc177x_8x/Drivers/source/lpc177x_8x_mci.c **** 
2052:../src/lib/lpc177x_8x/Drivers/source/lpc177x_8x_mci.c ****         for ( i = 0; i < 0x20; i++ );
 4234              		.loc 2 2052 0
 4235 1790 4FF00003 		mov	r3, #0
 4236 1794 3B63     		str	r3, [r7, #48]
 4237 1796 03E0     		b	.L351
 4238              	.L352:
 4239              		.loc 2 2052 0 is_stmt 0 discriminator 2
 4240 1798 3B6B     		ldr	r3, [r7, #48]
 4241 179a 03F10103 		add	r3, r3, #1
 4242 179e 3B63     		str	r3, [r7, #48]
 4243              	.L351:
 4244              		.loc 2 2052 0 discriminator 1
 4245 17a0 3B6B     		ldr	r3, [r7, #48]
 4246 17a2 1F2B     		cmp	r3, #31
 4247 17a4 F8D9     		bls	.L352
2053:../src/lib/lpc177x_8x/Drivers/source/lpc177x_8x_mci.c **** 
2054:../src/lib/lpc177x_8x/Drivers/source/lpc177x_8x_mci.c ****         retryCount--;
 4248              		.loc 2 2054 0 is_stmt 1
 4249 17a6 FB6B     		ldr	r3, [r7, #60]
 4250 17a8 03F1FF33 		add	r3, r3, #-1
 4251 17ac FB63     		str	r3, [r7, #60]
 4252              	.L345:
2027:../src/lib/lpc177x_8x/Drivers/source/lpc177x_8x_mci.c ****     while ( retryCount > 0 )
 4253              		.loc 2 2027 0 discriminator 1
 4254 17ae FB6B     		ldr	r3, [r7, #60]
 4255 17b0 002B     		cmp	r3, #0
 4256 17b2 C2D1     		bne	.L353
2055:../src/lib/lpc177x_8x/Drivers/source/lpc177x_8x_mci.c ****     }
2056:../src/lib/lpc177x_8x/Drivers/source/lpc177x_8x_mci.c **** 
2057:../src/lib/lpc177x_8x/Drivers/source/lpc177x_8x_mci.c ****     return retval;
 4257              		.loc 2 2057 0
 4258 17b4 BB6B     		ldr	r3, [r7, #56]
 4259              	.L354:
2058:../src/lib/lpc177x_8x/Drivers/source/lpc177x_8x_mci.c **** }
 4260              		.loc 2 2058 0
 4261 17b6 1846     		mov	r0, r3
 4262 17b8 07F14007 		add	r7, r7, #64
 4263 17bc BD46     		mov	sp, r7
 4264 17be 80BD     		pop	{r7, pc}
 4265              	.L356:
 4266              		.align	2
 4267              	.L355:
 4268 17c0 0880F8FD 		.word	-34045944
 4269              		.cfi_endproc
 4270              	.LFE90:
 4272              		.align	2
 4273              		.global	MCI_GetDataXferEndState
 4274              		.thumb
 4275              		.thumb_func
 4277              	MCI_GetDataXferEndState:
 4278              	.LFB91:
2059:../src/lib/lpc177x_8x/Drivers/source/lpc177x_8x_mci.c **** 
2060:../src/lib/lpc177x_8x/Drivers/source/lpc177x_8x_mci.c **** 
2061:../src/lib/lpc177x_8x/Drivers/source/lpc177x_8x_mci.c **** /************************************************************************//**
2062:../src/lib/lpc177x_8x/Drivers/source/lpc177x_8x_mci.c ****  * @brief        Get the state of  data transfer to see if it is ended or not
2063:../src/lib/lpc177x_8x/Drivers/source/lpc177x_8x_mci.c ****  *
2064:../src/lib/lpc177x_8x/Drivers/source/lpc177x_8x_mci.c ****  * @param        None
2065:../src/lib/lpc177x_8x/Drivers/source/lpc177x_8x_mci.c ****  *
2066:../src/lib/lpc177x_8x/Drivers/source/lpc177x_8x_mci.c ****  * @return       Transfer state (stored by Mci_Data_Xfer_End variable)
2067:../src/lib/lpc177x_8x/Drivers/source/lpc177x_8x_mci.c ****  ****************************************************************************/
2068:../src/lib/lpc177x_8x/Drivers/source/lpc177x_8x_mci.c **** uint32_t MCI_GetDataXferEndState(void)
2069:../src/lib/lpc177x_8x/Drivers/source/lpc177x_8x_mci.c **** {
 4279              		.loc 2 2069 0
 4280              		.cfi_startproc
 4281              		@ args = 0, pretend = 0, frame = 0
 4282              		@ frame_needed = 1, uses_anonymous_args = 0
 4283              		@ link register save eliminated.
 4284 17c4 80B4     		push	{r7}
 4285              	.LCFI103:
 4286              		.cfi_def_cfa_offset 4
 4287              		.cfi_offset 7, -4
 4288 17c6 00AF     		add	r7, sp, #0
 4289              	.LCFI104:
 4290              		.cfi_def_cfa_register 7
2070:../src/lib/lpc177x_8x/Drivers/source/lpc177x_8x_mci.c ****     return Mci_Data_Xfer_End;
 4291              		.loc 2 2070 0
 4292 17c8 024B     		ldr	r3, .L359
 4293 17ca 1B68     		ldr	r3, [r3, #0]
2071:../src/lib/lpc177x_8x/Drivers/source/lpc177x_8x_mci.c **** }
 4294              		.loc 2 2071 0
 4295 17cc 1846     		mov	r0, r3
 4296 17ce BD46     		mov	sp, r7
 4297 17d0 80BC     		pop	{r7}
 4298 17d2 7047     		bx	lr
 4299              	.L360:
 4300              		.align	2
 4301              	.L359:
 4302 17d4 00000000 		.word	Mci_Data_Xfer_End
 4303              		.cfi_endproc
 4304              	.LFE91:
 4306              		.align	2
 4307              		.global	MCI_GetXferErrState
 4308              		.thumb
 4309              		.thumb_func
 4311              	MCI_GetXferErrState:
 4312              	.LFB92:
2072:../src/lib/lpc177x_8x/Drivers/source/lpc177x_8x_mci.c **** /************************************************************************//**
2073:../src/lib/lpc177x_8x/Drivers/source/lpc177x_8x_mci.c ****  * @brief        Get the error state of  the lastest data transfer
2074:../src/lib/lpc177x_8x/Drivers/source/lpc177x_8x_mci.c ****  *
2075:../src/lib/lpc177x_8x/Drivers/source/lpc177x_8x_mci.c ****  * @param        None
2076:../src/lib/lpc177x_8x/Drivers/source/lpc177x_8x_mci.c ****  *
2077:../src/lib/lpc177x_8x/Drivers/source/lpc177x_8x_mci.c ****  * @return       Error state (stored by Mci_Data_Xfer_ERR variable)
2078:../src/lib/lpc177x_8x/Drivers/source/lpc177x_8x_mci.c ****  ****************************************************************************/
2079:../src/lib/lpc177x_8x/Drivers/source/lpc177x_8x_mci.c **** uint32_t MCI_GetXferErrState(void)
2080:../src/lib/lpc177x_8x/Drivers/source/lpc177x_8x_mci.c **** {
 4313              		.loc 2 2080 0
 4314              		.cfi_startproc
 4315              		@ args = 0, pretend = 0, frame = 0
 4316              		@ frame_needed = 1, uses_anonymous_args = 0
 4317              		@ link register save eliminated.
 4318 17d8 80B4     		push	{r7}
 4319              	.LCFI105:
 4320              		.cfi_def_cfa_offset 4
 4321              		.cfi_offset 7, -4
 4322 17da 00AF     		add	r7, sp, #0
 4323              	.LCFI106:
 4324              		.cfi_def_cfa_register 7
2081:../src/lib/lpc177x_8x/Drivers/source/lpc177x_8x_mci.c ****     return Mci_Data_Xfer_ERR;
 4325              		.loc 2 2081 0
 4326 17dc 024B     		ldr	r3, .L363
 4327 17de 1B68     		ldr	r3, [r3, #0]
2082:../src/lib/lpc177x_8x/Drivers/source/lpc177x_8x_mci.c **** }
 4328              		.loc 2 2082 0
 4329 17e0 1846     		mov	r0, r3
 4330 17e2 BD46     		mov	sp, r7
 4331 17e4 80BC     		pop	{r7}
 4332 17e6 7047     		bx	lr
 4333              	.L364:
 4334              		.align	2
 4335              	.L363:
 4336 17e8 00000000 		.word	Mci_Data_Xfer_ERR
 4337              		.cfi_endproc
 4338              	.LFE92:
 4340              		.align	2
 4341              		.global	MCI_Cmd_StopTransmission
 4342              		.thumb
 4343              		.thumb_func
 4345              	MCI_Cmd_StopTransmission:
 4346              	.LFB93:
2083:../src/lib/lpc177x_8x/Drivers/source/lpc177x_8x_mci.c **** 
2084:../src/lib/lpc177x_8x/Drivers/source/lpc177x_8x_mci.c **** /************************************************************************//**
2085:../src/lib/lpc177x_8x/Drivers/source/lpc177x_8x_mci.c ****  * @brief        Stop the current transmission on the bus by sending command CMD12
2086:../src/lib/lpc177x_8x/Drivers/source/lpc177x_8x_mci.c ****  *                (STOP_TRANSMISSION). In this case, the card may be in a unknown
2087:../src/lib/lpc177x_8x/Drivers/source/lpc177x_8x_mci.c ****  *                state. So that it need a warm reset for normal operation.
2088:../src/lib/lpc177x_8x/Drivers/source/lpc177x_8x_mci.c ****  *
2089:../src/lib/lpc177x_8x/Drivers/source/lpc177x_8x_mci.c ****  * @param[in]    None
2090:../src/lib/lpc177x_8x/Drivers/source/lpc177x_8x_mci.c ****  *
2091:../src/lib/lpc177x_8x/Drivers/source/lpc177x_8x_mci.c ****  * @return       MCI_FUNC_OK if all success
2092:../src/lib/lpc177x_8x/Drivers/source/lpc177x_8x_mci.c ****  ****************************************************************************/
2093:../src/lib/lpc177x_8x/Drivers/source/lpc177x_8x_mci.c **** int32_t MCI_Cmd_StopTransmission( void )
2094:../src/lib/lpc177x_8x/Drivers/source/lpc177x_8x_mci.c **** {
 4347              		.loc 2 2094 0
 4348              		.cfi_startproc
 4349              		@ args = 0, pretend = 0, frame = 56
 4350              		@ frame_needed = 1, uses_anonymous_args = 0
 4351 17ec 80B5     		push	{r7, lr}
 4352              	.LCFI107:
 4353              		.cfi_def_cfa_offset 8
 4354              		.cfi_offset 7, -8
 4355              		.cfi_offset 14, -4
 4356 17ee 8EB0     		sub	sp, sp, #56
 4357              	.LCFI108:
 4358              		.cfi_def_cfa_offset 64
 4359 17f0 00AF     		add	r7, sp, #0
 4360              	.LCFI109:
 4361              		.cfi_def_cfa_register 7
2095:../src/lib/lpc177x_8x/Drivers/source/lpc177x_8x_mci.c ****     volatile uint32_t i;
2096:../src/lib/lpc177x_8x/Drivers/source/lpc177x_8x_mci.c ****     uint32_t retryCount;
2097:../src/lib/lpc177x_8x/Drivers/source/lpc177x_8x_mci.c ****     uint32_t respStatus;
2098:../src/lib/lpc177x_8x/Drivers/source/lpc177x_8x_mci.c ****     uint32_t respValue[4];
2099:../src/lib/lpc177x_8x/Drivers/source/lpc177x_8x_mci.c ****     st_Mci_CmdInfo cmdIf;
2100:../src/lib/lpc177x_8x/Drivers/source/lpc177x_8x_mci.c ****     int32_t retval = MCI_FUNC_FAILED;
 4362              		.loc 2 2100 0
 4363 17f2 4FF0FF33 		mov	r3, #-1
 4364 17f6 3B63     		str	r3, [r7, #48]
2101:../src/lib/lpc177x_8x/Drivers/source/lpc177x_8x_mci.c **** 
2102:../src/lib/lpc177x_8x/Drivers/source/lpc177x_8x_mci.c ****     /* do nothing when the card is in tran state */
2103:../src/lib/lpc177x_8x/Drivers/source/lpc177x_8x_mci.c ****     if(MCI_CheckStatus(CARD_STATE_TRAN) == MCI_FUNC_OK) 
 4365              		.loc 2 2103 0
 4366 17f8 4FF00400 		mov	r0, #4
 4367 17fc FFF7FEFF 		bl	MCI_CheckStatus
 4368 1800 0346     		mov	r3, r0
 4369 1802 002B     		cmp	r3, #0
 4370 1804 02D1     		bne	.L366
2104:../src/lib/lpc177x_8x/Drivers/source/lpc177x_8x_mci.c ****     {
2105:../src/lib/lpc177x_8x/Drivers/source/lpc177x_8x_mci.c ****         return MCI_FUNC_OK;
 4371              		.loc 2 2105 0
 4372 1806 4FF00003 		mov	r3, #0
 4373 180a 5FE0     		b	.L376
 4374              	.L366:
2106:../src/lib/lpc177x_8x/Drivers/source/lpc177x_8x_mci.c ****     }
2107:../src/lib/lpc177x_8x/Drivers/source/lpc177x_8x_mci.c ****     
2108:../src/lib/lpc177x_8x/Drivers/source/lpc177x_8x_mci.c ****     retryCount = 0x20;
 4375              		.loc 2 2108 0
 4376 180c 4FF02003 		mov	r3, #32
 4377 1810 7B63     		str	r3, [r7, #52]
2109:../src/lib/lpc177x_8x/Drivers/source/lpc177x_8x_mci.c ****     cmdIf.CmdIndex = CMD12_STOP_TRANSMISSION;
 4378              		.loc 2 2109 0
 4379 1812 4FF00C03 		mov	r3, #12
 4380 1816 7B60     		str	r3, [r7, #4]
2110:../src/lib/lpc177x_8x/Drivers/source/lpc177x_8x_mci.c ****     cmdIf.Argument = 0x00000000;
 4381              		.loc 2 2110 0
 4382 1818 4FF00003 		mov	r3, #0
 4383 181c BB60     		str	r3, [r7, #8]
2111:../src/lib/lpc177x_8x/Drivers/source/lpc177x_8x_mci.c ****     cmdIf.ExpectResp = EXPECT_SHORT_RESP;
 4384              		.loc 2 2111 0
 4385 181e 4FF00103 		mov	r3, #1
 4386 1822 FB60     		str	r3, [r7, #12]
2112:../src/lib/lpc177x_8x/Drivers/source/lpc177x_8x_mci.c ****     cmdIf.AllowTimeout = ALLOW_CMD_TIMER;
 4387              		.loc 2 2112 0
 4388 1824 4FF00103 		mov	r3, #1
 4389 1828 3B61     		str	r3, [r7, #16]
2113:../src/lib/lpc177x_8x/Drivers/source/lpc177x_8x_mci.c ****     cmdIf.CmdResp =  (uint32_t *)&respValue[0];
 4390              		.loc 2 2113 0
 4391 182a 07F11803 		add	r3, r7, #24
 4392 182e 7B61     		str	r3, [r7, #20]
2114:../src/lib/lpc177x_8x/Drivers/source/lpc177x_8x_mci.c ****     while ( retryCount > 0 )
 4393              		.loc 2 2114 0
 4394 1830 48E0     		b	.L368
 4395              	.L375:
2115:../src/lib/lpc177x_8x/Drivers/source/lpc177x_8x_mci.c ****     {
2116:../src/lib/lpc177x_8x/Drivers/source/lpc177x_8x_mci.c ****         /* Check current status */
2117:../src/lib/lpc177x_8x/Drivers/source/lpc177x_8x_mci.c ****          if((MCI_CheckStatus(CARD_STATE_DATA) != MCI_FUNC_OK) &&
 4396              		.loc 2 2117 0
 4397 1832 4FF00500 		mov	r0, #5
 4398 1836 FFF7FEFF 		bl	MCI_CheckStatus
 4399 183a 0346     		mov	r3, r0
 4400 183c 002B     		cmp	r3, #0
 4401 183e 09D0     		beq	.L369
2118:../src/lib/lpc177x_8x/Drivers/source/lpc177x_8x_mci.c ****               (MCI_CheckStatus(CARD_STATE_RCV) != MCI_FUNC_OK))
 4402              		.loc 2 2118 0 discriminator 1
 4403 1840 4FF00600 		mov	r0, #6
 4404 1844 FFF7FEFF 		bl	MCI_CheckStatus
 4405 1848 0346     		mov	r3, r0
2117:../src/lib/lpc177x_8x/Drivers/source/lpc177x_8x_mci.c ****          if((MCI_CheckStatus(CARD_STATE_DATA) != MCI_FUNC_OK) &&
 4406              		.loc 2 2117 0 discriminator 1
 4407 184a 002B     		cmp	r3, #0
 4408 184c 02D0     		beq	.L369
2119:../src/lib/lpc177x_8x/Drivers/source/lpc177x_8x_mci.c ****               return MCI_FUNC_ERR_STATE;
 4409              		.loc 2 2119 0
 4410 184e 6FF00303 		mvn	r3, #3
 4411 1852 3BE0     		b	.L376
 4412              	.L369:
2120:../src/lib/lpc177x_8x/Drivers/source/lpc177x_8x_mci.c ****          
2121:../src/lib/lpc177x_8x/Drivers/source/lpc177x_8x_mci.c ****         respStatus = MCI_CmdResp(&cmdIf);
 4413              		.loc 2 2121 0
 4414 1854 07F10403 		add	r3, r7, #4
 4415 1858 1846     		mov	r0, r3
 4416 185a FFF7FEFF 		bl	MCI_CmdResp
 4417 185e 0346     		mov	r3, r0
 4418 1860 FB62     		str	r3, [r7, #44]
2122:../src/lib/lpc177x_8x/Drivers/source/lpc177x_8x_mci.c **** 
2123:../src/lib/lpc177x_8x/Drivers/source/lpc177x_8x_mci.c ****         if(respStatus)
 4419              		.loc 2 2123 0
 4420 1862 FB6A     		ldr	r3, [r7, #44]
 4421 1864 002B     		cmp	r3, #0
 4422 1866 06D0     		beq	.L370
2124:../src/lib/lpc177x_8x/Drivers/source/lpc177x_8x_mci.c ****         {
2125:../src/lib/lpc177x_8x/Drivers/source/lpc177x_8x_mci.c ****             retval = MCI_FUNC_FAILED;
 4423              		.loc 2 2125 0
 4424 1868 4FF0FF33 		mov	r3, #-1
 4425 186c 3B63     		str	r3, [r7, #48]
2126:../src/lib/lpc177x_8x/Drivers/source/lpc177x_8x_mci.c ****         }
2127:../src/lib/lpc177x_8x/Drivers/source/lpc177x_8x_mci.c ****         else if (respValue[0] & CARD_STATUS_ERR_MASK)
2128:../src/lib/lpc177x_8x/Drivers/source/lpc177x_8x_mci.c ****         {
2129:../src/lib/lpc177x_8x/Drivers/source/lpc177x_8x_mci.c ****             return MCI_FUNC_BAD_PARAMETERS;
2130:../src/lib/lpc177x_8x/Drivers/source/lpc177x_8x_mci.c ****         }
2131:../src/lib/lpc177x_8x/Drivers/source/lpc177x_8x_mci.c ****         else
2132:../src/lib/lpc177x_8x/Drivers/source/lpc177x_8x_mci.c ****         {
2133:../src/lib/lpc177x_8x/Drivers/source/lpc177x_8x_mci.c ****             if((MCI_CheckStatus(CARD_STATE_PRG) != MCI_FUNC_OK) &&
2134:../src/lib/lpc177x_8x/Drivers/source/lpc177x_8x_mci.c ****               (MCI_CheckStatus(CARD_STATE_TRAN) != MCI_FUNC_OK))
2135:../src/lib/lpc177x_8x/Drivers/source/lpc177x_8x_mci.c ****               return MCI_FUNC_ERR_STATE;
2136:../src/lib/lpc177x_8x/Drivers/source/lpc177x_8x_mci.c ****             return MCI_FUNC_OK;
2137:../src/lib/lpc177x_8x/Drivers/source/lpc177x_8x_mci.c ****         }
2138:../src/lib/lpc177x_8x/Drivers/source/lpc177x_8x_mci.c **** 
2139:../src/lib/lpc177x_8x/Drivers/source/lpc177x_8x_mci.c ****         for ( i = 0; i < 0x20; i++ );
 4426              		.loc 2 2139 0
 4427 186e 4FF00003 		mov	r3, #0
 4428 1872 BB62     		str	r3, [r7, #40]
 4429 1874 1FE0     		b	.L371
 4430              	.L370:
2127:../src/lib/lpc177x_8x/Drivers/source/lpc177x_8x_mci.c ****         else if (respValue[0] & CARD_STATUS_ERR_MASK)
 4431              		.loc 2 2127 0
 4432 1876 BA69     		ldr	r2, [r7, #24]
 4433 1878 174B     		ldr	r3, .L377
 4434 187a 1340     		ands	r3, r3, r2
 4435 187c 002B     		cmp	r3, #0
 4436 187e 02D0     		beq	.L372
2129:../src/lib/lpc177x_8x/Drivers/source/lpc177x_8x_mci.c ****             return MCI_FUNC_BAD_PARAMETERS;
 4437              		.loc 2 2129 0
 4438 1880 6FF00103 		mvn	r3, #1
 4439 1884 22E0     		b	.L376
 4440              	.L372:
2133:../src/lib/lpc177x_8x/Drivers/source/lpc177x_8x_mci.c ****             if((MCI_CheckStatus(CARD_STATE_PRG) != MCI_FUNC_OK) &&
 4441              		.loc 2 2133 0
 4442 1886 4FF00700 		mov	r0, #7
 4443 188a FFF7FEFF 		bl	MCI_CheckStatus
 4444 188e 0346     		mov	r3, r0
 4445 1890 002B     		cmp	r3, #0
 4446 1892 09D0     		beq	.L373
2134:../src/lib/lpc177x_8x/Drivers/source/lpc177x_8x_mci.c ****               (MCI_CheckStatus(CARD_STATE_TRAN) != MCI_FUNC_OK))
 4447              		.loc 2 2134 0 discriminator 1
 4448 1894 4FF00400 		mov	r0, #4
 4449 1898 FFF7FEFF 		bl	MCI_CheckStatus
 4450 189c 0346     		mov	r3, r0
2133:../src/lib/lpc177x_8x/Drivers/source/lpc177x_8x_mci.c ****             if((MCI_CheckStatus(CARD_STATE_PRG) != MCI_FUNC_OK) &&
 4451              		.loc 2 2133 0 discriminator 1
 4452 189e 002B     		cmp	r3, #0
 4453 18a0 02D0     		beq	.L373
2135:../src/lib/lpc177x_8x/Drivers/source/lpc177x_8x_mci.c ****               return MCI_FUNC_ERR_STATE;
 4454              		.loc 2 2135 0
 4455 18a2 6FF00303 		mvn	r3, #3
 4456 18a6 11E0     		b	.L376
 4457              	.L373:
2136:../src/lib/lpc177x_8x/Drivers/source/lpc177x_8x_mci.c ****             return MCI_FUNC_OK;
 4458              		.loc 2 2136 0
 4459 18a8 4FF00003 		mov	r3, #0
 4460 18ac 0EE0     		b	.L376
 4461              	.L374:
 4462              		.loc 2 2139 0 discriminator 2
 4463 18ae BB6A     		ldr	r3, [r7, #40]
 4464 18b0 03F10103 		add	r3, r3, #1
 4465 18b4 BB62     		str	r3, [r7, #40]
 4466              	.L371:
 4467              		.loc 2 2139 0 is_stmt 0 discriminator 1
 4468 18b6 BB6A     		ldr	r3, [r7, #40]
 4469 18b8 1F2B     		cmp	r3, #31
 4470 18ba F8D9     		bls	.L374
2140:../src/lib/lpc177x_8x/Drivers/source/lpc177x_8x_mci.c **** 
2141:../src/lib/lpc177x_8x/Drivers/source/lpc177x_8x_mci.c ****         retryCount--;
 4471              		.loc 2 2141 0 is_stmt 1
 4472 18bc 7B6B     		ldr	r3, [r7, #52]
 4473 18be 03F1FF33 		add	r3, r3, #-1
 4474 18c2 7B63     		str	r3, [r7, #52]
 4475              	.L368:
2114:../src/lib/lpc177x_8x/Drivers/source/lpc177x_8x_mci.c ****     while ( retryCount > 0 )
 4476              		.loc 2 2114 0 discriminator 1
 4477 18c4 7B6B     		ldr	r3, [r7, #52]
 4478 18c6 002B     		cmp	r3, #0
 4479 18c8 B3D1     		bne	.L375
2142:../src/lib/lpc177x_8x/Drivers/source/lpc177x_8x_mci.c ****     }
2143:../src/lib/lpc177x_8x/Drivers/source/lpc177x_8x_mci.c **** 
2144:../src/lib/lpc177x_8x/Drivers/source/lpc177x_8x_mci.c ****     return retval;
 4480              		.loc 2 2144 0
 4481 18ca 3B6B     		ldr	r3, [r7, #48]
 4482              	.L376:
2145:../src/lib/lpc177x_8x/Drivers/source/lpc177x_8x_mci.c **** }
 4483              		.loc 2 2145 0
 4484 18cc 1846     		mov	r0, r3
 4485 18ce 07F13807 		add	r7, r7, #56
 4486 18d2 BD46     		mov	sp, r7
 4487 18d4 80BD     		pop	{r7, pc}
 4488              	.L378:
 4489 18d6 00BF     		.align	2
 4490              	.L377:
 4491 18d8 0880F8FD 		.word	-34045944
 4492              		.cfi_endproc
 4493              	.LFE93:
 4495              		.align	2
 4496              		.global	MCI_Cmd_WriteBlock
 4497              		.thumb
 4498              		.thumb_func
 4500              	MCI_Cmd_WriteBlock:
 4501              	.LFB94:
2146:../src/lib/lpc177x_8x/Drivers/source/lpc177x_8x_mci.c **** 
2147:../src/lib/lpc177x_8x/Drivers/source/lpc177x_8x_mci.c **** 
2148:../src/lib/lpc177x_8x/Drivers/source/lpc177x_8x_mci.c **** /************************************************************************//**
2149:../src/lib/lpc177x_8x/Drivers/source/lpc177x_8x_mci.c ****  * @brief        Write blocks to card by sending command CMD24 (WRITE_BLOCK) or
2150:../src/lib/lpc177x_8x/Drivers/source/lpc177x_8x_mci.c ****  *                command CMD25 (WRITE_MULTIPLE_BLOCK) followed by the blocks of
2151:../src/lib/lpc177x_8x/Drivers/source/lpc177x_8x_mci.c ****  *                data to be written.
2152:../src/lib/lpc177x_8x/Drivers/source/lpc177x_8x_mci.c ****  *
2153:../src/lib/lpc177x_8x/Drivers/source/lpc177x_8x_mci.c ****  * @param[in]    blockNum The block number to start writting
2154:../src/lib/lpc177x_8x/Drivers/source/lpc177x_8x_mci.c ****  *
2155:../src/lib/lpc177x_8x/Drivers/source/lpc177x_8x_mci.c ****  * @param[in]    numOfBlock Determine how many blocks will be written (from the
2156:../src/lib/lpc177x_8x/Drivers/source/lpc177x_8x_mci.c ****  *                starting block)
2157:../src/lib/lpc177x_8x/Drivers/source/lpc177x_8x_mci.c ****  *
2158:../src/lib/lpc177x_8x/Drivers/source/lpc177x_8x_mci.c ****  * @return       MCI_FUNC_OK if all success
2159:../src/lib/lpc177x_8x/Drivers/source/lpc177x_8x_mci.c ****  *
2160:../src/lib/lpc177x_8x/Drivers/source/lpc177x_8x_mci.c ****  * @note        These commands should be sent in TRANS state.
2161:../src/lib/lpc177x_8x/Drivers/source/lpc177x_8x_mci.c ****  ****************************************************************************/
2162:../src/lib/lpc177x_8x/Drivers/source/lpc177x_8x_mci.c **** int32_t MCI_Cmd_WriteBlock(uint32_t blockNum, uint32_t numOfBlock)
2163:../src/lib/lpc177x_8x/Drivers/source/lpc177x_8x_mci.c **** {
 4502              		.loc 2 2163 0
 4503              		.cfi_startproc
 4504              		@ args = 0, pretend = 0, frame = 64
 4505              		@ frame_needed = 1, uses_anonymous_args = 0
 4506 18dc 80B5     		push	{r7, lr}
 4507              	.LCFI110:
 4508              		.cfi_def_cfa_offset 8
 4509              		.cfi_offset 7, -8
 4510              		.cfi_offset 14, -4
 4511 18de 90B0     		sub	sp, sp, #64
 4512              	.LCFI111:
 4513              		.cfi_def_cfa_offset 72
 4514 18e0 00AF     		add	r7, sp, #0
 4515              	.LCFI112:
 4516              		.cfi_def_cfa_register 7
 4517 18e2 7860     		str	r0, [r7, #4]
 4518 18e4 3960     		str	r1, [r7, #0]
2164:../src/lib/lpc177x_8x/Drivers/source/lpc177x_8x_mci.c ****     volatile uint32_t i;
2165:../src/lib/lpc177x_8x/Drivers/source/lpc177x_8x_mci.c ****     uint32_t retryCount;
2166:../src/lib/lpc177x_8x/Drivers/source/lpc177x_8x_mci.c ****     uint32_t respStatus;
2167:../src/lib/lpc177x_8x/Drivers/source/lpc177x_8x_mci.c ****     uint32_t respValue[4];
2168:../src/lib/lpc177x_8x/Drivers/source/lpc177x_8x_mci.c ****     st_Mci_CmdInfo cmdIf;
2169:../src/lib/lpc177x_8x/Drivers/source/lpc177x_8x_mci.c ****     uint32_t commandID;
2170:../src/lib/lpc177x_8x/Drivers/source/lpc177x_8x_mci.c **** 
2171:../src/lib/lpc177x_8x/Drivers/source/lpc177x_8x_mci.c ****     int32_t retval = MCI_FUNC_FAILED;
 4519              		.loc 2 2171 0
 4520 18e6 4FF0FF33 		mov	r3, #-1
 4521 18ea 7B63     		str	r3, [r7, #52]
2172:../src/lib/lpc177x_8x/Drivers/source/lpc177x_8x_mci.c **** 
2173:../src/lib/lpc177x_8x/Drivers/source/lpc177x_8x_mci.c ****     if (numOfBlock > 1)
 4522              		.loc 2 2173 0
 4523 18ec 3B68     		ldr	r3, [r7, #0]
 4524 18ee 012B     		cmp	r3, #1
 4525 18f0 03D9     		bls	.L380
2174:../src/lib/lpc177x_8x/Drivers/source/lpc177x_8x_mci.c ****     {
2175:../src/lib/lpc177x_8x/Drivers/source/lpc177x_8x_mci.c ****         commandID = CMD25_WRITE_MULTIPLE_BLOCK;
 4526              		.loc 2 2175 0
 4527 18f2 4FF01903 		mov	r3, #25
 4528 18f6 BB63     		str	r3, [r7, #56]
 4529 18f8 02E0     		b	.L381
 4530              	.L380:
2176:../src/lib/lpc177x_8x/Drivers/source/lpc177x_8x_mci.c ****     }
2177:../src/lib/lpc177x_8x/Drivers/source/lpc177x_8x_mci.c ****     else
2178:../src/lib/lpc177x_8x/Drivers/source/lpc177x_8x_mci.c ****     {
2179:../src/lib/lpc177x_8x/Drivers/source/lpc177x_8x_mci.c ****         commandID = CMD24_WRITE_BLOCK;
 4531              		.loc 2 2179 0
 4532 18fa 4FF01803 		mov	r3, #24
 4533 18fe BB63     		str	r3, [r7, #56]
 4534              	.L381:
2180:../src/lib/lpc177x_8x/Drivers/source/lpc177x_8x_mci.c ****     }
2181:../src/lib/lpc177x_8x/Drivers/source/lpc177x_8x_mci.c ****     
2182:../src/lib/lpc177x_8x/Drivers/source/lpc177x_8x_mci.c ****     retryCount = 0x20;
 4535              		.loc 2 2182 0
 4536 1900 4FF02003 		mov	r3, #32
 4537 1904 FB63     		str	r3, [r7, #60]
2183:../src/lib/lpc177x_8x/Drivers/source/lpc177x_8x_mci.c ****     cmdIf.CmdIndex = commandID;
 4538              		.loc 2 2183 0
 4539 1906 BB6B     		ldr	r3, [r7, #56]
 4540 1908 BB60     		str	r3, [r7, #8]
2184:../src/lib/lpc177x_8x/Drivers/source/lpc177x_8x_mci.c ****     if (MCI_CardType == MCI_SDHC_SDXC_CARD)
 4541              		.loc 2 2184 0
 4542 190a 314B     		ldr	r3, .L394
 4543 190c 1B78     		ldrb	r3, [r3, #0]
 4544 190e DBB2     		uxtb	r3, r3
 4545 1910 5BB2     		sxtb	r3, r3
 4546 1912 032B     		cmp	r3, #3
 4547 1914 02D1     		bne	.L382
2185:../src/lib/lpc177x_8x/Drivers/source/lpc177x_8x_mci.c ****     {
2186:../src/lib/lpc177x_8x/Drivers/source/lpc177x_8x_mci.c ****         cmdIf.Argument = blockNum;                      /* Block Address */
 4548              		.loc 2 2186 0
 4549 1916 7B68     		ldr	r3, [r7, #4]
 4550 1918 FB60     		str	r3, [r7, #12]
 4551 191a 03E0     		b	.L383
 4552              	.L382:
2187:../src/lib/lpc177x_8x/Drivers/source/lpc177x_8x_mci.c ****     }
2188:../src/lib/lpc177x_8x/Drivers/source/lpc177x_8x_mci.c ****     else            
2189:../src/lib/lpc177x_8x/Drivers/source/lpc177x_8x_mci.c ****     {
2190:../src/lib/lpc177x_8x/Drivers/source/lpc177x_8x_mci.c ****         cmdIf.Argument = blockNum * BLOCK_LENGTH;       /* Byte Address */
 4553              		.loc 2 2190 0
 4554 191c 7B68     		ldr	r3, [r7, #4]
 4555 191e 4FEA4323 		lsl	r3, r3, #9
 4556 1922 FB60     		str	r3, [r7, #12]
 4557              	.L383:
2191:../src/lib/lpc177x_8x/Drivers/source/lpc177x_8x_mci.c ****     }     
2192:../src/lib/lpc177x_8x/Drivers/source/lpc177x_8x_mci.c ****     cmdIf.ExpectResp = EXPECT_SHORT_RESP;
 4558              		.loc 2 2192 0
 4559 1924 4FF00103 		mov	r3, #1
 4560 1928 3B61     		str	r3, [r7, #16]
2193:../src/lib/lpc177x_8x/Drivers/source/lpc177x_8x_mci.c ****     cmdIf.AllowTimeout = ALLOW_CMD_TIMER;
 4561              		.loc 2 2193 0
 4562 192a 4FF00103 		mov	r3, #1
 4563 192e 7B61     		str	r3, [r7, #20]
2194:../src/lib/lpc177x_8x/Drivers/source/lpc177x_8x_mci.c ****     cmdIf.CmdResp =  (uint32_t *)&respValue[0];
 4564              		.loc 2 2194 0
 4565 1930 07F11C03 		add	r3, r7, #28
 4566 1934 BB61     		str	r3, [r7, #24]
2195:../src/lib/lpc177x_8x/Drivers/source/lpc177x_8x_mci.c ****     
2196:../src/lib/lpc177x_8x/Drivers/source/lpc177x_8x_mci.c ****     while ( retryCount > 0 )
 4567              		.loc 2 2196 0
 4568 1936 41E0     		b	.L384
 4569              	.L392:
2197:../src/lib/lpc177x_8x/Drivers/source/lpc177x_8x_mci.c ****     {
2198:../src/lib/lpc177x_8x/Drivers/source/lpc177x_8x_mci.c ****          /* Check current status */
2199:../src/lib/lpc177x_8x/Drivers/source/lpc177x_8x_mci.c ****         if((MCI_CheckStatus(CARD_STATE_TRAN) != MCI_FUNC_OK))
 4570              		.loc 2 2199 0
 4571 1938 4FF00400 		mov	r0, #4
 4572 193c FFF7FEFF 		bl	MCI_CheckStatus
 4573 1940 0346     		mov	r3, r0
 4574 1942 002B     		cmp	r3, #0
 4575 1944 02D0     		beq	.L385
2200:../src/lib/lpc177x_8x/Drivers/source/lpc177x_8x_mci.c ****             return MCI_FUNC_ERR_STATE;
 4576              		.loc 2 2200 0
 4577 1946 6FF00303 		mvn	r3, #3
 4578 194a 3BE0     		b	.L393
 4579              	.L385:
2201:../src/lib/lpc177x_8x/Drivers/source/lpc177x_8x_mci.c ****    
2202:../src/lib/lpc177x_8x/Drivers/source/lpc177x_8x_mci.c ****         respStatus = MCI_CmdResp(&cmdIf);
 4580              		.loc 2 2202 0
 4581 194c 07F10803 		add	r3, r7, #8
 4582 1950 1846     		mov	r0, r3
 4583 1952 FFF7FEFF 		bl	MCI_CmdResp
 4584 1956 0346     		mov	r3, r0
 4585 1958 3B63     		str	r3, [r7, #48]
2203:../src/lib/lpc177x_8x/Drivers/source/lpc177x_8x_mci.c **** 
2204:../src/lib/lpc177x_8x/Drivers/source/lpc177x_8x_mci.c ****         if(respStatus)
 4586              		.loc 2 2204 0
 4587 195a 3B6B     		ldr	r3, [r7, #48]
 4588 195c 002B     		cmp	r3, #0
 4589 195e 06D0     		beq	.L387
2205:../src/lib/lpc177x_8x/Drivers/source/lpc177x_8x_mci.c ****         {
2206:../src/lib/lpc177x_8x/Drivers/source/lpc177x_8x_mci.c ****             retval = MCI_FUNC_FAILED;
 4590              		.loc 2 2206 0
 4591 1960 4FF0FF33 		mov	r3, #-1
 4592 1964 7B63     		str	r3, [r7, #52]
2207:../src/lib/lpc177x_8x/Drivers/source/lpc177x_8x_mci.c ****         }
2208:../src/lib/lpc177x_8x/Drivers/source/lpc177x_8x_mci.c ****         else if (respValue[0] & CARD_STATUS_ERR_MASK)
2209:../src/lib/lpc177x_8x/Drivers/source/lpc177x_8x_mci.c ****         {
2210:../src/lib/lpc177x_8x/Drivers/source/lpc177x_8x_mci.c ****             return MCI_FUNC_BAD_PARAMETERS;
2211:../src/lib/lpc177x_8x/Drivers/source/lpc177x_8x_mci.c ****         }
2212:../src/lib/lpc177x_8x/Drivers/source/lpc177x_8x_mci.c ****         else 
2213:../src/lib/lpc177x_8x/Drivers/source/lpc177x_8x_mci.c ****         {
2214:../src/lib/lpc177x_8x/Drivers/source/lpc177x_8x_mci.c ****             if((MCI_CheckStatus(CARD_STATE_RCV) != MCI_FUNC_OK) &&
2215:../src/lib/lpc177x_8x/Drivers/source/lpc177x_8x_mci.c ****               (MCI_CheckStatus(CARD_STATE_TRAN) != MCI_FUNC_OK))
2216:../src/lib/lpc177x_8x/Drivers/source/lpc177x_8x_mci.c ****               return MCI_FUNC_ERR_STATE;
2217:../src/lib/lpc177x_8x/Drivers/source/lpc177x_8x_mci.c ****             return MCI_FUNC_OK;
2218:../src/lib/lpc177x_8x/Drivers/source/lpc177x_8x_mci.c ****         }
2219:../src/lib/lpc177x_8x/Drivers/source/lpc177x_8x_mci.c ****         
2220:../src/lib/lpc177x_8x/Drivers/source/lpc177x_8x_mci.c **** 
2221:../src/lib/lpc177x_8x/Drivers/source/lpc177x_8x_mci.c ****         for ( i = 0; i < 0x20; i++ );
 4593              		.loc 2 2221 0
 4594 1966 4FF00003 		mov	r3, #0
 4595 196a FB62     		str	r3, [r7, #44]
 4596 196c 1FE0     		b	.L388
 4597              	.L387:
2208:../src/lib/lpc177x_8x/Drivers/source/lpc177x_8x_mci.c ****         else if (respValue[0] & CARD_STATUS_ERR_MASK)
 4598              		.loc 2 2208 0
 4599 196e FA69     		ldr	r2, [r7, #28]
 4600 1970 184B     		ldr	r3, .L394+4
 4601 1972 1340     		ands	r3, r3, r2
 4602 1974 002B     		cmp	r3, #0
 4603 1976 02D0     		beq	.L389
2210:../src/lib/lpc177x_8x/Drivers/source/lpc177x_8x_mci.c ****             return MCI_FUNC_BAD_PARAMETERS;
 4604              		.loc 2 2210 0
 4605 1978 6FF00103 		mvn	r3, #1
 4606 197c 22E0     		b	.L393
 4607              	.L389:
2214:../src/lib/lpc177x_8x/Drivers/source/lpc177x_8x_mci.c ****             if((MCI_CheckStatus(CARD_STATE_RCV) != MCI_FUNC_OK) &&
 4608              		.loc 2 2214 0
 4609 197e 4FF00600 		mov	r0, #6
 4610 1982 FFF7FEFF 		bl	MCI_CheckStatus
 4611 1986 0346     		mov	r3, r0
 4612 1988 002B     		cmp	r3, #0
 4613 198a 09D0     		beq	.L390
2215:../src/lib/lpc177x_8x/Drivers/source/lpc177x_8x_mci.c ****               (MCI_CheckStatus(CARD_STATE_TRAN) != MCI_FUNC_OK))
 4614              		.loc 2 2215 0 discriminator 1
 4615 198c 4FF00400 		mov	r0, #4
 4616 1990 FFF7FEFF 		bl	MCI_CheckStatus
 4617 1994 0346     		mov	r3, r0
2214:../src/lib/lpc177x_8x/Drivers/source/lpc177x_8x_mci.c ****             if((MCI_CheckStatus(CARD_STATE_RCV) != MCI_FUNC_OK) &&
 4618              		.loc 2 2214 0 discriminator 1
 4619 1996 002B     		cmp	r3, #0
 4620 1998 02D0     		beq	.L390
2216:../src/lib/lpc177x_8x/Drivers/source/lpc177x_8x_mci.c ****               return MCI_FUNC_ERR_STATE;
 4621              		.loc 2 2216 0
 4622 199a 6FF00303 		mvn	r3, #3
 4623 199e 11E0     		b	.L393
 4624              	.L390:
2217:../src/lib/lpc177x_8x/Drivers/source/lpc177x_8x_mci.c ****             return MCI_FUNC_OK;
 4625              		.loc 2 2217 0
 4626 19a0 4FF00003 		mov	r3, #0
 4627 19a4 0EE0     		b	.L393
 4628              	.L391:
 4629              		.loc 2 2221 0 discriminator 2
 4630 19a6 FB6A     		ldr	r3, [r7, #44]
 4631 19a8 03F10103 		add	r3, r3, #1
 4632 19ac FB62     		str	r3, [r7, #44]
 4633              	.L388:
 4634              		.loc 2 2221 0 is_stmt 0 discriminator 1
 4635 19ae FB6A     		ldr	r3, [r7, #44]
 4636 19b0 1F2B     		cmp	r3, #31
 4637 19b2 F8D9     		bls	.L391
2222:../src/lib/lpc177x_8x/Drivers/source/lpc177x_8x_mci.c **** 
2223:../src/lib/lpc177x_8x/Drivers/source/lpc177x_8x_mci.c ****         retryCount--;
 4638              		.loc 2 2223 0 is_stmt 1
 4639 19b4 FB6B     		ldr	r3, [r7, #60]
 4640 19b6 03F1FF33 		add	r3, r3, #-1
 4641 19ba FB63     		str	r3, [r7, #60]
 4642              	.L384:
2196:../src/lib/lpc177x_8x/Drivers/source/lpc177x_8x_mci.c ****     while ( retryCount > 0 )
 4643              		.loc 2 2196 0 discriminator 1
 4644 19bc FB6B     		ldr	r3, [r7, #60]
 4645 19be 002B     		cmp	r3, #0
 4646 19c0 BAD1     		bne	.L392
2224:../src/lib/lpc177x_8x/Drivers/source/lpc177x_8x_mci.c **** 
2225:../src/lib/lpc177x_8x/Drivers/source/lpc177x_8x_mci.c ****     }
2226:../src/lib/lpc177x_8x/Drivers/source/lpc177x_8x_mci.c **** 
2227:../src/lib/lpc177x_8x/Drivers/source/lpc177x_8x_mci.c ****     return retval;                /* Fatal error */
 4647              		.loc 2 2227 0
 4648 19c2 7B6B     		ldr	r3, [r7, #52]
 4649              	.L393:
2228:../src/lib/lpc177x_8x/Drivers/source/lpc177x_8x_mci.c **** }
 4650              		.loc 2 2228 0
 4651 19c4 1846     		mov	r0, r3
 4652 19c6 07F14007 		add	r7, r7, #64
 4653 19ca BD46     		mov	sp, r7
 4654 19cc 80BD     		pop	{r7, pc}
 4655              	.L395:
 4656 19ce 00BF     		.align	2
 4657              	.L394:
 4658 19d0 00000000 		.word	MCI_CardType
 4659 19d4 0880F8FD 		.word	-34045944
 4660              		.cfi_endproc
 4661              	.LFE94:
 4663              		.align	2
 4664              		.global	MCI_Cmd_ReadBlock
 4665              		.thumb
 4666              		.thumb_func
 4668              	MCI_Cmd_ReadBlock:
 4669              	.LFB95:
2229:../src/lib/lpc177x_8x/Drivers/source/lpc177x_8x_mci.c **** 
2230:../src/lib/lpc177x_8x/Drivers/source/lpc177x_8x_mci.c **** 
2231:../src/lib/lpc177x_8x/Drivers/source/lpc177x_8x_mci.c **** 
2232:../src/lib/lpc177x_8x/Drivers/source/lpc177x_8x_mci.c **** 
2233:../src/lib/lpc177x_8x/Drivers/source/lpc177x_8x_mci.c **** /************************************************************************//**
2234:../src/lib/lpc177x_8x/Drivers/source/lpc177x_8x_mci.c ****  * @brief        Read blocks to card by sending CMD17 (READ_SINGLE_BLOCK) or
2235:../src/lib/lpc177x_8x/Drivers/source/lpc177x_8x_mci.c ****  *                CMD18 (READ_MULTIPLE_BLOCK) commands followed by the blocks of
2236:../src/lib/lpc177x_8x/Drivers/source/lpc177x_8x_mci.c ****  *                data to be read.
2237:../src/lib/lpc177x_8x/Drivers/source/lpc177x_8x_mci.c ****  *
2238:../src/lib/lpc177x_8x/Drivers/source/lpc177x_8x_mci.c ****  * @param[in]    blockNum The block number to start reading
2239:../src/lib/lpc177x_8x/Drivers/source/lpc177x_8x_mci.c ****  *
2240:../src/lib/lpc177x_8x/Drivers/source/lpc177x_8x_mci.c ****  * @param[in]    numOfBlock Determine how many blocks will be read (from the
2241:../src/lib/lpc177x_8x/Drivers/source/lpc177x_8x_mci.c ****  *                starting block)
2242:../src/lib/lpc177x_8x/Drivers/source/lpc177x_8x_mci.c ****  *
2243:../src/lib/lpc177x_8x/Drivers/source/lpc177x_8x_mci.c ****  * @return       MCI_FUNC_OK if all success
2244:../src/lib/lpc177x_8x/Drivers/source/lpc177x_8x_mci.c ****  *
2245:../src/lib/lpc177x_8x/Drivers/source/lpc177x_8x_mci.c ****  * @note        These commands should be sent in TRANS state.
2246:../src/lib/lpc177x_8x/Drivers/source/lpc177x_8x_mci.c ****  ****************************************************************************/
2247:../src/lib/lpc177x_8x/Drivers/source/lpc177x_8x_mci.c **** int32_t MCI_Cmd_ReadBlock(uint32_t blockNum, uint32_t numOfBlock)
2248:../src/lib/lpc177x_8x/Drivers/source/lpc177x_8x_mci.c **** {
 4670              		.loc 2 2248 0
 4671              		.cfi_startproc
 4672              		@ args = 0, pretend = 0, frame = 64
 4673              		@ frame_needed = 1, uses_anonymous_args = 0
 4674 19d8 80B5     		push	{r7, lr}
 4675              	.LCFI113:
 4676              		.cfi_def_cfa_offset 8
 4677              		.cfi_offset 7, -8
 4678              		.cfi_offset 14, -4
 4679 19da 90B0     		sub	sp, sp, #64
 4680              	.LCFI114:
 4681              		.cfi_def_cfa_offset 72
 4682 19dc 00AF     		add	r7, sp, #0
 4683              	.LCFI115:
 4684              		.cfi_def_cfa_register 7
 4685 19de 7860     		str	r0, [r7, #4]
 4686 19e0 3960     		str	r1, [r7, #0]
2249:../src/lib/lpc177x_8x/Drivers/source/lpc177x_8x_mci.c ****     volatile uint32_t i;
2250:../src/lib/lpc177x_8x/Drivers/source/lpc177x_8x_mci.c ****     uint32_t retryCount;
2251:../src/lib/lpc177x_8x/Drivers/source/lpc177x_8x_mci.c ****     uint32_t respStatus;
2252:../src/lib/lpc177x_8x/Drivers/source/lpc177x_8x_mci.c ****     uint32_t respValue[4];
2253:../src/lib/lpc177x_8x/Drivers/source/lpc177x_8x_mci.c ****     uint32_t commandID;
2254:../src/lib/lpc177x_8x/Drivers/source/lpc177x_8x_mci.c ****     st_Mci_CmdInfo cmdIf;
2255:../src/lib/lpc177x_8x/Drivers/source/lpc177x_8x_mci.c ****     int32_t retval = MCI_FUNC_FAILED;
 4687              		.loc 2 2255 0
 4688 19e2 4FF0FF33 		mov	r3, #-1
 4689 19e6 7B63     		str	r3, [r7, #52]
2256:../src/lib/lpc177x_8x/Drivers/source/lpc177x_8x_mci.c ****   
2257:../src/lib/lpc177x_8x/Drivers/source/lpc177x_8x_mci.c ****     // To Do: Read Multi-Block
2258:../src/lib/lpc177x_8x/Drivers/source/lpc177x_8x_mci.c ****     if (numOfBlock > 1)
 4690              		.loc 2 2258 0
 4691 19e8 3B68     		ldr	r3, [r7, #0]
 4692 19ea 012B     		cmp	r3, #1
 4693 19ec 03D9     		bls	.L397
2259:../src/lib/lpc177x_8x/Drivers/source/lpc177x_8x_mci.c ****         commandID = CMD18_READ_MULTIPLE_BLOCK;
 4694              		.loc 2 2259 0
 4695 19ee 4FF01203 		mov	r3, #18
 4696 19f2 BB63     		str	r3, [r7, #56]
 4697 19f4 02E0     		b	.L398
 4698              	.L397:
2260:../src/lib/lpc177x_8x/Drivers/source/lpc177x_8x_mci.c ****     else
2261:../src/lib/lpc177x_8x/Drivers/source/lpc177x_8x_mci.c ****         commandID = CMD17_READ_SINGLE_BLOCK;
 4699              		.loc 2 2261 0
 4700 19f6 4FF01103 		mov	r3, #17
 4701 19fa BB63     		str	r3, [r7, #56]
 4702              	.L398:
2262:../src/lib/lpc177x_8x/Drivers/source/lpc177x_8x_mci.c **** 
2263:../src/lib/lpc177x_8x/Drivers/source/lpc177x_8x_mci.c ****     retryCount = 0x20;
 4703              		.loc 2 2263 0
 4704 19fc 4FF02003 		mov	r3, #32
 4705 1a00 FB63     		str	r3, [r7, #60]
2264:../src/lib/lpc177x_8x/Drivers/source/lpc177x_8x_mci.c ****     cmdIf.CmdIndex = commandID;
 4706              		.loc 2 2264 0
 4707 1a02 BB6B     		ldr	r3, [r7, #56]
 4708 1a04 BB60     		str	r3, [r7, #8]
2265:../src/lib/lpc177x_8x/Drivers/source/lpc177x_8x_mci.c ****     if (MCI_CardType == MCI_SDHC_SDXC_CARD)
 4709              		.loc 2 2265 0
 4710 1a06 314B     		ldr	r3, .L411
 4711 1a08 1B78     		ldrb	r3, [r3, #0]
 4712 1a0a DBB2     		uxtb	r3, r3
 4713 1a0c 5BB2     		sxtb	r3, r3
 4714 1a0e 032B     		cmp	r3, #3
 4715 1a10 02D1     		bne	.L399
2266:../src/lib/lpc177x_8x/Drivers/source/lpc177x_8x_mci.c ****     {
2267:../src/lib/lpc177x_8x/Drivers/source/lpc177x_8x_mci.c ****         cmdIf.Argument = blockNum;                      /* Block Address */
 4716              		.loc 2 2267 0
 4717 1a12 7B68     		ldr	r3, [r7, #4]
 4718 1a14 FB60     		str	r3, [r7, #12]
 4719 1a16 03E0     		b	.L400
 4720              	.L399:
2268:../src/lib/lpc177x_8x/Drivers/source/lpc177x_8x_mci.c ****     }
2269:../src/lib/lpc177x_8x/Drivers/source/lpc177x_8x_mci.c ****     else            
2270:../src/lib/lpc177x_8x/Drivers/source/lpc177x_8x_mci.c ****     {
2271:../src/lib/lpc177x_8x/Drivers/source/lpc177x_8x_mci.c ****         cmdIf.Argument = blockNum * BLOCK_LENGTH;       /* Byte Address */
 4721              		.loc 2 2271 0
 4722 1a18 7B68     		ldr	r3, [r7, #4]
 4723 1a1a 4FEA4323 		lsl	r3, r3, #9
 4724 1a1e FB60     		str	r3, [r7, #12]
 4725              	.L400:
2272:../src/lib/lpc177x_8x/Drivers/source/lpc177x_8x_mci.c ****     }    
2273:../src/lib/lpc177x_8x/Drivers/source/lpc177x_8x_mci.c ****     cmdIf.ExpectResp = EXPECT_SHORT_RESP;
 4726              		.loc 2 2273 0
 4727 1a20 4FF00103 		mov	r3, #1
 4728 1a24 3B61     		str	r3, [r7, #16]
2274:../src/lib/lpc177x_8x/Drivers/source/lpc177x_8x_mci.c ****     cmdIf.AllowTimeout = ALLOW_CMD_TIMER;
 4729              		.loc 2 2274 0
 4730 1a26 4FF00103 		mov	r3, #1
 4731 1a2a 7B61     		str	r3, [r7, #20]
2275:../src/lib/lpc177x_8x/Drivers/source/lpc177x_8x_mci.c ****     cmdIf.CmdResp =  (uint32_t *)&respValue[0];
 4732              		.loc 2 2275 0
 4733 1a2c 07F11C03 		add	r3, r7, #28
 4734 1a30 BB61     		str	r3, [r7, #24]
2276:../src/lib/lpc177x_8x/Drivers/source/lpc177x_8x_mci.c ****     while ( retryCount > 0 )
 4735              		.loc 2 2276 0
 4736 1a32 41E0     		b	.L401
 4737              	.L409:
2277:../src/lib/lpc177x_8x/Drivers/source/lpc177x_8x_mci.c ****     {
2278:../src/lib/lpc177x_8x/Drivers/source/lpc177x_8x_mci.c ****          /* Check current status */
2279:../src/lib/lpc177x_8x/Drivers/source/lpc177x_8x_mci.c ****         if((MCI_CheckStatus(CARD_STATE_TRAN) != MCI_FUNC_OK))
 4738              		.loc 2 2279 0
 4739 1a34 4FF00400 		mov	r0, #4
 4740 1a38 FFF7FEFF 		bl	MCI_CheckStatus
 4741 1a3c 0346     		mov	r3, r0
 4742 1a3e 002B     		cmp	r3, #0
 4743 1a40 02D0     		beq	.L402
2280:../src/lib/lpc177x_8x/Drivers/source/lpc177x_8x_mci.c ****             return MCI_FUNC_ERR_STATE;
 4744              		.loc 2 2280 0
 4745 1a42 6FF00303 		mvn	r3, #3
 4746 1a46 3BE0     		b	.L410
 4747              	.L402:
2281:../src/lib/lpc177x_8x/Drivers/source/lpc177x_8x_mci.c ****         
2282:../src/lib/lpc177x_8x/Drivers/source/lpc177x_8x_mci.c ****         respStatus = MCI_CmdResp(&cmdIf);
 4748              		.loc 2 2282 0
 4749 1a48 07F10803 		add	r3, r7, #8
 4750 1a4c 1846     		mov	r0, r3
 4751 1a4e FFF7FEFF 		bl	MCI_CmdResp
 4752 1a52 0346     		mov	r3, r0
 4753 1a54 3B63     		str	r3, [r7, #48]
2283:../src/lib/lpc177x_8x/Drivers/source/lpc177x_8x_mci.c **** 
2284:../src/lib/lpc177x_8x/Drivers/source/lpc177x_8x_mci.c ****         if(respStatus)
 4754              		.loc 2 2284 0
 4755 1a56 3B6B     		ldr	r3, [r7, #48]
 4756 1a58 002B     		cmp	r3, #0
 4757 1a5a 06D0     		beq	.L404
2285:../src/lib/lpc177x_8x/Drivers/source/lpc177x_8x_mci.c ****         {
2286:../src/lib/lpc177x_8x/Drivers/source/lpc177x_8x_mci.c ****             retval = MCI_FUNC_FAILED;
 4758              		.loc 2 2286 0
 4759 1a5c 4FF0FF33 		mov	r3, #-1
 4760 1a60 7B63     		str	r3, [r7, #52]
2287:../src/lib/lpc177x_8x/Drivers/source/lpc177x_8x_mci.c ****         }
2288:../src/lib/lpc177x_8x/Drivers/source/lpc177x_8x_mci.c ****         else if (respValue[0] & CARD_STATUS_ERR_MASK)
2289:../src/lib/lpc177x_8x/Drivers/source/lpc177x_8x_mci.c ****         {
2290:../src/lib/lpc177x_8x/Drivers/source/lpc177x_8x_mci.c ****             return MCI_FUNC_BAD_PARAMETERS;
2291:../src/lib/lpc177x_8x/Drivers/source/lpc177x_8x_mci.c ****         }
2292:../src/lib/lpc177x_8x/Drivers/source/lpc177x_8x_mci.c ****         else
2293:../src/lib/lpc177x_8x/Drivers/source/lpc177x_8x_mci.c ****         {
2294:../src/lib/lpc177x_8x/Drivers/source/lpc177x_8x_mci.c ****             if((MCI_CheckStatus(CARD_STATE_DATA) != MCI_FUNC_OK) &&
2295:../src/lib/lpc177x_8x/Drivers/source/lpc177x_8x_mci.c ****               (MCI_CheckStatus(CARD_STATE_TRAN) != MCI_FUNC_OK))
2296:../src/lib/lpc177x_8x/Drivers/source/lpc177x_8x_mci.c ****               return MCI_FUNC_ERR_STATE;
2297:../src/lib/lpc177x_8x/Drivers/source/lpc177x_8x_mci.c ****             return MCI_FUNC_OK;
2298:../src/lib/lpc177x_8x/Drivers/source/lpc177x_8x_mci.c ****         }
2299:../src/lib/lpc177x_8x/Drivers/source/lpc177x_8x_mci.c ****        
2300:../src/lib/lpc177x_8x/Drivers/source/lpc177x_8x_mci.c **** 
2301:../src/lib/lpc177x_8x/Drivers/source/lpc177x_8x_mci.c ****         for ( i = 0; i < 0x20; i++ );
 4761              		.loc 2 2301 0
 4762 1a62 4FF00003 		mov	r3, #0
 4763 1a66 FB62     		str	r3, [r7, #44]
 4764 1a68 1FE0     		b	.L405
 4765              	.L404:
2288:../src/lib/lpc177x_8x/Drivers/source/lpc177x_8x_mci.c ****         else if (respValue[0] & CARD_STATUS_ERR_MASK)
 4766              		.loc 2 2288 0
 4767 1a6a FA69     		ldr	r2, [r7, #28]
 4768 1a6c 184B     		ldr	r3, .L411+4
 4769 1a6e 1340     		ands	r3, r3, r2
 4770 1a70 002B     		cmp	r3, #0
 4771 1a72 02D0     		beq	.L406
2290:../src/lib/lpc177x_8x/Drivers/source/lpc177x_8x_mci.c ****             return MCI_FUNC_BAD_PARAMETERS;
 4772              		.loc 2 2290 0
 4773 1a74 6FF00103 		mvn	r3, #1
 4774 1a78 22E0     		b	.L410
 4775              	.L406:
2294:../src/lib/lpc177x_8x/Drivers/source/lpc177x_8x_mci.c ****             if((MCI_CheckStatus(CARD_STATE_DATA) != MCI_FUNC_OK) &&
 4776              		.loc 2 2294 0
 4777 1a7a 4FF00500 		mov	r0, #5
 4778 1a7e FFF7FEFF 		bl	MCI_CheckStatus
 4779 1a82 0346     		mov	r3, r0
 4780 1a84 002B     		cmp	r3, #0
 4781 1a86 09D0     		beq	.L407
2295:../src/lib/lpc177x_8x/Drivers/source/lpc177x_8x_mci.c ****               (MCI_CheckStatus(CARD_STATE_TRAN) != MCI_FUNC_OK))
 4782              		.loc 2 2295 0 discriminator 1
 4783 1a88 4FF00400 		mov	r0, #4
 4784 1a8c FFF7FEFF 		bl	MCI_CheckStatus
 4785 1a90 0346     		mov	r3, r0
2294:../src/lib/lpc177x_8x/Drivers/source/lpc177x_8x_mci.c ****             if((MCI_CheckStatus(CARD_STATE_DATA) != MCI_FUNC_OK) &&
 4786              		.loc 2 2294 0 discriminator 1
 4787 1a92 002B     		cmp	r3, #0
 4788 1a94 02D0     		beq	.L407
2296:../src/lib/lpc177x_8x/Drivers/source/lpc177x_8x_mci.c ****               return MCI_FUNC_ERR_STATE;
 4789              		.loc 2 2296 0
 4790 1a96 6FF00303 		mvn	r3, #3
 4791 1a9a 11E0     		b	.L410
 4792              	.L407:
2297:../src/lib/lpc177x_8x/Drivers/source/lpc177x_8x_mci.c ****             return MCI_FUNC_OK;
 4793              		.loc 2 2297 0
 4794 1a9c 4FF00003 		mov	r3, #0
 4795 1aa0 0EE0     		b	.L410
 4796              	.L408:
 4797              		.loc 2 2301 0 discriminator 2
 4798 1aa2 FB6A     		ldr	r3, [r7, #44]
 4799 1aa4 03F10103 		add	r3, r3, #1
 4800 1aa8 FB62     		str	r3, [r7, #44]
 4801              	.L405:
 4802              		.loc 2 2301 0 is_stmt 0 discriminator 1
 4803 1aaa FB6A     		ldr	r3, [r7, #44]
 4804 1aac 1F2B     		cmp	r3, #31
 4805 1aae F8D9     		bls	.L408
2302:../src/lib/lpc177x_8x/Drivers/source/lpc177x_8x_mci.c **** 
2303:../src/lib/lpc177x_8x/Drivers/source/lpc177x_8x_mci.c ****         retryCount--;
 4806              		.loc 2 2303 0 is_stmt 1
 4807 1ab0 FB6B     		ldr	r3, [r7, #60]
 4808 1ab2 03F1FF33 		add	r3, r3, #-1
 4809 1ab6 FB63     		str	r3, [r7, #60]
 4810              	.L401:
2276:../src/lib/lpc177x_8x/Drivers/source/lpc177x_8x_mci.c ****     while ( retryCount > 0 )
 4811              		.loc 2 2276 0 discriminator 1
 4812 1ab8 FB6B     		ldr	r3, [r7, #60]
 4813 1aba 002B     		cmp	r3, #0
 4814 1abc BAD1     		bne	.L409
2304:../src/lib/lpc177x_8x/Drivers/source/lpc177x_8x_mci.c ****          
2305:../src/lib/lpc177x_8x/Drivers/source/lpc177x_8x_mci.c ****     }
2306:../src/lib/lpc177x_8x/Drivers/source/lpc177x_8x_mci.c **** 
2307:../src/lib/lpc177x_8x/Drivers/source/lpc177x_8x_mci.c ****     return retval;
 4815              		.loc 2 2307 0
 4816 1abe 7B6B     		ldr	r3, [r7, #52]
 4817              	.L410:
2308:../src/lib/lpc177x_8x/Drivers/source/lpc177x_8x_mci.c **** }
 4818              		.loc 2 2308 0
 4819 1ac0 1846     		mov	r0, r3
 4820 1ac2 07F14007 		add	r7, r7, #64
 4821 1ac6 BD46     		mov	sp, r7
 4822 1ac8 80BD     		pop	{r7, pc}
 4823              	.L412:
 4824 1aca 00BF     		.align	2
 4825              	.L411:
 4826 1acc 00000000 		.word	MCI_CardType
 4827 1ad0 0880F8FD 		.word	-34045944
 4828              		.cfi_endproc
 4829              	.LFE95:
 4831              		.align	2
 4832              		.global	MCI_WriteBlock
 4833              		.thumb
 4834              		.thumb_func
 4836              	MCI_WriteBlock:
 4837              	.LFB96:
2309:../src/lib/lpc177x_8x/Drivers/source/lpc177x_8x_mci.c **** 
2310:../src/lib/lpc177x_8x/Drivers/source/lpc177x_8x_mci.c **** 
2311:../src/lib/lpc177x_8x/Drivers/source/lpc177x_8x_mci.c **** /************************************************************************//**
2312:../src/lib/lpc177x_8x/Drivers/source/lpc177x_8x_mci.c ****  * @brief         Write data at a specific address to starting block with number
2313:../src/lib/lpc177x_8x/Drivers/source/lpc177x_8x_mci.c ****  *                of blocks will be written from first block
2314:../src/lib/lpc177x_8x/Drivers/source/lpc177x_8x_mci.c ****  * @details        
2315:../src/lib/lpc177x_8x/Drivers/source/lpc177x_8x_mci.c ****  *                - At preparation
2316:../src/lib/lpc177x_8x/Drivers/source/lpc177x_8x_mci.c ****  *                    - Set MCI data control register, data length and data timeout
2317:../src/lib/lpc177x_8x/Drivers/source/lpc177x_8x_mci.c ****  *                    - Send CMD24 (WRITE_BLOCK) or CMD25 (WRITE_MULTIPLE_BLOCK)
2318:../src/lib/lpc177x_8x/Drivers/source/lpc177x_8x_mci.c ****  *                    commands to card
2319:../src/lib/lpc177x_8x/Drivers/source/lpc177x_8x_mci.c ****  *                    - Enable interupt for MCI component
2320:../src/lib/lpc177x_8x/Drivers/source/lpc177x_8x_mci.c ****  *                - At completion
2321:../src/lib/lpc177x_8x/Drivers/source/lpc177x_8x_mci.c ****  *                    - TX_ACTIVE interrupt is occured
2322:../src/lib/lpc177x_8x/Drivers/source/lpc177x_8x_mci.c ****  *                    - Write data to FIFO register continuously until the data block
2323:../src/lib/lpc177x_8x/Drivers/source/lpc177x_8x_mci.c ****  *                    length is reached
2324:../src/lib/lpc177x_8x/Drivers/source/lpc177x_8x_mci.c ****  *
2325:../src/lib/lpc177x_8x/Drivers/source/lpc177x_8x_mci.c ****  * @param[in]    *memblock The pointer to location stored required data to be
2326:../src/lib/lpc177x_8x/Drivers/source/lpc177x_8x_mci.c ****  *                written to card
2327:../src/lib/lpc177x_8x/Drivers/source/lpc177x_8x_mci.c ****  *
2328:../src/lib/lpc177x_8x/Drivers/source/lpc177x_8x_mci.c ****  * @param[in]    blockNum The block number to start writting
2329:../src/lib/lpc177x_8x/Drivers/source/lpc177x_8x_mci.c ****  *
2330:../src/lib/lpc177x_8x/Drivers/source/lpc177x_8x_mci.c ****  * @param[in]    numOfBlock Determine how many blocks will be written (from the
2331:../src/lib/lpc177x_8x/Drivers/source/lpc177x_8x_mci.c ****  *                starting block)
2332:../src/lib/lpc177x_8x/Drivers/source/lpc177x_8x_mci.c ****  *
2333:../src/lib/lpc177x_8x/Drivers/source/lpc177x_8x_mci.c ****  * @return         MCI_FUNC_OK if all success
2334:../src/lib/lpc177x_8x/Drivers/source/lpc177x_8x_mci.c ****  ****************************************************************************/
2335:../src/lib/lpc177x_8x/Drivers/source/lpc177x_8x_mci.c **** int32_t MCI_WriteBlock(volatile uint8_t* memblock, uint32_t blockNum, uint32_t numOfBlock)
2336:../src/lib/lpc177x_8x/Drivers/source/lpc177x_8x_mci.c **** {
 4838              		.loc 2 2336 0
 4839              		.cfi_startproc
 4840              		@ args = 0, pretend = 0, frame = 24
 4841              		@ frame_needed = 1, uses_anonymous_args = 0
 4842 1ad4 80B5     		push	{r7, lr}
 4843              	.LCFI116:
 4844              		.cfi_def_cfa_offset 8
 4845              		.cfi_offset 7, -8
 4846              		.cfi_offset 14, -4
 4847 1ad6 86B0     		sub	sp, sp, #24
 4848              	.LCFI117:
 4849              		.cfi_def_cfa_offset 32
 4850 1ad8 00AF     		add	r7, sp, #0
 4851              	.LCFI118:
 4852              		.cfi_def_cfa_register 7
 4853 1ada F860     		str	r0, [r7, #12]
 4854 1adc B960     		str	r1, [r7, #8]
 4855 1ade 7A60     		str	r2, [r7, #4]
2337:../src/lib/lpc177x_8x/Drivers/source/lpc177x_8x_mci.c ****     volatile uint32_t i;
2338:../src/lib/lpc177x_8x/Drivers/source/lpc177x_8x_mci.c ****     uint32_t DataCtrl = 0;
 4856              		.loc 2 2338 0
 4857 1ae0 4FF00003 		mov	r3, #0
 4858 1ae4 7B61     		str	r3, [r7, #20]
2339:../src/lib/lpc177x_8x/Drivers/source/lpc177x_8x_mci.c **** 
2340:../src/lib/lpc177x_8x/Drivers/source/lpc177x_8x_mci.c ****     if(BLOCK_LENGTH*numOfBlock > DATA_RW_MAX_LEN)
 4859              		.loc 2 2340 0
 4860 1ae6 7B68     		ldr	r3, [r7, #4]
 4861 1ae8 4FEA4322 		lsl	r2, r3, #9
 4862 1aec 4FF6FF73 		movw	r3, #65535
 4863 1af0 9A42     		cmp	r2, r3
 4864 1af2 02D9     		bls	.L414
2341:../src/lib/lpc177x_8x/Drivers/source/lpc177x_8x_mci.c ****         return MCI_FUNC_BAD_PARAMETERS;
 4865              		.loc 2 2341 0
 4866 1af4 6FF00103 		mvn	r3, #1
 4867 1af8 60E0     		b	.L415
 4868              	.L414:
2342:../src/lib/lpc177x_8x/Drivers/source/lpc177x_8x_mci.c ****     
2343:../src/lib/lpc177x_8x/Drivers/source/lpc177x_8x_mci.c ****     dataSrcBlock = memblock;
 4869              		.loc 2 2343 0
 4870 1afa 334B     		ldr	r3, .L422
 4871 1afc FA68     		ldr	r2, [r7, #12]
 4872 1afe 1A60     		str	r2, [r3, #0]
2344:../src/lib/lpc177x_8x/Drivers/source/lpc177x_8x_mci.c **** 
2345:../src/lib/lpc177x_8x/Drivers/source/lpc177x_8x_mci.c ****     LPC_MCI->CLEAR = 0x7FF;
 4873              		.loc 2 2345 0
 4874 1b00 324B     		ldr	r3, .L422+4
 4875 1b02 40F2FF72 		movw	r2, #2047
 4876 1b06 9A63     		str	r2, [r3, #56]
2346:../src/lib/lpc177x_8x/Drivers/source/lpc177x_8x_mci.c **** 
2347:../src/lib/lpc177x_8x/Drivers/source/lpc177x_8x_mci.c ****     LPC_MCI->DATACTRL = 0;
 4877              		.loc 2 2347 0
 4878 1b08 304B     		ldr	r3, .L422+4
 4879 1b0a 4FF00002 		mov	r2, #0
 4880 1b0e DA62     		str	r2, [r3, #44]
2348:../src/lib/lpc177x_8x/Drivers/source/lpc177x_8x_mci.c **** 
2349:../src/lib/lpc177x_8x/Drivers/source/lpc177x_8x_mci.c ****     for ( i = 0; i < 0x10; i++ );
 4881              		.loc 2 2349 0
 4882 1b10 4FF00003 		mov	r3, #0
 4883 1b14 3B61     		str	r3, [r7, #16]
 4884 1b16 03E0     		b	.L416
 4885              	.L417:
 4886              		.loc 2 2349 0 is_stmt 0 discriminator 2
 4887 1b18 3B69     		ldr	r3, [r7, #16]
 4888 1b1a 03F10103 		add	r3, r3, #1
 4889 1b1e 3B61     		str	r3, [r7, #16]
 4890              	.L416:
 4891              		.loc 2 2349 0 discriminator 1
 4892 1b20 3B69     		ldr	r3, [r7, #16]
 4893 1b22 0F2B     		cmp	r3, #15
 4894 1b24 F8D9     		bls	.L417
2350:../src/lib/lpc177x_8x/Drivers/source/lpc177x_8x_mci.c **** 
2351:../src/lib/lpc177x_8x/Drivers/source/lpc177x_8x_mci.c ****     /* Wait the SD Card enters to TRANS state. */
2352:../src/lib/lpc177x_8x/Drivers/source/lpc177x_8x_mci.c ****     if (MCI_CheckStatus(CARD_STATE_TRAN) != MCI_FUNC_OK)
 4895              		.loc 2 2352 0 is_stmt 1
 4896 1b26 4FF00400 		mov	r0, #4
 4897 1b2a FFF7FEFF 		bl	MCI_CheckStatus
 4898 1b2e 0346     		mov	r3, r0
 4899 1b30 002B     		cmp	r3, #0
 4900 1b32 02D0     		beq	.L418
2353:../src/lib/lpc177x_8x/Drivers/source/lpc177x_8x_mci.c ****         return MCI_FUNC_ERR_STATE;
 4901              		.loc 2 2353 0
 4902 1b34 6FF00303 		mvn	r3, #3
 4903 1b38 40E0     		b	.L415
 4904              	.L418:
2354:../src/lib/lpc177x_8x/Drivers/source/lpc177x_8x_mci.c ****     
2355:../src/lib/lpc177x_8x/Drivers/source/lpc177x_8x_mci.c ****     LPC_MCI->DATATMR = DATA_TIMER_VALUE_W;
 4905              		.loc 2 2355 0
 4906 1b3a 244B     		ldr	r3, .L422+4
 4907 1b3c 244A     		ldr	r2, .L422+8
 4908 1b3e 5A62     		str	r2, [r3, #36]
2356:../src/lib/lpc177x_8x/Drivers/source/lpc177x_8x_mci.c **** 
2357:../src/lib/lpc177x_8x/Drivers/source/lpc177x_8x_mci.c ****     LPC_MCI->DATALEN = BLOCK_LENGTH*numOfBlock;
 4909              		.loc 2 2357 0
 4910 1b40 224B     		ldr	r3, .L422+4
 4911 1b42 7A68     		ldr	r2, [r7, #4]
 4912 1b44 4FEA4222 		lsl	r2, r2, #9
 4913 1b48 9A62     		str	r2, [r3, #40]
2358:../src/lib/lpc177x_8x/Drivers/source/lpc177x_8x_mci.c **** 
2359:../src/lib/lpc177x_8x/Drivers/source/lpc177x_8x_mci.c ****     Mci_Data_Xfer_End = 1;
 4914              		.loc 2 2359 0
 4915 1b4a 224B     		ldr	r3, .L422+12
 4916 1b4c 4FF00102 		mov	r2, #1
 4917 1b50 1A60     		str	r2, [r3, #0]
2360:../src/lib/lpc177x_8x/Drivers/source/lpc177x_8x_mci.c ****     Mci_Data_Xfer_ERR = 0;
 4918              		.loc 2 2360 0
 4919 1b52 214B     		ldr	r3, .L422+16
 4920 1b54 4FF00002 		mov	r2, #0
 4921 1b58 1A60     		str	r2, [r3, #0]
2361:../src/lib/lpc177x_8x/Drivers/source/lpc177x_8x_mci.c ****     fifo_plane = 0;
 4922              		.loc 2 2361 0
 4923 1b5a 204B     		ldr	r3, .L422+20
 4924 1b5c 4FF00002 		mov	r2, #0
 4925 1b60 1A70     		strb	r2, [r3, #0]
2362:../src/lib/lpc177x_8x/Drivers/source/lpc177x_8x_mci.c **** 
2363:../src/lib/lpc177x_8x/Drivers/source/lpc177x_8x_mci.c ****     txBlockCnt = 0;
 4926              		.loc 2 2363 0
 4927 1b62 1F4B     		ldr	r3, .L422+24
 4928 1b64 4FF00002 		mov	r2, #0
 4929 1b68 1A60     		str	r2, [r3, #0]
2364:../src/lib/lpc177x_8x/Drivers/source/lpc177x_8x_mci.c **** 
2365:../src/lib/lpc177x_8x/Drivers/source/lpc177x_8x_mci.c ****     MCI_TXEnable();
 4930              		.loc 2 2365 0
 4931 1b6a FFF7FEFF 		bl	MCI_TXEnable
2366:../src/lib/lpc177x_8x/Drivers/source/lpc177x_8x_mci.c **** 
2367:../src/lib/lpc177x_8x/Drivers/source/lpc177x_8x_mci.c ****     if (MCI_Cmd_WriteBlock(blockNum, numOfBlock) != MCI_FUNC_OK)
 4932              		.loc 2 2367 0
 4933 1b6e B868     		ldr	r0, [r7, #8]
 4934 1b70 7968     		ldr	r1, [r7, #4]
 4935 1b72 FFF7FEFF 		bl	MCI_Cmd_WriteBlock
 4936 1b76 0346     		mov	r3, r0
 4937 1b78 002B     		cmp	r3, #0
 4938 1b7a 02D0     		beq	.L419
2368:../src/lib/lpc177x_8x/Drivers/source/lpc177x_8x_mci.c ****     {
2369:../src/lib/lpc177x_8x/Drivers/source/lpc177x_8x_mci.c ****         return ( MCI_FUNC_FAILED );
 4939              		.loc 2 2369 0
 4940 1b7c 4FF0FF33 		mov	r3, #-1
 4941 1b80 1CE0     		b	.L415
 4942              	.L419:
2370:../src/lib/lpc177x_8x/Drivers/source/lpc177x_8x_mci.c ****     }
2371:../src/lib/lpc177x_8x/Drivers/source/lpc177x_8x_mci.c **** 
2372:../src/lib/lpc177x_8x/Drivers/source/lpc177x_8x_mci.c ****     //for(blockCnt = 0; blockCnt < numOfBlock; blockCnt++)
2373:../src/lib/lpc177x_8x/Drivers/source/lpc177x_8x_mci.c ****     {
2374:../src/lib/lpc177x_8x/Drivers/source/lpc177x_8x_mci.c **** #if MCI_DMA_ENABLED
2375:../src/lib/lpc177x_8x/Drivers/source/lpc177x_8x_mci.c ****         MCI_SettingDma((uint8_t*) dataSrcBlock, MCI_DMA_WRITE_CHANNEL, GPDMA_TRANSFERTYPE_M2P_DEST_
 4943              		.loc 2 2375 0
 4944 1b82 114B     		ldr	r3, .L422
 4945 1b84 1B68     		ldr	r3, [r3, #0]
 4946 1b86 1846     		mov	r0, r3
 4947 1b88 4FF00001 		mov	r1, #0
 4948 1b8c 4FF00502 		mov	r2, #5
 4949 1b90 FFF7FEFF 		bl	MCI_SettingDma
2376:../src/lib/lpc177x_8x/Drivers/source/lpc177x_8x_mci.c ****         
2377:../src/lib/lpc177x_8x/Drivers/source/lpc177x_8x_mci.c ****         /* Write, block transfer, DMA, and data length */
2378:../src/lib/lpc177x_8x/Drivers/source/lpc177x_8x_mci.c ****         DataCtrl |= MCI_DATACTRL_ENABLE | MCI_DATACTRL_DIR_TO_CARD 
 4950              		.loc 2 2378 0
 4951 1b94 7B69     		ldr	r3, [r7, #20]
 4952 1b96 43F09903 		orr	r3, r3, #153
 4953 1b9a 7B61     		str	r3, [r7, #20]
2379:../src/lib/lpc177x_8x/Drivers/source/lpc177x_8x_mci.c ****                         | MCI_DATACTRL_DMA_ENABLE | MCI_DTATCTRL_BLOCKSIZE(DATA_BLOCK_LEN);
2380:../src/lib/lpc177x_8x/Drivers/source/lpc177x_8x_mci.c **** #else
2381:../src/lib/lpc177x_8x/Drivers/source/lpc177x_8x_mci.c ****         /* Write, block transfer, and data length */
2382:../src/lib/lpc177x_8x/Drivers/source/lpc177x_8x_mci.c ****         DataCtrl |= MCI_DATACTRL_ENABLE  | MCI_DATACTRL_DIR_TO_CARD  | MCI_DTATCTRL_BLOCKSIZE(DATA_
2383:../src/lib/lpc177x_8x/Drivers/source/lpc177x_8x_mci.c **** #endif
2384:../src/lib/lpc177x_8x/Drivers/source/lpc177x_8x_mci.c ****     }
2385:../src/lib/lpc177x_8x/Drivers/source/lpc177x_8x_mci.c **** 
2386:../src/lib/lpc177x_8x/Drivers/source/lpc177x_8x_mci.c ****     LPC_MCI->DATACTRL = DataCtrl;
 4954              		.loc 2 2386 0
 4955 1b9c 0B4B     		ldr	r3, .L422+4
 4956 1b9e 7A69     		ldr	r2, [r7, #20]
 4957 1ba0 DA62     		str	r2, [r3, #44]
2387:../src/lib/lpc177x_8x/Drivers/source/lpc177x_8x_mci.c **** 
2388:../src/lib/lpc177x_8x/Drivers/source/lpc177x_8x_mci.c ****     for ( i = 0; i < 0x10; i++ );
 4958              		.loc 2 2388 0
 4959 1ba2 4FF00003 		mov	r3, #0
 4960 1ba6 3B61     		str	r3, [r7, #16]
 4961 1ba8 03E0     		b	.L420
 4962              	.L421:
 4963              		.loc 2 2388 0 is_stmt 0 discriminator 2
 4964 1baa 3B69     		ldr	r3, [r7, #16]
 4965 1bac 03F10103 		add	r3, r3, #1
 4966 1bb0 3B61     		str	r3, [r7, #16]
 4967              	.L420:
 4968              		.loc 2 2388 0 discriminator 1
 4969 1bb2 3B69     		ldr	r3, [r7, #16]
 4970 1bb4 0F2B     		cmp	r3, #15
 4971 1bb6 F8D9     		bls	.L421
2389:../src/lib/lpc177x_8x/Drivers/source/lpc177x_8x_mci.c **** 
2390:../src/lib/lpc177x_8x/Drivers/source/lpc177x_8x_mci.c ****     return MCI_FUNC_OK;
 4972              		.loc 2 2390 0 is_stmt 1
 4973 1bb8 4FF00003 		mov	r3, #0
 4974              	.L415:
2391:../src/lib/lpc177x_8x/Drivers/source/lpc177x_8x_mci.c **** }
 4975              		.loc 2 2391 0
 4976 1bbc 1846     		mov	r0, r3
 4977 1bbe 07F11807 		add	r7, r7, #24
 4978 1bc2 BD46     		mov	sp, r7
 4979 1bc4 80BD     		pop	{r7, pc}
 4980              	.L423:
 4981 1bc6 00BF     		.align	2
 4982              	.L422:
 4983 1bc8 00000000 		.word	dataSrcBlock
 4984 1bcc 00000C40 		.word	1074528256
 4985 1bd0 002D3101 		.word	20000000
 4986 1bd4 00000000 		.word	Mci_Data_Xfer_End
 4987 1bd8 00000000 		.word	Mci_Data_Xfer_ERR
 4988 1bdc 00000000 		.word	fifo_plane
 4989 1be0 00000000 		.word	txBlockCnt
 4990              		.cfi_endproc
 4991              	.LFE96:
 4993              		.align	2
 4994              		.global	MCI_ReadBlock
 4995              		.thumb
 4996              		.thumb_func
 4998              	MCI_ReadBlock:
 4999              	.LFB97:
2392:../src/lib/lpc177x_8x/Drivers/source/lpc177x_8x_mci.c **** 
2393:../src/lib/lpc177x_8x/Drivers/source/lpc177x_8x_mci.c **** 
2394:../src/lib/lpc177x_8x/Drivers/source/lpc177x_8x_mci.c **** /************************************************************************//**
2395:../src/lib/lpc177x_8x/Drivers/source/lpc177x_8x_mci.c ****  * @brief         Read data at a specific address to starting block with number
2396:../src/lib/lpc177x_8x/Drivers/source/lpc177x_8x_mci.c ****  *                of blocks will be read from first block
2397:../src/lib/lpc177x_8x/Drivers/source/lpc177x_8x_mci.c ****  *
2398:../src/lib/lpc177x_8x/Drivers/source/lpc177x_8x_mci.c ****  * @details        
2399:../src/lib/lpc177x_8x/Drivers/source/lpc177x_8x_mci.c ****  *                - At preparation
2400:../src/lib/lpc177x_8x/Drivers/source/lpc177x_8x_mci.c ****  *                    - Set MCI data control register, data length and data timeout
2401:../src/lib/lpc177x_8x/Drivers/source/lpc177x_8x_mci.c ****  *                    - Send CMD17 (READ_SINGLE_BLOCK) or CMD18 (READ_MULTIPLE_BLOCK)
2402:../src/lib/lpc177x_8x/Drivers/source/lpc177x_8x_mci.c ****  *                    commands to card
2403:../src/lib/lpc177x_8x/Drivers/source/lpc177x_8x_mci.c ****  *                    - Enable interupt for MCI component
2404:../src/lib/lpc177x_8x/Drivers/source/lpc177x_8x_mci.c ****  *                - At completion
2405:../src/lib/lpc177x_8x/Drivers/source/lpc177x_8x_mci.c ****  *                    - RX_ACTIVE interrupt is occured
2406:../src/lib/lpc177x_8x/Drivers/source/lpc177x_8x_mci.c ****  *                    - Read data from FIFO register continuously until the data block
2407:../src/lib/lpc177x_8x/Drivers/source/lpc177x_8x_mci.c ****  *                    length is reached to retrieve needed data
2408:../src/lib/lpc177x_8x/Drivers/source/lpc177x_8x_mci.c ****  *
2409:../src/lib/lpc177x_8x/Drivers/source/lpc177x_8x_mci.c ****  * @param[in]    *destBlock The pointer to location will captured data read
2410:../src/lib/lpc177x_8x/Drivers/source/lpc177x_8x_mci.c ****  *                from card
2411:../src/lib/lpc177x_8x/Drivers/source/lpc177x_8x_mci.c ****  *
2412:../src/lib/lpc177x_8x/Drivers/source/lpc177x_8x_mci.c ****  * @param[in]    blockNum The block number to start reading
2413:../src/lib/lpc177x_8x/Drivers/source/lpc177x_8x_mci.c ****  *
2414:../src/lib/lpc177x_8x/Drivers/source/lpc177x_8x_mci.c ****  * @param[in]    numOfBlock Determine how many blocks will be read (from the
2415:../src/lib/lpc177x_8x/Drivers/source/lpc177x_8x_mci.c ****  *                starting block)
2416:../src/lib/lpc177x_8x/Drivers/source/lpc177x_8x_mci.c ****  *
2417:../src/lib/lpc177x_8x/Drivers/source/lpc177x_8x_mci.c ****  * @return         MCI_FUNC_OK if all success
2418:../src/lib/lpc177x_8x/Drivers/source/lpc177x_8x_mci.c ****  ****************************************************************************/
2419:../src/lib/lpc177x_8x/Drivers/source/lpc177x_8x_mci.c **** int32_t MCI_ReadBlock(volatile uint8_t* destBlock, uint32_t blockNum, uint32_t numOfBlock)
2420:../src/lib/lpc177x_8x/Drivers/source/lpc177x_8x_mci.c **** {
 5000              		.loc 2 2420 0
 5001              		.cfi_startproc
 5002              		@ args = 0, pretend = 0, frame = 24
 5003              		@ frame_needed = 1, uses_anonymous_args = 0
 5004 1be4 80B5     		push	{r7, lr}
 5005              	.LCFI119:
 5006              		.cfi_def_cfa_offset 8
 5007              		.cfi_offset 7, -8
 5008              		.cfi_offset 14, -4
 5009 1be6 86B0     		sub	sp, sp, #24
 5010              	.LCFI120:
 5011              		.cfi_def_cfa_offset 32
 5012 1be8 00AF     		add	r7, sp, #0
 5013              	.LCFI121:
 5014              		.cfi_def_cfa_register 7
 5015 1bea F860     		str	r0, [r7, #12]
 5016 1bec B960     		str	r1, [r7, #8]
 5017 1bee 7A60     		str	r2, [r7, #4]
2421:../src/lib/lpc177x_8x/Drivers/source/lpc177x_8x_mci.c ****     volatile uint32_t i;
2422:../src/lib/lpc177x_8x/Drivers/source/lpc177x_8x_mci.c ****     uint32_t DataCtrl = 0;
 5018              		.loc 2 2422 0
 5019 1bf0 4FF00003 		mov	r3, #0
 5020 1bf4 7B61     		str	r3, [r7, #20]
2423:../src/lib/lpc177x_8x/Drivers/source/lpc177x_8x_mci.c **** 
2424:../src/lib/lpc177x_8x/Drivers/source/lpc177x_8x_mci.c ****     if(BLOCK_LENGTH*numOfBlock > DATA_RW_MAX_LEN)
 5021              		.loc 2 2424 0
 5022 1bf6 7B68     		ldr	r3, [r7, #4]
 5023 1bf8 4FEA4322 		lsl	r2, r3, #9
 5024 1bfc 4FF6FF73 		movw	r3, #65535
 5025 1c00 9A42     		cmp	r2, r3
 5026 1c02 02D9     		bls	.L425
2425:../src/lib/lpc177x_8x/Drivers/source/lpc177x_8x_mci.c ****         return MCI_FUNC_BAD_PARAMETERS;
 5027              		.loc 2 2425 0
 5028 1c04 6FF00103 		mvn	r3, #1
 5029 1c08 60E0     		b	.L426
 5030              	.L425:
2426:../src/lib/lpc177x_8x/Drivers/source/lpc177x_8x_mci.c ****     
2427:../src/lib/lpc177x_8x/Drivers/source/lpc177x_8x_mci.c ****     dataDestBlock = destBlock;
 5031              		.loc 2 2427 0
 5032 1c0a 334B     		ldr	r3, .L433
 5033 1c0c FA68     		ldr	r2, [r7, #12]
 5034 1c0e 1A60     		str	r2, [r3, #0]
2428:../src/lib/lpc177x_8x/Drivers/source/lpc177x_8x_mci.c **** 
2429:../src/lib/lpc177x_8x/Drivers/source/lpc177x_8x_mci.c ****     LPC_MCI->CLEAR = 0x7FF;
 5035              		.loc 2 2429 0
 5036 1c10 324B     		ldr	r3, .L433+4
 5037 1c12 40F2FF72 		movw	r2, #2047
 5038 1c16 9A63     		str	r2, [r3, #56]
2430:../src/lib/lpc177x_8x/Drivers/source/lpc177x_8x_mci.c **** 
2431:../src/lib/lpc177x_8x/Drivers/source/lpc177x_8x_mci.c ****     LPC_MCI->DATACTRL = 0;
 5039              		.loc 2 2431 0
 5040 1c18 304B     		ldr	r3, .L433+4
 5041 1c1a 4FF00002 		mov	r2, #0
 5042 1c1e DA62     		str	r2, [r3, #44]
2432:../src/lib/lpc177x_8x/Drivers/source/lpc177x_8x_mci.c **** 
2433:../src/lib/lpc177x_8x/Drivers/source/lpc177x_8x_mci.c ****     for ( i = 0; i < 0x10; i++ );
 5043              		.loc 2 2433 0
 5044 1c20 4FF00003 		mov	r3, #0
 5045 1c24 3B61     		str	r3, [r7, #16]
 5046 1c26 03E0     		b	.L427
 5047              	.L428:
 5048              		.loc 2 2433 0 is_stmt 0 discriminator 2
 5049 1c28 3B69     		ldr	r3, [r7, #16]
 5050 1c2a 03F10103 		add	r3, r3, #1
 5051 1c2e 3B61     		str	r3, [r7, #16]
 5052              	.L427:
 5053              		.loc 2 2433 0 discriminator 1
 5054 1c30 3B69     		ldr	r3, [r7, #16]
 5055 1c32 0F2B     		cmp	r3, #15
 5056 1c34 F8D9     		bls	.L428
2434:../src/lib/lpc177x_8x/Drivers/source/lpc177x_8x_mci.c **** 
2435:../src/lib/lpc177x_8x/Drivers/source/lpc177x_8x_mci.c ****     /* Wait the SD Card enters to TRANS state. */
2436:../src/lib/lpc177x_8x/Drivers/source/lpc177x_8x_mci.c ****     if (MCI_CheckStatus(CARD_STATE_TRAN) != MCI_FUNC_OK)
 5057              		.loc 2 2436 0 is_stmt 1
 5058 1c36 4FF00400 		mov	r0, #4
 5059 1c3a FFF7FEFF 		bl	MCI_CheckStatus
 5060 1c3e 0346     		mov	r3, r0
 5061 1c40 002B     		cmp	r3, #0
 5062 1c42 02D0     		beq	.L429
2437:../src/lib/lpc177x_8x/Drivers/source/lpc177x_8x_mci.c ****         return MCI_FUNC_ERR_STATE;
 5063              		.loc 2 2437 0
 5064 1c44 6FF00303 		mvn	r3, #3
 5065 1c48 40E0     		b	.L426
 5066              	.L429:
2438:../src/lib/lpc177x_8x/Drivers/source/lpc177x_8x_mci.c ****     
2439:../src/lib/lpc177x_8x/Drivers/source/lpc177x_8x_mci.c ****     MCI_RXEnable();
 5067              		.loc 2 2439 0
 5068 1c4a FFF7FEFF 		bl	MCI_RXEnable
2440:../src/lib/lpc177x_8x/Drivers/source/lpc177x_8x_mci.c **** 
2441:../src/lib/lpc177x_8x/Drivers/source/lpc177x_8x_mci.c ****     LPC_MCI->DATATMR = DATA_TIMER_VALUE_R;
 5069              		.loc 2 2441 0
 5070 1c4e 234B     		ldr	r3, .L433+4
 5071 1c50 234A     		ldr	r2, .L433+8
 5072 1c52 5A62     		str	r2, [r3, #36]
2442:../src/lib/lpc177x_8x/Drivers/source/lpc177x_8x_mci.c **** 
2443:../src/lib/lpc177x_8x/Drivers/source/lpc177x_8x_mci.c ****     LPC_MCI->DATALEN = BLOCK_LENGTH*numOfBlock;
 5073              		.loc 2 2443 0
 5074 1c54 214B     		ldr	r3, .L433+4
 5075 1c56 7A68     		ldr	r2, [r7, #4]
 5076 1c58 4FEA4222 		lsl	r2, r2, #9
 5077 1c5c 9A62     		str	r2, [r3, #40]
2444:../src/lib/lpc177x_8x/Drivers/source/lpc177x_8x_mci.c **** 
2445:../src/lib/lpc177x_8x/Drivers/source/lpc177x_8x_mci.c ****     Mci_Data_Xfer_End = 1;
 5078              		.loc 2 2445 0
 5079 1c5e 214B     		ldr	r3, .L433+12
 5080 1c60 4FF00102 		mov	r2, #1
 5081 1c64 1A60     		str	r2, [r3, #0]
2446:../src/lib/lpc177x_8x/Drivers/source/lpc177x_8x_mci.c ****     Mci_Data_Xfer_ERR = 0;
 5082              		.loc 2 2446 0
 5083 1c66 204B     		ldr	r3, .L433+16
 5084 1c68 4FF00002 		mov	r2, #0
 5085 1c6c 1A60     		str	r2, [r3, #0]
2447:../src/lib/lpc177x_8x/Drivers/source/lpc177x_8x_mci.c ****     rxBlockCnt = 0;
 5086              		.loc 2 2447 0
 5087 1c6e 1F4B     		ldr	r3, .L433+20
 5088 1c70 4FF00002 		mov	r2, #0
 5089 1c74 1A60     		str	r2, [r3, #0]
2448:../src/lib/lpc177x_8x/Drivers/source/lpc177x_8x_mci.c ****     fifo_plane = 0;
 5090              		.loc 2 2448 0
 5091 1c76 1E4B     		ldr	r3, .L433+24
 5092 1c78 4FF00002 		mov	r2, #0
 5093 1c7c 1A70     		strb	r2, [r3, #0]
2449:../src/lib/lpc177x_8x/Drivers/source/lpc177x_8x_mci.c **** 
2450:../src/lib/lpc177x_8x/Drivers/source/lpc177x_8x_mci.c **** 
2451:../src/lib/lpc177x_8x/Drivers/source/lpc177x_8x_mci.c ****     // Start data engine on READ before command to avoid overflow of the FIFO.
2452:../src/lib/lpc177x_8x/Drivers/source/lpc177x_8x_mci.c ****     {        
2453:../src/lib/lpc177x_8x/Drivers/source/lpc177x_8x_mci.c **** #if MCI_DMA_ENABLED
2454:../src/lib/lpc177x_8x/Drivers/source/lpc177x_8x_mci.c ****         MCI_SettingDma((uint8_t*) dataDestBlock, MCI_DMA_READ_CHANNEL, GPDMA_TRANSFERTYPE_P2M_SRC_C
 5094              		.loc 2 2454 0
 5095 1c7e 164B     		ldr	r3, .L433
 5096 1c80 1B68     		ldr	r3, [r3, #0]
 5097 1c82 1846     		mov	r0, r3
 5098 1c84 4FF00101 		mov	r1, #1
 5099 1c88 4FF00602 		mov	r2, #6
 5100 1c8c FFF7FEFF 		bl	MCI_SettingDma
2455:../src/lib/lpc177x_8x/Drivers/source/lpc177x_8x_mci.c **** 
2456:../src/lib/lpc177x_8x/Drivers/source/lpc177x_8x_mci.c ****         /* Write, block transfer, DMA, and data length */
2457:../src/lib/lpc177x_8x/Drivers/source/lpc177x_8x_mci.c ****         DataCtrl |= MCI_DATACTRL_ENABLE | MCI_DATACTRL_DIR_FROM_CARD
 5101              		.loc 2 2457 0
 5102 1c90 7B69     		ldr	r3, [r7, #20]
 5103 1c92 43F09B03 		orr	r3, r3, #155
 5104 1c96 7B61     		str	r3, [r7, #20]
2458:../src/lib/lpc177x_8x/Drivers/source/lpc177x_8x_mci.c ****                         | MCI_DATACTRL_DMA_ENABLE | MCI_DTATCTRL_BLOCKSIZE(DATA_BLOCK_LEN);
2459:../src/lib/lpc177x_8x/Drivers/source/lpc177x_8x_mci.c **** #else
2460:../src/lib/lpc177x_8x/Drivers/source/lpc177x_8x_mci.c ****         //Retrieving the result after reading the card is done by the FIFO handling for interrupt
2461:../src/lib/lpc177x_8x/Drivers/source/lpc177x_8x_mci.c ****         
2462:../src/lib/lpc177x_8x/Drivers/source/lpc177x_8x_mci.c ****         /* Read, enable, block transfer, and data length */
2463:../src/lib/lpc177x_8x/Drivers/source/lpc177x_8x_mci.c ****         DataCtrl |= MCI_DATACTRL_ENABLE | MCI_DATACTRL_DIR_FROM_CARD | MCI_DTATCTRL_BLOCKSIZE(DATA_
2464:../src/lib/lpc177x_8x/Drivers/source/lpc177x_8x_mci.c **** 
2465:../src/lib/lpc177x_8x/Drivers/source/lpc177x_8x_mci.c **** #endif
2466:../src/lib/lpc177x_8x/Drivers/source/lpc177x_8x_mci.c ****     }
2467:../src/lib/lpc177x_8x/Drivers/source/lpc177x_8x_mci.c ****     
2468:../src/lib/lpc177x_8x/Drivers/source/lpc177x_8x_mci.c ****     LPC_MCI->DATACTRL = DataCtrl;
 5105              		.loc 2 2468 0
 5106 1c98 104B     		ldr	r3, .L433+4
 5107 1c9a 7A69     		ldr	r2, [r7, #20]
 5108 1c9c DA62     		str	r2, [r3, #44]
2469:../src/lib/lpc177x_8x/Drivers/source/lpc177x_8x_mci.c **** 
2470:../src/lib/lpc177x_8x/Drivers/source/lpc177x_8x_mci.c ****     for ( i = 0; i < 0x10; i++ );
 5109              		.loc 2 2470 0
 5110 1c9e 4FF00003 		mov	r3, #0
 5111 1ca2 3B61     		str	r3, [r7, #16]
 5112 1ca4 03E0     		b	.L430
 5113              	.L431:
 5114              		.loc 2 2470 0 is_stmt 0 discriminator 2
 5115 1ca6 3B69     		ldr	r3, [r7, #16]
 5116 1ca8 03F10103 		add	r3, r3, #1
 5117 1cac 3B61     		str	r3, [r7, #16]
 5118              	.L430:
 5119              		.loc 2 2470 0 discriminator 1
 5120 1cae 3B69     		ldr	r3, [r7, #16]
 5121 1cb0 0F2B     		cmp	r3, #15
 5122 1cb2 F8D9     		bls	.L431
2471:../src/lib/lpc177x_8x/Drivers/source/lpc177x_8x_mci.c **** 
2472:../src/lib/lpc177x_8x/Drivers/source/lpc177x_8x_mci.c ****     if ( MCI_Cmd_ReadBlock(blockNum, numOfBlock) != MCI_FUNC_OK )
 5123              		.loc 2 2472 0 is_stmt 1
 5124 1cb4 B868     		ldr	r0, [r7, #8]
 5125 1cb6 7968     		ldr	r1, [r7, #4]
 5126 1cb8 FFF7FEFF 		bl	MCI_Cmd_ReadBlock
 5127 1cbc 0346     		mov	r3, r0
 5128 1cbe 002B     		cmp	r3, #0
 5129 1cc0 02D0     		beq	.L432
2473:../src/lib/lpc177x_8x/Drivers/source/lpc177x_8x_mci.c ****     {
2474:../src/lib/lpc177x_8x/Drivers/source/lpc177x_8x_mci.c ****         return MCI_FUNC_FAILED;
 5130              		.loc 2 2474 0
 5131 1cc2 4FF0FF33 		mov	r3, #-1
 5132 1cc6 01E0     		b	.L426
 5133              	.L432:
2475:../src/lib/lpc177x_8x/Drivers/source/lpc177x_8x_mci.c ****     }
2476:../src/lib/lpc177x_8x/Drivers/source/lpc177x_8x_mci.c **** 
2477:../src/lib/lpc177x_8x/Drivers/source/lpc177x_8x_mci.c ****     return MCI_FUNC_OK;
 5134              		.loc 2 2477 0
 5135 1cc8 4FF00003 		mov	r3, #0
 5136              	.L426:
2478:../src/lib/lpc177x_8x/Drivers/source/lpc177x_8x_mci.c **** }
 5137              		.loc 2 2478 0
 5138 1ccc 1846     		mov	r0, r3
 5139 1cce 07F11807 		add	r7, r7, #24
 5140 1cd2 BD46     		mov	sp, r7
 5141 1cd4 80BD     		pop	{r7, pc}
 5142              	.L434:
 5143 1cd6 00BF     		.align	2
 5144              	.L433:
 5145 1cd8 00000000 		.word	dataDestBlock
 5146 1cdc 00000C40 		.word	1074528256
 5147 1ce0 404B4C00 		.word	5000000
 5148 1ce4 00000000 		.word	Mci_Data_Xfer_End
 5149 1ce8 00000000 		.word	Mci_Data_Xfer_ERR
 5150 1cec 00000000 		.word	rxBlockCnt
 5151 1cf0 00000000 		.word	fifo_plane
 5152              		.cfi_endproc
 5153              	.LFE97:
 5155              		.align	2
 5156              		.global	MCI_PowerOff
 5157              		.thumb
 5158              		.thumb_func
 5160              	MCI_PowerOff:
 5161              	.LFB98:
2479:../src/lib/lpc177x_8x/Drivers/source/lpc177x_8x_mci.c **** 
2480:../src/lib/lpc177x_8x/Drivers/source/lpc177x_8x_mci.c **** 
2481:../src/lib/lpc177x_8x/Drivers/source/lpc177x_8x_mci.c **** /************************************************************************//**
2482:../src/lib/lpc177x_8x/Drivers/source/lpc177x_8x_mci.c ****  * @brief        Turn off the MCI power by disabling the Power Register for MCI
2483:../src/lib/lpc177x_8x/Drivers/source/lpc177x_8x_mci.c ****  *
2484:../src/lib/lpc177x_8x/Drivers/source/lpc177x_8x_mci.c ****  * @param        None
2485:../src/lib/lpc177x_8x/Drivers/source/lpc177x_8x_mci.c ****  *
2486:../src/lib/lpc177x_8x/Drivers/source/lpc177x_8x_mci.c ****  * @return       None
2487:../src/lib/lpc177x_8x/Drivers/source/lpc177x_8x_mci.c ****  ****************************************************************************/
2488:../src/lib/lpc177x_8x/Drivers/source/lpc177x_8x_mci.c **** void MCI_PowerOff(void) 
2489:../src/lib/lpc177x_8x/Drivers/source/lpc177x_8x_mci.c **** {
 5162              		.loc 2 2489 0
 5163              		.cfi_startproc
 5164              		@ args = 0, pretend = 0, frame = 8
 5165              		@ frame_needed = 1, uses_anonymous_args = 0
 5166              		@ link register save eliminated.
 5167 1cf4 80B4     		push	{r7}
 5168              	.LCFI122:
 5169              		.cfi_def_cfa_offset 4
 5170              		.cfi_offset 7, -4
 5171 1cf6 83B0     		sub	sp, sp, #12
 5172              	.LCFI123:
 5173              		.cfi_def_cfa_offset 16
 5174 1cf8 00AF     		add	r7, sp, #0
 5175              	.LCFI124:
 5176              		.cfi_def_cfa_register 7
2490:../src/lib/lpc177x_8x/Drivers/source/lpc177x_8x_mci.c ****     volatile uint32_t i;
2491:../src/lib/lpc177x_8x/Drivers/source/lpc177x_8x_mci.c **** 
2492:../src/lib/lpc177x_8x/Drivers/source/lpc177x_8x_mci.c ****     LPC_MCI->POWER = 0;
 5177              		.loc 2 2492 0
 5178 1cfa 0A4B     		ldr	r3, .L439
 5179 1cfc 4FF00002 		mov	r2, #0
 5180 1d00 1A60     		str	r2, [r3, #0]
2493:../src/lib/lpc177x_8x/Drivers/source/lpc177x_8x_mci.c ****     
2494:../src/lib/lpc177x_8x/Drivers/source/lpc177x_8x_mci.c ****     for (i = 0; i < 0x100; i++);
 5181              		.loc 2 2494 0
 5182 1d02 4FF00003 		mov	r3, #0
 5183 1d06 7B60     		str	r3, [r7, #4]
 5184 1d08 03E0     		b	.L436
 5185              	.L437:
 5186              		.loc 2 2494 0 is_stmt 0 discriminator 2
 5187 1d0a 7B68     		ldr	r3, [r7, #4]
 5188 1d0c 03F10103 		add	r3, r3, #1
 5189 1d10 7B60     		str	r3, [r7, #4]
 5190              	.L436:
 5191              		.loc 2 2494 0 discriminator 1
 5192 1d12 7B68     		ldr	r3, [r7, #4]
 5193 1d14 FF2B     		cmp	r3, #255
 5194 1d16 F8D9     		bls	.L437
2495:../src/lib/lpc177x_8x/Drivers/source/lpc177x_8x_mci.c ****     
2496:../src/lib/lpc177x_8x/Drivers/source/lpc177x_8x_mci.c ****     return;
 5195              		.loc 2 2496 0 is_stmt 1
 5196 1d18 00BF     		nop
2497:../src/lib/lpc177x_8x/Drivers/source/lpc177x_8x_mci.c **** }
 5197              		.loc 2 2497 0
 5198 1d1a 07F10C07 		add	r7, r7, #12
 5199 1d1e BD46     		mov	sp, r7
 5200 1d20 80BC     		pop	{r7}
 5201 1d22 7047     		bx	lr
 5202              	.L440:
 5203              		.align	2
 5204              	.L439:
 5205 1d24 00000C40 		.word	1074528256
 5206              		.cfi_endproc
 5207              	.LFE98:
 5209              	.Letext0:
 5210              		.file 3 "g:\\program files\\codesourcery\\sourcery_codebench_lite_for_arm_eabi\\bin\\../lib/gcc/ar
 5211              		.file 4 "D:\\workspace_gnu\\RTT_Demo0\\src\\lib\\lpc177x_8x\\Drivers\\include/lpc_types.h"
 5212              		.file 5 "D:\\workspace_gnu\\RTT_Demo0\\src\\lib\\lpc177x_8x\\Core\\Device\\NXP\\LPC177x_8x\\Includ
 5213              		.file 6 "D:\\workspace_gnu\\RTT_Demo0\\src\\lib\\lpc177x_8x\\Drivers\\include/lpc177x_8x_mci.h"
 5214              		.file 7 "D:\\workspace_gnu\\RTT_Demo0\\src\\lib\\lpc177x_8x\\Drivers\\include/lpc177x_8x_gpdma.h"
DEFINED SYMBOLS
                            *ABS*:00000000 lpc177x_8x_mci.c
C:\Users\YANGZH~1\AppData\Local\Temp\ccokdvba.s:18     .text:00000000 $t
C:\Users\YANGZH~1\AppData\Local\Temp\ccokdvba.s:22     .text:00000000 NVIC_EnableIRQ
C:\Users\YANGZH~1\AppData\Local\Temp\ccokdvba.s:59     .text:00000030 $d
C:\Users\YANGZH~1\AppData\Local\Temp\ccokdvba.s:68     .bss:00000000 Mci_Data_Xfer_End
C:\Users\YANGZH~1\AppData\Local\Temp\ccokdvba.s:65     .bss:00000000 $d
C:\Users\YANGZH~1\AppData\Local\Temp\ccokdvba.s:74     .bss:00000004 Mci_Data_Xfer_ERR
C:\Users\YANGZH~1\AppData\Local\Temp\ccokdvba.s:79     .bss:00000008 fifo_plane
                            *COM*:00000004 CardRCA
                            *COM*:00000001 CCS
                            *COM*:00000001 MCI_CardType
                            *COM*:00000004 dmaWrCh_TermianalCnt
                            *COM*:00000004 dmaWrCh_ErrorCnt
                            *COM*:00000004 dmaRdCh_TermianalCnt
                            *COM*:00000004 dmaRdCh_ErrorCnt
C:\Users\YANGZH~1\AppData\Local\Temp\ccokdvba.s:93     .data:00000000 dataSrcBlock
C:\Users\YANGZH~1\AppData\Local\Temp\ccokdvba.s:90     .data:00000000 $d
C:\Users\YANGZH~1\AppData\Local\Temp\ccokdvba.s:99     .data:00000004 dataDestBlock
C:\Users\YANGZH~1\AppData\Local\Temp\ccokdvba.s:106    .bss:0000000c txBlockCnt
C:\Users\YANGZH~1\AppData\Local\Temp\ccokdvba.s:112    .bss:00000010 rxBlockCnt
C:\Users\YANGZH~1\AppData\Local\Temp\ccokdvba.s:115    .text:00000034 $t
C:\Users\YANGZH~1\AppData\Local\Temp\ccokdvba.s:120    .text:00000034 MCI_SettingDma
C:\Users\YANGZH~1\AppData\Local\Temp\ccokdvba.s:220    .text:000000c8 $d
C:\Users\YANGZH~1\AppData\Local\Temp\ccokdvba.s:224    .text:000000cc $t
C:\Users\YANGZH~1\AppData\Local\Temp\ccokdvba.s:229    .text:000000cc MCI_DMA_IRQHandler
C:\Users\YANGZH~1\AppData\Local\Temp\ccokdvba.s:335    .text:000001a0 $d
C:\Users\YANGZH~1\AppData\Local\Temp\ccokdvba.s:342    .text:000001b0 $t
C:\Users\YANGZH~1\AppData\Local\Temp\ccokdvba.s:347    .text:000001b0 MCI_ReadFifo
C:\Users\YANGZH~1\AppData\Local\Temp\ccokdvba.s:435    .text:00000230 $d
C:\Users\YANGZH~1\AppData\Local\Temp\ccokdvba.s:440    .text:00000238 $t
C:\Users\YANGZH~1\AppData\Local\Temp\ccokdvba.s:445    .text:00000238 MCI_WriteFifo
C:\Users\YANGZH~1\AppData\Local\Temp\ccokdvba.s:533    .text:000002b8 $d
C:\Users\YANGZH~1\AppData\Local\Temp\ccokdvba.s:538    .text:000002c0 $t
C:\Users\YANGZH~1\AppData\Local\Temp\ccokdvba.s:543    .text:000002c0 MCI_TXEnable
C:\Users\YANGZH~1\AppData\Local\Temp\ccokdvba.s:573    .text:000002dc $d
C:\Users\YANGZH~1\AppData\Local\Temp\ccokdvba.s:577    .text:000002e0 $t
C:\Users\YANGZH~1\AppData\Local\Temp\ccokdvba.s:582    .text:000002e0 MCI_TXDisable
C:\Users\YANGZH~1\AppData\Local\Temp\ccokdvba.s:612    .text:000002fc $d
C:\Users\YANGZH~1\AppData\Local\Temp\ccokdvba.s:616    .text:00000300 $t
C:\Users\YANGZH~1\AppData\Local\Temp\ccokdvba.s:621    .text:00000300 MCI_RXEnable
C:\Users\YANGZH~1\AppData\Local\Temp\ccokdvba.s:651    .text:0000031c $d
C:\Users\YANGZH~1\AppData\Local\Temp\ccokdvba.s:655    .text:00000320 $t
C:\Users\YANGZH~1\AppData\Local\Temp\ccokdvba.s:660    .text:00000320 MCI_RXDisable
C:\Users\YANGZH~1\AppData\Local\Temp\ccokdvba.s:690    .text:0000033c $d
C:\Users\YANGZH~1\AppData\Local\Temp\ccokdvba.s:694    .text:00000340 $t
C:\Users\YANGZH~1\AppData\Local\Temp\ccokdvba.s:699    .text:00000340 MCI_CheckStatus
C:\Users\YANGZH~1\AppData\Local\Temp\ccokdvba.s:3871   .text:00001588 MCI_GetCardStatus
C:\Users\YANGZH~1\AppData\Local\Temp\ccokdvba.s:810    .text:000003d8 MCI_CmdProcess
C:\Users\YANGZH~1\AppData\Local\Temp\ccokdvba.s:892    .text:0000044c $d
C:\Users\YANGZH~1\AppData\Local\Temp\ccokdvba.s:896    .text:00000450 $t
C:\Users\YANGZH~1\AppData\Local\Temp\ccokdvba.s:901    .text:00000450 MCI_DataErrorProcess
C:\Users\YANGZH~1\AppData\Local\Temp\ccokdvba.s:990    .text:000004d0 $d
C:\Users\YANGZH~1\AppData\Local\Temp\ccokdvba.s:996    .text:000004dc $t
C:\Users\YANGZH~1\AppData\Local\Temp\ccokdvba.s:1001   .text:000004dc MCI_DATA_END_InterruptService
C:\Users\YANGZH~1\AppData\Local\Temp\ccokdvba.s:1068   .text:00000534 $d
C:\Users\YANGZH~1\AppData\Local\Temp\ccokdvba.s:1074   .text:00000540 $t
C:\Users\YANGZH~1\AppData\Local\Temp\ccokdvba.s:1079   .text:00000540 MCI_FIFOInterruptService
C:\Users\YANGZH~1\AppData\Local\Temp\ccokdvba.s:1107   .text:0000054c MCI_IRQHandler
C:\Users\YANGZH~1\AppData\Local\Temp\ccokdvba.s:1178   .text:000005a4 $d
C:\Users\YANGZH~1\AppData\Local\Temp\ccokdvba.s:1183   .text:000005ac $t
C:\Users\YANGZH~1\AppData\Local\Temp\ccokdvba.s:1188   .text:000005ac MCI_Set_MCIClock
C:\Users\YANGZH~1\AppData\Local\Temp\ccokdvba.s:1265   .text:00000624 $d
C:\Users\YANGZH~1\AppData\Local\Temp\ccokdvba.s:1269   .text:00000628 $t
C:\Users\YANGZH~1\AppData\Local\Temp\ccokdvba.s:1274   .text:00000628 MCI_SetBusWidth
C:\Users\YANGZH~1\AppData\Local\Temp\ccokdvba.s:4144   .text:00001708 MCI_Acmd_SendBusWidth
C:\Users\YANGZH~1\AppData\Local\Temp\ccokdvba.s:1380   .text:000006bc $d
C:\Users\YANGZH~1\AppData\Local\Temp\ccokdvba.s:1385   .text:000006c4 $t
C:\Users\YANGZH~1\AppData\Local\Temp\ccokdvba.s:1390   .text:000006c4 MCI_Init
C:\Users\YANGZH~1\AppData\Local\Temp\ccokdvba.s:2916   .text:00000ffc MCI_CardInit
C:\Users\YANGZH~1\AppData\Local\Temp\ccokdvba.s:1736   .text:00000974 $d
C:\Users\YANGZH~1\AppData\Local\Temp\ccokdvba.s:1747   .text:00000994 $t
C:\Users\YANGZH~1\AppData\Local\Temp\ccokdvba.s:1752   .text:00000994 MCI_SetOutputMode
C:\Users\YANGZH~1\AppData\Local\Temp\ccokdvba.s:1814   .text:000009e4 $d
C:\Users\YANGZH~1\AppData\Local\Temp\ccokdvba.s:1818   .text:000009e8 $t
C:\Users\YANGZH~1\AppData\Local\Temp\ccokdvba.s:1823   .text:000009e8 MCI_SendCmd
C:\Users\YANGZH~1\AppData\Local\Temp\ccokdvba.s:2002   .text:00000af0 $d
C:\Users\YANGZH~1\AppData\Local\Temp\ccokdvba.s:2006   .text:00000af4 $t
C:\Users\YANGZH~1\AppData\Local\Temp\ccokdvba.s:2011   .text:00000af4 MCI_GetCmdResp
C:\Users\YANGZH~1\AppData\Local\Temp\ccokdvba.s:2243   .text:00000c5c $d
C:\Users\YANGZH~1\AppData\Local\Temp\ccokdvba.s:2247   .text:00000c60 $t
C:\Users\YANGZH~1\AppData\Local\Temp\ccokdvba.s:2252   .text:00000c60 MCI_CmdResp
C:\Users\YANGZH~1\AppData\Local\Temp\ccokdvba.s:2321   .text:00000cac MCI_CardReset
C:\Users\YANGZH~1\AppData\Local\Temp\ccokdvba.s:2372   .text:00000ce8 MCI_Cmd_SendOpCond
C:\Users\YANGZH~1\AppData\Local\Temp\ccokdvba.s:2478   .text:00000d80 $d
C:\Users\YANGZH~1\AppData\Local\Temp\ccokdvba.s:2482   .text:00000d84 $t
C:\Users\YANGZH~1\AppData\Local\Temp\ccokdvba.s:2487   .text:00000d84 MCI_Cmd_SendIfCond
C:\Users\YANGZH~1\AppData\Local\Temp\ccokdvba.s:2620   .text:00000e54 MCI_Cmd_SendACMD
C:\Users\YANGZH~1\AppData\Local\Temp\ccokdvba.s:2758   .text:00000f18 $d
C:\Users\YANGZH~1\AppData\Local\Temp\ccokdvba.s:2763   .text:00000f20 $t
C:\Users\YANGZH~1\AppData\Local\Temp\ccokdvba.s:2768   .text:00000f20 MCI_Acmd_SendOpCond
C:\Users\YANGZH~1\AppData\Local\Temp\ccokdvba.s:2907   .text:00000ff8 $d
C:\Users\YANGZH~1\AppData\Local\Temp\ccokdvba.s:2911   .text:00000ffc $t
C:\Users\YANGZH~1\AppData\Local\Temp\ccokdvba.s:3073   .text:000010fc $d
C:\Users\YANGZH~1\AppData\Local\Temp\ccokdvba.s:3078   .text:00001104 $t
C:\Users\YANGZH~1\AppData\Local\Temp\ccokdvba.s:3083   .text:00001104 MCI_GetCardType
C:\Users\YANGZH~1\AppData\Local\Temp\ccokdvba.s:3110   .text:00001118 $d
C:\Users\YANGZH~1\AppData\Local\Temp\ccokdvba.s:3114   .text:0000111c $t
C:\Users\YANGZH~1\AppData\Local\Temp\ccokdvba.s:3119   .text:0000111c MCI_GetCID
C:\Users\YANGZH~1\AppData\Local\Temp\ccokdvba.s:3286   .text:0000122c MCI_SetCardAddress
C:\Users\YANGZH~1\AppData\Local\Temp\ccokdvba.s:3448   .text:00001328 $d
C:\Users\YANGZH~1\AppData\Local\Temp\ccokdvba.s:3453   .text:00001330 $t
C:\Users\YANGZH~1\AppData\Local\Temp\ccokdvba.s:3458   .text:00001330 MCI_GetCardAddress
C:\Users\YANGZH~1\AppData\Local\Temp\ccokdvba.s:3483   .text:00001340 $d
C:\Users\YANGZH~1\AppData\Local\Temp\ccokdvba.s:3487   .text:00001344 $t
C:\Users\YANGZH~1\AppData\Local\Temp\ccokdvba.s:3492   .text:00001344 MCI_GetCSD
C:\Users\YANGZH~1\AppData\Local\Temp\ccokdvba.s:3646   .text:0000142c $d
C:\Users\YANGZH~1\AppData\Local\Temp\ccokdvba.s:3651   .text:00001434 $t
C:\Users\YANGZH~1\AppData\Local\Temp\ccokdvba.s:3656   .text:00001434 MCI_Cmd_SelectCard
C:\Users\YANGZH~1\AppData\Local\Temp\ccokdvba.s:3860   .text:0000157c $d
C:\Users\YANGZH~1\AppData\Local\Temp\ccokdvba.s:3866   .text:00001588 $t
C:\Users\YANGZH~1\AppData\Local\Temp\ccokdvba.s:4010   .text:00001650 $d
C:\Users\YANGZH~1\AppData\Local\Temp\ccokdvba.s:4015   .text:00001658 $t
C:\Users\YANGZH~1\AppData\Local\Temp\ccokdvba.s:4020   .text:00001658 MCI_SetBlockLen
C:\Users\YANGZH~1\AppData\Local\Temp\ccokdvba.s:4135   .text:00001704 $d
C:\Users\YANGZH~1\AppData\Local\Temp\ccokdvba.s:4139   .text:00001708 $t
C:\Users\YANGZH~1\AppData\Local\Temp\ccokdvba.s:4268   .text:000017c0 $d
C:\Users\YANGZH~1\AppData\Local\Temp\ccokdvba.s:4272   .text:000017c4 $t
C:\Users\YANGZH~1\AppData\Local\Temp\ccokdvba.s:4277   .text:000017c4 MCI_GetDataXferEndState
C:\Users\YANGZH~1\AppData\Local\Temp\ccokdvba.s:4302   .text:000017d4 $d
C:\Users\YANGZH~1\AppData\Local\Temp\ccokdvba.s:4306   .text:000017d8 $t
C:\Users\YANGZH~1\AppData\Local\Temp\ccokdvba.s:4311   .text:000017d8 MCI_GetXferErrState
C:\Users\YANGZH~1\AppData\Local\Temp\ccokdvba.s:4336   .text:000017e8 $d
C:\Users\YANGZH~1\AppData\Local\Temp\ccokdvba.s:4340   .text:000017ec $t
C:\Users\YANGZH~1\AppData\Local\Temp\ccokdvba.s:4345   .text:000017ec MCI_Cmd_StopTransmission
C:\Users\YANGZH~1\AppData\Local\Temp\ccokdvba.s:4491   .text:000018d8 $d
C:\Users\YANGZH~1\AppData\Local\Temp\ccokdvba.s:4495   .text:000018dc $t
C:\Users\YANGZH~1\AppData\Local\Temp\ccokdvba.s:4500   .text:000018dc MCI_Cmd_WriteBlock
C:\Users\YANGZH~1\AppData\Local\Temp\ccokdvba.s:4658   .text:000019d0 $d
C:\Users\YANGZH~1\AppData\Local\Temp\ccokdvba.s:4663   .text:000019d8 $t
C:\Users\YANGZH~1\AppData\Local\Temp\ccokdvba.s:4668   .text:000019d8 MCI_Cmd_ReadBlock
C:\Users\YANGZH~1\AppData\Local\Temp\ccokdvba.s:4826   .text:00001acc $d
C:\Users\YANGZH~1\AppData\Local\Temp\ccokdvba.s:4831   .text:00001ad4 $t
C:\Users\YANGZH~1\AppData\Local\Temp\ccokdvba.s:4836   .text:00001ad4 MCI_WriteBlock
C:\Users\YANGZH~1\AppData\Local\Temp\ccokdvba.s:4983   .text:00001bc8 $d
C:\Users\YANGZH~1\AppData\Local\Temp\ccokdvba.s:4993   .text:00001be4 $t
C:\Users\YANGZH~1\AppData\Local\Temp\ccokdvba.s:4998   .text:00001be4 MCI_ReadBlock
C:\Users\YANGZH~1\AppData\Local\Temp\ccokdvba.s:5145   .text:00001cd8 $d
C:\Users\YANGZH~1\AppData\Local\Temp\ccokdvba.s:5155   .text:00001cf4 $t
C:\Users\YANGZH~1\AppData\Local\Temp\ccokdvba.s:5160   .text:00001cf4 MCI_PowerOff
C:\Users\YANGZH~1\AppData\Local\Temp\ccokdvba.s:5205   .text:00001d24 $d
                     .debug_frame:00000010 $d
                           .group:00000000 wm4.1.9fa2be94b3b27131c651c32db681ca6e
                           .group:00000000 wm4.stdint.h.10.90b695f550ca6cc3fb08fa83baf01e05
                           .group:00000000 wm4.lpc_types.h.61.500abe635b953859f645467b1debaa34
                           .group:00000000 wm4.lpc177x_8x_libcfg_default.h.42.c21d4d8531a15b96cd9ccfa94b76f68e
                           .group:00000000 wm4.LPC177x_8x.h.34.ced9b468ef83bb68f280515946661353
                           .group:00000000 wm4.core_cm3.h.32.790cc16ac64d67f02f3790c90a28e38c
                           .group:00000000 wm4.core_cmInstr.h.25.dd98b40e8e0d1d9ee958eb9cce5e7898
                           .group:00000000 wm4.core_cm3.h.132.82da42f2eaa4f3e645984b3550bd4c22
                           .group:00000000 wm4.LPC177x_8x.h.1353.9b0a09b2831088a36b3e4060dcdc4532
                           .group:00000000 wm4.lpc177x_8x_mci.h.40.7dfd4793bf0645b204c7e50ad32e9709
                           .group:00000000 wm4.lpc177x_8x_gpdma.h.40.c35db76248a56602fc53b04475050fc0
                           .group:00000000 wm4.system_LPC177x_8x.h.34.e57b19a2859ef593a5974e6904d3f0ac
                           .group:00000000 wm4.lpc177x_8x_clkpwr.h.61.8bfb9350f1be3b242e7e7c6f04f31221
                           .group:00000000 wm4.lpc177x_8x_pinsel.h.40.a81053d200359e8219d877c26a0096e8

UNDEFINED SYMBOLS
GPDMA_Setup
GPDMA_ChannelCmd
GPDMA_IntGetStatus
GPDMA_ClearIntPending
CLKPWR_GetCLK
PINSEL_ConfigPin
