   1              		.syntax unified
   2              		.cpu cortex-m4
   3              		.fpu softvfp
   4              		.eabi_attribute 20, 1
   5              		.eabi_attribute 21, 1
   6              		.eabi_attribute 23, 3
   7              		.eabi_attribute 24, 1
   8              		.eabi_attribute 25, 1
   9              		.eabi_attribute 26, 1
  10              		.eabi_attribute 30, 6
  11              		.eabi_attribute 34, 1
  12              		.eabi_attribute 18, 4
  13              		.thumb
  14              		.file	"lpc177x_8x_nvic.c"
  15              		.text
  16              	.Ltext0:
  17              		.cfi_sections	.debug_frame
  18              		.align	2
  19              		.global	NVIC_DeInit
  20              		.thumb
  21              		.thumb_func
  23              	NVIC_DeInit:
  24              	.LFB55:
  25              		.file 1 "../src/lib/lpc177x_8x/Drivers/source/lpc177x_8x_nvic.c"
   1:../src/lib/lpc177x_8x/Drivers/source/lpc177x_8x_nvic.c **** /**********************************************************************
   2:../src/lib/lpc177x_8x/Drivers/source/lpc177x_8x_nvic.c **** * $Id$      lpc177x_8x_nvic.c           2011-06-02
   3:../src/lib/lpc177x_8x/Drivers/source/lpc177x_8x_nvic.c **** *//**
   4:../src/lib/lpc177x_8x/Drivers/source/lpc177x_8x_nvic.c **** * @file     lpc177x_8x_nvic.c
   5:../src/lib/lpc177x_8x/Drivers/source/lpc177x_8x_nvic.c **** * @brief    Contains all expansion functions support for Nesting 
   6:../src/lib/lpc177x_8x/Drivers/source/lpc177x_8x_nvic.c **** *           Vectored Interrupt Controller (NVIC) firmware library 
   7:../src/lib/lpc177x_8x/Drivers/source/lpc177x_8x_nvic.c **** *           on LPC177x_8x. The main NVIC functions are defined 
   8:../src/lib/lpc177x_8x/Drivers/source/lpc177x_8x_nvic.c **** *           in core_cm3.h
   9:../src/lib/lpc177x_8x/Drivers/source/lpc177x_8x_nvic.c **** * @version  1.0
  10:../src/lib/lpc177x_8x/Drivers/source/lpc177x_8x_nvic.c **** * @date     02. June. 2011
  11:../src/lib/lpc177x_8x/Drivers/source/lpc177x_8x_nvic.c **** * @author   NXP MCU SW Application Team
  12:../src/lib/lpc177x_8x/Drivers/source/lpc177x_8x_nvic.c **** * 
  13:../src/lib/lpc177x_8x/Drivers/source/lpc177x_8x_nvic.c **** * Copyright(C) 2011, NXP Semiconductor
  14:../src/lib/lpc177x_8x/Drivers/source/lpc177x_8x_nvic.c **** * All rights reserved.
  15:../src/lib/lpc177x_8x/Drivers/source/lpc177x_8x_nvic.c **** *
  16:../src/lib/lpc177x_8x/Drivers/source/lpc177x_8x_nvic.c **** ***********************************************************************
  17:../src/lib/lpc177x_8x/Drivers/source/lpc177x_8x_nvic.c **** * Software that is described herein is for illustrative purposes only
  18:../src/lib/lpc177x_8x/Drivers/source/lpc177x_8x_nvic.c **** * which provides customers with programming information regarding the
  19:../src/lib/lpc177x_8x/Drivers/source/lpc177x_8x_nvic.c **** * products. This software is supplied "AS IS" without any warranties.
  20:../src/lib/lpc177x_8x/Drivers/source/lpc177x_8x_nvic.c **** * NXP Semiconductors assumes no responsibility or liability for the
  21:../src/lib/lpc177x_8x/Drivers/source/lpc177x_8x_nvic.c **** * use of the software, conveys no license or title under any patent,
  22:../src/lib/lpc177x_8x/Drivers/source/lpc177x_8x_nvic.c **** * copyright, or mask work right to the product. NXP Semiconductors
  23:../src/lib/lpc177x_8x/Drivers/source/lpc177x_8x_nvic.c **** * reserves the right to make changes in the software without
  24:../src/lib/lpc177x_8x/Drivers/source/lpc177x_8x_nvic.c **** * notification. NXP Semiconductors also make no representation or
  25:../src/lib/lpc177x_8x/Drivers/source/lpc177x_8x_nvic.c **** * warranty that such application will be suitable for the specified
  26:../src/lib/lpc177x_8x/Drivers/source/lpc177x_8x_nvic.c **** * use without further testing or modification.
  27:../src/lib/lpc177x_8x/Drivers/source/lpc177x_8x_nvic.c **** * Permission to use, copy, modify, and distribute this software and its
  28:../src/lib/lpc177x_8x/Drivers/source/lpc177x_8x_nvic.c **** * documentation is hereby granted, under NXP Semiconductors'
  29:../src/lib/lpc177x_8x/Drivers/source/lpc177x_8x_nvic.c **** * relevant copyright in the software, without fee, provided that it
  30:../src/lib/lpc177x_8x/Drivers/source/lpc177x_8x_nvic.c **** * is used in conjunction with NXP Semiconductors microcontrollers.  This
  31:../src/lib/lpc177x_8x/Drivers/source/lpc177x_8x_nvic.c **** * copyright, permission, and disclaimer notice must appear in all copies of
  32:../src/lib/lpc177x_8x/Drivers/source/lpc177x_8x_nvic.c **** * this code.
  33:../src/lib/lpc177x_8x/Drivers/source/lpc177x_8x_nvic.c **** **********************************************************************/
  34:../src/lib/lpc177x_8x/Drivers/source/lpc177x_8x_nvic.c **** 
  35:../src/lib/lpc177x_8x/Drivers/source/lpc177x_8x_nvic.c **** /* Peripheral group ----------------------------------------------------------- */
  36:../src/lib/lpc177x_8x/Drivers/source/lpc177x_8x_nvic.c **** /** @addtogroup NVIC
  37:../src/lib/lpc177x_8x/Drivers/source/lpc177x_8x_nvic.c ****  * @{
  38:../src/lib/lpc177x_8x/Drivers/source/lpc177x_8x_nvic.c ****  */
  39:../src/lib/lpc177x_8x/Drivers/source/lpc177x_8x_nvic.c **** #ifdef __BUILD_WITH_EXAMPLE__
  40:../src/lib/lpc177x_8x/Drivers/source/lpc177x_8x_nvic.c **** #include "lpc177x_8x_libcfg.h"
  41:../src/lib/lpc177x_8x/Drivers/source/lpc177x_8x_nvic.c **** #else
  42:../src/lib/lpc177x_8x/Drivers/source/lpc177x_8x_nvic.c **** #include "lpc177x_8x_libcfg_default.h"
  43:../src/lib/lpc177x_8x/Drivers/source/lpc177x_8x_nvic.c **** #endif /* __BUILD_WITH_EXAMPLE__ */
  44:../src/lib/lpc177x_8x/Drivers/source/lpc177x_8x_nvic.c **** #ifdef _NVIC
  45:../src/lib/lpc177x_8x/Drivers/source/lpc177x_8x_nvic.c **** 
  46:../src/lib/lpc177x_8x/Drivers/source/lpc177x_8x_nvic.c **** /* Includes ------------------------------------------------------------------- */
  47:../src/lib/lpc177x_8x/Drivers/source/lpc177x_8x_nvic.c **** #include "lpc177x_8x_nvic.h"
  48:../src/lib/lpc177x_8x/Drivers/source/lpc177x_8x_nvic.c **** 
  49:../src/lib/lpc177x_8x/Drivers/source/lpc177x_8x_nvic.c **** 
  50:../src/lib/lpc177x_8x/Drivers/source/lpc177x_8x_nvic.c **** /* Private Macros ------------------------------------------------------------- */
  51:../src/lib/lpc177x_8x/Drivers/source/lpc177x_8x_nvic.c **** /** @defgroup NVIC_Private_Macros NVIC Private Macros
  52:../src/lib/lpc177x_8x/Drivers/source/lpc177x_8x_nvic.c ****  * @{
  53:../src/lib/lpc177x_8x/Drivers/source/lpc177x_8x_nvic.c ****  */
  54:../src/lib/lpc177x_8x/Drivers/source/lpc177x_8x_nvic.c **** 
  55:../src/lib/lpc177x_8x/Drivers/source/lpc177x_8x_nvic.c **** /* Vector table offset bit mask */
  56:../src/lib/lpc177x_8x/Drivers/source/lpc177x_8x_nvic.c **** #define NVIC_VTOR_MASK              0x3FFFFF80
  57:../src/lib/lpc177x_8x/Drivers/source/lpc177x_8x_nvic.c **** 
  58:../src/lib/lpc177x_8x/Drivers/source/lpc177x_8x_nvic.c **** /**
  59:../src/lib/lpc177x_8x/Drivers/source/lpc177x_8x_nvic.c ****  * @}
  60:../src/lib/lpc177x_8x/Drivers/source/lpc177x_8x_nvic.c ****  */
  61:../src/lib/lpc177x_8x/Drivers/source/lpc177x_8x_nvic.c **** 
  62:../src/lib/lpc177x_8x/Drivers/source/lpc177x_8x_nvic.c **** 
  63:../src/lib/lpc177x_8x/Drivers/source/lpc177x_8x_nvic.c **** /* Public Functions ----------------------------------------------------------- */
  64:../src/lib/lpc177x_8x/Drivers/source/lpc177x_8x_nvic.c **** /** @addtogroup NVIC_Public_Functions
  65:../src/lib/lpc177x_8x/Drivers/source/lpc177x_8x_nvic.c ****  * @{
  66:../src/lib/lpc177x_8x/Drivers/source/lpc177x_8x_nvic.c ****  */
  67:../src/lib/lpc177x_8x/Drivers/source/lpc177x_8x_nvic.c **** 
  68:../src/lib/lpc177x_8x/Drivers/source/lpc177x_8x_nvic.c **** 
  69:../src/lib/lpc177x_8x/Drivers/source/lpc177x_8x_nvic.c **** /*****************************************************************************//**
  70:../src/lib/lpc177x_8x/Drivers/source/lpc177x_8x_nvic.c ****  * @brief       De-initializes the NVIC peripheral registers to their default
  71:../src/lib/lpc177x_8x/Drivers/source/lpc177x_8x_nvic.c ****  *              reset values.
  72:../src/lib/lpc177x_8x/Drivers/source/lpc177x_8x_nvic.c ****  * @param       None
  73:../src/lib/lpc177x_8x/Drivers/source/lpc177x_8x_nvic.c ****  * @return      None
  74:../src/lib/lpc177x_8x/Drivers/source/lpc177x_8x_nvic.c ****  *
  75:../src/lib/lpc177x_8x/Drivers/source/lpc177x_8x_nvic.c ****  * These following NVIC peripheral registers will be de-initialized:
  76:../src/lib/lpc177x_8x/Drivers/source/lpc177x_8x_nvic.c ****  * - Disable Interrupt (32 IRQ interrupt sources that matched with LPC178X)
  77:../src/lib/lpc177x_8x/Drivers/source/lpc177x_8x_nvic.c ****  * - Clear all Pending Interrupts (32 IRQ interrupt source that matched with LPC178X)
  78:../src/lib/lpc177x_8x/Drivers/source/lpc177x_8x_nvic.c ****  * - Clear all Interrupt Priorities (32 IRQ interrupt source that matched with LPC178X)
  79:../src/lib/lpc177x_8x/Drivers/source/lpc177x_8x_nvic.c ****  *******************************************************************************/
  80:../src/lib/lpc177x_8x/Drivers/source/lpc177x_8x_nvic.c **** void NVIC_DeInit(void)
  81:../src/lib/lpc177x_8x/Drivers/source/lpc177x_8x_nvic.c **** {
  26              		.loc 1 81 0
  27              		.cfi_startproc
  28              		@ args = 0, pretend = 0, frame = 8
  29              		@ frame_needed = 1, uses_anonymous_args = 0
  30              		@ link register save eliminated.
  31 0000 80B4     		push	{r7}
  32              	.LCFI0:
  33              		.cfi_def_cfa_offset 4
  34              		.cfi_offset 7, -4
  35 0002 83B0     		sub	sp, sp, #12
  36              	.LCFI1:
  37              		.cfi_def_cfa_offset 16
  38 0004 00AF     		add	r7, sp, #0
  39              	.LCFI2:
  40              		.cfi_def_cfa_register 7
  82:../src/lib/lpc177x_8x/Drivers/source/lpc177x_8x_nvic.c ****     uint8_t tmp;
  83:../src/lib/lpc177x_8x/Drivers/source/lpc177x_8x_nvic.c **** 
  84:../src/lib/lpc177x_8x/Drivers/source/lpc177x_8x_nvic.c ****     /* Disable all interrupts */
  85:../src/lib/lpc177x_8x/Drivers/source/lpc177x_8x_nvic.c ****     NVIC->ICER[0] = 0xFFFFFFFF;
  41              		.loc 1 85 0
  42 0006 154B     		ldr	r3, .L4
  43 0008 4FF0FF32 		mov	r2, #-1
  44 000c C3F88020 		str	r2, [r3, #128]
  86:../src/lib/lpc177x_8x/Drivers/source/lpc177x_8x_nvic.c ****     NVIC->ICER[1] = 0x00000001;
  45              		.loc 1 86 0
  46 0010 124B     		ldr	r3, .L4
  47 0012 4FF00102 		mov	r2, #1
  48 0016 C3F88420 		str	r2, [r3, #132]
  87:../src/lib/lpc177x_8x/Drivers/source/lpc177x_8x_nvic.c ****     /* Clear all pending interrupts */
  88:../src/lib/lpc177x_8x/Drivers/source/lpc177x_8x_nvic.c ****     NVIC->ICPR[0] = 0xFFFFFFFF;
  49              		.loc 1 88 0
  50 001a 104B     		ldr	r3, .L4
  51 001c 4FF0FF32 		mov	r2, #-1
  52 0020 C3F88021 		str	r2, [r3, #384]
  89:../src/lib/lpc177x_8x/Drivers/source/lpc177x_8x_nvic.c ****     NVIC->ICPR[1] = 0x00000001;
  53              		.loc 1 89 0
  54 0024 0D4B     		ldr	r3, .L4
  55 0026 4FF00102 		mov	r2, #1
  56 002a C3F88421 		str	r2, [r3, #388]
  90:../src/lib/lpc177x_8x/Drivers/source/lpc177x_8x_nvic.c **** 
  91:../src/lib/lpc177x_8x/Drivers/source/lpc177x_8x_nvic.c ****     /* Clear all interrupt priority */
  92:../src/lib/lpc177x_8x/Drivers/source/lpc177x_8x_nvic.c ****     for (tmp = 0; tmp < 32; tmp++) {
  57              		.loc 1 92 0
  58 002e 4FF00003 		mov	r3, #0
  59 0032 FB71     		strb	r3, [r7, #7]
  60 0034 0AE0     		b	.L2
  61              	.L3:
  93:../src/lib/lpc177x_8x/Drivers/source/lpc177x_8x_nvic.c ****         NVIC->IP[tmp] = 0x00;
  62              		.loc 1 93 0 discriminator 2
  63 0036 094A     		ldr	r2, .L4
  64 0038 FB79     		ldrb	r3, [r7, #7]	@ zero_extendqisi2
  65 003a D318     		adds	r3, r2, r3
  66 003c 4FF00002 		mov	r2, #0
  67 0040 83F80023 		strb	r2, [r3, #768]
  92:../src/lib/lpc177x_8x/Drivers/source/lpc177x_8x_nvic.c ****     for (tmp = 0; tmp < 32; tmp++) {
  68              		.loc 1 92 0 discriminator 2
  69 0044 FB79     		ldrb	r3, [r7, #7]
  70 0046 03F10103 		add	r3, r3, #1
  71 004a FB71     		strb	r3, [r7, #7]
  72              	.L2:
  92:../src/lib/lpc177x_8x/Drivers/source/lpc177x_8x_nvic.c ****     for (tmp = 0; tmp < 32; tmp++) {
  73              		.loc 1 92 0 is_stmt 0 discriminator 1
  74 004c FB79     		ldrb	r3, [r7, #7]	@ zero_extendqisi2
  75 004e 1F2B     		cmp	r3, #31
  76 0050 F1D9     		bls	.L3
  94:../src/lib/lpc177x_8x/Drivers/source/lpc177x_8x_nvic.c ****     }
  95:../src/lib/lpc177x_8x/Drivers/source/lpc177x_8x_nvic.c **** }
  77              		.loc 1 95 0 is_stmt 1
  78 0052 07F10C07 		add	r7, r7, #12
  79 0056 BD46     		mov	sp, r7
  80 0058 80BC     		pop	{r7}
  81 005a 7047     		bx	lr
  82              	.L5:
  83              		.align	2
  84              	.L4:
  85 005c 00E100E0 		.word	-536813312
  86              		.cfi_endproc
  87              	.LFE55:
  89              		.align	2
  90              		.global	NVIC_SCBDeInit
  91              		.thumb
  92              		.thumb_func
  94              	NVIC_SCBDeInit:
  95              	.LFB56:
  96:../src/lib/lpc177x_8x/Drivers/source/lpc177x_8x_nvic.c **** 
  97:../src/lib/lpc177x_8x/Drivers/source/lpc177x_8x_nvic.c **** /*****************************************************************************//**
  98:../src/lib/lpc177x_8x/Drivers/source/lpc177x_8x_nvic.c ****  * @brief           De-initializes the SCB peripheral registers to their default
  99:../src/lib/lpc177x_8x/Drivers/source/lpc177x_8x_nvic.c ****  *                  reset values.
 100:../src/lib/lpc177x_8x/Drivers/source/lpc177x_8x_nvic.c ****  * @param           none
 101:../src/lib/lpc177x_8x/Drivers/source/lpc177x_8x_nvic.c ****  * @return          none
 102:../src/lib/lpc177x_8x/Drivers/source/lpc177x_8x_nvic.c ****  *
 103:../src/lib/lpc177x_8x/Drivers/source/lpc177x_8x_nvic.c ****  * These following SCB NVIC peripheral registers will be de-initialized:
 104:../src/lib/lpc177x_8x/Drivers/source/lpc177x_8x_nvic.c ****  * - Interrupt Control State register
 105:../src/lib/lpc177x_8x/Drivers/source/lpc177x_8x_nvic.c ****  * - Interrupt Vector Table Offset register
 106:../src/lib/lpc177x_8x/Drivers/source/lpc177x_8x_nvic.c ****  * - Application Interrupt/Reset Control register
 107:../src/lib/lpc177x_8x/Drivers/source/lpc177x_8x_nvic.c ****  * - System Control register
 108:../src/lib/lpc177x_8x/Drivers/source/lpc177x_8x_nvic.c ****  * - Configuration Control register
 109:../src/lib/lpc177x_8x/Drivers/source/lpc177x_8x_nvic.c ****  * - System Handlers Priority Registers
 110:../src/lib/lpc177x_8x/Drivers/source/lpc177x_8x_nvic.c ****  * - System Handler Control and State Register
 111:../src/lib/lpc177x_8x/Drivers/source/lpc177x_8x_nvic.c ****  * - Configurable Fault Status Register
 112:../src/lib/lpc177x_8x/Drivers/source/lpc177x_8x_nvic.c ****  * - Hard Fault Status Register
 113:../src/lib/lpc177x_8x/Drivers/source/lpc177x_8x_nvic.c ****  * - Debug Fault Status Register
 114:../src/lib/lpc177x_8x/Drivers/source/lpc177x_8x_nvic.c ****  *******************************************************************************/
 115:../src/lib/lpc177x_8x/Drivers/source/lpc177x_8x_nvic.c **** void NVIC_SCBDeInit(void)
 116:../src/lib/lpc177x_8x/Drivers/source/lpc177x_8x_nvic.c **** {
  96              		.loc 1 116 0
  97              		.cfi_startproc
  98              		@ args = 0, pretend = 0, frame = 8
  99              		@ frame_needed = 1, uses_anonymous_args = 0
 100              		@ link register save eliminated.
 101 0060 80B4     		push	{r7}
 102              	.LCFI3:
 103              		.cfi_def_cfa_offset 4
 104              		.cfi_offset 7, -4
 105 0062 83B0     		sub	sp, sp, #12
 106              	.LCFI4:
 107              		.cfi_def_cfa_offset 16
 108 0064 00AF     		add	r7, sp, #0
 109              	.LCFI5:
 110              		.cfi_def_cfa_register 7
 117:../src/lib/lpc177x_8x/Drivers/source/lpc177x_8x_nvic.c ****     uint8_t tmp;
 118:../src/lib/lpc177x_8x/Drivers/source/lpc177x_8x_nvic.c **** 
 119:../src/lib/lpc177x_8x/Drivers/source/lpc177x_8x_nvic.c ****     SCB->ICSR = 0x0A000000;
 111              		.loc 1 119 0
 112 0066 1C4B     		ldr	r3, .L9
 113 0068 4FF02062 		mov	r2, #167772160
 114 006c 5A60     		str	r2, [r3, #4]
 120:../src/lib/lpc177x_8x/Drivers/source/lpc177x_8x_nvic.c ****     SCB->VTOR = 0x00000000;
 115              		.loc 1 120 0
 116 006e 1A4B     		ldr	r3, .L9
 117 0070 4FF00002 		mov	r2, #0
 118 0074 9A60     		str	r2, [r3, #8]
 121:../src/lib/lpc177x_8x/Drivers/source/lpc177x_8x_nvic.c ****     SCB->AIRCR = 0x05FA0000;
 119              		.loc 1 121 0
 120 0076 184B     		ldr	r3, .L9
 121 0078 184A     		ldr	r2, .L9+4
 122 007a DA60     		str	r2, [r3, #12]
 122:../src/lib/lpc177x_8x/Drivers/source/lpc177x_8x_nvic.c ****     SCB->SCR = 0x00000000;
 123              		.loc 1 122 0
 124 007c 164B     		ldr	r3, .L9
 125 007e 4FF00002 		mov	r2, #0
 126 0082 1A61     		str	r2, [r3, #16]
 123:../src/lib/lpc177x_8x/Drivers/source/lpc177x_8x_nvic.c ****     SCB->CCR = 0x00000000;
 127              		.loc 1 123 0
 128 0084 144B     		ldr	r3, .L9
 129 0086 4FF00002 		mov	r2, #0
 130 008a 5A61     		str	r2, [r3, #20]
 124:../src/lib/lpc177x_8x/Drivers/source/lpc177x_8x_nvic.c **** 
 125:../src/lib/lpc177x_8x/Drivers/source/lpc177x_8x_nvic.c ****     for (tmp = 0; tmp < 32; tmp++) {
 131              		.loc 1 125 0
 132 008c 4FF00003 		mov	r3, #0
 133 0090 FB71     		strb	r3, [r7, #7]
 134 0092 09E0     		b	.L7
 135              	.L8:
 126:../src/lib/lpc177x_8x/Drivers/source/lpc177x_8x_nvic.c ****         SCB->SHP[tmp] = 0x00;
 136              		.loc 1 126 0 discriminator 2
 137 0094 104A     		ldr	r2, .L9
 138 0096 FB79     		ldrb	r3, [r7, #7]	@ zero_extendqisi2
 139 0098 D318     		adds	r3, r2, r3
 140 009a 4FF00002 		mov	r2, #0
 141 009e 1A76     		strb	r2, [r3, #24]
 125:../src/lib/lpc177x_8x/Drivers/source/lpc177x_8x_nvic.c ****     for (tmp = 0; tmp < 32; tmp++) {
 142              		.loc 1 125 0 discriminator 2
 143 00a0 FB79     		ldrb	r3, [r7, #7]
 144 00a2 03F10103 		add	r3, r3, #1
 145 00a6 FB71     		strb	r3, [r7, #7]
 146              	.L7:
 125:../src/lib/lpc177x_8x/Drivers/source/lpc177x_8x_nvic.c ****     for (tmp = 0; tmp < 32; tmp++) {
 147              		.loc 1 125 0 is_stmt 0 discriminator 1
 148 00a8 FB79     		ldrb	r3, [r7, #7]	@ zero_extendqisi2
 149 00aa 1F2B     		cmp	r3, #31
 150 00ac F2D9     		bls	.L8
 127:../src/lib/lpc177x_8x/Drivers/source/lpc177x_8x_nvic.c ****     }
 128:../src/lib/lpc177x_8x/Drivers/source/lpc177x_8x_nvic.c **** 
 129:../src/lib/lpc177x_8x/Drivers/source/lpc177x_8x_nvic.c ****     SCB->SHCSR = 0x00000000;
 151              		.loc 1 129 0 is_stmt 1
 152 00ae 0A4B     		ldr	r3, .L9
 153 00b0 4FF00002 		mov	r2, #0
 154 00b4 5A62     		str	r2, [r3, #36]
 130:../src/lib/lpc177x_8x/Drivers/source/lpc177x_8x_nvic.c ****     SCB->CFSR = 0xFFFFFFFF;
 155              		.loc 1 130 0
 156 00b6 084B     		ldr	r3, .L9
 157 00b8 4FF0FF32 		mov	r2, #-1
 158 00bc 9A62     		str	r2, [r3, #40]
 131:../src/lib/lpc177x_8x/Drivers/source/lpc177x_8x_nvic.c ****     SCB->HFSR = 0xFFFFFFFF;
 159              		.loc 1 131 0
 160 00be 064B     		ldr	r3, .L9
 161 00c0 4FF0FF32 		mov	r2, #-1
 162 00c4 DA62     		str	r2, [r3, #44]
 132:../src/lib/lpc177x_8x/Drivers/source/lpc177x_8x_nvic.c ****     SCB->DFSR = 0xFFFFFFFF;
 163              		.loc 1 132 0
 164 00c6 044B     		ldr	r3, .L9
 165 00c8 4FF0FF32 		mov	r2, #-1
 166 00cc 1A63     		str	r2, [r3, #48]
 133:../src/lib/lpc177x_8x/Drivers/source/lpc177x_8x_nvic.c **** }
 167              		.loc 1 133 0
 168 00ce 07F10C07 		add	r7, r7, #12
 169 00d2 BD46     		mov	sp, r7
 170 00d4 80BC     		pop	{r7}
 171 00d6 7047     		bx	lr
 172              	.L10:
 173              		.align	2
 174              	.L9:
 175 00d8 00ED00E0 		.word	-536810240
 176 00dc 0000FA05 		.word	100270080
 177              		.cfi_endproc
 178              	.LFE56:
 180              		.align	2
 181              		.global	NVIC_SetVTOR
 182              		.thumb
 183              		.thumb_func
 185              	NVIC_SetVTOR:
 186              	.LFB57:
 134:../src/lib/lpc177x_8x/Drivers/source/lpc177x_8x_nvic.c **** 
 135:../src/lib/lpc177x_8x/Drivers/source/lpc177x_8x_nvic.c **** 
 136:../src/lib/lpc177x_8x/Drivers/source/lpc177x_8x_nvic.c **** /*****************************************************************************//**
 137:../src/lib/lpc177x_8x/Drivers/source/lpc177x_8x_nvic.c ****  * @brief       Set Vector Table Offset value
 138:../src/lib/lpc177x_8x/Drivers/source/lpc177x_8x_nvic.c ****  * @param       offset Offset value
 139:../src/lib/lpc177x_8x/Drivers/source/lpc177x_8x_nvic.c ****  * @return      None
 140:../src/lib/lpc177x_8x/Drivers/source/lpc177x_8x_nvic.c ****  *******************************************************************************/
 141:../src/lib/lpc177x_8x/Drivers/source/lpc177x_8x_nvic.c **** void NVIC_SetVTOR(uint32_t offset)
 142:../src/lib/lpc177x_8x/Drivers/source/lpc177x_8x_nvic.c **** {
 187              		.loc 1 142 0
 188              		.cfi_startproc
 189              		@ args = 0, pretend = 0, frame = 8
 190              		@ frame_needed = 1, uses_anonymous_args = 0
 191              		@ link register save eliminated.
 192 00e0 80B4     		push	{r7}
 193              	.LCFI6:
 194              		.cfi_def_cfa_offset 4
 195              		.cfi_offset 7, -4
 196 00e2 83B0     		sub	sp, sp, #12
 197              	.LCFI7:
 198              		.cfi_def_cfa_offset 16
 199 00e4 00AF     		add	r7, sp, #0
 200              	.LCFI8:
 201              		.cfi_def_cfa_register 7
 202 00e6 7860     		str	r0, [r7, #4]
 143:../src/lib/lpc177x_8x/Drivers/source/lpc177x_8x_nvic.c **** //  SCB->VTOR  = (offset & NVIC_VTOR_MASK);
 144:../src/lib/lpc177x_8x/Drivers/source/lpc177x_8x_nvic.c ****     SCB->VTOR  = offset;
 203              		.loc 1 144 0
 204 00e8 034B     		ldr	r3, .L12
 205 00ea 7A68     		ldr	r2, [r7, #4]
 206 00ec 9A60     		str	r2, [r3, #8]
 145:../src/lib/lpc177x_8x/Drivers/source/lpc177x_8x_nvic.c **** }
 207              		.loc 1 145 0
 208 00ee 07F10C07 		add	r7, r7, #12
 209 00f2 BD46     		mov	sp, r7
 210 00f4 80BC     		pop	{r7}
 211 00f6 7047     		bx	lr
 212              	.L13:
 213              		.align	2
 214              	.L12:
 215 00f8 00ED00E0 		.word	-536810240
 216              		.cfi_endproc
 217              	.LFE57:
 219              	.Letext0:
 220              		.file 2 "g:\\program files\\codesourcery\\sourcery_codebench_lite_for_arm_eabi\\bin\\../lib/gcc/ar
 221              		.file 3 "D:\\workspace_gnu\\RTT_Demo0\\src\\lib\\lpc177x_8x\\Core\\CMSIS\\Include/core_cm3.h"