   1              		.syntax unified
   2              		.cpu cortex-m4
   3              		.fpu softvfp
   4              		.eabi_attribute 20, 1
   5              		.eabi_attribute 21, 1
   6              		.eabi_attribute 23, 3
   7              		.eabi_attribute 24, 1
   8              		.eabi_attribute 25, 1
   9              		.eabi_attribute 26, 1
  10              		.eabi_attribute 30, 6
  11              		.eabi_attribute 34, 1
  12              		.eabi_attribute 18, 4
  13              		.thumb
  14              		.file	"lpc177x_8x_crc.c"
  15              		.text
  16              	.Ltext0:
  17              		.cfi_sections	.debug_frame
  18              		.comm	crc_cur_type,1,1
  19              		.align	2
  20              		.global	CRC_Init
  21              		.thumb
  22              		.thumb_func
  24              	CRC_Init:
  25              	.LFB55:
  26              		.file 1 "../src/lib/lpc177x_8x/Drivers/source/lpc177x_8x_crc.c"
   1:../src/lib/lpc177x_8x/Drivers/source/lpc177x_8x_crc.c **** /**********************************************************************
   2:../src/lib/lpc177x_8x/Drivers/source/lpc177x_8x_crc.c **** * $Id$      lpc177x_8x_crc.c            2011-06-02
   3:../src/lib/lpc177x_8x/Drivers/source/lpc177x_8x_crc.c **** *//**
   4:../src/lib/lpc177x_8x/Drivers/source/lpc177x_8x_crc.c **** * @file     lpc177x_8x_crc.c
   5:../src/lib/lpc177x_8x/Drivers/source/lpc177x_8x_crc.c **** * @brief    Contains all functions support for CRC firmware library on
   6:../src/lib/lpc177x_8x/Drivers/source/lpc177x_8x_crc.c **** *           LPC177x_8x
   7:../src/lib/lpc177x_8x/Drivers/source/lpc177x_8x_crc.c **** * @version  1.0
   8:../src/lib/lpc177x_8x/Drivers/source/lpc177x_8x_crc.c **** * @date     02. June. 2011
   9:../src/lib/lpc177x_8x/Drivers/source/lpc177x_8x_crc.c **** * @author   NXP MCU SW Application Team
  10:../src/lib/lpc177x_8x/Drivers/source/lpc177x_8x_crc.c **** * 
  11:../src/lib/lpc177x_8x/Drivers/source/lpc177x_8x_crc.c **** * Copyright(C) 2011, NXP Semiconductor
  12:../src/lib/lpc177x_8x/Drivers/source/lpc177x_8x_crc.c **** * All rights reserved.
  13:../src/lib/lpc177x_8x/Drivers/source/lpc177x_8x_crc.c **** *
  14:../src/lib/lpc177x_8x/Drivers/source/lpc177x_8x_crc.c **** ***********************************************************************
  15:../src/lib/lpc177x_8x/Drivers/source/lpc177x_8x_crc.c **** * Software that is described herein is for illustrative purposes only
  16:../src/lib/lpc177x_8x/Drivers/source/lpc177x_8x_crc.c **** * which provides customers with programming information regarding the
  17:../src/lib/lpc177x_8x/Drivers/source/lpc177x_8x_crc.c **** * products. This software is supplied "AS IS" without any warranties.
  18:../src/lib/lpc177x_8x/Drivers/source/lpc177x_8x_crc.c **** * NXP Semiconductors assumes no responsibility or liability for the
  19:../src/lib/lpc177x_8x/Drivers/source/lpc177x_8x_crc.c **** * use of the software, conveys no license or title under any patent,
  20:../src/lib/lpc177x_8x/Drivers/source/lpc177x_8x_crc.c **** * copyright, or mask work right to the product. NXP Semiconductors
  21:../src/lib/lpc177x_8x/Drivers/source/lpc177x_8x_crc.c **** * reserves the right to make changes in the software without
  22:../src/lib/lpc177x_8x/Drivers/source/lpc177x_8x_crc.c **** * notification. NXP Semiconductors also make no representation or
  23:../src/lib/lpc177x_8x/Drivers/source/lpc177x_8x_crc.c **** * warranty that such application will be suitable for the specified
  24:../src/lib/lpc177x_8x/Drivers/source/lpc177x_8x_crc.c **** * use without further testing or modification.
  25:../src/lib/lpc177x_8x/Drivers/source/lpc177x_8x_crc.c **** * Permission to use, copy, modify, and distribute this software and its
  26:../src/lib/lpc177x_8x/Drivers/source/lpc177x_8x_crc.c **** * documentation is hereby granted, under NXP Semiconductors'
  27:../src/lib/lpc177x_8x/Drivers/source/lpc177x_8x_crc.c **** * relevant copyright in the software, without fee, provided that it
  28:../src/lib/lpc177x_8x/Drivers/source/lpc177x_8x_crc.c **** * is used in conjunction with NXP Semiconductors microcontrollers.  This
  29:../src/lib/lpc177x_8x/Drivers/source/lpc177x_8x_crc.c **** * copyright, permission, and disclaimer notice must appear in all copies of
  30:../src/lib/lpc177x_8x/Drivers/source/lpc177x_8x_crc.c **** * this code.
  31:../src/lib/lpc177x_8x/Drivers/source/lpc177x_8x_crc.c **** **********************************************************************/
  32:../src/lib/lpc177x_8x/Drivers/source/lpc177x_8x_crc.c **** #ifdef __BUILD_WITH_EXAMPLE__
  33:../src/lib/lpc177x_8x/Drivers/source/lpc177x_8x_crc.c **** #include "lpc177x_8x_libcfg.h"
  34:../src/lib/lpc177x_8x/Drivers/source/lpc177x_8x_crc.c **** #else
  35:../src/lib/lpc177x_8x/Drivers/source/lpc177x_8x_crc.c **** #include "lpc177x_8x_libcfg_default.h"
  36:../src/lib/lpc177x_8x/Drivers/source/lpc177x_8x_crc.c **** #endif /* __BUILD_WITH_EXAMPLE__ */
  37:../src/lib/lpc177x_8x/Drivers/source/lpc177x_8x_crc.c **** #ifdef _CRC
  38:../src/lib/lpc177x_8x/Drivers/source/lpc177x_8x_crc.c **** 
  39:../src/lib/lpc177x_8x/Drivers/source/lpc177x_8x_crc.c **** /* Includes ------------------------------------------------------------------- */
  40:../src/lib/lpc177x_8x/Drivers/source/lpc177x_8x_crc.c **** #include "lpc177x_8x_crc.h"
  41:../src/lib/lpc177x_8x/Drivers/source/lpc177x_8x_crc.c **** #include "lpc177x_8x_clkpwr.h"
  42:../src/lib/lpc177x_8x/Drivers/source/lpc177x_8x_crc.c **** 
  43:../src/lib/lpc177x_8x/Drivers/source/lpc177x_8x_crc.c **** /* Private Variables ----------------------------------------------------------- */
  44:../src/lib/lpc177x_8x/Drivers/source/lpc177x_8x_crc.c **** volatile CRC_Type crc_cur_type;
  45:../src/lib/lpc177x_8x/Drivers/source/lpc177x_8x_crc.c **** 
  46:../src/lib/lpc177x_8x/Drivers/source/lpc177x_8x_crc.c **** /* Public Functions ----------------------------------------------------------- */
  47:../src/lib/lpc177x_8x/Drivers/source/lpc177x_8x_crc.c **** /** @addtogroup CRC_Public_Functions
  48:../src/lib/lpc177x_8x/Drivers/source/lpc177x_8x_crc.c ****  * @{
  49:../src/lib/lpc177x_8x/Drivers/source/lpc177x_8x_crc.c ****  */
  50:../src/lib/lpc177x_8x/Drivers/source/lpc177x_8x_crc.c **** /*********************************************************************//**
  51:../src/lib/lpc177x_8x/Drivers/source/lpc177x_8x_crc.c ****  * @brief       Initialize CRC operation
  52:../src/lib/lpc177x_8x/Drivers/source/lpc177x_8x_crc.c ****  * @param[in]   CRCType CRC standard type, should be:
  53:../src/lib/lpc177x_8x/Drivers/source/lpc177x_8x_crc.c ****  *              - CRC_POLY_CRCCCITT: CRC-CCITT polynomial
  54:../src/lib/lpc177x_8x/Drivers/source/lpc177x_8x_crc.c ****  *              - CRC_POLY_CRC16: CRC-16 polynomial
  55:../src/lib/lpc177x_8x/Drivers/source/lpc177x_8x_crc.c ****  *              - CRC_POLY_CRC32: CRC-32 polynomial
  56:../src/lib/lpc177x_8x/Drivers/source/lpc177x_8x_crc.c ****  * @return      None
  57:../src/lib/lpc177x_8x/Drivers/source/lpc177x_8x_crc.c ****  **********************************************************************/
  58:../src/lib/lpc177x_8x/Drivers/source/lpc177x_8x_crc.c **** void CRC_Init(CRC_Type CRCType)
  59:../src/lib/lpc177x_8x/Drivers/source/lpc177x_8x_crc.c **** {
  27              		.loc 1 59 0
  28              		.cfi_startproc
  29              		@ args = 0, pretend = 0, frame = 8
  30              		@ frame_needed = 1, uses_anonymous_args = 0
  31              		@ link register save eliminated.
  32 0000 80B4     		push	{r7}
  33              	.LCFI0:
  34              		.cfi_def_cfa_offset 4
  35              		.cfi_offset 7, -4
  36 0002 83B0     		sub	sp, sp, #12
  37              	.LCFI1:
  38              		.cfi_def_cfa_offset 16
  39 0004 00AF     		add	r7, sp, #0
  40              	.LCFI2:
  41              		.cfi_def_cfa_register 7
  42 0006 0346     		mov	r3, r0
  43 0008 FB71     		strb	r3, [r7, #7]
  60:../src/lib/lpc177x_8x/Drivers/source/lpc177x_8x_crc.c ****     if(CRCType == CRC_POLY_CRCCCITT)
  44              		.loc 1 60 0
  45 000a FB79     		ldrb	r3, [r7, #7]	@ zero_extendqisi2
  46 000c 002B     		cmp	r3, #0
  47 000e 0CD1     		bne	.L2
  61:../src/lib/lpc177x_8x/Drivers/source/lpc177x_8x_crc.c ****     {
  62:../src/lib/lpc177x_8x/Drivers/source/lpc177x_8x_crc.c ****         LPC_CRC->MODE = 0x00;
  48              		.loc 1 62 0
  49 0010 194B     		ldr	r3, .L6
  50 0012 4FF00002 		mov	r2, #0
  51 0016 1A60     		str	r2, [r3, #0]
  63:../src/lib/lpc177x_8x/Drivers/source/lpc177x_8x_crc.c ****         LPC_CRC->SEED = 0xFFFF;
  52              		.loc 1 63 0
  53 0018 174B     		ldr	r3, .L6
  54 001a 4FF6FF72 		movw	r2, #65535
  55 001e 5A60     		str	r2, [r3, #4]
  64:../src/lib/lpc177x_8x/Drivers/source/lpc177x_8x_crc.c ****         crc_cur_type = CRC_POLY_CRCCCITT;
  56              		.loc 1 64 0
  57 0020 164B     		ldr	r3, .L6+4
  58 0022 4FF00002 		mov	r2, #0
  59 0026 1A70     		strb	r2, [r3, #0]
  60 0028 20E0     		b	.L1
  61              	.L2:
  65:../src/lib/lpc177x_8x/Drivers/source/lpc177x_8x_crc.c ****     }
  66:../src/lib/lpc177x_8x/Drivers/source/lpc177x_8x_crc.c ****     else if(CRCType == CRC_POLY_CRC16)
  62              		.loc 1 66 0
  63 002a FB79     		ldrb	r3, [r7, #7]	@ zero_extendqisi2
  64 002c 012B     		cmp	r3, #1
  65 002e 0CD1     		bne	.L4
  67:../src/lib/lpc177x_8x/Drivers/source/lpc177x_8x_crc.c ****     {
  68:../src/lib/lpc177x_8x/Drivers/source/lpc177x_8x_crc.c ****         LPC_CRC->MODE = 0x15;
  66              		.loc 1 68 0
  67 0030 114B     		ldr	r3, .L6
  68 0032 4FF01502 		mov	r2, #21
  69 0036 1A60     		str	r2, [r3, #0]
  69:../src/lib/lpc177x_8x/Drivers/source/lpc177x_8x_crc.c ****         LPC_CRC->SEED = 0x0000;
  70              		.loc 1 69 0
  71 0038 0F4B     		ldr	r3, .L6
  72 003a 4FF00002 		mov	r2, #0
  73 003e 5A60     		str	r2, [r3, #4]
  70:../src/lib/lpc177x_8x/Drivers/source/lpc177x_8x_crc.c ****         crc_cur_type = CRC_POLY_CRC16;
  74              		.loc 1 70 0
  75 0040 0E4B     		ldr	r3, .L6+4
  76 0042 4FF00102 		mov	r2, #1
  77 0046 1A70     		strb	r2, [r3, #0]
  78 0048 10E0     		b	.L1
  79              	.L4:
  71:../src/lib/lpc177x_8x/Drivers/source/lpc177x_8x_crc.c **** 
  72:../src/lib/lpc177x_8x/Drivers/source/lpc177x_8x_crc.c ****     }
  73:../src/lib/lpc177x_8x/Drivers/source/lpc177x_8x_crc.c ****     else if(CRCType == CRC_POLY_CRC32)
  80              		.loc 1 73 0
  81 004a FB79     		ldrb	r3, [r7, #7]	@ zero_extendqisi2
  82 004c 022B     		cmp	r3, #2
  83 004e 0CD1     		bne	.L5
  74:../src/lib/lpc177x_8x/Drivers/source/lpc177x_8x_crc.c ****     {
  75:../src/lib/lpc177x_8x/Drivers/source/lpc177x_8x_crc.c ****         LPC_CRC->MODE = 0x36;
  84              		.loc 1 75 0
  85 0050 094B     		ldr	r3, .L6
  86 0052 4FF03602 		mov	r2, #54
  87 0056 1A60     		str	r2, [r3, #0]
  76:../src/lib/lpc177x_8x/Drivers/source/lpc177x_8x_crc.c ****         LPC_CRC->SEED = 0xFFFFFFFF;
  88              		.loc 1 76 0
  89 0058 074B     		ldr	r3, .L6
  90 005a 4FF0FF32 		mov	r2, #-1
  91 005e 5A60     		str	r2, [r3, #4]
  77:../src/lib/lpc177x_8x/Drivers/source/lpc177x_8x_crc.c ****         crc_cur_type = CRC_POLY_CRC32;
  92              		.loc 1 77 0
  93 0060 064B     		ldr	r3, .L6+4
  94 0062 4FF00202 		mov	r2, #2
  95 0066 1A70     		strb	r2, [r3, #0]
  96 0068 00E0     		b	.L1
  97              	.L5:
  78:../src/lib/lpc177x_8x/Drivers/source/lpc177x_8x_crc.c ****     }
  79:../src/lib/lpc177x_8x/Drivers/source/lpc177x_8x_crc.c ****     else
  80:../src/lib/lpc177x_8x/Drivers/source/lpc177x_8x_crc.c ****     {
  81:../src/lib/lpc177x_8x/Drivers/source/lpc177x_8x_crc.c ****         //Invalid input parameter
  82:../src/lib/lpc177x_8x/Drivers/source/lpc177x_8x_crc.c ****         while(1);//error loop
  98              		.loc 1 82 0 discriminator 1
  99 006a FEE7     		b	.L5
 100              	.L1:
  83:../src/lib/lpc177x_8x/Drivers/source/lpc177x_8x_crc.c ****     }
  84:../src/lib/lpc177x_8x/Drivers/source/lpc177x_8x_crc.c **** }
 101              		.loc 1 84 0
 102 006c 07F10C07 		add	r7, r7, #12
 103 0070 BD46     		mov	sp, r7
 104 0072 80BC     		pop	{r7}
 105 0074 7047     		bx	lr
 106              	.L7:
 107 0076 00BF     		.align	2
 108              	.L6:
 109 0078 00000920 		.word	537460736
 110 007c 00000000 		.word	crc_cur_type
 111              		.cfi_endproc
 112              	.LFE55:
 114              		.align	2
 115              		.global	CRC_Reset
 116              		.thumb
 117              		.thumb_func
 119              	CRC_Reset:
 120              	.LFB56:
  85:../src/lib/lpc177x_8x/Drivers/source/lpc177x_8x_crc.c **** /*********************************************************************//**
  86:../src/lib/lpc177x_8x/Drivers/source/lpc177x_8x_crc.c ****  * @brief       CRC reset
  87:../src/lib/lpc177x_8x/Drivers/source/lpc177x_8x_crc.c ****  * @param[in]   None
  88:../src/lib/lpc177x_8x/Drivers/source/lpc177x_8x_crc.c ****  * @return      None
  89:../src/lib/lpc177x_8x/Drivers/source/lpc177x_8x_crc.c ****  **********************************************************************/
  90:../src/lib/lpc177x_8x/Drivers/source/lpc177x_8x_crc.c **** void CRC_Reset(void)
  91:../src/lib/lpc177x_8x/Drivers/source/lpc177x_8x_crc.c **** {
 121              		.loc 1 91 0
 122              		.cfi_startproc
 123              		@ args = 0, pretend = 0, frame = 0
 124              		@ frame_needed = 1, uses_anonymous_args = 0
 125              		@ link register save eliminated.
 126 0080 80B4     		push	{r7}
 127              	.LCFI3:
 128              		.cfi_def_cfa_offset 4
 129              		.cfi_offset 7, -4
 130 0082 00AF     		add	r7, sp, #0
 131              	.LCFI4:
 132              		.cfi_def_cfa_register 7
  92:../src/lib/lpc177x_8x/Drivers/source/lpc177x_8x_crc.c ****     if(crc_cur_type == CRC_POLY_CRCCCITT)
 133              		.loc 1 92 0
 134 0084 0F4B     		ldr	r3, .L12
 135 0086 1B78     		ldrb	r3, [r3, #0]
 136 0088 DBB2     		uxtb	r3, r3
 137 008a 002B     		cmp	r3, #0
 138 008c 04D1     		bne	.L9
  93:../src/lib/lpc177x_8x/Drivers/source/lpc177x_8x_crc.c ****         LPC_CRC->SEED = 0xFFFF;
 139              		.loc 1 93 0
 140 008e 0E4B     		ldr	r3, .L12+4
 141 0090 4FF6FF72 		movw	r2, #65535
 142 0094 5A60     		str	r2, [r3, #4]
 143 0096 12E0     		b	.L8
 144              	.L9:
  94:../src/lib/lpc177x_8x/Drivers/source/lpc177x_8x_crc.c ****     else if (crc_cur_type == CRC_POLY_CRC16)
 145              		.loc 1 94 0
 146 0098 0A4B     		ldr	r3, .L12
 147 009a 1B78     		ldrb	r3, [r3, #0]
 148 009c DBB2     		uxtb	r3, r3
 149 009e 012B     		cmp	r3, #1
 150 00a0 04D1     		bne	.L11
  95:../src/lib/lpc177x_8x/Drivers/source/lpc177x_8x_crc.c ****         LPC_CRC->SEED = 0x0000;
 151              		.loc 1 95 0
 152 00a2 094B     		ldr	r3, .L12+4
 153 00a4 4FF00002 		mov	r2, #0
 154 00a8 5A60     		str	r2, [r3, #4]
 155 00aa 08E0     		b	.L8
 156              	.L11:
  96:../src/lib/lpc177x_8x/Drivers/source/lpc177x_8x_crc.c ****     else if (crc_cur_type == CRC_POLY_CRC32)
 157              		.loc 1 96 0
 158 00ac 054B     		ldr	r3, .L12
 159 00ae 1B78     		ldrb	r3, [r3, #0]
 160 00b0 DBB2     		uxtb	r3, r3
 161 00b2 022B     		cmp	r3, #2
 162 00b4 03D1     		bne	.L8
  97:../src/lib/lpc177x_8x/Drivers/source/lpc177x_8x_crc.c ****         LPC_CRC->SEED = 0xFFFFFFFF;
 163              		.loc 1 97 0
 164 00b6 044B     		ldr	r3, .L12+4
 165 00b8 4FF0FF32 		mov	r2, #-1
 166 00bc 5A60     		str	r2, [r3, #4]
 167              	.L8:
  98:../src/lib/lpc177x_8x/Drivers/source/lpc177x_8x_crc.c **** }
 168              		.loc 1 98 0
 169 00be BD46     		mov	sp, r7
 170 00c0 80BC     		pop	{r7}
 171 00c2 7047     		bx	lr
 172              	.L13:
 173              		.align	2
 174              	.L12:
 175 00c4 00000000 		.word	crc_cur_type
 176 00c8 00000920 		.word	537460736
 177              		.cfi_endproc
 178              	.LFE56:
 180              		.align	2
 181              		.global	CRC_CalcDataChecksum
 182              		.thumb
 183              		.thumb_func
 185              	CRC_CalcDataChecksum:
 186              	.LFB57:
  99:../src/lib/lpc177x_8x/Drivers/source/lpc177x_8x_crc.c **** 
 100:../src/lib/lpc177x_8x/Drivers/source/lpc177x_8x_crc.c **** /*********************************************************************//**
 101:../src/lib/lpc177x_8x/Drivers/source/lpc177x_8x_crc.c ****  * @brief       CRC data checksum calculation
 102:../src/lib/lpc177x_8x/Drivers/source/lpc177x_8x_crc.c ****  * @param[in]   data    input data
 103:../src/lib/lpc177x_8x/Drivers/source/lpc177x_8x_crc.c ****  * @return      data checksum result
 104:../src/lib/lpc177x_8x/Drivers/source/lpc177x_8x_crc.c ****  **********************************************************************/
 105:../src/lib/lpc177x_8x/Drivers/source/lpc177x_8x_crc.c **** uint32_t CRC_CalcDataChecksum(uint32_t data, CRC_WR_SIZE SizeType)
 106:../src/lib/lpc177x_8x/Drivers/source/lpc177x_8x_crc.c **** {
 187              		.loc 1 106 0
 188              		.cfi_startproc
 189              		@ args = 0, pretend = 0, frame = 8
 190              		@ frame_needed = 1, uses_anonymous_args = 0
 191              		@ link register save eliminated.
 192 00cc 80B4     		push	{r7}
 193              	.LCFI5:
 194              		.cfi_def_cfa_offset 4
 195              		.cfi_offset 7, -4
 196 00ce 83B0     		sub	sp, sp, #12
 197              	.LCFI6:
 198              		.cfi_def_cfa_offset 16
 199 00d0 00AF     		add	r7, sp, #0
 200              	.LCFI7:
 201              		.cfi_def_cfa_register 7
 202 00d2 7860     		str	r0, [r7, #4]
 203 00d4 0B46     		mov	r3, r1
 204 00d6 FB70     		strb	r3, [r7, #3]
 107:../src/lib/lpc177x_8x/Drivers/source/lpc177x_8x_crc.c ****     if(SizeType == CRC_WR_8BIT)
 205              		.loc 1 107 0
 206 00d8 FB78     		ldrb	r3, [r7, #3]	@ zero_extendqisi2
 207 00da 012B     		cmp	r3, #1
 208 00dc 04D1     		bne	.L15
 108:../src/lib/lpc177x_8x/Drivers/source/lpc177x_8x_crc.c ****         LPC_CRC->WR_DATA_BYTE.DATA = (uint8_t)data;
 209              		.loc 1 108 0
 210 00de 0C4B     		ldr	r3, .L19
 211 00e0 7A68     		ldr	r2, [r7, #4]
 212 00e2 D2B2     		uxtb	r2, r2
 213 00e4 1A72     		strb	r2, [r3, #8]
 214 00e6 0AE0     		b	.L16
 215              	.L15:
 109:../src/lib/lpc177x_8x/Drivers/source/lpc177x_8x_crc.c ****     else if(SizeType == CRC_WR_16BIT)
 216              		.loc 1 109 0
 217 00e8 FB78     		ldrb	r3, [r7, #3]	@ zero_extendqisi2
 218 00ea 022B     		cmp	r3, #2
 219 00ec 04D1     		bne	.L17
 110:../src/lib/lpc177x_8x/Drivers/source/lpc177x_8x_crc.c ****         LPC_CRC->WR_DATA_WORD.DATA = (uint16_t)data;
 220              		.loc 1 110 0
 221 00ee 084B     		ldr	r3, .L19
 222 00f0 7A68     		ldr	r2, [r7, #4]
 223 00f2 92B2     		uxth	r2, r2
 224 00f4 1A81     		strh	r2, [r3, #8]	@ movhi
 225 00f6 02E0     		b	.L16
 226              	.L17:
 111:../src/lib/lpc177x_8x/Drivers/source/lpc177x_8x_crc.c ****     else
 112:../src/lib/lpc177x_8x/Drivers/source/lpc177x_8x_crc.c ****         LPC_CRC->WR_DATA_DWORD.DATA = data;
 227              		.loc 1 112 0
 228 00f8 054B     		ldr	r3, .L19
 229 00fa 7A68     		ldr	r2, [r7, #4]
 230 00fc 9A60     		str	r2, [r3, #8]
 231              	.L16:
 113:../src/lib/lpc177x_8x/Drivers/source/lpc177x_8x_crc.c ****     return(LPC_CRC->SUM);
 232              		.loc 1 113 0
 233 00fe 044B     		ldr	r3, .L19
 234 0100 9B68     		ldr	r3, [r3, #8]
 114:../src/lib/lpc177x_8x/Drivers/source/lpc177x_8x_crc.c **** }
 235              		.loc 1 114 0
 236 0102 1846     		mov	r0, r3
 237 0104 07F10C07 		add	r7, r7, #12
 238 0108 BD46     		mov	sp, r7
 239 010a 80BC     		pop	{r7}
 240 010c 7047     		bx	lr
 241              	.L20:
 242 010e 00BF     		.align	2
 243              	.L19:
 244 0110 00000920 		.word	537460736
 245              		.cfi_endproc
 246              	.LFE57:
 248              		.align	2
 249              		.global	CRC_CalcBlockChecksum
 250              		.thumb
 251              		.thumb_func
 253              	CRC_CalcBlockChecksum:
 254              	.LFB58:
 115:../src/lib/lpc177x_8x/Drivers/source/lpc177x_8x_crc.c **** 
 116:../src/lib/lpc177x_8x/Drivers/source/lpc177x_8x_crc.c **** /*********************************************************************//**
 117:../src/lib/lpc177x_8x/Drivers/source/lpc177x_8x_crc.c ****  * @brief       CRC block data checksum calculation
 118:../src/lib/lpc177x_8x/Drivers/source/lpc177x_8x_crc.c ****  * @param[in]   blockdata   pointer to block input data
 119:../src/lib/lpc177x_8x/Drivers/source/lpc177x_8x_crc.c ****  * @param[in]   blocksize   size of block data
 120:../src/lib/lpc177x_8x/Drivers/source/lpc177x_8x_crc.c ****  * @param[in]   SizeType    size of data width per write, should be:
 121:../src/lib/lpc177x_8x/Drivers/source/lpc177x_8x_crc.c ****                 - CRC_WR_8BIT : 8-bit write
 122:../src/lib/lpc177x_8x/Drivers/source/lpc177x_8x_crc.c ****                 - CRC_WR_16BIT: 16-bit write
 123:../src/lib/lpc177x_8x/Drivers/source/lpc177x_8x_crc.c ****                 - CRC_WR_32BIT: 32-bit write
 124:../src/lib/lpc177x_8x/Drivers/source/lpc177x_8x_crc.c ****  * @return      block data checksum result
 125:../src/lib/lpc177x_8x/Drivers/source/lpc177x_8x_crc.c ****  **********************************************************************/
 126:../src/lib/lpc177x_8x/Drivers/source/lpc177x_8x_crc.c **** uint32_t CRC_CalcBlockChecksum(void *block_data, uint32_t block_size, CRC_WR_SIZE data_size)
 127:../src/lib/lpc177x_8x/Drivers/source/lpc177x_8x_crc.c **** {
 255              		.loc 1 127 0
 256              		.cfi_startproc
 257              		@ args = 0, pretend = 0, frame = 32
 258              		@ frame_needed = 1, uses_anonymous_args = 0
 259              		@ link register save eliminated.
 260 0114 80B4     		push	{r7}
 261              	.LCFI8:
 262              		.cfi_def_cfa_offset 4
 263              		.cfi_offset 7, -4
 264 0116 89B0     		sub	sp, sp, #36
 265              	.LCFI9:
 266              		.cfi_def_cfa_offset 40
 267 0118 00AF     		add	r7, sp, #0
 268              	.LCFI10:
 269              		.cfi_def_cfa_register 7
 270 011a F860     		str	r0, [r7, #12]
 271 011c B960     		str	r1, [r7, #8]
 272 011e 1346     		mov	r3, r2
 273 0120 FB71     		strb	r3, [r7, #7]
 128:../src/lib/lpc177x_8x/Drivers/source/lpc177x_8x_crc.c ****     uint8_t  *data = (uint8_t*) block_data;
 274              		.loc 1 128 0
 275 0122 FB68     		ldr	r3, [r7, #12]
 276 0124 FB61     		str	r3, [r7, #28]
 129:../src/lib/lpc177x_8x/Drivers/source/lpc177x_8x_crc.c ****     
 130:../src/lib/lpc177x_8x/Drivers/source/lpc177x_8x_crc.c ****     while(block_size !=0) {
 277              		.loc 1 130 0
 278 0126 2AE0     		b	.L22
 279              	.L27:
 131:../src/lib/lpc177x_8x/Drivers/source/lpc177x_8x_crc.c ****         
 132:../src/lib/lpc177x_8x/Drivers/source/lpc177x_8x_crc.c ****       switch(data_size) {
 280              		.loc 1 132 0
 281 0128 FB79     		ldrb	r3, [r7, #7]	@ zero_extendqisi2
 282 012a 012B     		cmp	r3, #1
 283 012c 02D0     		beq	.L24
 284 012e 022B     		cmp	r3, #2
 285 0130 0BD0     		beq	.L25
 286 0132 15E0     		b	.L29
 287              	.L24:
 288              	.LBB2:
 133:../src/lib/lpc177x_8x/Drivers/source/lpc177x_8x_crc.c ****         
 134:../src/lib/lpc177x_8x/Drivers/source/lpc177x_8x_crc.c ****         case CRC_WR_8BIT:
 135:../src/lib/lpc177x_8x/Drivers/source/lpc177x_8x_crc.c ****         {
 136:../src/lib/lpc177x_8x/Drivers/source/lpc177x_8x_crc.c ****            uint8_t *tmp = data;
 289              		.loc 1 136 0
 290 0134 FB69     		ldr	r3, [r7, #28]
 291 0136 BB61     		str	r3, [r7, #24]
 137:../src/lib/lpc177x_8x/Drivers/source/lpc177x_8x_crc.c ****                LPC_CRC->WR_DATA_BYTE.DATA = *tmp;
 292              		.loc 1 137 0
 293 0138 164B     		ldr	r3, .L30
 294 013a BA69     		ldr	r2, [r7, #24]
 295 013c 1278     		ldrb	r2, [r2, #0]	@ zero_extendqisi2
 296 013e 1A72     		strb	r2, [r3, #8]
 138:../src/lib/lpc177x_8x/Drivers/source/lpc177x_8x_crc.c ****                    data++;
 297              		.loc 1 138 0
 298 0140 FB69     		ldr	r3, [r7, #28]
 299 0142 03F10103 		add	r3, r3, #1
 300 0146 FB61     		str	r3, [r7, #28]
 301              	.LBE2:
 139:../src/lib/lpc177x_8x/Drivers/source/lpc177x_8x_crc.c ****         }
 140:../src/lib/lpc177x_8x/Drivers/source/lpc177x_8x_crc.c ****         break;
 302              		.loc 1 140 0
 303 0148 15E0     		b	.L26
 304              	.L25:
 305              	.LBB3:
 141:../src/lib/lpc177x_8x/Drivers/source/lpc177x_8x_crc.c ****         case CRC_WR_16BIT:
 142:../src/lib/lpc177x_8x/Drivers/source/lpc177x_8x_crc.c ****         {
 143:../src/lib/lpc177x_8x/Drivers/source/lpc177x_8x_crc.c ****            uint16_t *tmp = (uint16_t*)data;
 306              		.loc 1 143 0
 307 014a FB69     		ldr	r3, [r7, #28]
 308 014c 7B61     		str	r3, [r7, #20]
 144:../src/lib/lpc177x_8x/Drivers/source/lpc177x_8x_crc.c ****                    LPC_CRC->WR_DATA_WORD.DATA = *tmp;
 309              		.loc 1 144 0
 310 014e 114B     		ldr	r3, .L30
 311 0150 7A69     		ldr	r2, [r7, #20]
 312 0152 1288     		ldrh	r2, [r2, #0]
 313 0154 1A81     		strh	r2, [r3, #8]	@ movhi
 145:../src/lib/lpc177x_8x/Drivers/source/lpc177x_8x_crc.c ****                    data +=2;
 314              		.loc 1 145 0
 315 0156 FB69     		ldr	r3, [r7, #28]
 316 0158 03F10203 		add	r3, r3, #2
 317 015c FB61     		str	r3, [r7, #28]
 318              	.LBE3:
 146:../src/lib/lpc177x_8x/Drivers/source/lpc177x_8x_crc.c ****         }
 147:../src/lib/lpc177x_8x/Drivers/source/lpc177x_8x_crc.c ****          break;
 319              		.loc 1 147 0
 320 015e 0AE0     		b	.L26
 321              	.L29:
 322              	.LBB4:
 148:../src/lib/lpc177x_8x/Drivers/source/lpc177x_8x_crc.c ****         default:
 149:../src/lib/lpc177x_8x/Drivers/source/lpc177x_8x_crc.c ****         {
 150:../src/lib/lpc177x_8x/Drivers/source/lpc177x_8x_crc.c ****            uint32_t *tmp = (uint32_t*)data;
 323              		.loc 1 150 0
 324 0160 FB69     		ldr	r3, [r7, #28]
 325 0162 3B61     		str	r3, [r7, #16]
 151:../src/lib/lpc177x_8x/Drivers/source/lpc177x_8x_crc.c ****                    LPC_CRC->WR_DATA_DWORD.DATA = *tmp;
 326              		.loc 1 151 0
 327 0164 0B4B     		ldr	r3, .L30
 328 0166 3A69     		ldr	r2, [r7, #16]
 329 0168 1268     		ldr	r2, [r2, #0]
 330 016a 9A60     		str	r2, [r3, #8]
 152:../src/lib/lpc177x_8x/Drivers/source/lpc177x_8x_crc.c ****                    data += 4;
 331              		.loc 1 152 0
 332 016c FB69     		ldr	r3, [r7, #28]
 333 016e 03F10403 		add	r3, r3, #4
 334 0172 FB61     		str	r3, [r7, #28]
 335              	.LBE4:
 153:../src/lib/lpc177x_8x/Drivers/source/lpc177x_8x_crc.c ****         }
 154:../src/lib/lpc177x_8x/Drivers/source/lpc177x_8x_crc.c ****         break;
 336              		.loc 1 154 0
 337 0174 00BF     		nop
 338              	.L26:
 155:../src/lib/lpc177x_8x/Drivers/source/lpc177x_8x_crc.c ****       }
 156:../src/lib/lpc177x_8x/Drivers/source/lpc177x_8x_crc.c ****       block_size--;
 339              		.loc 1 156 0
 340 0176 BB68     		ldr	r3, [r7, #8]
 341 0178 03F1FF33 		add	r3, r3, #-1
 342 017c BB60     		str	r3, [r7, #8]
 343              	.L22:
 130:../src/lib/lpc177x_8x/Drivers/source/lpc177x_8x_crc.c ****     while(block_size !=0) {
 344              		.loc 1 130 0 discriminator 1
 345 017e BB68     		ldr	r3, [r7, #8]
 346 0180 002B     		cmp	r3, #0
 347 0182 D1D1     		bne	.L27
 157:../src/lib/lpc177x_8x/Drivers/source/lpc177x_8x_crc.c ****     }
 158:../src/lib/lpc177x_8x/Drivers/source/lpc177x_8x_crc.c ****     return(LPC_CRC->SUM);
 348              		.loc 1 158 0
 349 0184 034B     		ldr	r3, .L30
 350 0186 9B68     		ldr	r3, [r3, #8]
 159:../src/lib/lpc177x_8x/Drivers/source/lpc177x_8x_crc.c **** }
 351              		.loc 1 159 0
 352 0188 1846     		mov	r0, r3
 353 018a 07F12407 		add	r7, r7, #36
 354 018e BD46     		mov	sp, r7
 355 0190 80BC     		pop	{r7}
 356 0192 7047     		bx	lr
 357              	.L31:
 358              		.align	2
 359              	.L30:
 360 0194 00000920 		.word	537460736
 361              		.cfi_endproc
 362              	.LFE58:
 364              	.Letext0:
 365              		.file 2 "g:\\program files\\codesourcery\\sourcery_codebench_lite_for_arm_eabi\\bin\\../lib/gcc/ar
 366              		.file 3 "D:\\workspace_gnu\\RTT_Demo0\\src\\lib\\lpc177x_8x\\Core\\Device\\NXP\\LPC177x_8x\\Includ
 367              		.file 4 "D:\\workspace_gnu\\RTT_Demo0\\src\\lib\\lpc177x_8x\\Drivers\\include/lpc177x_8x_crc.h"
 368              		.file 5 "D:\\workspace_gnu\\RTT_Demo0\\src\\lib\\lpc177x_8x\\Core\\CMSIS\\Include/core_cm3.h"