   1              		.syntax unified
   2              		.cpu cortex-m4
   3              		.fpu softvfp
   4              		.eabi_attribute 20, 1
   5              		.eabi_attribute 21, 1
   6              		.eabi_attribute 23, 3
   7              		.eabi_attribute 24, 1
   8              		.eabi_attribute 25, 1
   9              		.eabi_attribute 26, 1
  10              		.eabi_attribute 30, 6
  11              		.eabi_attribute 34, 1
  12              		.eabi_attribute 18, 4
  13              		.thumb
  14              		.file	"lpc177x_8x_emc.c"
  15              		.text
  16              	.Ltext0:
  17              		.cfi_sections	.debug_frame
  18              		.global	__aeabi_uldivmod
  19              		.align	2
  20              		.global	EMC_SDRAM_REFRESH
  21              		.thumb
  22              		.thumb_func
  24              	EMC_SDRAM_REFRESH:
  25              	.LFB55:
  26              		.file 1 "../src/lib/lpc177x_8x/Drivers/source/lpc177x_8x_emc.c"
   1:../src/lib/lpc177x_8x/Drivers/source/lpc177x_8x_emc.c **** /**********************************************************************
   2:../src/lib/lpc177x_8x/Drivers/source/lpc177x_8x_emc.c **** * $Id$      lpc177x_8x_emc.c            2011-06-02
   3:../src/lib/lpc177x_8x/Drivers/source/lpc177x_8x_emc.c **** *//**
   4:../src/lib/lpc177x_8x/Drivers/source/lpc177x_8x_emc.c **** * @file     lpc177x_8x_emc.c
   5:../src/lib/lpc177x_8x/Drivers/source/lpc177x_8x_emc.c **** * @brief    Contains all functions support for EMC firmware library
   6:../src/lib/lpc177x_8x/Drivers/source/lpc177x_8x_emc.c **** *           on LPC177x_8x
   7:../src/lib/lpc177x_8x/Drivers/source/lpc177x_8x_emc.c **** * @version  1.0
   8:../src/lib/lpc177x_8x/Drivers/source/lpc177x_8x_emc.c **** * @date     02. June. 2011
   9:../src/lib/lpc177x_8x/Drivers/source/lpc177x_8x_emc.c **** * @author   NXP MCU SW Application Team
  10:../src/lib/lpc177x_8x/Drivers/source/lpc177x_8x_emc.c **** * 
  11:../src/lib/lpc177x_8x/Drivers/source/lpc177x_8x_emc.c **** * Copyright(C) 2011, NXP Semiconductor
  12:../src/lib/lpc177x_8x/Drivers/source/lpc177x_8x_emc.c **** * All rights reserved.
  13:../src/lib/lpc177x_8x/Drivers/source/lpc177x_8x_emc.c **** *
  14:../src/lib/lpc177x_8x/Drivers/source/lpc177x_8x_emc.c **** ***********************************************************************
  15:../src/lib/lpc177x_8x/Drivers/source/lpc177x_8x_emc.c **** * Software that is described herein is for illustrative purposes only
  16:../src/lib/lpc177x_8x/Drivers/source/lpc177x_8x_emc.c **** * which provides customers with programming information regarding the
  17:../src/lib/lpc177x_8x/Drivers/source/lpc177x_8x_emc.c **** * products. This software is supplied "AS IS" without any warranties.
  18:../src/lib/lpc177x_8x/Drivers/source/lpc177x_8x_emc.c **** * NXP Semiconductors assumes no responsibility or liability for the
  19:../src/lib/lpc177x_8x/Drivers/source/lpc177x_8x_emc.c **** * use of the software, conveys no license or title under any patent,
  20:../src/lib/lpc177x_8x/Drivers/source/lpc177x_8x_emc.c **** * copyright, or mask work right to the product. NXP Semiconductors
  21:../src/lib/lpc177x_8x/Drivers/source/lpc177x_8x_emc.c **** * reserves the right to make changes in the software without
  22:../src/lib/lpc177x_8x/Drivers/source/lpc177x_8x_emc.c **** * notification. NXP Semiconductors also make no representation or
  23:../src/lib/lpc177x_8x/Drivers/source/lpc177x_8x_emc.c **** * warranty that such application will be suitable for the specified
  24:../src/lib/lpc177x_8x/Drivers/source/lpc177x_8x_emc.c **** * use without further testing or modification.
  25:../src/lib/lpc177x_8x/Drivers/source/lpc177x_8x_emc.c **** * Permission to use, copy, modify, and distribute this software and its
  26:../src/lib/lpc177x_8x/Drivers/source/lpc177x_8x_emc.c **** * documentation is hereby granted, under NXP Semiconductors'
  27:../src/lib/lpc177x_8x/Drivers/source/lpc177x_8x_emc.c **** * relevant copyright in the software, without fee, provided that it
  28:../src/lib/lpc177x_8x/Drivers/source/lpc177x_8x_emc.c **** * is used in conjunction with NXP Semiconductors microcontrollers.  This
  29:../src/lib/lpc177x_8x/Drivers/source/lpc177x_8x_emc.c **** * copyright, permission, and disclaimer notice must appear in all copies of
  30:../src/lib/lpc177x_8x/Drivers/source/lpc177x_8x_emc.c **** * this code.
  31:../src/lib/lpc177x_8x/Drivers/source/lpc177x_8x_emc.c **** **********************************************************************/
  32:../src/lib/lpc177x_8x/Drivers/source/lpc177x_8x_emc.c **** #ifdef __BUILD_WITH_EXAMPLE__
  33:../src/lib/lpc177x_8x/Drivers/source/lpc177x_8x_emc.c **** #include "lpc177x_8x_libcfg.h"
  34:../src/lib/lpc177x_8x/Drivers/source/lpc177x_8x_emc.c **** #else
  35:../src/lib/lpc177x_8x/Drivers/source/lpc177x_8x_emc.c **** #include "lpc177x_8x_libcfg_default.h"
  36:../src/lib/lpc177x_8x/Drivers/source/lpc177x_8x_emc.c **** #endif /* __BUILD_WITH_EXAMPLE__ */
  37:../src/lib/lpc177x_8x/Drivers/source/lpc177x_8x_emc.c **** #ifdef _EMC
  38:../src/lib/lpc177x_8x/Drivers/source/lpc177x_8x_emc.c **** 
  39:../src/lib/lpc177x_8x/Drivers/source/lpc177x_8x_emc.c **** #include "lpc177x_8x_emc.h"
  40:../src/lib/lpc177x_8x/Drivers/source/lpc177x_8x_emc.c **** #include "lpc177x_8x_clkpwr.h"
  41:../src/lib/lpc177x_8x/Drivers/source/lpc177x_8x_emc.c **** #include "lpc177x_8x_pinsel.h"
  42:../src/lib/lpc177x_8x/Drivers/source/lpc177x_8x_emc.c **** 
  43:../src/lib/lpc177x_8x/Drivers/source/lpc177x_8x_emc.c **** /* Peripheral group ----------------------------------------------------------- */
  44:../src/lib/lpc177x_8x/Drivers/source/lpc177x_8x_emc.c **** /** @addtogroup EMC
  45:../src/lib/lpc177x_8x/Drivers/source/lpc177x_8x_emc.c ****  * @{
  46:../src/lib/lpc177x_8x/Drivers/source/lpc177x_8x_emc.c ****  */
  47:../src/lib/lpc177x_8x/Drivers/source/lpc177x_8x_emc.c ****  
  48:../src/lib/lpc177x_8x/Drivers/source/lpc177x_8x_emc.c **** /** @defgroup EMC_Public_Functions
  49:../src/lib/lpc177x_8x/Drivers/source/lpc177x_8x_emc.c ****  * @{
  50:../src/lib/lpc177x_8x/Drivers/source/lpc177x_8x_emc.c ****  */
  51:../src/lib/lpc177x_8x/Drivers/source/lpc177x_8x_emc.c **** 
  52:../src/lib/lpc177x_8x/Drivers/source/lpc177x_8x_emc.c **** /*********************************************************************
  53:../src/lib/lpc177x_8x/Drivers/source/lpc177x_8x_emc.c ****  * @brief        Calculate refresh timer (the multiple of 16 CCLKs)
  54:../src/lib/lpc177x_8x/Drivers/source/lpc177x_8x_emc.c ****  * @param[in]    freq - frequency of EMC Clk
  55:../src/lib/lpc177x_8x/Drivers/source/lpc177x_8x_emc.c ****  * @param[in]    time - micro second
  56:../src/lib/lpc177x_8x/Drivers/source/lpc177x_8x_emc.c ****  * @return       None
  57:../src/lib/lpc177x_8x/Drivers/source/lpc177x_8x_emc.c ****  **********************************************************************/
  58:../src/lib/lpc177x_8x/Drivers/source/lpc177x_8x_emc.c **** uint32_t EMC_SDRAM_REFRESH(uint32_t time)
  59:../src/lib/lpc177x_8x/Drivers/source/lpc177x_8x_emc.c **** {
  27              		.loc 1 59 0
  28              		.cfi_startproc
  29              		@ args = 0, pretend = 0, frame = 16
  30              		@ frame_needed = 1, uses_anonymous_args = 0
  31 0000 B0B5     		push	{r4, r5, r7, lr}
  32              	.LCFI0:
  33              		.cfi_def_cfa_offset 16
  34              		.cfi_offset 4, -16
  35              		.cfi_offset 5, -12
  36              		.cfi_offset 7, -8
  37              		.cfi_offset 14, -4
  38 0002 84B0     		sub	sp, sp, #16
  39              	.LCFI1:
  40              		.cfi_def_cfa_offset 32
  41 0004 00AF     		add	r7, sp, #0
  42              	.LCFI2:
  43              		.cfi_def_cfa_register 7
  44 0006 7860     		str	r0, [r7, #4]
  60:../src/lib/lpc177x_8x/Drivers/source/lpc177x_8x_emc.c ****     uint32_t emc_freq = CLKPWR_GetCLK(CLKPWR_CLKTYPE_EMC);
  45              		.loc 1 60 0
  46 0008 4FF00200 		mov	r0, #2
  47 000c FFF7FEFF 		bl	CLKPWR_GetCLK
  48 0010 F860     		str	r0, [r7, #12]
  61:../src/lib/lpc177x_8x/Drivers/source/lpc177x_8x_emc.c ****     return (((uint64_t)((uint64_t)time * emc_freq)/16000000ull)+1);
  49              		.loc 1 61 0
  50 0012 7B68     		ldr	r3, [r7, #4]
  51 0014 1846     		mov	r0, r3
  52 0016 4FF00001 		mov	r1, #0
  53 001a FC68     		ldr	r4, [r7, #12]
  54 001c 2246     		mov	r2, r4
  55 001e 4FF00003 		mov	r3, #0
  56 0022 02FB01F5 		mul	r5, r2, r1
  57 0026 00FB03F4 		mul	r4, r0, r3
  58 002a 2C19     		adds	r4, r5, r4
  59 002c A0FB0223 		umull	r2, r3, r0, r2
  60 0030 E118     		adds	r1, r4, r3
  61 0032 0B46     		mov	r3, r1
  62 0034 1046     		mov	r0, r2
  63 0036 1946     		mov	r1, r3
  64 0038 4FF47402 		mov	r2, #15990784
  65 003c 02F51052 		add	r2, r2, #9216
  66 0040 4FF00003 		mov	r3, #0
  67 0044 FFF7FEFF 		bl	__aeabi_uldivmod
  68 0048 0246     		mov	r2, r0
  69 004a 0B46     		mov	r3, r1
  70 004c 1346     		mov	r3, r2
  71 004e 03F10103 		add	r3, r3, #1
  62:../src/lib/lpc177x_8x/Drivers/source/lpc177x_8x_emc.c **** }
  72              		.loc 1 62 0
  73 0052 1846     		mov	r0, r3
  74 0054 07F11007 		add	r7, r7, #16
  75 0058 BD46     		mov	sp, r7
  76 005a B0BD     		pop	{r4, r5, r7, pc}
  77              		.cfi_endproc
  78              	.LFE55:
  80              		.align	2
  81              		.global	EMC_NS2CLK
  82              		.thumb
  83              		.thumb_func
  85              	EMC_NS2CLK:
  86              	.LFB56:
  63:../src/lib/lpc177x_8x/Drivers/source/lpc177x_8x_emc.c **** /*********************************************************************
  64:../src/lib/lpc177x_8x/Drivers/source/lpc177x_8x_emc.c ****  * @brief        Calculate EMC Clock from nano second
  65:../src/lib/lpc177x_8x/Drivers/source/lpc177x_8x_emc.c ****  * @param[in]    time - nano second
  66:../src/lib/lpc177x_8x/Drivers/source/lpc177x_8x_emc.c ****  * @return       None
  67:../src/lib/lpc177x_8x/Drivers/source/lpc177x_8x_emc.c ****  **********************************************************************/
  68:../src/lib/lpc177x_8x/Drivers/source/lpc177x_8x_emc.c **** uint32_t EMC_NS2CLK(uint32_t time){
  87              		.loc 1 68 0
  88              		.cfi_startproc
  89              		@ args = 0, pretend = 0, frame = 16
  90              		@ frame_needed = 1, uses_anonymous_args = 0
  91 005c B0B5     		push	{r4, r5, r7, lr}
  92              	.LCFI3:
  93              		.cfi_def_cfa_offset 16
  94              		.cfi_offset 4, -16
  95              		.cfi_offset 5, -12
  96              		.cfi_offset 7, -8
  97              		.cfi_offset 14, -4
  98 005e 84B0     		sub	sp, sp, #16
  99              	.LCFI4:
 100              		.cfi_def_cfa_offset 32
 101 0060 00AF     		add	r7, sp, #0
 102              	.LCFI5:
 103              		.cfi_def_cfa_register 7
 104 0062 7860     		str	r0, [r7, #4]
  69:../src/lib/lpc177x_8x/Drivers/source/lpc177x_8x_emc.c ****     uint32_t emc_freq = CLKPWR_GetCLK(CLKPWR_CLKTYPE_EMC);
 105              		.loc 1 69 0
 106 0064 4FF00200 		mov	r0, #2
 107 0068 FFF7FEFF 		bl	CLKPWR_GetCLK
 108 006c F860     		str	r0, [r7, #12]
  70:../src/lib/lpc177x_8x/Drivers/source/lpc177x_8x_emc.c ****     return (((uint64_t)time*emc_freq/1000000000ull));
 109              		.loc 1 70 0
 110 006e 7B68     		ldr	r3, [r7, #4]
 111 0070 1846     		mov	r0, r3
 112 0072 4FF00001 		mov	r1, #0
 113 0076 FC68     		ldr	r4, [r7, #12]
 114 0078 2246     		mov	r2, r4
 115 007a 4FF00003 		mov	r3, #0
 116 007e 02FB01F5 		mul	r5, r2, r1
 117 0082 00FB03F4 		mul	r4, r0, r3
 118 0086 2C19     		adds	r4, r5, r4
 119 0088 A0FB0223 		umull	r2, r3, r0, r2
 120 008c E118     		adds	r1, r4, r3
 121 008e 0B46     		mov	r3, r1
 122 0090 1046     		mov	r0, r2
 123 0092 1946     		mov	r1, r3
 124 0094 06A3     		adr	r3, .L5
 125 0096 D3E90023 		ldrd	r2, [r3]
 126 009a FFF7FEFF 		bl	__aeabi_uldivmod
 127 009e 0246     		mov	r2, r0
 128 00a0 0B46     		mov	r3, r1
 129 00a2 1346     		mov	r3, r2
  71:../src/lib/lpc177x_8x/Drivers/source/lpc177x_8x_emc.c **** }
 130              		.loc 1 71 0
 131 00a4 1846     		mov	r0, r3
 132 00a6 07F11007 		add	r7, r7, #16
 133 00aa BD46     		mov	sp, r7
 134 00ac B0BD     		pop	{r4, r5, r7, pc}
 135              	.L6:
 136 00ae 00BF     		.align	3
 137              	.L5:
 138 00b0 00CA9A3B 		.word	1000000000
 139 00b4 00000000 		.word	0
 140              		.cfi_endproc
 141              	.LFE56:
 143              		.align	2
 144              		.global	EMC_PwrOn
 145              		.thumb
 146              		.thumb_func
 148              	EMC_PwrOn:
 149              	.LFB57:
  72:../src/lib/lpc177x_8x/Drivers/source/lpc177x_8x_emc.c **** 
  73:../src/lib/lpc177x_8x/Drivers/source/lpc177x_8x_emc.c **** /*********************************************************************
  74:../src/lib/lpc177x_8x/Drivers/source/lpc177x_8x_emc.c ****  * @brief        Power on EMC Block
  75:../src/lib/lpc177x_8x/Drivers/source/lpc177x_8x_emc.c ****  * @param[in]    None
  76:../src/lib/lpc177x_8x/Drivers/source/lpc177x_8x_emc.c ****  * @return       None
  77:../src/lib/lpc177x_8x/Drivers/source/lpc177x_8x_emc.c ****  **********************************************************************/
  78:../src/lib/lpc177x_8x/Drivers/source/lpc177x_8x_emc.c **** EMC_FUNC_CODE EMC_PwrOn(void)
  79:../src/lib/lpc177x_8x/Drivers/source/lpc177x_8x_emc.c **** {
 150              		.loc 1 79 0
 151              		.cfi_startproc
 152              		@ args = 0, pretend = 0, frame = 0
 153              		@ frame_needed = 1, uses_anonymous_args = 0
 154 00b8 80B5     		push	{r7, lr}
 155              	.LCFI6:
 156              		.cfi_def_cfa_offset 8
 157              		.cfi_offset 7, -8
 158              		.cfi_offset 14, -4
 159 00ba 00AF     		add	r7, sp, #0
 160              	.LCFI7:
 161              		.cfi_def_cfa_register 7
  80:../src/lib/lpc177x_8x/Drivers/source/lpc177x_8x_emc.c ****     // If CPU clock is > 80 MHz, then divide it by two to create the EMC clock
  81:../src/lib/lpc177x_8x/Drivers/source/lpc177x_8x_emc.c ****     if(CLKPWR_GetCLK(CLKPWR_CLKTYPE_CPU) > 80000000) {
 162              		.loc 1 81 0
 163 00bc 4FF00000 		mov	r0, #0
 164 00c0 FFF7FEFF 		bl	CLKPWR_GetCLK
 165 00c4 0246     		mov	r2, r0
 166 00c6 0F4B     		ldr	r3, .L11
 167 00c8 9A42     		cmp	r2, r3
 168 00ca 06D9     		bls	.L8
  82:../src/lib/lpc177x_8x/Drivers/source/lpc177x_8x_emc.c ****         CLKPWR_SetCLKDiv(CLKPWR_CLKTYPE_EMC, 1); // CPU clock / 2
 169              		.loc 1 82 0
 170 00cc 4FF00200 		mov	r0, #2
 171 00d0 4FF00101 		mov	r1, #1
 172 00d4 FFF7FEFF 		bl	CLKPWR_SetCLKDiv
 173 00d8 05E0     		b	.L9
 174              	.L8:
  83:../src/lib/lpc177x_8x/Drivers/source/lpc177x_8x_emc.c ****     } else {
  84:../src/lib/lpc177x_8x/Drivers/source/lpc177x_8x_emc.c ****         CLKPWR_SetCLKDiv(CLKPWR_CLKTYPE_EMC, 0); // Same clock as CPU
 175              		.loc 1 84 0
 176 00da 4FF00200 		mov	r0, #2
 177 00de 4FF00001 		mov	r1, #0
 178 00e2 FFF7FEFF 		bl	CLKPWR_SetCLKDiv
 179              	.L9:
  85:../src/lib/lpc177x_8x/Drivers/source/lpc177x_8x_emc.c ****     }
  86:../src/lib/lpc177x_8x/Drivers/source/lpc177x_8x_emc.c **** 
  87:../src/lib/lpc177x_8x/Drivers/source/lpc177x_8x_emc.c ****     // Power on
  88:../src/lib/lpc177x_8x/Drivers/source/lpc177x_8x_emc.c ****     CLKPWR_ConfigPPWR(CLKPWR_PCONP_PCEMC, ENABLE);
 180              		.loc 1 88 0
 181 00e6 4FF40060 		mov	r0, #2048
 182 00ea 4FF00101 		mov	r1, #1
 183 00ee FFF7FEFF 		bl	CLKPWR_ConfigPPWR
  89:../src/lib/lpc177x_8x/Drivers/source/lpc177x_8x_emc.c **** 
  90:../src/lib/lpc177x_8x/Drivers/source/lpc177x_8x_emc.c ****     // Enable
  91:../src/lib/lpc177x_8x/Drivers/source/lpc177x_8x_emc.c ****     LPC_EMC->Control = EMC_Control_E;
 184              		.loc 1 91 0
 185 00f2 054B     		ldr	r3, .L11+4
 186 00f4 4FF00102 		mov	r2, #1
 187 00f8 1A60     		str	r2, [r3, #0]
  92:../src/lib/lpc177x_8x/Drivers/source/lpc177x_8x_emc.c **** 
  93:../src/lib/lpc177x_8x/Drivers/source/lpc177x_8x_emc.c ****     return EMC_FUNC_OK;
 188              		.loc 1 93 0
 189 00fa 4FF00003 		mov	r3, #0
  94:../src/lib/lpc177x_8x/Drivers/source/lpc177x_8x_emc.c **** }
 190              		.loc 1 94 0
 191 00fe 1846     		mov	r0, r3
 192 0100 80BD     		pop	{r7, pc}
 193              	.L12:
 194 0102 00BF     		.align	2
 195              	.L11:
 196 0104 00B4C404 		.word	80000000
 197 0108 00C00920 		.word	537509888
 198              		.cfi_endproc
 199              	.LFE57:
 201              		.align	2
 202              		.global	DynMem_Init
 203              		.thumb
 204              		.thumb_func
 206              	DynMem_Init:
 207              	.LFB58:
  95:../src/lib/lpc177x_8x/Drivers/source/lpc177x_8x_emc.c **** /*********************************************************************//**
  96:../src/lib/lpc177x_8x/Drivers/source/lpc177x_8x_emc.c ****  * @brief         Initialize external dynamic memory
  97:../src/lib/lpc177x_8x/Drivers/source/lpc177x_8x_emc.c ****  * @param[in]    pConfig    Configuration
  98:../src/lib/lpc177x_8x/Drivers/source/lpc177x_8x_emc.c ****  * @return         EMC_FUNC_OK/EMC_FUNC_INVALID_PARAM/EMC_FUNC_ERR
  99:../src/lib/lpc177x_8x/Drivers/source/lpc177x_8x_emc.c ****  **********************************************************************/
 100:../src/lib/lpc177x_8x/Drivers/source/lpc177x_8x_emc.c **** EMC_FUNC_CODE DynMem_Init(EMC_DYN_MEM_Config_Type* pConfig)
 101:../src/lib/lpc177x_8x/Drivers/source/lpc177x_8x_emc.c **** {
 208              		.loc 1 101 0
 209              		.cfi_startproc
 210              		@ args = 0, pretend = 0, frame = 16
 211              		@ frame_needed = 1, uses_anonymous_args = 0
 212 010c 90B5     		push	{r4, r7, lr}
 213              	.LCFI8:
 214              		.cfi_def_cfa_offset 12
 215              		.cfi_offset 4, -12
 216              		.cfi_offset 7, -8
 217              		.cfi_offset 14, -4
 218 010e 87B0     		sub	sp, sp, #28
 219              	.LCFI9:
 220              		.cfi_def_cfa_offset 40
 221 0110 02AF     		add	r7, sp, #8
 222              	.LCFI10:
 223              		.cfi_def_cfa 7, 32
 224 0112 7860     		str	r0, [r7, #4]
 102:../src/lib/lpc177x_8x/Drivers/source/lpc177x_8x_emc.c ****      uint32_t i = 0;
 225              		.loc 1 102 0
 226 0114 4FF00003 		mov	r3, #0
 227 0118 FB60     		str	r3, [r7, #12]
 103:../src/lib/lpc177x_8x/Drivers/source/lpc177x_8x_emc.c ****      EMC_FUNC_CODE ret = EMC_FUNC_OK;
 228              		.loc 1 103 0
 229 011a 4FF00003 		mov	r3, #0
 230 011e BB60     		str	r3, [r7, #8]
 104:../src/lib/lpc177x_8x/Drivers/source/lpc177x_8x_emc.c **** 
 105:../src/lib/lpc177x_8x/Drivers/source/lpc177x_8x_emc.c ****     /* Pin configuration:
 106:../src/lib/lpc177x_8x/Drivers/source/lpc177x_8x_emc.c ****     * P2.16 - /EMC_CAS
 107:../src/lib/lpc177x_8x/Drivers/source/lpc177x_8x_emc.c ****     * P2.17 - /EMC_RAS
 108:../src/lib/lpc177x_8x/Drivers/source/lpc177x_8x_emc.c ****     * P2.18 - EMC_CLK[0]
 109:../src/lib/lpc177x_8x/Drivers/source/lpc177x_8x_emc.c ****     * P2.19 - EMC_CLK[1]
 110:../src/lib/lpc177x_8x/Drivers/source/lpc177x_8x_emc.c ****     *
 111:../src/lib/lpc177x_8x/Drivers/source/lpc177x_8x_emc.c ****     * P2.20 - EMC_DYCS0
 112:../src/lib/lpc177x_8x/Drivers/source/lpc177x_8x_emc.c ****     * P2.21 - EMC_DYCS1
 113:../src/lib/lpc177x_8x/Drivers/source/lpc177x_8x_emc.c ****     * P2.22 - EMC_DYCS2
 114:../src/lib/lpc177x_8x/Drivers/source/lpc177x_8x_emc.c ****     * P2.23 - EMC_DYCS3
 115:../src/lib/lpc177x_8x/Drivers/source/lpc177x_8x_emc.c ****     *
 116:../src/lib/lpc177x_8x/Drivers/source/lpc177x_8x_emc.c ****     * P2.24 - EMC_CKE0
 117:../src/lib/lpc177x_8x/Drivers/source/lpc177x_8x_emc.c ****     * P2.25 - EMC_CKE1
 118:../src/lib/lpc177x_8x/Drivers/source/lpc177x_8x_emc.c ****     * P2.26 - EMC_CKE2
 119:../src/lib/lpc177x_8x/Drivers/source/lpc177x_8x_emc.c ****     * P2.27 - EMC_CKE3
 120:../src/lib/lpc177x_8x/Drivers/source/lpc177x_8x_emc.c ****     *
 121:../src/lib/lpc177x_8x/Drivers/source/lpc177x_8x_emc.c ****     * P2.28 - EMC_DQM0
 122:../src/lib/lpc177x_8x/Drivers/source/lpc177x_8x_emc.c ****     * P2.29 - EMC_DQM1
 123:../src/lib/lpc177x_8x/Drivers/source/lpc177x_8x_emc.c ****     * P2.30 - EMC_DQM2
 124:../src/lib/lpc177x_8x/Drivers/source/lpc177x_8x_emc.c ****     * P2.31 - EMC_DQM3
 125:../src/lib/lpc177x_8x/Drivers/source/lpc177x_8x_emc.c ****     *
 126:../src/lib/lpc177x_8x/Drivers/source/lpc177x_8x_emc.c ****     * P3.0-P3.31 - EMC_D[0-31]
 127:../src/lib/lpc177x_8x/Drivers/source/lpc177x_8x_emc.c ****     * P4.0-P4.23 - EMC_A[0-23]
 128:../src/lib/lpc177x_8x/Drivers/source/lpc177x_8x_emc.c ****     * P5.0-P5.1  - EMC_A[24-25]
 129:../src/lib/lpc177x_8x/Drivers/source/lpc177x_8x_emc.c ****     *
 130:../src/lib/lpc177x_8x/Drivers/source/lpc177x_8x_emc.c ****     * P4.25 - EMC_WE
 131:../src/lib/lpc177x_8x/Drivers/source/lpc177x_8x_emc.c ****     */
 132:../src/lib/lpc177x_8x/Drivers/source/lpc177x_8x_emc.c ****     PINSEL_ConfigPin(2,16,1);
 231              		.loc 1 132 0
 232 0120 4FF00200 		mov	r0, #2
 233 0124 4FF01001 		mov	r1, #16
 234 0128 4FF00102 		mov	r2, #1
 235 012c FFF7FEFF 		bl	PINSEL_ConfigPin
 133:../src/lib/lpc177x_8x/Drivers/source/lpc177x_8x_emc.c ****     PINSEL_ConfigPin(2,17,1);
 236              		.loc 1 133 0
 237 0130 4FF00200 		mov	r0, #2
 238 0134 4FF01101 		mov	r1, #17
 239 0138 4FF00102 		mov	r2, #1
 240 013c FFF7FEFF 		bl	PINSEL_ConfigPin
 134:../src/lib/lpc177x_8x/Drivers/source/lpc177x_8x_emc.c ****     PINSEL_ConfigPin(2,18,1);
 241              		.loc 1 134 0
 242 0140 4FF00200 		mov	r0, #2
 243 0144 4FF01201 		mov	r1, #18
 244 0148 4FF00102 		mov	r2, #1
 245 014c FFF7FEFF 		bl	PINSEL_ConfigPin
 135:../src/lib/lpc177x_8x/Drivers/source/lpc177x_8x_emc.c ****     PINSEL_ConfigPin(2,19,1);
 246              		.loc 1 135 0
 247 0150 4FF00200 		mov	r0, #2
 248 0154 4FF01301 		mov	r1, #19
 249 0158 4FF00102 		mov	r2, #1
 250 015c FFF7FEFF 		bl	PINSEL_ConfigPin
 136:../src/lib/lpc177x_8x/Drivers/source/lpc177x_8x_emc.c ****     PINSEL_ConfigPin(2,20,1);
 251              		.loc 1 136 0
 252 0160 4FF00200 		mov	r0, #2
 253 0164 4FF01401 		mov	r1, #20
 254 0168 4FF00102 		mov	r2, #1
 255 016c FFF7FEFF 		bl	PINSEL_ConfigPin
 137:../src/lib/lpc177x_8x/Drivers/source/lpc177x_8x_emc.c ****     PINSEL_ConfigPin(2,21,1);
 256              		.loc 1 137 0
 257 0170 4FF00200 		mov	r0, #2
 258 0174 4FF01501 		mov	r1, #21
 259 0178 4FF00102 		mov	r2, #1
 260 017c FFF7FEFF 		bl	PINSEL_ConfigPin
 138:../src/lib/lpc177x_8x/Drivers/source/lpc177x_8x_emc.c ****     PINSEL_ConfigPin(2,22,1);
 261              		.loc 1 138 0
 262 0180 4FF00200 		mov	r0, #2
 263 0184 4FF01601 		mov	r1, #22
 264 0188 4FF00102 		mov	r2, #1
 265 018c FFF7FEFF 		bl	PINSEL_ConfigPin
 139:../src/lib/lpc177x_8x/Drivers/source/lpc177x_8x_emc.c ****     PINSEL_ConfigPin(2,23,1);
 266              		.loc 1 139 0
 267 0190 4FF00200 		mov	r0, #2
 268 0194 4FF01701 		mov	r1, #23
 269 0198 4FF00102 		mov	r2, #1
 270 019c FFF7FEFF 		bl	PINSEL_ConfigPin
 140:../src/lib/lpc177x_8x/Drivers/source/lpc177x_8x_emc.c ****     PINSEL_ConfigPin(2,24,1);
 271              		.loc 1 140 0
 272 01a0 4FF00200 		mov	r0, #2
 273 01a4 4FF01801 		mov	r1, #24
 274 01a8 4FF00102 		mov	r2, #1
 275 01ac FFF7FEFF 		bl	PINSEL_ConfigPin
 141:../src/lib/lpc177x_8x/Drivers/source/lpc177x_8x_emc.c ****     PINSEL_ConfigPin(2,25,1);
 276              		.loc 1 141 0
 277 01b0 4FF00200 		mov	r0, #2
 278 01b4 4FF01901 		mov	r1, #25
 279 01b8 4FF00102 		mov	r2, #1
 280 01bc FFF7FEFF 		bl	PINSEL_ConfigPin
 142:../src/lib/lpc177x_8x/Drivers/source/lpc177x_8x_emc.c ****     PINSEL_ConfigPin(2,26,1);
 281              		.loc 1 142 0
 282 01c0 4FF00200 		mov	r0, #2
 283 01c4 4FF01A01 		mov	r1, #26
 284 01c8 4FF00102 		mov	r2, #1
 285 01cc FFF7FEFF 		bl	PINSEL_ConfigPin
 143:../src/lib/lpc177x_8x/Drivers/source/lpc177x_8x_emc.c ****     PINSEL_ConfigPin(2,27,1);
 286              		.loc 1 143 0
 287 01d0 4FF00200 		mov	r0, #2
 288 01d4 4FF01B01 		mov	r1, #27
 289 01d8 4FF00102 		mov	r2, #1
 290 01dc FFF7FEFF 		bl	PINSEL_ConfigPin
 144:../src/lib/lpc177x_8x/Drivers/source/lpc177x_8x_emc.c ****     PINSEL_ConfigPin(2,28,1);
 291              		.loc 1 144 0
 292 01e0 4FF00200 		mov	r0, #2
 293 01e4 4FF01C01 		mov	r1, #28
 294 01e8 4FF00102 		mov	r2, #1
 295 01ec FFF7FEFF 		bl	PINSEL_ConfigPin
 145:../src/lib/lpc177x_8x/Drivers/source/lpc177x_8x_emc.c ****     PINSEL_ConfigPin(2,29,1);
 296              		.loc 1 145 0
 297 01f0 4FF00200 		mov	r0, #2
 298 01f4 4FF01D01 		mov	r1, #29
 299 01f8 4FF00102 		mov	r2, #1
 300 01fc FFF7FEFF 		bl	PINSEL_ConfigPin
 146:../src/lib/lpc177x_8x/Drivers/source/lpc177x_8x_emc.c ****     PINSEL_ConfigPin(2,30,1);
 301              		.loc 1 146 0
 302 0200 4FF00200 		mov	r0, #2
 303 0204 4FF01E01 		mov	r1, #30
 304 0208 4FF00102 		mov	r2, #1
 305 020c FFF7FEFF 		bl	PINSEL_ConfigPin
 147:../src/lib/lpc177x_8x/Drivers/source/lpc177x_8x_emc.c ****     PINSEL_ConfigPin(2,31,1);
 306              		.loc 1 147 0
 307 0210 4FF00200 		mov	r0, #2
 308 0214 4FF01F01 		mov	r1, #31
 309 0218 4FF00102 		mov	r2, #1
 310 021c FFF7FEFF 		bl	PINSEL_ConfigPin
 148:../src/lib/lpc177x_8x/Drivers/source/lpc177x_8x_emc.c **** 
 149:../src/lib/lpc177x_8x/Drivers/source/lpc177x_8x_emc.c ****     for(i = 0; i < 32; i++)
 311              		.loc 1 149 0
 312 0220 4FF00003 		mov	r3, #0
 313 0224 FB60     		str	r3, [r7, #12]
 314 0226 15E0     		b	.L14
 315              	.L15:
 150:../src/lib/lpc177x_8x/Drivers/source/lpc177x_8x_emc.c ****     {
 151:../src/lib/lpc177x_8x/Drivers/source/lpc177x_8x_emc.c ****         PINSEL_ConfigPin(3,i,1);
 316              		.loc 1 151 0 discriminator 2
 317 0228 FB68     		ldr	r3, [r7, #12]
 318 022a DBB2     		uxtb	r3, r3
 319 022c 4FF00300 		mov	r0, #3
 320 0230 1946     		mov	r1, r3
 321 0232 4FF00102 		mov	r2, #1
 322 0236 FFF7FEFF 		bl	PINSEL_ConfigPin
 152:../src/lib/lpc177x_8x/Drivers/source/lpc177x_8x_emc.c ****         PINSEL_ConfigPin(4,i,1);
 323              		.loc 1 152 0 discriminator 2
 324 023a FB68     		ldr	r3, [r7, #12]
 325 023c DBB2     		uxtb	r3, r3
 326 023e 4FF00400 		mov	r0, #4
 327 0242 1946     		mov	r1, r3
 328 0244 4FF00102 		mov	r2, #1
 329 0248 FFF7FEFF 		bl	PINSEL_ConfigPin
 149:../src/lib/lpc177x_8x/Drivers/source/lpc177x_8x_emc.c ****     for(i = 0; i < 32; i++)
 330              		.loc 1 149 0 discriminator 2
 331 024c FB68     		ldr	r3, [r7, #12]
 332 024e 03F10103 		add	r3, r3, #1
 333 0252 FB60     		str	r3, [r7, #12]
 334              	.L14:
 149:../src/lib/lpc177x_8x/Drivers/source/lpc177x_8x_emc.c ****     for(i = 0; i < 32; i++)
 335              		.loc 1 149 0 is_stmt 0 discriminator 1
 336 0254 FB68     		ldr	r3, [r7, #12]
 337 0256 1F2B     		cmp	r3, #31
 338 0258 E6D9     		bls	.L15
 153:../src/lib/lpc177x_8x/Drivers/source/lpc177x_8x_emc.c ****     }
 154:../src/lib/lpc177x_8x/Drivers/source/lpc177x_8x_emc.c ****     PINSEL_ConfigPin(5,0,1);
 339              		.loc 1 154 0 is_stmt 1
 340 025a 4FF00500 		mov	r0, #5
 341 025e 4FF00001 		mov	r1, #0
 342 0262 4FF00102 		mov	r2, #1
 343 0266 FFF7FEFF 		bl	PINSEL_ConfigPin
 155:../src/lib/lpc177x_8x/Drivers/source/lpc177x_8x_emc.c ****     PINSEL_ConfigPin(5,1,1);
 344              		.loc 1 155 0
 345 026a 4FF00500 		mov	r0, #5
 346 026e 4FF00101 		mov	r1, #1
 347 0272 4FF00102 		mov	r2, #1
 348 0276 FFF7FEFF 		bl	PINSEL_ConfigPin
 156:../src/lib/lpc177x_8x/Drivers/source/lpc177x_8x_emc.c **** 
 157:../src/lib/lpc177x_8x/Drivers/source/lpc177x_8x_emc.c **** 
 158:../src/lib/lpc177x_8x/Drivers/source/lpc177x_8x_emc.c ****     // Power On
 159:../src/lib/lpc177x_8x/Drivers/source/lpc177x_8x_emc.c ****     ret |= EMC_PwrOn();
 349              		.loc 1 159 0
 350 027a FFF7FEFF 		bl	EMC_PwrOn
 351 027e 0346     		mov	r3, r0
 352 0280 BA68     		ldr	r2, [r7, #8]
 353 0282 1343     		orrs	r3, r3, r2
 354 0284 BB60     		str	r3, [r7, #8]
 160:../src/lib/lpc177x_8x/Drivers/source/lpc177x_8x_emc.c **** 
 161:../src/lib/lpc177x_8x/Drivers/source/lpc177x_8x_emc.c ****     /*Init SDRAM controller*/
 162:../src/lib/lpc177x_8x/Drivers/source/lpc177x_8x_emc.c ****     LPC_SC->EMCDLYCTL |= (8<<0);
 355              		.loc 1 162 0
 356 0286 8A4B     		ldr	r3, .L17
 357 0288 894A     		ldr	r2, .L17
 358 028a D2F8DC21 		ldr	r2, [r2, #476]
 359 028e 42F00802 		orr	r2, r2, #8
 360 0292 C3F8DC21 		str	r2, [r3, #476]
 163:../src/lib/lpc177x_8x/Drivers/source/lpc177x_8x_emc.c ****     /*Set data read delay*/
 164:../src/lib/lpc177x_8x/Drivers/source/lpc177x_8x_emc.c ****     LPC_SC->EMCDLYCTL |=(8<<8);
 361              		.loc 1 164 0
 362 0296 864B     		ldr	r3, .L17
 363 0298 854A     		ldr	r2, .L17
 364 029a D2F8DC21 		ldr	r2, [r2, #476]
 365 029e 42F40062 		orr	r2, r2, #2048
 366 02a2 C3F8DC21 		str	r2, [r3, #476]
 165:../src/lib/lpc177x_8x/Drivers/source/lpc177x_8x_emc.c ****     LPC_SC->EMCDLYCTL |= (0x08 <<16);
 367              		.loc 1 165 0
 368 02a6 824B     		ldr	r3, .L17
 369 02a8 814A     		ldr	r2, .L17
 370 02aa D2F8DC21 		ldr	r2, [r2, #476]
 371 02ae 42F40022 		orr	r2, r2, #524288
 372 02b2 C3F8DC21 		str	r2, [r3, #476]
 166:../src/lib/lpc177x_8x/Drivers/source/lpc177x_8x_emc.c **** 
 167:../src/lib/lpc177x_8x/Drivers/source/lpc177x_8x_emc.c ****     ret |= EMC_ConfigEndianMode(EMC_Config_Little_Endian_Mode);
 373              		.loc 1 167 0
 374 02b6 4FF00000 		mov	r0, #0
 375 02ba FFF7FEFF 		bl	EMC_ConfigEndianMode
 376 02be 0346     		mov	r3, r0
 377 02c0 BA68     		ldr	r2, [r7, #8]
 378 02c2 1343     		orrs	r3, r3, r2
 379 02c4 BB60     		str	r3, [r7, #8]
 168:../src/lib/lpc177x_8x/Drivers/source/lpc177x_8x_emc.c ****     
 169:../src/lib/lpc177x_8x/Drivers/source/lpc177x_8x_emc.c ****          /* Dynamic memory setting */
 170:../src/lib/lpc177x_8x/Drivers/source/lpc177x_8x_emc.c ****     ret |= EMC_DynCtrlSelfRefresh(EMC_DYNAMIC_CTRL_SR_NORMALMODE);
 380              		.loc 1 170 0
 381 02c6 4FF00000 		mov	r0, #0
 382 02ca FFF7FEFF 		bl	EMC_DynCtrlSelfRefresh
 383 02ce 0346     		mov	r3, r0
 384 02d0 BA68     		ldr	r2, [r7, #8]
 385 02d2 1343     		orrs	r3, r3, r2
 386 02d4 BB60     		str	r3, [r7, #8]
 171:../src/lib/lpc177x_8x/Drivers/source/lpc177x_8x_emc.c ****     ret |= EMC_DynCtrlPowerDownMode(EMC_DYNAMIC_CTRL_DP_NORMAL);
 387              		.loc 1 171 0
 388 02d6 4FF00000 		mov	r0, #0
 389 02da FFF7FEFF 		bl	EMC_DynCtrlPowerDownMode
 390 02de 0346     		mov	r3, r0
 391 02e0 BA68     		ldr	r2, [r7, #8]
 392 02e2 1343     		orrs	r3, r3, r2
 393 02e4 BB60     		str	r3, [r7, #8]
 172:../src/lib/lpc177x_8x/Drivers/source/lpc177x_8x_emc.c ****     ret |= EMC_DynCtrlClockEnable(EMC_DYNAMIC_CTRL_CE_ALLCLK_HI);
 394              		.loc 1 172 0
 395 02e6 4FF00100 		mov	r0, #1
 396 02ea FFF7FEFF 		bl	EMC_DynCtrlClockEnable
 397 02ee 0346     		mov	r3, r0
 398 02f0 BA68     		ldr	r2, [r7, #8]
 399 02f2 1343     		orrs	r3, r3, r2
 400 02f4 BB60     		str	r3, [r7, #8]
 173:../src/lib/lpc177x_8x/Drivers/source/lpc177x_8x_emc.c ****     ret |= EMC_DynCtrlMMC(EMC_DYNAMIC_CTRL_MMC_CLKOUT_ENABLED);
 401              		.loc 1 173 0
 402 02f6 4FF00000 		mov	r0, #0
 403 02fa FFF7FEFF 		bl	EMC_DynCtrlMMC
 404 02fe 0346     		mov	r3, r0
 405 0300 BA68     		ldr	r2, [r7, #8]
 406 0302 1343     		orrs	r3, r3, r2
 407 0304 BB60     		str	r3, [r7, #8]
 174:../src/lib/lpc177x_8x/Drivers/source/lpc177x_8x_emc.c ****     ret |= EMC_DynCtrlClockControl(EMC_DYNAMIC_CTRL_CE_CLKOUT_CONT);
 408              		.loc 1 174 0
 409 0306 4FF00200 		mov	r0, #2
 410 030a FFF7FEFF 		bl	EMC_DynCtrlClockControl
 411 030e 0346     		mov	r3, r0
 412 0310 BA68     		ldr	r2, [r7, #8]
 413 0312 1343     		orrs	r3, r3, r2
 414 0314 BB60     		str	r3, [r7, #8]
 175:../src/lib/lpc177x_8x/Drivers/source/lpc177x_8x_emc.c **** 
 176:../src/lib/lpc177x_8x/Drivers/source/lpc177x_8x_emc.c ****     /* Timing */
 177:../src/lib/lpc177x_8x/Drivers/source/lpc177x_8x_emc.c ****     ret |= EMC_SetDynMemoryParameter(EMC_DYN_MEM_REFRESH_TIMER, pConfig->RefreshTime);
 415              		.loc 1 177 0
 416 0316 7B68     		ldr	r3, [r7, #4]
 417 0318 DB89     		ldrh	r3, [r3, #14]
 418 031a 4FF00000 		mov	r0, #0
 419 031e 1946     		mov	r1, r3
 420 0320 FFF7FEFF 		bl	EMC_SetDynMemoryParameter
 421 0324 0346     		mov	r3, r0
 422 0326 BA68     		ldr	r2, [r7, #8]
 423 0328 1343     		orrs	r3, r3, r2
 424 032a BB60     		str	r3, [r7, #8]
 178:../src/lib/lpc177x_8x/Drivers/source/lpc177x_8x_emc.c ****     ret |= EMC_SetDynMemoryParameter(EMC_DYN_MEM_READ_CONFIG, pConfig->ReadConfig);
 425              		.loc 1 178 0
 426 032c 7B68     		ldr	r3, [r7, #4]
 427 032e 1B7C     		ldrb	r3, [r3, #16]	@ zero_extendqisi2
 428 0330 4FF00100 		mov	r0, #1
 429 0334 1946     		mov	r1, r3
 430 0336 FFF7FEFF 		bl	EMC_SetDynMemoryParameter
 431 033a 0346     		mov	r3, r0
 432 033c BA68     		ldr	r2, [r7, #8]
 433 033e 1343     		orrs	r3, r3, r2
 434 0340 BB60     		str	r3, [r7, #8]
 179:../src/lib/lpc177x_8x/Drivers/source/lpc177x_8x_emc.c ****     ret |= EMC_SetDynMemoryParameter(EMC_DYN_MEM_TRP, pConfig->PrechargeCmdPeriod);
 435              		.loc 1 179 0
 436 0342 7B68     		ldr	r3, [r7, #4]
 437 0344 5B7C     		ldrb	r3, [r3, #17]	@ zero_extendqisi2
 438 0346 4FF00200 		mov	r0, #2
 439 034a 1946     		mov	r1, r3
 440 034c FFF7FEFF 		bl	EMC_SetDynMemoryParameter
 441 0350 0346     		mov	r3, r0
 442 0352 BA68     		ldr	r2, [r7, #8]
 443 0354 1343     		orrs	r3, r3, r2
 444 0356 BB60     		str	r3, [r7, #8]
 180:../src/lib/lpc177x_8x/Drivers/source/lpc177x_8x_emc.c ****     ret |= EMC_SetDynMemoryParameter(EMC_DYN_MEM_TRAS, pConfig->Active2PreChargeTime);
 445              		.loc 1 180 0
 446 0358 7B68     		ldr	r3, [r7, #4]
 447 035a DB7E     		ldrb	r3, [r3, #27]	@ zero_extendqisi2
 448 035c 4FF00300 		mov	r0, #3
 449 0360 1946     		mov	r1, r3
 450 0362 FFF7FEFF 		bl	EMC_SetDynMemoryParameter
 451 0366 0346     		mov	r3, r0
 452 0368 BA68     		ldr	r2, [r7, #8]
 453 036a 1343     		orrs	r3, r3, r2
 454 036c BB60     		str	r3, [r7, #8]
 181:../src/lib/lpc177x_8x/Drivers/source/lpc177x_8x_emc.c ****     ret |= EMC_SetDynMemoryParameter(EMC_DYN_MEM_TSREX, pConfig->SeftRefreshExitTime);
 455              		.loc 1 181 0
 456 036e 7B68     		ldr	r3, [r7, #4]
 457 0370 9B7C     		ldrb	r3, [r3, #18]	@ zero_extendqisi2
 458 0372 4FF00400 		mov	r0, #4
 459 0376 1946     		mov	r1, r3
 460 0378 FFF7FEFF 		bl	EMC_SetDynMemoryParameter
 461 037c 0346     		mov	r3, r0
 462 037e BA68     		ldr	r2, [r7, #8]
 463 0380 1343     		orrs	r3, r3, r2
 464 0382 BB60     		str	r3, [r7, #8]
 182:../src/lib/lpc177x_8x/Drivers/source/lpc177x_8x_emc.c ****     ret |= EMC_SetDynMemoryParameter(EMC_DYN_MEM_TAPR, pConfig->DataOut2ActiveTime);
 465              		.loc 1 182 0
 466 0384 7B68     		ldr	r3, [r7, #4]
 467 0386 DB7C     		ldrb	r3, [r3, #19]	@ zero_extendqisi2
 468 0388 4FF00500 		mov	r0, #5
 469 038c 1946     		mov	r1, r3
 470 038e FFF7FEFF 		bl	EMC_SetDynMemoryParameter
 471 0392 0346     		mov	r3, r0
 472 0394 BA68     		ldr	r2, [r7, #8]
 473 0396 1343     		orrs	r3, r3, r2
 474 0398 BB60     		str	r3, [r7, #8]
 183:../src/lib/lpc177x_8x/Drivers/source/lpc177x_8x_emc.c ****     ret |= EMC_SetDynMemoryParameter(EMC_DYN_MEM_TDAL, pConfig->DataIn2ActiveTime);
 475              		.loc 1 183 0
 476 039a 7B68     		ldr	r3, [r7, #4]
 477 039c 1B7D     		ldrb	r3, [r3, #20]	@ zero_extendqisi2
 478 039e 4FF00600 		mov	r0, #6
 479 03a2 1946     		mov	r1, r3
 480 03a4 FFF7FEFF 		bl	EMC_SetDynMemoryParameter
 481 03a8 0346     		mov	r3, r0
 482 03aa BA68     		ldr	r2, [r7, #8]
 483 03ac 1343     		orrs	r3, r3, r2
 484 03ae BB60     		str	r3, [r7, #8]
 184:../src/lib/lpc177x_8x/Drivers/source/lpc177x_8x_emc.c ****     ret |= EMC_SetDynMemoryParameter(EMC_DYN_MEM_TWR, pConfig->WriteRecoveryTime);
 485              		.loc 1 184 0
 486 03b0 7B68     		ldr	r3, [r7, #4]
 487 03b2 5B7D     		ldrb	r3, [r3, #21]	@ zero_extendqisi2
 488 03b4 4FF00700 		mov	r0, #7
 489 03b8 1946     		mov	r1, r3
 490 03ba FFF7FEFF 		bl	EMC_SetDynMemoryParameter
 491 03be 0346     		mov	r3, r0
 492 03c0 BA68     		ldr	r2, [r7, #8]
 493 03c2 1343     		orrs	r3, r3, r2
 494 03c4 BB60     		str	r3, [r7, #8]
 185:../src/lib/lpc177x_8x/Drivers/source/lpc177x_8x_emc.c ****     ret |= EMC_SetDynMemoryParameter(EMC_DYN_MEM_TRC, pConfig->Active2ActivePeriod);
 495              		.loc 1 185 0
 496 03c6 7B68     		ldr	r3, [r7, #4]
 497 03c8 9B7D     		ldrb	r3, [r3, #22]	@ zero_extendqisi2
 498 03ca 4FF00800 		mov	r0, #8
 499 03ce 1946     		mov	r1, r3
 500 03d0 FFF7FEFF 		bl	EMC_SetDynMemoryParameter
 501 03d4 0346     		mov	r3, r0
 502 03d6 BA68     		ldr	r2, [r7, #8]
 503 03d8 1343     		orrs	r3, r3, r2
 504 03da BB60     		str	r3, [r7, #8]
 186:../src/lib/lpc177x_8x/Drivers/source/lpc177x_8x_emc.c ****     ret |= EMC_SetDynMemoryParameter(EMC_DYN_MEM_TRFC, pConfig->AutoRefrehPeriod);
 505              		.loc 1 186 0
 506 03dc 7B68     		ldr	r3, [r7, #4]
 507 03de DB7D     		ldrb	r3, [r3, #23]	@ zero_extendqisi2
 508 03e0 4FF00900 		mov	r0, #9
 509 03e4 1946     		mov	r1, r3
 510 03e6 FFF7FEFF 		bl	EMC_SetDynMemoryParameter
 511 03ea 0346     		mov	r3, r0
 512 03ec BA68     		ldr	r2, [r7, #8]
 513 03ee 1343     		orrs	r3, r3, r2
 514 03f0 BB60     		str	r3, [r7, #8]
 187:../src/lib/lpc177x_8x/Drivers/source/lpc177x_8x_emc.c ****     ret |= EMC_SetDynMemoryParameter(EMC_DYN_MEM_TXSR, pConfig->ExitSelfRefreshTime);
 515              		.loc 1 187 0
 516 03f2 7B68     		ldr	r3, [r7, #4]
 517 03f4 1B7E     		ldrb	r3, [r3, #24]	@ zero_extendqisi2
 518 03f6 4FF00A00 		mov	r0, #10
 519 03fa 1946     		mov	r1, r3
 520 03fc FFF7FEFF 		bl	EMC_SetDynMemoryParameter
 521 0400 0346     		mov	r3, r0
 522 0402 BA68     		ldr	r2, [r7, #8]
 523 0404 1343     		orrs	r3, r3, r2
 524 0406 BB60     		str	r3, [r7, #8]
 188:../src/lib/lpc177x_8x/Drivers/source/lpc177x_8x_emc.c ****     ret |= EMC_SetDynMemoryParameter(EMC_DYN_MEM_TRRD, pConfig->ActiveBankLatency);
 525              		.loc 1 188 0
 526 0408 7B68     		ldr	r3, [r7, #4]
 527 040a 5B7E     		ldrb	r3, [r3, #25]	@ zero_extendqisi2
 528 040c 4FF00B00 		mov	r0, #11
 529 0410 1946     		mov	r1, r3
 530 0412 FFF7FEFF 		bl	EMC_SetDynMemoryParameter
 531 0416 0346     		mov	r3, r0
 532 0418 BA68     		ldr	r2, [r7, #8]
 533 041a 1343     		orrs	r3, r3, r2
 534 041c BB60     		str	r3, [r7, #8]
 189:../src/lib/lpc177x_8x/Drivers/source/lpc177x_8x_emc.c ****     ret |= EMC_SetDynMemoryParameter(EMC_DYN_MEM_TMRD, pConfig->LoadModeReg2Active);
 535              		.loc 1 189 0
 536 041e 7B68     		ldr	r3, [r7, #4]
 537 0420 9B7E     		ldrb	r3, [r3, #26]	@ zero_extendqisi2
 538 0422 4FF00C00 		mov	r0, #12
 539 0426 1946     		mov	r1, r3
 540 0428 FFF7FEFF 		bl	EMC_SetDynMemoryParameter
 541 042c 0346     		mov	r3, r0
 542 042e BA68     		ldr	r2, [r7, #8]
 543 0430 1343     		orrs	r3, r3, r2
 544 0432 BB60     		str	r3, [r7, #8]
 190:../src/lib/lpc177x_8x/Drivers/source/lpc177x_8x_emc.c ****     ret |= EMC_DynMemRAS(pConfig->CSn,pConfig->RASLatency);
 545              		.loc 1 190 0
 546 0434 7B68     		ldr	r3, [r7, #4]
 547 0436 1B78     		ldrb	r3, [r3, #0]	@ zero_extendqisi2
 548 0438 1A46     		mov	r2, r3
 549 043a 7B68     		ldr	r3, [r7, #4]
 550 043c 1B7F     		ldrb	r3, [r3, #28]	@ zero_extendqisi2
 551 043e 1046     		mov	r0, r2
 552 0440 1946     		mov	r1, r3
 553 0442 FFF7FEFF 		bl	EMC_DynMemRAS
 554 0446 0346     		mov	r3, r0
 555 0448 BA68     		ldr	r2, [r7, #8]
 556 044a 1343     		orrs	r3, r3, r2
 557 044c BB60     		str	r3, [r7, #8]
 191:../src/lib/lpc177x_8x/Drivers/source/lpc177x_8x_emc.c ****     ret |= EMC_DynMemCAS(pConfig->CSn,pConfig->CASLatency);
 558              		.loc 1 191 0
 559 044e 7B68     		ldr	r3, [r7, #4]
 560 0450 1B78     		ldrb	r3, [r3, #0]	@ zero_extendqisi2
 561 0452 1A46     		mov	r2, r3
 562 0454 7B68     		ldr	r3, [r7, #4]
 563 0456 5B7F     		ldrb	r3, [r3, #29]	@ zero_extendqisi2
 564 0458 1046     		mov	r0, r2
 565 045a 1946     		mov	r1, r3
 566 045c FFF7FEFF 		bl	EMC_DynMemCAS
 567 0460 0346     		mov	r3, r0
 568 0462 BA68     		ldr	r2, [r7, #8]
 569 0464 1343     		orrs	r3, r3, r2
 570 0466 BB60     		str	r3, [r7, #8]
 192:../src/lib/lpc177x_8x/Drivers/source/lpc177x_8x_emc.c **** 
 193:../src/lib/lpc177x_8x/Drivers/source/lpc177x_8x_emc.c ****     ret |= EMC_DynMemConfigMD(pConfig->CSn,EMC_DYNAMIC_CFG_MEMDEV_SDRAM);
 571              		.loc 1 193 0
 572 0468 7B68     		ldr	r3, [r7, #4]
 573 046a 1B78     		ldrb	r3, [r3, #0]	@ zero_extendqisi2
 574 046c 1846     		mov	r0, r3
 575 046e 4FF00001 		mov	r1, #0
 576 0472 FFF7FEFF 		bl	EMC_DynMemConfigMD
 577 0476 0346     		mov	r3, r0
 578 0478 BA68     		ldr	r2, [r7, #8]
 579 047a 1343     		orrs	r3, r3, r2
 580 047c BB60     		str	r3, [r7, #8]
 194:../src/lib/lpc177x_8x/Drivers/source/lpc177x_8x_emc.c ****     ret |= EMC_DynMemConfigAM(pConfig->CSn, pConfig->AddrBusWidth, pConfig->AddrMap, pConfig->DataW
 581              		.loc 1 194 0
 582 047e 7B68     		ldr	r3, [r7, #4]
 583 0480 1B78     		ldrb	r3, [r3, #0]	@ zero_extendqisi2
 584 0482 1846     		mov	r0, r3
 585 0484 7B68     		ldr	r3, [r7, #4]
 586 0486 D97A     		ldrb	r1, [r3, #11]	@ zero_extendqisi2
 587 0488 7B68     		ldr	r3, [r7, #4]
 588 048a 1A7B     		ldrb	r2, [r3, #12]	@ zero_extendqisi2
 589 048c 7B68     		ldr	r3, [r7, #4]
 590 048e 9B7A     		ldrb	r3, [r3, #10]	@ zero_extendqisi2
 591 0490 7C68     		ldr	r4, [r7, #4]
 592 0492 2489     		ldrh	r4, [r4, #8]
 593 0494 0094     		str	r4, [sp, #0]
 594 0496 FFF7FEFF 		bl	EMC_DynMemConfigAM
 595 049a 0346     		mov	r3, r0
 596 049c BA68     		ldr	r2, [r7, #8]
 597 049e 1343     		orrs	r3, r3, r2
 598 04a0 BB60     		str	r3, [r7, #8]
 195:../src/lib/lpc177x_8x/Drivers/source/lpc177x_8x_emc.c **** 
 196:../src/lib/lpc177x_8x/Drivers/source/lpc177x_8x_emc.c ****     return ret;
 599              		.loc 1 196 0
 600 04a2 BB68     		ldr	r3, [r7, #8]
 197:../src/lib/lpc177x_8x/Drivers/source/lpc177x_8x_emc.c **** }
 601              		.loc 1 197 0
 602 04a4 1846     		mov	r0, r3
 603 04a6 07F11407 		add	r7, r7, #20
 604 04aa BD46     		mov	sp, r7
 605 04ac 90BD     		pop	{r4, r7, pc}
 606              	.L18:
 607 04ae 00BF     		.align	2
 608              	.L17:
 609 04b0 00C00F40 		.word	1074774016
 610              		.cfi_endproc
 611              	.LFE58:
 613              		.align	2
 614              		.global	StaticMem_Init
 615              		.thumb
 616              		.thumb_func
 618              	StaticMem_Init:
 619              	.LFB59:
 198:../src/lib/lpc177x_8x/Drivers/source/lpc177x_8x_emc.c **** 
 199:../src/lib/lpc177x_8x/Drivers/source/lpc177x_8x_emc.c **** /*********************************************************************//**
 200:../src/lib/lpc177x_8x/Drivers/source/lpc177x_8x_emc.c ****  * @brief         Initialize external static memory
 201:../src/lib/lpc177x_8x/Drivers/source/lpc177x_8x_emc.c ****  * @param[in]    pConfig    Configuration
 202:../src/lib/lpc177x_8x/Drivers/source/lpc177x_8x_emc.c ****  * @return         EMC_FUNC_OK/EMC_FUNC_INVALID_PARAM/EMC_FUNC_ERR
 203:../src/lib/lpc177x_8x/Drivers/source/lpc177x_8x_emc.c ****  **********************************************************************/
 204:../src/lib/lpc177x_8x/Drivers/source/lpc177x_8x_emc.c **** EMC_FUNC_CODE StaticMem_Init(EMC_STATIC_MEM_Config_Type* pConfig)
 205:../src/lib/lpc177x_8x/Drivers/source/lpc177x_8x_emc.c **** {
 620              		.loc 1 205 0
 621              		.cfi_startproc
 622              		@ args = 0, pretend = 0, frame = 16
 623              		@ frame_needed = 1, uses_anonymous_args = 0
 624 04b4 80B5     		push	{r7, lr}
 625              	.LCFI11:
 626              		.cfi_def_cfa_offset 8
 627              		.cfi_offset 7, -8
 628              		.cfi_offset 14, -4
 629 04b6 84B0     		sub	sp, sp, #16
 630              	.LCFI12:
 631              		.cfi_def_cfa_offset 24
 632 04b8 00AF     		add	r7, sp, #0
 633              	.LCFI13:
 634              		.cfi_def_cfa_register 7
 635 04ba 7860     		str	r0, [r7, #4]
 206:../src/lib/lpc177x_8x/Drivers/source/lpc177x_8x_emc.c ****     uint32_t i;
 207:../src/lib/lpc177x_8x/Drivers/source/lpc177x_8x_emc.c ****     EMC_FUNC_CODE ret = EMC_FUNC_OK;
 636              		.loc 1 207 0
 637 04bc 4FF00003 		mov	r3, #0
 638 04c0 BB60     		str	r3, [r7, #8]
 208:../src/lib/lpc177x_8x/Drivers/source/lpc177x_8x_emc.c ****     /* Pin configuration:
 209:../src/lib/lpc177x_8x/Drivers/source/lpc177x_8x_emc.c ****     * P4.30 - /EMC_CS0
 210:../src/lib/lpc177x_8x/Drivers/source/lpc177x_8x_emc.c ****     * P4.31 - /EMC_CS1
 211:../src/lib/lpc177x_8x/Drivers/source/lpc177x_8x_emc.c ****     * P2.14 - /EMC_CS2
 212:../src/lib/lpc177x_8x/Drivers/source/lpc177x_8x_emc.c ****     * P2.15 - /EMC_CS3
 213:../src/lib/lpc177x_8x/Drivers/source/lpc177x_8x_emc.c ****     *
 214:../src/lib/lpc177x_8x/Drivers/source/lpc177x_8x_emc.c ****     *
 215:../src/lib/lpc177x_8x/Drivers/source/lpc177x_8x_emc.c ****     * P3.0-P3.31 - EMC_D[0-31]
 216:../src/lib/lpc177x_8x/Drivers/source/lpc177x_8x_emc.c ****     * P4.0-P4.23 - EMC_A[0-23]
 217:../src/lib/lpc177x_8x/Drivers/source/lpc177x_8x_emc.c ****     * P5.0-P5.1  - EMC_A[24-25]
 218:../src/lib/lpc177x_8x/Drivers/source/lpc177x_8x_emc.c ****     *
 219:../src/lib/lpc177x_8x/Drivers/source/lpc177x_8x_emc.c ****     * P4.24 - /EMC_OE
 220:../src/lib/lpc177x_8x/Drivers/source/lpc177x_8x_emc.c ****     * P4.25 - /EMC_WE
 221:../src/lib/lpc177x_8x/Drivers/source/lpc177x_8x_emc.c ****     *
 222:../src/lib/lpc177x_8x/Drivers/source/lpc177x_8x_emc.c **** 
 223:../src/lib/lpc177x_8x/Drivers/source/lpc177x_8x_emc.c ****     */
 224:../src/lib/lpc177x_8x/Drivers/source/lpc177x_8x_emc.c ****     PINSEL_ConfigPin(2,14,1);
 639              		.loc 1 224 0
 640 04c2 4FF00200 		mov	r0, #2
 641 04c6 4FF00E01 		mov	r1, #14
 642 04ca 4FF00102 		mov	r2, #1
 643 04ce FFF7FEFF 		bl	PINSEL_ConfigPin
 225:../src/lib/lpc177x_8x/Drivers/source/lpc177x_8x_emc.c ****     PINSEL_ConfigPin(2,15,1);
 644              		.loc 1 225 0
 645 04d2 4FF00200 		mov	r0, #2
 646 04d6 4FF00F01 		mov	r1, #15
 647 04da 4FF00102 		mov	r2, #1
 648 04de FFF7FEFF 		bl	PINSEL_ConfigPin
 226:../src/lib/lpc177x_8x/Drivers/source/lpc177x_8x_emc.c **** 
 227:../src/lib/lpc177x_8x/Drivers/source/lpc177x_8x_emc.c ****     for(i = 0; i < 32; i++)
 649              		.loc 1 227 0
 650 04e2 4FF00003 		mov	r3, #0
 651 04e6 FB60     		str	r3, [r7, #12]
 652 04e8 15E0     		b	.L20
 653              	.L21:
 228:../src/lib/lpc177x_8x/Drivers/source/lpc177x_8x_emc.c ****     {
 229:../src/lib/lpc177x_8x/Drivers/source/lpc177x_8x_emc.c ****         PINSEL_ConfigPin(3,i,1);
 654              		.loc 1 229 0 discriminator 2
 655 04ea FB68     		ldr	r3, [r7, #12]
 656 04ec DBB2     		uxtb	r3, r3
 657 04ee 4FF00300 		mov	r0, #3
 658 04f2 1946     		mov	r1, r3
 659 04f4 4FF00102 		mov	r2, #1
 660 04f8 FFF7FEFF 		bl	PINSEL_ConfigPin
 230:../src/lib/lpc177x_8x/Drivers/source/lpc177x_8x_emc.c ****         PINSEL_ConfigPin(4,i,1);
 661              		.loc 1 230 0 discriminator 2
 662 04fc FB68     		ldr	r3, [r7, #12]
 663 04fe DBB2     		uxtb	r3, r3
 664 0500 4FF00400 		mov	r0, #4
 665 0504 1946     		mov	r1, r3
 666 0506 4FF00102 		mov	r2, #1
 667 050a FFF7FEFF 		bl	PINSEL_ConfigPin
 227:../src/lib/lpc177x_8x/Drivers/source/lpc177x_8x_emc.c ****     for(i = 0; i < 32; i++)
 668              		.loc 1 227 0 discriminator 2
 669 050e FB68     		ldr	r3, [r7, #12]
 670 0510 03F10103 		add	r3, r3, #1
 671 0514 FB60     		str	r3, [r7, #12]
 672              	.L20:
 227:../src/lib/lpc177x_8x/Drivers/source/lpc177x_8x_emc.c ****     for(i = 0; i < 32; i++)
 673              		.loc 1 227 0 is_stmt 0 discriminator 1
 674 0516 FB68     		ldr	r3, [r7, #12]
 675 0518 1F2B     		cmp	r3, #31
 676 051a E6D9     		bls	.L21
 231:../src/lib/lpc177x_8x/Drivers/source/lpc177x_8x_emc.c ****     }
 232:../src/lib/lpc177x_8x/Drivers/source/lpc177x_8x_emc.c ****     PINSEL_ConfigPin(5,0,1);
 677              		.loc 1 232 0 is_stmt 1
 678 051c 4FF00500 		mov	r0, #5
 679 0520 4FF00001 		mov	r1, #0
 680 0524 4FF00102 		mov	r2, #1
 681 0528 FFF7FEFF 		bl	PINSEL_ConfigPin
 233:../src/lib/lpc177x_8x/Drivers/source/lpc177x_8x_emc.c ****     PINSEL_ConfigPin(5,1,1);
 682              		.loc 1 233 0
 683 052c 4FF00500 		mov	r0, #5
 684 0530 4FF00101 		mov	r1, #1
 685 0534 4FF00102 		mov	r2, #1
 686 0538 FFF7FEFF 		bl	PINSEL_ConfigPin
 234:../src/lib/lpc177x_8x/Drivers/source/lpc177x_8x_emc.c **** 
 235:../src/lib/lpc177x_8x/Drivers/source/lpc177x_8x_emc.c ****     // Power On
 236:../src/lib/lpc177x_8x/Drivers/source/lpc177x_8x_emc.c ****     ret |= EMC_PwrOn();
 687              		.loc 1 236 0
 688 053c FFF7FEFF 		bl	EMC_PwrOn
 689 0540 0346     		mov	r3, r0
 690 0542 BA68     		ldr	r2, [r7, #8]
 691 0544 1343     		orrs	r3, r3, r2
 692 0546 BB60     		str	r3, [r7, #8]
 237:../src/lib/lpc177x_8x/Drivers/source/lpc177x_8x_emc.c **** 
 238:../src/lib/lpc177x_8x/Drivers/source/lpc177x_8x_emc.c ****     // Configuration
 239:../src/lib/lpc177x_8x/Drivers/source/lpc177x_8x_emc.c ****     if(pConfig->AddressMirror)
 693              		.loc 1 239 0
 694 0548 7B68     		ldr	r3, [r7, #4]
 695 054a 5B79     		ldrb	r3, [r3, #5]	@ zero_extendqisi2
 696 054c 002B     		cmp	r3, #0
 697 054e 05D0     		beq	.L22
 240:../src/lib/lpc177x_8x/Drivers/source/lpc177x_8x_emc.c ****     {
 241:../src/lib/lpc177x_8x/Drivers/source/lpc177x_8x_emc.c ****         LPC_EMC->Control |= EMC_Control_M;
 698              		.loc 1 241 0
 699 0550 614B     		ldr	r3, .L30
 700 0552 614A     		ldr	r2, .L30
 701 0554 1268     		ldr	r2, [r2, #0]
 702 0556 42F00202 		orr	r2, r2, #2
 703 055a 1A60     		str	r2, [r3, #0]
 704              	.L22:
 242:../src/lib/lpc177x_8x/Drivers/source/lpc177x_8x_emc.c ****     }
 243:../src/lib/lpc177x_8x/Drivers/source/lpc177x_8x_emc.c **** 
 244:../src/lib/lpc177x_8x/Drivers/source/lpc177x_8x_emc.c ****      ret |= EMC_StaMemConfigMW(pConfig->CSn,pConfig->DataWidth);
 705              		.loc 1 244 0
 706 055c 7B68     		ldr	r3, [r7, #4]
 707 055e 1B78     		ldrb	r3, [r3, #0]	@ zero_extendqisi2
 708 0560 1A46     		mov	r2, r3
 709 0562 7B68     		ldr	r3, [r7, #4]
 710 0564 5B78     		ldrb	r3, [r3, #1]	@ zero_extendqisi2
 711 0566 1046     		mov	r0, r2
 712 0568 1946     		mov	r1, r3
 713 056a FFF7FEFF 		bl	EMC_StaMemConfigMW
 714 056e 0346     		mov	r3, r0
 715 0570 BA68     		ldr	r2, [r7, #8]
 716 0572 1343     		orrs	r3, r3, r2
 717 0574 BB60     		str	r3, [r7, #8]
 245:../src/lib/lpc177x_8x/Drivers/source/lpc177x_8x_emc.c ****     
 246:../src/lib/lpc177x_8x/Drivers/source/lpc177x_8x_emc.c ****     if(pConfig->PageMode)
 718              		.loc 1 246 0
 719 0576 7B68     		ldr	r3, [r7, #4]
 720 0578 9B78     		ldrb	r3, [r3, #2]	@ zero_extendqisi2
 721 057a 002B     		cmp	r3, #0
 722 057c 0BD0     		beq	.L23
 247:../src/lib/lpc177x_8x/Drivers/source/lpc177x_8x_emc.c ****          ret |= EMC_StaMemConfigPM(pConfig->CSn,EMC_CFG_PM_ASYNC_ENABLE);
 723              		.loc 1 247 0
 724 057e 7B68     		ldr	r3, [r7, #4]
 725 0580 1B78     		ldrb	r3, [r3, #0]	@ zero_extendqisi2
 726 0582 1846     		mov	r0, r3
 727 0584 4FF00801 		mov	r1, #8
 728 0588 FFF7FEFF 		bl	EMC_StaMemConfigPM
 729 058c 0346     		mov	r3, r0
 730 058e BA68     		ldr	r2, [r7, #8]
 731 0590 1343     		orrs	r3, r3, r2
 732 0592 BB60     		str	r3, [r7, #8]
 733 0594 0AE0     		b	.L24
 734              	.L23:
 248:../src/lib/lpc177x_8x/Drivers/source/lpc177x_8x_emc.c ****     else
 249:../src/lib/lpc177x_8x/Drivers/source/lpc177x_8x_emc.c ****          ret |= EMC_StaMemConfigPM(pConfig->CSn,EMC_CFG_PM_DISABLE);
 735              		.loc 1 249 0
 736 0596 7B68     		ldr	r3, [r7, #4]
 737 0598 1B78     		ldrb	r3, [r3, #0]	@ zero_extendqisi2
 738 059a 1846     		mov	r0, r3
 739 059c 4FF00001 		mov	r1, #0
 740 05a0 FFF7FEFF 		bl	EMC_StaMemConfigPM
 741 05a4 0346     		mov	r3, r0
 742 05a6 BA68     		ldr	r2, [r7, #8]
 743 05a8 1343     		orrs	r3, r3, r2
 744 05aa BB60     		str	r3, [r7, #8]
 745              	.L24:
 250:../src/lib/lpc177x_8x/Drivers/source/lpc177x_8x_emc.c **** 
 251:../src/lib/lpc177x_8x/Drivers/source/lpc177x_8x_emc.c ****     if(pConfig->ByteLane)
 746              		.loc 1 251 0
 747 05ac 7B68     		ldr	r3, [r7, #4]
 748 05ae DB78     		ldrb	r3, [r3, #3]	@ zero_extendqisi2
 749 05b0 002B     		cmp	r3, #0
 750 05b2 0BD0     		beq	.L25
 252:../src/lib/lpc177x_8x/Drivers/source/lpc177x_8x_emc.c ****          ret |= EMC_StaMemConfigPB(pConfig->CSn, EMC_CFG_BYTELAND_READ_BITSLOW);
 751              		.loc 1 252 0
 752 05b4 7B68     		ldr	r3, [r7, #4]
 753 05b6 1B78     		ldrb	r3, [r3, #0]	@ zero_extendqisi2
 754 05b8 1846     		mov	r0, r3
 755 05ba 4FF08001 		mov	r1, #128
 756 05be FFF7FEFF 		bl	EMC_StaMemConfigPB
 757 05c2 0346     		mov	r3, r0
 758 05c4 BA68     		ldr	r2, [r7, #8]
 759 05c6 1343     		orrs	r3, r3, r2
 760 05c8 BB60     		str	r3, [r7, #8]
 761 05ca 0AE0     		b	.L26
 762              	.L25:
 253:../src/lib/lpc177x_8x/Drivers/source/lpc177x_8x_emc.c ****     else
 254:../src/lib/lpc177x_8x/Drivers/source/lpc177x_8x_emc.c ****          ret |= EMC_StaMemConfigPB(pConfig->CSn, EMC_CFG_BYTELAND_READ_BITSHIGH);
 763              		.loc 1 254 0
 764 05cc 7B68     		ldr	r3, [r7, #4]
 765 05ce 1B78     		ldrb	r3, [r3, #0]	@ zero_extendqisi2
 766 05d0 1846     		mov	r0, r3
 767 05d2 4FF00001 		mov	r1, #0
 768 05d6 FFF7FEFF 		bl	EMC_StaMemConfigPB
 769 05da 0346     		mov	r3, r0
 770 05dc BA68     		ldr	r2, [r7, #8]
 771 05de 1343     		orrs	r3, r3, r2
 772 05e0 BB60     		str	r3, [r7, #8]
 773              	.L26:
 255:../src/lib/lpc177x_8x/Drivers/source/lpc177x_8x_emc.c **** 
 256:../src/lib/lpc177x_8x/Drivers/source/lpc177x_8x_emc.c ****     if(pConfig->ExtendedWait)
 774              		.loc 1 256 0
 775 05e2 7B68     		ldr	r3, [r7, #4]
 776 05e4 1B79     		ldrb	r3, [r3, #4]	@ zero_extendqisi2
 777 05e6 002B     		cmp	r3, #0
 778 05e8 0BD0     		beq	.L27
 257:../src/lib/lpc177x_8x/Drivers/source/lpc177x_8x_emc.c ****          ret |= EMC_StaMemConfigEW(pConfig->CSn,EMC_CFG_EW_ENABLED);
 779              		.loc 1 257 0
 780 05ea 7B68     		ldr	r3, [r7, #4]
 781 05ec 1B78     		ldrb	r3, [r3, #0]	@ zero_extendqisi2
 782 05ee 1846     		mov	r0, r3
 783 05f0 4FF48071 		mov	r1, #256
 784 05f4 FFF7FEFF 		bl	EMC_StaMemConfigEW
 785 05f8 0346     		mov	r3, r0
 786 05fa BA68     		ldr	r2, [r7, #8]
 787 05fc 1343     		orrs	r3, r3, r2
 788 05fe BB60     		str	r3, [r7, #8]
 789 0600 0AE0     		b	.L28
 790              	.L27:
 258:../src/lib/lpc177x_8x/Drivers/source/lpc177x_8x_emc.c ****     else
 259:../src/lib/lpc177x_8x/Drivers/source/lpc177x_8x_emc.c ****          ret |= EMC_StaMemConfigEW(pConfig->CSn,EMC_CFG_EW_DISABLED);
 791              		.loc 1 259 0
 792 0602 7B68     		ldr	r3, [r7, #4]
 793 0604 1B78     		ldrb	r3, [r3, #0]	@ zero_extendqisi2
 794 0606 1846     		mov	r0, r3
 795 0608 4FF00001 		mov	r1, #0
 796 060c FFF7FEFF 		bl	EMC_StaMemConfigEW
 797 0610 0346     		mov	r3, r0
 798 0612 BA68     		ldr	r2, [r7, #8]
 799 0614 1343     		orrs	r3, r3, r2
 800 0616 BB60     		str	r3, [r7, #8]
 801              	.L28:
 260:../src/lib/lpc177x_8x/Drivers/source/lpc177x_8x_emc.c **** 
 261:../src/lib/lpc177x_8x/Drivers/source/lpc177x_8x_emc.c ****     // Timing
 262:../src/lib/lpc177x_8x/Drivers/source/lpc177x_8x_emc.c ****      ret |= EMC_SetStaMemoryParameter(pConfig->CSn,EMC_STA_MEM_WAITWEN, pConfig->WaitWEn);
 802              		.loc 1 262 0
 803 0618 7B68     		ldr	r3, [r7, #4]
 804 061a 1B78     		ldrb	r3, [r3, #0]	@ zero_extendqisi2
 805 061c 1A46     		mov	r2, r3
 806 061e 7B68     		ldr	r3, [r7, #4]
 807 0620 9B79     		ldrb	r3, [r3, #6]	@ zero_extendqisi2
 808 0622 1046     		mov	r0, r2
 809 0624 4FF00001 		mov	r1, #0
 810 0628 1A46     		mov	r2, r3
 811 062a FFF7FEFF 		bl	EMC_SetStaMemoryParameter
 812 062e 0346     		mov	r3, r0
 813 0630 BA68     		ldr	r2, [r7, #8]
 814 0632 1343     		orrs	r3, r3, r2
 815 0634 BB60     		str	r3, [r7, #8]
 263:../src/lib/lpc177x_8x/Drivers/source/lpc177x_8x_emc.c ****      ret |= EMC_SetStaMemoryParameter(pConfig->CSn,EMC_STA_MEM_WAITOEN, pConfig->WaitOEn);
 816              		.loc 1 263 0
 817 0636 7B68     		ldr	r3, [r7, #4]
 818 0638 1B78     		ldrb	r3, [r3, #0]	@ zero_extendqisi2
 819 063a 1A46     		mov	r2, r3
 820 063c 7B68     		ldr	r3, [r7, #4]
 821 063e DB79     		ldrb	r3, [r3, #7]	@ zero_extendqisi2
 822 0640 1046     		mov	r0, r2
 823 0642 4FF00101 		mov	r1, #1
 824 0646 1A46     		mov	r2, r3
 825 0648 FFF7FEFF 		bl	EMC_SetStaMemoryParameter
 826 064c 0346     		mov	r3, r0
 827 064e BA68     		ldr	r2, [r7, #8]
 828 0650 1343     		orrs	r3, r3, r2
 829 0652 BB60     		str	r3, [r7, #8]
 264:../src/lib/lpc177x_8x/Drivers/source/lpc177x_8x_emc.c ****      ret |= EMC_SetStaMemoryParameter(pConfig->CSn,EMC_STA_MEM_WAITRD, pConfig->WaitRd);
 830              		.loc 1 264 0
 831 0654 7B68     		ldr	r3, [r7, #4]
 832 0656 1B78     		ldrb	r3, [r3, #0]	@ zero_extendqisi2
 833 0658 1A46     		mov	r2, r3
 834 065a 7B68     		ldr	r3, [r7, #4]
 835 065c 1B7A     		ldrb	r3, [r3, #8]	@ zero_extendqisi2
 836 065e 1046     		mov	r0, r2
 837 0660 4FF00201 		mov	r1, #2
 838 0664 1A46     		mov	r2, r3
 839 0666 FFF7FEFF 		bl	EMC_SetStaMemoryParameter
 840 066a 0346     		mov	r3, r0
 841 066c BA68     		ldr	r2, [r7, #8]
 842 066e 1343     		orrs	r3, r3, r2
 843 0670 BB60     		str	r3, [r7, #8]
 265:../src/lib/lpc177x_8x/Drivers/source/lpc177x_8x_emc.c ****      ret |= EMC_SetStaMemoryParameter(pConfig->CSn,EMC_STA_MEM_WAITPAGE, pConfig->WaitPage);
 844              		.loc 1 265 0
 845 0672 7B68     		ldr	r3, [r7, #4]
 846 0674 1B78     		ldrb	r3, [r3, #0]	@ zero_extendqisi2
 847 0676 1A46     		mov	r2, r3
 848 0678 7B68     		ldr	r3, [r7, #4]
 849 067a 5B7A     		ldrb	r3, [r3, #9]	@ zero_extendqisi2
 850 067c 1046     		mov	r0, r2
 851 067e 4FF00301 		mov	r1, #3
 852 0682 1A46     		mov	r2, r3
 853 0684 FFF7FEFF 		bl	EMC_SetStaMemoryParameter
 854 0688 0346     		mov	r3, r0
 855 068a BA68     		ldr	r2, [r7, #8]
 856 068c 1343     		orrs	r3, r3, r2
 857 068e BB60     		str	r3, [r7, #8]
 266:../src/lib/lpc177x_8x/Drivers/source/lpc177x_8x_emc.c ****      ret |= EMC_SetStaMemoryParameter(pConfig->CSn,EMC_STA_MEM_WAITWR, pConfig->WaitWr);
 858              		.loc 1 266 0
 859 0690 7B68     		ldr	r3, [r7, #4]
 860 0692 1B78     		ldrb	r3, [r3, #0]	@ zero_extendqisi2
 861 0694 1A46     		mov	r2, r3
 862 0696 7B68     		ldr	r3, [r7, #4]
 863 0698 9B7A     		ldrb	r3, [r3, #10]	@ zero_extendqisi2
 864 069a 1046     		mov	r0, r2
 865 069c 4FF00401 		mov	r1, #4
 866 06a0 1A46     		mov	r2, r3
 867 06a2 FFF7FEFF 		bl	EMC_SetStaMemoryParameter
 868 06a6 0346     		mov	r3, r0
 869 06a8 BA68     		ldr	r2, [r7, #8]
 870 06aa 1343     		orrs	r3, r3, r2
 871 06ac BB60     		str	r3, [r7, #8]
 267:../src/lib/lpc177x_8x/Drivers/source/lpc177x_8x_emc.c ****      ret |= EMC_SetStaMemoryParameter(pConfig->CSn,EMC_STA_MEM_WAITTURN, pConfig->WaitTurn);
 872              		.loc 1 267 0
 873 06ae 7B68     		ldr	r3, [r7, #4]
 874 06b0 1B78     		ldrb	r3, [r3, #0]	@ zero_extendqisi2
 875 06b2 1A46     		mov	r2, r3
 876 06b4 7B68     		ldr	r3, [r7, #4]
 877 06b6 DB7A     		ldrb	r3, [r3, #11]	@ zero_extendqisi2
 878 06b8 1046     		mov	r0, r2
 879 06ba 4FF00501 		mov	r1, #5
 880 06be 1A46     		mov	r2, r3
 881 06c0 FFF7FEFF 		bl	EMC_SetStaMemoryParameter
 882 06c4 0346     		mov	r3, r0
 883 06c6 BA68     		ldr	r2, [r7, #8]
 884 06c8 1343     		orrs	r3, r3, r2
 885 06ca BB60     		str	r3, [r7, #8]
 268:../src/lib/lpc177x_8x/Drivers/source/lpc177x_8x_emc.c **** 
 269:../src/lib/lpc177x_8x/Drivers/source/lpc177x_8x_emc.c **** 
 270:../src/lib/lpc177x_8x/Drivers/source/lpc177x_8x_emc.c ****     return ret;
 886              		.loc 1 270 0
 887 06cc BB68     		ldr	r3, [r7, #8]
 271:../src/lib/lpc177x_8x/Drivers/source/lpc177x_8x_emc.c **** }
 888              		.loc 1 271 0
 889 06ce 1846     		mov	r0, r3
 890 06d0 07F11007 		add	r7, r7, #16
 891 06d4 BD46     		mov	sp, r7
 892 06d6 80BD     		pop	{r7, pc}
 893              	.L31:
 894              		.align	2
 895              	.L30:
 896 06d8 00C00920 		.word	537509888
 897              		.cfi_endproc
 898              	.LFE59:
 900              		.align	2
 901              		.global	EMC_Init
 902              		.thumb
 903              		.thumb_func
 905              	EMC_Init:
 906              	.LFB60:
 272:../src/lib/lpc177x_8x/Drivers/source/lpc177x_8x_emc.c **** 
 273:../src/lib/lpc177x_8x/Drivers/source/lpc177x_8x_emc.c **** /*********************************************************************//**
 274:../src/lib/lpc177x_8x/Drivers/source/lpc177x_8x_emc.c ****  * @brief         EMC initialize (power on block, config EMC pins).
 275:../src/lib/lpc177x_8x/Drivers/source/lpc177x_8x_emc.c ****  * @param[in]    None
 276:../src/lib/lpc177x_8x/Drivers/source/lpc177x_8x_emc.c ****  * @return         None
 277:../src/lib/lpc177x_8x/Drivers/source/lpc177x_8x_emc.c ****  **********************************************************************/
 278:../src/lib/lpc177x_8x/Drivers/source/lpc177x_8x_emc.c **** EMC_FUNC_CODE EMC_Init(void)
 279:../src/lib/lpc177x_8x/Drivers/source/lpc177x_8x_emc.c **** {
 907              		.loc 1 279 0
 908              		.cfi_startproc
 909              		@ args = 0, pretend = 0, frame = 8
 910              		@ frame_needed = 1, uses_anonymous_args = 0
 911 06dc 80B5     		push	{r7, lr}
 912              	.LCFI14:
 913              		.cfi_def_cfa_offset 8
 914              		.cfi_offset 7, -8
 915              		.cfi_offset 14, -4
 916 06de 82B0     		sub	sp, sp, #8
 917              	.LCFI15:
 918              		.cfi_def_cfa_offset 16
 919 06e0 00AF     		add	r7, sp, #0
 920              	.LCFI16:
 921              		.cfi_def_cfa_register 7
 280:../src/lib/lpc177x_8x/Drivers/source/lpc177x_8x_emc.c ****     uint8_t i;
 281:../src/lib/lpc177x_8x/Drivers/source/lpc177x_8x_emc.c ****     // If CPU clock is > 80 MHz, then divide it by two to create the EMC clock
 282:../src/lib/lpc177x_8x/Drivers/source/lpc177x_8x_emc.c ****     if(CLKPWR_GetCLK(CLKPWR_CLKTYPE_CPU) > 80000000) {
 922              		.loc 1 282 0
 923 06e2 4FF00000 		mov	r0, #0
 924 06e6 FFF7FEFF 		bl	CLKPWR_GetCLK
 925 06ea 0246     		mov	r2, r0
 926 06ec 734B     		ldr	r3, .L38
 927 06ee 9A42     		cmp	r2, r3
 928 06f0 06D9     		bls	.L33
 283:../src/lib/lpc177x_8x/Drivers/source/lpc177x_8x_emc.c ****         CLKPWR_SetCLKDiv(CLKPWR_CLKTYPE_EMC, 1); // CPU clock / 2
 929              		.loc 1 283 0
 930 06f2 4FF00200 		mov	r0, #2
 931 06f6 4FF00101 		mov	r1, #1
 932 06fa FFF7FEFF 		bl	CLKPWR_SetCLKDiv
 933 06fe 05E0     		b	.L34
 934              	.L33:
 284:../src/lib/lpc177x_8x/Drivers/source/lpc177x_8x_emc.c ****     } else {
 285:../src/lib/lpc177x_8x/Drivers/source/lpc177x_8x_emc.c ****         CLKPWR_SetCLKDiv(CLKPWR_CLKTYPE_EMC, 0); // Same clock as CPU
 935              		.loc 1 285 0
 936 0700 4FF00200 		mov	r0, #2
 937 0704 4FF00001 		mov	r1, #0
 938 0708 FFF7FEFF 		bl	CLKPWR_SetCLKDiv
 939              	.L34:
 286:../src/lib/lpc177x_8x/Drivers/source/lpc177x_8x_emc.c ****     }
 287:../src/lib/lpc177x_8x/Drivers/source/lpc177x_8x_emc.c **** 
 288:../src/lib/lpc177x_8x/Drivers/source/lpc177x_8x_emc.c ****     LPC_SC->PCONP       |= 0x00000800;
 940              		.loc 1 288 0
 941 070c 6C4B     		ldr	r3, .L38+4
 942 070e 6C4A     		ldr	r2, .L38+4
 943 0710 D2F8C420 		ldr	r2, [r2, #196]
 944 0714 42F40062 		orr	r2, r2, #2048
 945 0718 C3F8C420 		str	r2, [r3, #196]
 289:../src/lib/lpc177x_8x/Drivers/source/lpc177x_8x_emc.c ****     LPC_SC->EMCDLYCTL   = 0x00001010;
 946              		.loc 1 289 0
 947 071c 684B     		ldr	r3, .L38+4
 948 071e 41F21002 		movw	r2, #4112
 949 0722 C3F8DC21 		str	r2, [r3, #476]
 290:../src/lib/lpc177x_8x/Drivers/source/lpc177x_8x_emc.c ****     LPC_EMC->Control     = 0x00000001;
 950              		.loc 1 290 0
 951 0726 674B     		ldr	r3, .L38+8
 952 0728 4FF00102 		mov	r2, #1
 953 072c 1A60     		str	r2, [r3, #0]
 291:../src/lib/lpc177x_8x/Drivers/source/lpc177x_8x_emc.c ****     LPC_EMC->Config      = 0x00000000;
 954              		.loc 1 291 0
 955 072e 654B     		ldr	r3, .L38+8
 956 0730 4FF00002 		mov	r2, #0
 957 0734 9A60     		str	r2, [r3, #8]
 292:../src/lib/lpc177x_8x/Drivers/source/lpc177x_8x_emc.c **** 
 293:../src/lib/lpc177x_8x/Drivers/source/lpc177x_8x_emc.c ****     /* Pin configuration:
 294:../src/lib/lpc177x_8x/Drivers/source/lpc177x_8x_emc.c ****     * P2.14 - /EMC_CS2
 295:../src/lib/lpc177x_8x/Drivers/source/lpc177x_8x_emc.c ****     * P2.15 - /EMC_CS3
 296:../src/lib/lpc177x_8x/Drivers/source/lpc177x_8x_emc.c ****     *
 297:../src/lib/lpc177x_8x/Drivers/source/lpc177x_8x_emc.c ****     * P2.16 - /EMC_CAS
 298:../src/lib/lpc177x_8x/Drivers/source/lpc177x_8x_emc.c ****     * P2.17 - /EMC_RAS
 299:../src/lib/lpc177x_8x/Drivers/source/lpc177x_8x_emc.c ****     * P2.18 - EMC_CLK[0]
 300:../src/lib/lpc177x_8x/Drivers/source/lpc177x_8x_emc.c ****     * P2.19 - EMC_CLK[1]
 301:../src/lib/lpc177x_8x/Drivers/source/lpc177x_8x_emc.c ****     *
 302:../src/lib/lpc177x_8x/Drivers/source/lpc177x_8x_emc.c ****     * P2.20 - EMC_DYCS0
 303:../src/lib/lpc177x_8x/Drivers/source/lpc177x_8x_emc.c ****     * P2.21 - EMC_DYCS1
 304:../src/lib/lpc177x_8x/Drivers/source/lpc177x_8x_emc.c ****     * P2.22 - EMC_DYCS2
 305:../src/lib/lpc177x_8x/Drivers/source/lpc177x_8x_emc.c ****     * P2.23 - EMC_DYCS3
 306:../src/lib/lpc177x_8x/Drivers/source/lpc177x_8x_emc.c ****     *
 307:../src/lib/lpc177x_8x/Drivers/source/lpc177x_8x_emc.c ****     * P2.24 - EMC_CKE0
 308:../src/lib/lpc177x_8x/Drivers/source/lpc177x_8x_emc.c ****     * P2.25 - EMC_CKE1
 309:../src/lib/lpc177x_8x/Drivers/source/lpc177x_8x_emc.c ****     * P2.26 - EMC_CKE2
 310:../src/lib/lpc177x_8x/Drivers/source/lpc177x_8x_emc.c ****     * P2.27 - EMC_CKE3
 311:../src/lib/lpc177x_8x/Drivers/source/lpc177x_8x_emc.c ****     *
 312:../src/lib/lpc177x_8x/Drivers/source/lpc177x_8x_emc.c ****     * P2.28 - EMC_DQM0
 313:../src/lib/lpc177x_8x/Drivers/source/lpc177x_8x_emc.c ****     * P2.29 - EMC_DQM1
 314:../src/lib/lpc177x_8x/Drivers/source/lpc177x_8x_emc.c ****     * P2.30 - EMC_DQM2
 315:../src/lib/lpc177x_8x/Drivers/source/lpc177x_8x_emc.c ****     * P2.31 - EMC_DQM3
 316:../src/lib/lpc177x_8x/Drivers/source/lpc177x_8x_emc.c ****     *
 317:../src/lib/lpc177x_8x/Drivers/source/lpc177x_8x_emc.c ****     * P3.0-P3.31 - EMC_D[0-31]
 318:../src/lib/lpc177x_8x/Drivers/source/lpc177x_8x_emc.c ****     * P4.0-P4.23 - EMC_A[0-23]
 319:../src/lib/lpc177x_8x/Drivers/source/lpc177x_8x_emc.c ****      * P5.0-P5.1  - EMC_A[24-25]
 320:../src/lib/lpc177x_8x/Drivers/source/lpc177x_8x_emc.c ****     *
 321:../src/lib/lpc177x_8x/Drivers/source/lpc177x_8x_emc.c ****     * P4.24 - /EMC_OE
 322:../src/lib/lpc177x_8x/Drivers/source/lpc177x_8x_emc.c ****     * P4.25 - /EMC_WE
 323:../src/lib/lpc177x_8x/Drivers/source/lpc177x_8x_emc.c ****     *
 324:../src/lib/lpc177x_8x/Drivers/source/lpc177x_8x_emc.c ****     * P4.30 - /EMC_CS0
 325:../src/lib/lpc177x_8x/Drivers/source/lpc177x_8x_emc.c ****     * P4.31 - /EMC_CS1
 326:../src/lib/lpc177x_8x/Drivers/source/lpc177x_8x_emc.c ****     */
 327:../src/lib/lpc177x_8x/Drivers/source/lpc177x_8x_emc.c ****     PINSEL_ConfigPin(2,14,1);
 958              		.loc 1 327 0
 959 0736 4FF00200 		mov	r0, #2
 960 073a 4FF00E01 		mov	r1, #14
 961 073e 4FF00102 		mov	r2, #1
 962 0742 FFF7FEFF 		bl	PINSEL_ConfigPin
 328:../src/lib/lpc177x_8x/Drivers/source/lpc177x_8x_emc.c ****     PINSEL_ConfigPin(2,15,1);
 963              		.loc 1 328 0
 964 0746 4FF00200 		mov	r0, #2
 965 074a 4FF00F01 		mov	r1, #15
 966 074e 4FF00102 		mov	r2, #1
 967 0752 FFF7FEFF 		bl	PINSEL_ConfigPin
 329:../src/lib/lpc177x_8x/Drivers/source/lpc177x_8x_emc.c ****     PINSEL_ConfigPin(2,16,1);
 968              		.loc 1 329 0
 969 0756 4FF00200 		mov	r0, #2
 970 075a 4FF01001 		mov	r1, #16
 971 075e 4FF00102 		mov	r2, #1
 972 0762 FFF7FEFF 		bl	PINSEL_ConfigPin
 330:../src/lib/lpc177x_8x/Drivers/source/lpc177x_8x_emc.c ****     PINSEL_ConfigPin(2,17,1);
 973              		.loc 1 330 0
 974 0766 4FF00200 		mov	r0, #2
 975 076a 4FF01101 		mov	r1, #17
 976 076e 4FF00102 		mov	r2, #1
 977 0772 FFF7FEFF 		bl	PINSEL_ConfigPin
 331:../src/lib/lpc177x_8x/Drivers/source/lpc177x_8x_emc.c ****     PINSEL_ConfigPin(2,18,1);
 978              		.loc 1 331 0
 979 0776 4FF00200 		mov	r0, #2
 980 077a 4FF01201 		mov	r1, #18
 981 077e 4FF00102 		mov	r2, #1
 982 0782 FFF7FEFF 		bl	PINSEL_ConfigPin
 332:../src/lib/lpc177x_8x/Drivers/source/lpc177x_8x_emc.c ****     PINSEL_ConfigPin(2,19,1);
 983              		.loc 1 332 0
 984 0786 4FF00200 		mov	r0, #2
 985 078a 4FF01301 		mov	r1, #19
 986 078e 4FF00102 		mov	r2, #1
 987 0792 FFF7FEFF 		bl	PINSEL_ConfigPin
 333:../src/lib/lpc177x_8x/Drivers/source/lpc177x_8x_emc.c ****     PINSEL_ConfigPin(2,20,1);
 988              		.loc 1 333 0
 989 0796 4FF00200 		mov	r0, #2
 990 079a 4FF01401 		mov	r1, #20
 991 079e 4FF00102 		mov	r2, #1
 992 07a2 FFF7FEFF 		bl	PINSEL_ConfigPin
 334:../src/lib/lpc177x_8x/Drivers/source/lpc177x_8x_emc.c ****     PINSEL_ConfigPin(2,21,1);
 993              		.loc 1 334 0
 994 07a6 4FF00200 		mov	r0, #2
 995 07aa 4FF01501 		mov	r1, #21
 996 07ae 4FF00102 		mov	r2, #1
 997 07b2 FFF7FEFF 		bl	PINSEL_ConfigPin
 335:../src/lib/lpc177x_8x/Drivers/source/lpc177x_8x_emc.c ****     PINSEL_ConfigPin(2,22,1);
 998              		.loc 1 335 0
 999 07b6 4FF00200 		mov	r0, #2
 1000 07ba 4FF01601 		mov	r1, #22
 1001 07be 4FF00102 		mov	r2, #1
 1002 07c2 FFF7FEFF 		bl	PINSEL_ConfigPin
 336:../src/lib/lpc177x_8x/Drivers/source/lpc177x_8x_emc.c ****     PINSEL_ConfigPin(2,23,1);
 1003              		.loc 1 336 0
 1004 07c6 4FF00200 		mov	r0, #2
 1005 07ca 4FF01701 		mov	r1, #23
 1006 07ce 4FF00102 		mov	r2, #1
 1007 07d2 FFF7FEFF 		bl	PINSEL_ConfigPin
 337:../src/lib/lpc177x_8x/Drivers/source/lpc177x_8x_emc.c ****     PINSEL_ConfigPin(2,24,1);
 1008              		.loc 1 337 0
 1009 07d6 4FF00200 		mov	r0, #2
 1010 07da 4FF01801 		mov	r1, #24
 1011 07de 4FF00102 		mov	r2, #1
 1012 07e2 FFF7FEFF 		bl	PINSEL_ConfigPin
 338:../src/lib/lpc177x_8x/Drivers/source/lpc177x_8x_emc.c ****     PINSEL_ConfigPin(2,25,1);
 1013              		.loc 1 338 0
 1014 07e6 4FF00200 		mov	r0, #2
 1015 07ea 4FF01901 		mov	r1, #25
 1016 07ee 4FF00102 		mov	r2, #1
 1017 07f2 FFF7FEFF 		bl	PINSEL_ConfigPin
 339:../src/lib/lpc177x_8x/Drivers/source/lpc177x_8x_emc.c ****     PINSEL_ConfigPin(2,26,1);
 1018              		.loc 1 339 0
 1019 07f6 4FF00200 		mov	r0, #2
 1020 07fa 4FF01A01 		mov	r1, #26
 1021 07fe 4FF00102 		mov	r2, #1
 1022 0802 FFF7FEFF 		bl	PINSEL_ConfigPin
 340:../src/lib/lpc177x_8x/Drivers/source/lpc177x_8x_emc.c ****     PINSEL_ConfigPin(2,27,1);
 1023              		.loc 1 340 0
 1024 0806 4FF00200 		mov	r0, #2
 1025 080a 4FF01B01 		mov	r1, #27
 1026 080e 4FF00102 		mov	r2, #1
 1027 0812 FFF7FEFF 		bl	PINSEL_ConfigPin
 341:../src/lib/lpc177x_8x/Drivers/source/lpc177x_8x_emc.c ****     PINSEL_ConfigPin(2,28,1);
 1028              		.loc 1 341 0
 1029 0816 4FF00200 		mov	r0, #2
 1030 081a 4FF01C01 		mov	r1, #28
 1031 081e 4FF00102 		mov	r2, #1
 1032 0822 FFF7FEFF 		bl	PINSEL_ConfigPin
 342:../src/lib/lpc177x_8x/Drivers/source/lpc177x_8x_emc.c ****     PINSEL_ConfigPin(2,29,1);
 1033              		.loc 1 342 0
 1034 0826 4FF00200 		mov	r0, #2
 1035 082a 4FF01D01 		mov	r1, #29
 1036 082e 4FF00102 		mov	r2, #1
 1037 0832 FFF7FEFF 		bl	PINSEL_ConfigPin
 343:../src/lib/lpc177x_8x/Drivers/source/lpc177x_8x_emc.c ****     PINSEL_ConfigPin(2,30,1);
 1038              		.loc 1 343 0
 1039 0836 4FF00200 		mov	r0, #2
 1040 083a 4FF01E01 		mov	r1, #30
 1041 083e 4FF00102 		mov	r2, #1
 1042 0842 FFF7FEFF 		bl	PINSEL_ConfigPin
 344:../src/lib/lpc177x_8x/Drivers/source/lpc177x_8x_emc.c ****     PINSEL_ConfigPin(2,31,1);
 1043              		.loc 1 344 0
 1044 0846 4FF00200 		mov	r0, #2
 1045 084a 4FF01F01 		mov	r1, #31
 1046 084e 4FF00102 		mov	r2, #1
 1047 0852 FFF7FEFF 		bl	PINSEL_ConfigPin
 345:../src/lib/lpc177x_8x/Drivers/source/lpc177x_8x_emc.c **** 
 346:../src/lib/lpc177x_8x/Drivers/source/lpc177x_8x_emc.c ****     for(i = 0; i < 32; i++)
 1048              		.loc 1 346 0
 1049 0856 4FF00003 		mov	r3, #0
 1050 085a FB71     		strb	r3, [r7, #7]
 1051 085c 13E0     		b	.L35
 1052              	.L36:
 347:../src/lib/lpc177x_8x/Drivers/source/lpc177x_8x_emc.c ****     {
 348:../src/lib/lpc177x_8x/Drivers/source/lpc177x_8x_emc.c ****         PINSEL_ConfigPin(3,i,1);
 1053              		.loc 1 348 0 discriminator 2
 1054 085e FB79     		ldrb	r3, [r7, #7]	@ zero_extendqisi2
 1055 0860 4FF00300 		mov	r0, #3
 1056 0864 1946     		mov	r1, r3
 1057 0866 4FF00102 		mov	r2, #1
 1058 086a FFF7FEFF 		bl	PINSEL_ConfigPin
 349:../src/lib/lpc177x_8x/Drivers/source/lpc177x_8x_emc.c ****         PINSEL_ConfigPin(4,i,1);
 1059              		.loc 1 349 0 discriminator 2
 1060 086e FB79     		ldrb	r3, [r7, #7]	@ zero_extendqisi2
 1061 0870 4FF00400 		mov	r0, #4
 1062 0874 1946     		mov	r1, r3
 1063 0876 4FF00102 		mov	r2, #1
 1064 087a FFF7FEFF 		bl	PINSEL_ConfigPin
 346:../src/lib/lpc177x_8x/Drivers/source/lpc177x_8x_emc.c ****     for(i = 0; i < 32; i++)
 1065              		.loc 1 346 0 discriminator 2
 1066 087e FB79     		ldrb	r3, [r7, #7]
 1067 0880 03F10103 		add	r3, r3, #1
 1068 0884 FB71     		strb	r3, [r7, #7]
 1069              	.L35:
 346:../src/lib/lpc177x_8x/Drivers/source/lpc177x_8x_emc.c ****     for(i = 0; i < 32; i++)
 1070              		.loc 1 346 0 is_stmt 0 discriminator 1
 1071 0886 FB79     		ldrb	r3, [r7, #7]	@ zero_extendqisi2
 1072 0888 1F2B     		cmp	r3, #31
 1073 088a E8D9     		bls	.L36
 350:../src/lib/lpc177x_8x/Drivers/source/lpc177x_8x_emc.c ****     }
 351:../src/lib/lpc177x_8x/Drivers/source/lpc177x_8x_emc.c ****     PINSEL_ConfigPin(5,0,1);
 1074              		.loc 1 351 0 is_stmt 1
 1075 088c 4FF00500 		mov	r0, #5
 1076 0890 4FF00001 		mov	r1, #0
 1077 0894 4FF00102 		mov	r2, #1
 1078 0898 FFF7FEFF 		bl	PINSEL_ConfigPin
 352:../src/lib/lpc177x_8x/Drivers/source/lpc177x_8x_emc.c ****     PINSEL_ConfigPin(5,1,1);
 1079              		.loc 1 352 0
 1080 089c 4FF00500 		mov	r0, #5
 1081 08a0 4FF00101 		mov	r1, #1
 1082 08a4 4FF00102 		mov	r2, #1
 1083 08a8 FFF7FEFF 		bl	PINSEL_ConfigPin
 353:../src/lib/lpc177x_8x/Drivers/source/lpc177x_8x_emc.c **** 
 354:../src/lib/lpc177x_8x/Drivers/source/lpc177x_8x_emc.c ****     return EMC_FUNC_OK;
 1084              		.loc 1 354 0
 1085 08ac 4FF00003 		mov	r3, #0
 355:../src/lib/lpc177x_8x/Drivers/source/lpc177x_8x_emc.c **** }
 1086              		.loc 1 355 0
 1087 08b0 1846     		mov	r0, r3
 1088 08b2 07F10807 		add	r7, r7, #8
 1089 08b6 BD46     		mov	sp, r7
 1090 08b8 80BD     		pop	{r7, pc}
 1091              	.L39:
 1092 08ba 00BF     		.align	2
 1093              	.L38:
 1094 08bc 00B4C404 		.word	80000000
 1095 08c0 00C00F40 		.word	1074774016
 1096 08c4 00C00920 		.word	537509888
 1097              		.cfi_endproc
 1098              	.LFE60:
 1100              		.align	2
 1101              		.global	EMC_ConfigEndianMode
 1102              		.thumb
 1103              		.thumb_func
 1105              	EMC_ConfigEndianMode:
 1106              	.LFB61:
 356:../src/lib/lpc177x_8x/Drivers/source/lpc177x_8x_emc.c **** 
 357:../src/lib/lpc177x_8x/Drivers/source/lpc177x_8x_emc.c **** 
 358:../src/lib/lpc177x_8x/Drivers/source/lpc177x_8x_emc.c **** /*********************************************************************//**
 359:../src/lib/lpc177x_8x/Drivers/source/lpc177x_8x_emc.c ****  * @brief         Configure Little Endian/Big Endian mode for EMC
 360:../src/lib/lpc177x_8x/Drivers/source/lpc177x_8x_emc.c ****  *
 361:../src/lib/lpc177x_8x/Drivers/source/lpc177x_8x_emc.c ****  * @param[in]    endia_mode    Endian mode, should be:
 362:../src/lib/lpc177x_8x/Drivers/source/lpc177x_8x_emc.c ****  *
 363:../src/lib/lpc177x_8x/Drivers/source/lpc177x_8x_emc.c ****  *                 - EMC_Config_Little_Endian_Mode:    Little-endian mode
 364:../src/lib/lpc177x_8x/Drivers/source/lpc177x_8x_emc.c ****  *
 365:../src/lib/lpc177x_8x/Drivers/source/lpc177x_8x_emc.c ****  *                 - EMC_Config_Big_Endian_Mode    :    Big-endian mode
 366:../src/lib/lpc177x_8x/Drivers/source/lpc177x_8x_emc.c ****  *
 367:../src/lib/lpc177x_8x/Drivers/source/lpc177x_8x_emc.c ****  * @return         EMC_FUNC_OK
 368:../src/lib/lpc177x_8x/Drivers/source/lpc177x_8x_emc.c ****  **********************************************************************/
 369:../src/lib/lpc177x_8x/Drivers/source/lpc177x_8x_emc.c **** EMC_FUNC_CODE  EMC_ConfigEndianMode(uint32_t endian_mode)
 370:../src/lib/lpc177x_8x/Drivers/source/lpc177x_8x_emc.c **** {
 1107              		.loc 1 370 0
 1108              		.cfi_startproc
 1109              		@ args = 0, pretend = 0, frame = 8
 1110              		@ frame_needed = 1, uses_anonymous_args = 0
 1111              		@ link register save eliminated.
 1112 08c8 80B4     		push	{r7}
 1113              	.LCFI17:
 1114              		.cfi_def_cfa_offset 4
 1115              		.cfi_offset 7, -4
 1116 08ca 83B0     		sub	sp, sp, #12
 1117              	.LCFI18:
 1118              		.cfi_def_cfa_offset 16
 1119 08cc 00AF     		add	r7, sp, #0
 1120              	.LCFI19:
 1121              		.cfi_def_cfa_register 7
 1122 08ce 7860     		str	r0, [r7, #4]
 371:../src/lib/lpc177x_8x/Drivers/source/lpc177x_8x_emc.c ****     LPC_EMC->Config &= ~(EMC_Config_Endian_Mask);
 1123              		.loc 1 371 0
 1124 08d0 0A4B     		ldr	r3, .L42
 1125 08d2 0A4A     		ldr	r2, .L42
 1126 08d4 9268     		ldr	r2, [r2, #8]
 1127 08d6 22F00102 		bic	r2, r2, #1
 1128 08da 9A60     		str	r2, [r3, #8]
 372:../src/lib/lpc177x_8x/Drivers/source/lpc177x_8x_emc.c ****     LPC_EMC->Config |= (endian_mode&EMC_Config_Endian_Mask);
 1129              		.loc 1 372 0
 1130 08dc 074B     		ldr	r3, .L42
 1131 08de 074A     		ldr	r2, .L42
 1132 08e0 9168     		ldr	r1, [r2, #8]
 1133 08e2 7A68     		ldr	r2, [r7, #4]
 1134 08e4 02F00102 		and	r2, r2, #1
 1135 08e8 0A43     		orrs	r2, r2, r1
 1136 08ea 9A60     		str	r2, [r3, #8]
 373:../src/lib/lpc177x_8x/Drivers/source/lpc177x_8x_emc.c ****     return EMC_FUNC_OK;
 1137              		.loc 1 373 0
 1138 08ec 4FF00003 		mov	r3, #0
 374:../src/lib/lpc177x_8x/Drivers/source/lpc177x_8x_emc.c **** }
 1139              		.loc 1 374 0
 1140 08f0 1846     		mov	r0, r3
 1141 08f2 07F10C07 		add	r7, r7, #12
 1142 08f6 BD46     		mov	sp, r7
 1143 08f8 80BC     		pop	{r7}
 1144 08fa 7047     		bx	lr
 1145              	.L43:
 1146              		.align	2
 1147              	.L42:
 1148 08fc 00C00920 		.word	537509888
 1149              		.cfi_endproc
 1150              	.LFE61:
 1152              		.align	2
 1153              		.global	EMC_DynCtrlClockEnable
 1154              		.thumb
 1155              		.thumb_func
 1157              	EMC_DynCtrlClockEnable:
 1158              	.LFB62:
 375:../src/lib/lpc177x_8x/Drivers/source/lpc177x_8x_emc.c **** 
 376:../src/lib/lpc177x_8x/Drivers/source/lpc177x_8x_emc.c **** /****************** Group of Dynamic control functions************************/
 377:../src/lib/lpc177x_8x/Drivers/source/lpc177x_8x_emc.c **** 
 378:../src/lib/lpc177x_8x/Drivers/source/lpc177x_8x_emc.c **** /*********************************************************************//**
 379:../src/lib/lpc177x_8x/Drivers/source/lpc177x_8x_emc.c ****  * @brief         Set the dsvalue for dynamic clock enable bit
 380:../src/lib/lpc177x_8x/Drivers/source/lpc177x_8x_emc.c ****  *
 381:../src/lib/lpc177x_8x/Drivers/source/lpc177x_8x_emc.c ****  * @param[in]    clock_enable    clock enable mode, should be:
 382:../src/lib/lpc177x_8x/Drivers/source/lpc177x_8x_emc.c ****  *
 383:../src/lib/lpc177x_8x/Drivers/source/lpc177x_8x_emc.c ****  *                - EMC_DYNAMIC_CTRL_CE_SAVEPWR: Clock enable of idle devices
 384:../src/lib/lpc177x_8x/Drivers/source/lpc177x_8x_emc.c ****  *                are deasserted to save power
 385:../src/lib/lpc177x_8x/Drivers/source/lpc177x_8x_emc.c ****  *
 386:../src/lib/lpc177x_8x/Drivers/source/lpc177x_8x_emc.c ****  *                - EMC_DYNAMIC_CTRL_CE_ALLCLK_HI: All clock enables are driven
 387:../src/lib/lpc177x_8x/Drivers/source/lpc177x_8x_emc.c ****  *                HIGH continuously
 388:../src/lib/lpc177x_8x/Drivers/source/lpc177x_8x_emc.c ****  *
 389:../src/lib/lpc177x_8x/Drivers/source/lpc177x_8x_emc.c ****  * @return         EMC_FUNC_CODE
 390:../src/lib/lpc177x_8x/Drivers/source/lpc177x_8x_emc.c ****  **********************************************************************/
 391:../src/lib/lpc177x_8x/Drivers/source/lpc177x_8x_emc.c **** EMC_FUNC_CODE EMC_DynCtrlClockEnable(uint32_t clock_enable)
 392:../src/lib/lpc177x_8x/Drivers/source/lpc177x_8x_emc.c **** {
 1159              		.loc 1 392 0
 1160              		.cfi_startproc
 1161              		@ args = 0, pretend = 0, frame = 8
 1162              		@ frame_needed = 1, uses_anonymous_args = 0
 1163              		@ link register save eliminated.
 1164 0900 80B4     		push	{r7}
 1165              	.LCFI20:
 1166              		.cfi_def_cfa_offset 4
 1167              		.cfi_offset 7, -4
 1168 0902 83B0     		sub	sp, sp, #12
 1169              	.LCFI21:
 1170              		.cfi_def_cfa_offset 16
 1171 0904 00AF     		add	r7, sp, #0
 1172              	.LCFI22:
 1173              		.cfi_def_cfa_register 7
 1174 0906 7860     		str	r0, [r7, #4]
 393:../src/lib/lpc177x_8x/Drivers/source/lpc177x_8x_emc.c ****     LPC_EMC->DynamicControl &= ~(EMC_DYNAMIC_CTRL_MEMCLK_EN_BMASK);
 1175              		.loc 1 393 0
 1176 0908 0A4B     		ldr	r3, .L46
 1177 090a 0A4A     		ldr	r2, .L46
 1178 090c 126A     		ldr	r2, [r2, #32]
 1179 090e 22F00102 		bic	r2, r2, #1
 1180 0912 1A62     		str	r2, [r3, #32]
 394:../src/lib/lpc177x_8x/Drivers/source/lpc177x_8x_emc.c ****     LPC_EMC->DynamicControl |= clock_enable & EMC_DYNAMIC_CTRL_MEMCLK_EN_BMASK;
 1181              		.loc 1 394 0
 1182 0914 074B     		ldr	r3, .L46
 1183 0916 074A     		ldr	r2, .L46
 1184 0918 116A     		ldr	r1, [r2, #32]
 1185 091a 7A68     		ldr	r2, [r7, #4]
 1186 091c 02F00102 		and	r2, r2, #1
 1187 0920 0A43     		orrs	r2, r2, r1
 1188 0922 1A62     		str	r2, [r3, #32]
 395:../src/lib/lpc177x_8x/Drivers/source/lpc177x_8x_emc.c ****     return EMC_FUNC_OK;
 1189              		.loc 1 395 0
 1190 0924 4FF00003 		mov	r3, #0
 396:../src/lib/lpc177x_8x/Drivers/source/lpc177x_8x_emc.c **** }
 1191              		.loc 1 396 0
 1192 0928 1846     		mov	r0, r3
 1193 092a 07F10C07 		add	r7, r7, #12
 1194 092e BD46     		mov	sp, r7
 1195 0930 80BC     		pop	{r7}
 1196 0932 7047     		bx	lr
 1197              	.L47:
 1198              		.align	2
 1199              	.L46:
 1200 0934 00C00920 		.word	537509888
 1201              		.cfi_endproc
 1202              	.LFE62:
 1204              		.align	2
 1205              		.global	EMC_DynCtrlClockControl
 1206              		.thumb
 1207              		.thumb_func
 1209              	EMC_DynCtrlClockControl:
 1210              	.LFB63:
 397:../src/lib/lpc177x_8x/Drivers/source/lpc177x_8x_emc.c **** 
 398:../src/lib/lpc177x_8x/Drivers/source/lpc177x_8x_emc.c **** 
 399:../src/lib/lpc177x_8x/Drivers/source/lpc177x_8x_emc.c **** /*********************************************************************//**
 400:../src/lib/lpc177x_8x/Drivers/source/lpc177x_8x_emc.c ****  * @brief         Set the value for dynamic memory clock control: stops or
 401:../src/lib/lpc177x_8x/Drivers/source/lpc177x_8x_emc.c ****  *                runs continuously
 402:../src/lib/lpc177x_8x/Drivers/source/lpc177x_8x_emc.c ****  *
 403:../src/lib/lpc177x_8x/Drivers/source/lpc177x_8x_emc.c ****  * @param[in]    clock_control    clock control mode, should be:
 404:../src/lib/lpc177x_8x/Drivers/source/lpc177x_8x_emc.c ****  *
 405:../src/lib/lpc177x_8x/Drivers/source/lpc177x_8x_emc.c ****  *                - EMC_DYNAMIC_CTRL_CS_CLKOUT_STOP: CLKOUT stops when all
 406:../src/lib/lpc177x_8x/Drivers/source/lpc177x_8x_emc.c ****  *                SDRAMs are idle and during self-refresh mode
 407:../src/lib/lpc177x_8x/Drivers/source/lpc177x_8x_emc.c ****  *
 408:../src/lib/lpc177x_8x/Drivers/source/lpc177x_8x_emc.c ****  *                - EMC_DYNAMIC_CTRL_CS_CLKOUT_CONT: CLKOUT runs continuously
 409:../src/lib/lpc177x_8x/Drivers/source/lpc177x_8x_emc.c ****  *
 410:../src/lib/lpc177x_8x/Drivers/source/lpc177x_8x_emc.c ****  * @return         EMC_FUNC_OK
 411:../src/lib/lpc177x_8x/Drivers/source/lpc177x_8x_emc.c ****  **********************************************************************/
 412:../src/lib/lpc177x_8x/Drivers/source/lpc177x_8x_emc.c **** EMC_FUNC_CODE EMC_DynCtrlClockControl(int32_t clock_control)
 413:../src/lib/lpc177x_8x/Drivers/source/lpc177x_8x_emc.c **** {
 1211              		.loc 1 413 0
 1212              		.cfi_startproc
 1213              		@ args = 0, pretend = 0, frame = 8
 1214              		@ frame_needed = 1, uses_anonymous_args = 0
 1215              		@ link register save eliminated.
 1216 0938 80B4     		push	{r7}
 1217              	.LCFI23:
 1218              		.cfi_def_cfa_offset 4
 1219              		.cfi_offset 7, -4
 1220 093a 83B0     		sub	sp, sp, #12
 1221              	.LCFI24:
 1222              		.cfi_def_cfa_offset 16
 1223 093c 00AF     		add	r7, sp, #0
 1224              	.LCFI25:
 1225              		.cfi_def_cfa_register 7
 1226 093e 7860     		str	r0, [r7, #4]
 414:../src/lib/lpc177x_8x/Drivers/source/lpc177x_8x_emc.c ****     LPC_EMC->DynamicControl  &= ~EMC_DYNAMIC_CTRL_CLKCTRL_BMASK;
 1227              		.loc 1 414 0
 1228 0940 0A4B     		ldr	r3, .L50
 1229 0942 0A4A     		ldr	r2, .L50
 1230 0944 126A     		ldr	r2, [r2, #32]
 1231 0946 22F00202 		bic	r2, r2, #2
 1232 094a 1A62     		str	r2, [r3, #32]
 415:../src/lib/lpc177x_8x/Drivers/source/lpc177x_8x_emc.c ****     LPC_EMC->DynamicControl |= clock_control & EMC_DYNAMIC_CTRL_CLKCTRL_BMASK;
 1233              		.loc 1 415 0
 1234 094c 074B     		ldr	r3, .L50
 1235 094e 074A     		ldr	r2, .L50
 1236 0950 116A     		ldr	r1, [r2, #32]
 1237 0952 7A68     		ldr	r2, [r7, #4]
 1238 0954 02F00202 		and	r2, r2, #2
 1239 0958 0A43     		orrs	r2, r2, r1
 1240 095a 1A62     		str	r2, [r3, #32]
 416:../src/lib/lpc177x_8x/Drivers/source/lpc177x_8x_emc.c ****     return EMC_FUNC_OK;
 1241              		.loc 1 416 0
 1242 095c 4FF00003 		mov	r3, #0
 417:../src/lib/lpc177x_8x/Drivers/source/lpc177x_8x_emc.c **** }
 1243              		.loc 1 417 0
 1244 0960 1846     		mov	r0, r3
 1245 0962 07F10C07 		add	r7, r7, #12
 1246 0966 BD46     		mov	sp, r7
 1247 0968 80BC     		pop	{r7}
 1248 096a 7047     		bx	lr
 1249              	.L51:
 1250              		.align	2
 1251              	.L50:
 1252 096c 00C00920 		.word	537509888
 1253              		.cfi_endproc
 1254              	.LFE63:
 1256              		.align	2
 1257              		.global	EMC_DynCtrlSelfRefresh
 1258              		.thumb
 1259              		.thumb_func
 1261              	EMC_DynCtrlSelfRefresh:
 1262              	.LFB64:
 418:../src/lib/lpc177x_8x/Drivers/source/lpc177x_8x_emc.c **** 
 419:../src/lib/lpc177x_8x/Drivers/source/lpc177x_8x_emc.c **** /*********************************************************************//**
 420:../src/lib/lpc177x_8x/Drivers/source/lpc177x_8x_emc.c ****  * @brief         Switch the Self-refresh mode between normal and self-refresh mode
 421:../src/lib/lpc177x_8x/Drivers/source/lpc177x_8x_emc.c ****  *
 422:../src/lib/lpc177x_8x/Drivers/source/lpc177x_8x_emc.c ****  * @param[in]    self_refresh_mode    self refresh mode, should be:
 423:../src/lib/lpc177x_8x/Drivers/source/lpc177x_8x_emc.c ****  *
 424:../src/lib/lpc177x_8x/Drivers/source/lpc177x_8x_emc.c ****  *                - EMC_DYNAMIC_CTRL_SR_NORMALMODE: Normal mode
 425:../src/lib/lpc177x_8x/Drivers/source/lpc177x_8x_emc.c ****  *
 426:../src/lib/lpc177x_8x/Drivers/source/lpc177x_8x_emc.c ****  *                - EMC_DYNAMIC_CTRL_SR_SELFREFRESH: Enter self-refresh mode
 427:../src/lib/lpc177x_8x/Drivers/source/lpc177x_8x_emc.c ****  *
 428:../src/lib/lpc177x_8x/Drivers/source/lpc177x_8x_emc.c ****  * @return         EMC_FUNC_OK
 429:../src/lib/lpc177x_8x/Drivers/source/lpc177x_8x_emc.c ****  **********************************************************************/
 430:../src/lib/lpc177x_8x/Drivers/source/lpc177x_8x_emc.c **** EMC_FUNC_CODE EMC_DynCtrlSelfRefresh(uint32_t self_refresh_mode)
 431:../src/lib/lpc177x_8x/Drivers/source/lpc177x_8x_emc.c **** {
 1263              		.loc 1 431 0
 1264              		.cfi_startproc
 1265              		@ args = 0, pretend = 0, frame = 8
 1266              		@ frame_needed = 1, uses_anonymous_args = 0
 1267              		@ link register save eliminated.
 1268 0970 80B4     		push	{r7}
 1269              	.LCFI26:
 1270              		.cfi_def_cfa_offset 4
 1271              		.cfi_offset 7, -4
 1272 0972 83B0     		sub	sp, sp, #12
 1273              	.LCFI27:
 1274              		.cfi_def_cfa_offset 16
 1275 0974 00AF     		add	r7, sp, #0
 1276              	.LCFI28:
 1277              		.cfi_def_cfa_register 7
 1278 0976 7860     		str	r0, [r7, #4]
 432:../src/lib/lpc177x_8x/Drivers/source/lpc177x_8x_emc.c ****     LPC_EMC->DynamicControl &= ~EMC_DYNAMIC_CTRL_SELFREFRESH_REQ_BMASK;
 1279              		.loc 1 432 0
 1280 0978 094B     		ldr	r3, .L54
 1281 097a 094A     		ldr	r2, .L54
 1282 097c 126A     		ldr	r2, [r2, #32]
 1283 097e 22F00402 		bic	r2, r2, #4
 1284 0982 1A62     		str	r2, [r3, #32]
 433:../src/lib/lpc177x_8x/Drivers/source/lpc177x_8x_emc.c ****     LPC_EMC->DynamicControl =self_refresh_mode & EMC_DYNAMIC_CTRL_SELFREFRESH_REQ_BMASK;
 1285              		.loc 1 433 0
 1286 0984 064B     		ldr	r3, .L54
 1287 0986 7A68     		ldr	r2, [r7, #4]
 1288 0988 02F00402 		and	r2, r2, #4
 1289 098c 1A62     		str	r2, [r3, #32]
 434:../src/lib/lpc177x_8x/Drivers/source/lpc177x_8x_emc.c ****     return EMC_FUNC_OK;
 1290              		.loc 1 434 0
 1291 098e 4FF00003 		mov	r3, #0
 435:../src/lib/lpc177x_8x/Drivers/source/lpc177x_8x_emc.c **** }
 1292              		.loc 1 435 0
 1293 0992 1846     		mov	r0, r3
 1294 0994 07F10C07 		add	r7, r7, #12
 1295 0998 BD46     		mov	sp, r7
 1296 099a 80BC     		pop	{r7}
 1297 099c 7047     		bx	lr
 1298              	.L55:
 1299 099e 00BF     		.align	2
 1300              	.L54:
 1301 09a0 00C00920 		.word	537509888
 1302              		.cfi_endproc
 1303              	.LFE64:
 1305              		.align	2
 1306              		.global	EMC_DynCtrlMMC
 1307              		.thumb
 1308              		.thumb_func
 1310              	EMC_DynCtrlMMC:
 1311              	.LFB65:
 436:../src/lib/lpc177x_8x/Drivers/source/lpc177x_8x_emc.c **** 
 437:../src/lib/lpc177x_8x/Drivers/source/lpc177x_8x_emc.c **** /*********************************************************************//**
 438:../src/lib/lpc177x_8x/Drivers/source/lpc177x_8x_emc.c ****  * @brief         Enable/disable CLKOUT
 439:../src/lib/lpc177x_8x/Drivers/source/lpc177x_8x_emc.c ****  *
 440:../src/lib/lpc177x_8x/Drivers/source/lpc177x_8x_emc.c ****  * @param[in]    MMC_val    Memory clock control mode, should be:
 441:../src/lib/lpc177x_8x/Drivers/source/lpc177x_8x_emc.c ****  *
 442:../src/lib/lpc177x_8x/Drivers/source/lpc177x_8x_emc.c ****  *                     - EMC_DYNAMIC_CTRL_MMC_CLKOUT_ENABLED: CLKOUT enabled
 443:../src/lib/lpc177x_8x/Drivers/source/lpc177x_8x_emc.c ****  *
 444:../src/lib/lpc177x_8x/Drivers/source/lpc177x_8x_emc.c ****  *                     - EMC_DYNAMIC_CTRL_MMC_CLKOUT_DISABLED: CLKOUT disabled
 445:../src/lib/lpc177x_8x/Drivers/source/lpc177x_8x_emc.c ****  *
 446:../src/lib/lpc177x_8x/Drivers/source/lpc177x_8x_emc.c ****  * @return         EMC_FUNC_OK
 447:../src/lib/lpc177x_8x/Drivers/source/lpc177x_8x_emc.c ****  **********************************************************************/
 448:../src/lib/lpc177x_8x/Drivers/source/lpc177x_8x_emc.c **** EMC_FUNC_CODE EMC_DynCtrlMMC(uint32_t MMC_val)
 449:../src/lib/lpc177x_8x/Drivers/source/lpc177x_8x_emc.c **** {
 1312              		.loc 1 449 0
 1313              		.cfi_startproc
 1314              		@ args = 0, pretend = 0, frame = 8
 1315              		@ frame_needed = 1, uses_anonymous_args = 0
 1316              		@ link register save eliminated.
 1317 09a4 80B4     		push	{r7}
 1318              	.LCFI29:
 1319              		.cfi_def_cfa_offset 4
 1320              		.cfi_offset 7, -4
 1321 09a6 83B0     		sub	sp, sp, #12
 1322              	.LCFI30:
 1323              		.cfi_def_cfa_offset 16
 1324 09a8 00AF     		add	r7, sp, #0
 1325              	.LCFI31:
 1326              		.cfi_def_cfa_register 7
 1327 09aa 7860     		str	r0, [r7, #4]
 450:../src/lib/lpc177x_8x/Drivers/source/lpc177x_8x_emc.c ****     LPC_EMC->DynamicControl &= ~EMC_DYNAMIC_CTRL_MMC_CLKOUTCTRL_BMASK;
 1328              		.loc 1 450 0
 1329 09ac 0A4B     		ldr	r3, .L58
 1330 09ae 0A4A     		ldr	r2, .L58
 1331 09b0 126A     		ldr	r2, [r2, #32]
 1332 09b2 22F02002 		bic	r2, r2, #32
 1333 09b6 1A62     		str	r2, [r3, #32]
 451:../src/lib/lpc177x_8x/Drivers/source/lpc177x_8x_emc.c ****     LPC_EMC->DynamicControl |=MMC_val & EMC_DYNAMIC_CTRL_MMC_CLKOUTCTRL_BMASK;
 1334              		.loc 1 451 0
 1335 09b8 074B     		ldr	r3, .L58
 1336 09ba 074A     		ldr	r2, .L58
 1337 09bc 116A     		ldr	r1, [r2, #32]
 1338 09be 7A68     		ldr	r2, [r7, #4]
 1339 09c0 02F02002 		and	r2, r2, #32
 1340 09c4 0A43     		orrs	r2, r2, r1
 1341 09c6 1A62     		str	r2, [r3, #32]
 452:../src/lib/lpc177x_8x/Drivers/source/lpc177x_8x_emc.c ****     return EMC_FUNC_OK;
 1342              		.loc 1 452 0
 1343 09c8 4FF00003 		mov	r3, #0
 453:../src/lib/lpc177x_8x/Drivers/source/lpc177x_8x_emc.c **** }
 1344              		.loc 1 453 0
 1345 09cc 1846     		mov	r0, r3
 1346 09ce 07F10C07 		add	r7, r7, #12
 1347 09d2 BD46     		mov	sp, r7
 1348 09d4 80BC     		pop	{r7}
 1349 09d6 7047     		bx	lr
 1350              	.L59:
 1351              		.align	2
 1352              	.L58:
 1353 09d8 00C00920 		.word	537509888
 1354              		.cfi_endproc
 1355              	.LFE65:
 1357              		.align	2
 1358              		.global	EMC_DynCtrlSDRAMInit
 1359              		.thumb
 1360              		.thumb_func
 1362              	EMC_DynCtrlSDRAMInit:
 1363              	.LFB66:
 454:../src/lib/lpc177x_8x/Drivers/source/lpc177x_8x_emc.c **** 
 455:../src/lib/lpc177x_8x/Drivers/source/lpc177x_8x_emc.c **** /*********************************************************************//**
 456:../src/lib/lpc177x_8x/Drivers/source/lpc177x_8x_emc.c ****  * @brief         Issue SDRAM command
 457:../src/lib/lpc177x_8x/Drivers/source/lpc177x_8x_emc.c ****  *
 458:../src/lib/lpc177x_8x/Drivers/source/lpc177x_8x_emc.c ****  * @param[in]    SDRAM_command    Command mode, should be:
 459:../src/lib/lpc177x_8x/Drivers/source/lpc177x_8x_emc.c ****  *
 460:../src/lib/lpc177x_8x/Drivers/source/lpc177x_8x_emc.c ****  *                - EMC_DYNAMIC_CTRL_SDRAM_NORMAL: Issue SDRAM NORMAL operation command
 461:../src/lib/lpc177x_8x/Drivers/source/lpc177x_8x_emc.c ****  *
 462:../src/lib/lpc177x_8x/Drivers/source/lpc177x_8x_emc.c ****  *                - EMC_DYNAMIC_CTRL_SDRAM_MODE: Issue SDRAM MODE command
 463:../src/lib/lpc177x_8x/Drivers/source/lpc177x_8x_emc.c ****  *
 464:../src/lib/lpc177x_8x/Drivers/source/lpc177x_8x_emc.c ****  *                - EMC_DYNAMIC_CTRL_SDRAM_PALL: Issue SDRAM PALL (precharge all) command
 465:../src/lib/lpc177x_8x/Drivers/source/lpc177x_8x_emc.c ****  *
 466:../src/lib/lpc177x_8x/Drivers/source/lpc177x_8x_emc.c ****  *                - EMC_DYNAMIC_CTRL_SDRAM_NOP: Issue SRAM NOP (no operation) command
 467:../src/lib/lpc177x_8x/Drivers/source/lpc177x_8x_emc.c ****  *
 468:../src/lib/lpc177x_8x/Drivers/source/lpc177x_8x_emc.c ****  * @return         EMC_FUNC_OK
 469:../src/lib/lpc177x_8x/Drivers/source/lpc177x_8x_emc.c ****  **********************************************************************/
 470:../src/lib/lpc177x_8x/Drivers/source/lpc177x_8x_emc.c **** EMC_FUNC_CODE EMC_DynCtrlSDRAMInit(uint32_t SDRAM_command)
 471:../src/lib/lpc177x_8x/Drivers/source/lpc177x_8x_emc.c **** {
 1364              		.loc 1 471 0
 1365              		.cfi_startproc
 1366              		@ args = 0, pretend = 0, frame = 8
 1367              		@ frame_needed = 1, uses_anonymous_args = 0
 1368              		@ link register save eliminated.
 1369 09dc 80B4     		push	{r7}
 1370              	.LCFI32:
 1371              		.cfi_def_cfa_offset 4
 1372              		.cfi_offset 7, -4
 1373 09de 83B0     		sub	sp, sp, #12
 1374              	.LCFI33:
 1375              		.cfi_def_cfa_offset 16
 1376 09e0 00AF     		add	r7, sp, #0
 1377              	.LCFI34:
 1378              		.cfi_def_cfa_register 7
 1379 09e2 7860     		str	r0, [r7, #4]
 472:../src/lib/lpc177x_8x/Drivers/source/lpc177x_8x_emc.c ****     LPC_EMC->DynamicControl &= ~EMC_DYNAMIC_CTRL_SDRAM_INIT_BMASK;
 1380              		.loc 1 472 0
 1381 09e4 0A4B     		ldr	r3, .L62
 1382 09e6 0A4A     		ldr	r2, .L62
 1383 09e8 126A     		ldr	r2, [r2, #32]
 1384 09ea 22F4C072 		bic	r2, r2, #384
 1385 09ee 1A62     		str	r2, [r3, #32]
 473:../src/lib/lpc177x_8x/Drivers/source/lpc177x_8x_emc.c ****     LPC_EMC->DynamicControl |= SDRAM_command & EMC_DYNAMIC_CTRL_SDRAM_INIT_BMASK;
 1386              		.loc 1 473 0
 1387 09f0 074B     		ldr	r3, .L62
 1388 09f2 074A     		ldr	r2, .L62
 1389 09f4 116A     		ldr	r1, [r2, #32]
 1390 09f6 7A68     		ldr	r2, [r7, #4]
 1391 09f8 02F4C072 		and	r2, r2, #384
 1392 09fc 0A43     		orrs	r2, r2, r1
 1393 09fe 1A62     		str	r2, [r3, #32]
 474:../src/lib/lpc177x_8x/Drivers/source/lpc177x_8x_emc.c ****     return EMC_FUNC_OK;
 1394              		.loc 1 474 0
 1395 0a00 4FF00003 		mov	r3, #0
 475:../src/lib/lpc177x_8x/Drivers/source/lpc177x_8x_emc.c **** }
 1396              		.loc 1 475 0
 1397 0a04 1846     		mov	r0, r3
 1398 0a06 07F10C07 		add	r7, r7, #12
 1399 0a0a BD46     		mov	sp, r7
 1400 0a0c 80BC     		pop	{r7}
 1401 0a0e 7047     		bx	lr
 1402              	.L63:
 1403              		.align	2
 1404              	.L62:
 1405 0a10 00C00920 		.word	537509888
 1406              		.cfi_endproc
 1407              	.LFE66:
 1409              		.align	2
 1410              		.global	EMC_DynCtrlPowerDownMode
 1411              		.thumb
 1412              		.thumb_func
 1414              	EMC_DynCtrlPowerDownMode:
 1415              	.LFB67:
 476:../src/lib/lpc177x_8x/Drivers/source/lpc177x_8x_emc.c **** 
 477:../src/lib/lpc177x_8x/Drivers/source/lpc177x_8x_emc.c **** /*********************************************************************//**
 478:../src/lib/lpc177x_8x/Drivers/source/lpc177x_8x_emc.c ****  * @brief         Switch between Normal operation and deep sleep power mode
 479:../src/lib/lpc177x_8x/Drivers/source/lpc177x_8x_emc.c ****  *
 480:../src/lib/lpc177x_8x/Drivers/source/lpc177x_8x_emc.c ****  * @param[in]    Power_command    Low-power SDRAM deep-sleep mode, should be:
 481:../src/lib/lpc177x_8x/Drivers/source/lpc177x_8x_emc.c ****  *
 482:../src/lib/lpc177x_8x/Drivers/source/lpc177x_8x_emc.c ****  *                - EMC_DYNAMIC_CTRL_DP_NORMAL: Normal operation
 483:../src/lib/lpc177x_8x/Drivers/source/lpc177x_8x_emc.c ****  *
 484:../src/lib/lpc177x_8x/Drivers/source/lpc177x_8x_emc.c ****  *                - EMC_DYNAMIC_CTRL_DP_DEEPSLEEP: Enter deep-sleep mode
 485:../src/lib/lpc177x_8x/Drivers/source/lpc177x_8x_emc.c ****  *
 486:../src/lib/lpc177x_8x/Drivers/source/lpc177x_8x_emc.c ****  * @return         EMC_FUNC_OK
 487:../src/lib/lpc177x_8x/Drivers/source/lpc177x_8x_emc.c ****  **********************************************************************/
 488:../src/lib/lpc177x_8x/Drivers/source/lpc177x_8x_emc.c **** EMC_FUNC_CODE EMC_DynCtrlPowerDownMode(uint32_t Power_command)
 489:../src/lib/lpc177x_8x/Drivers/source/lpc177x_8x_emc.c **** {
 1416              		.loc 1 489 0
 1417              		.cfi_startproc
 1418              		@ args = 0, pretend = 0, frame = 8
 1419              		@ frame_needed = 1, uses_anonymous_args = 0
 1420              		@ link register save eliminated.
 1421 0a14 80B4     		push	{r7}
 1422              	.LCFI35:
 1423              		.cfi_def_cfa_offset 4
 1424              		.cfi_offset 7, -4
 1425 0a16 83B0     		sub	sp, sp, #12
 1426              	.LCFI36:
 1427              		.cfi_def_cfa_offset 16
 1428 0a18 00AF     		add	r7, sp, #0
 1429              	.LCFI37:
 1430              		.cfi_def_cfa_register 7
 1431 0a1a 7860     		str	r0, [r7, #4]
 490:../src/lib/lpc177x_8x/Drivers/source/lpc177x_8x_emc.c ****     LPC_EMC->DynamicControl &= ~EMC_DYNAMIC_CTRL_SDRAM_PWRMODE_BMASK;
 1432              		.loc 1 490 0
 1433 0a1c 0A4B     		ldr	r3, .L66
 1434 0a1e 0A4A     		ldr	r2, .L66
 1435 0a20 126A     		ldr	r2, [r2, #32]
 1436 0a22 22F40052 		bic	r2, r2, #8192
 1437 0a26 1A62     		str	r2, [r3, #32]
 491:../src/lib/lpc177x_8x/Drivers/source/lpc177x_8x_emc.c ****     LPC_EMC->DynamicControl |= Power_command & EMC_DYNAMIC_CTRL_SDRAM_PWRMODE_BMASK;
 1438              		.loc 1 491 0
 1439 0a28 074B     		ldr	r3, .L66
 1440 0a2a 074A     		ldr	r2, .L66
 1441 0a2c 116A     		ldr	r1, [r2, #32]
 1442 0a2e 7A68     		ldr	r2, [r7, #4]
 1443 0a30 02F40052 		and	r2, r2, #8192
 1444 0a34 0A43     		orrs	r2, r2, r1
 1445 0a36 1A62     		str	r2, [r3, #32]
 492:../src/lib/lpc177x_8x/Drivers/source/lpc177x_8x_emc.c ****     return EMC_FUNC_OK;
 1446              		.loc 1 492 0
 1447 0a38 4FF00003 		mov	r3, #0
 493:../src/lib/lpc177x_8x/Drivers/source/lpc177x_8x_emc.c **** }
 1448              		.loc 1 493 0
 1449 0a3c 1846     		mov	r0, r3
 1450 0a3e 07F10C07 		add	r7, r7, #12
 1451 0a42 BD46     		mov	sp, r7
 1452 0a44 80BC     		pop	{r7}
 1453 0a46 7047     		bx	lr
 1454              	.L67:
 1455              		.align	2
 1456              	.L66:
 1457 0a48 00C00920 		.word	537509888
 1458              		.cfi_endproc
 1459              	.LFE67:
 1461              		.align	2
 1462              		.global	EMC_SetDynMemoryParameter
 1463              		.thumb
 1464              		.thumb_func
 1466              	EMC_SetDynMemoryParameter:
 1467              	.LFB68:
 494:../src/lib/lpc177x_8x/Drivers/source/lpc177x_8x_emc.c **** 
 495:../src/lib/lpc177x_8x/Drivers/source/lpc177x_8x_emc.c **** /*********************************************************************//**
 496:../src/lib/lpc177x_8x/Drivers/source/lpc177x_8x_emc.c ****  * @brief         Set the value of EMC dynamic memory registers
 497:../src/lib/lpc177x_8x/Drivers/source/lpc177x_8x_emc.c ****  *
 498:../src/lib/lpc177x_8x/Drivers/source/lpc177x_8x_emc.c ****  * @param[in]    par    EMC register that will set value, should be:
 499:../src/lib/lpc177x_8x/Drivers/source/lpc177x_8x_emc.c ****  *                    - EMC_DYN_MEM_REFRESH_TIMER: Dynamic Refresh register
 500:../src/lib/lpc177x_8x/Drivers/source/lpc177x_8x_emc.c ****  *                    - EMC_DYN_MEM_READ_CONFIG: Dynamic Read Config register
 501:../src/lib/lpc177x_8x/Drivers/source/lpc177x_8x_emc.c ****  *                    - EMC_DYN_MEM_TRP: Dynamic RP register
 502:../src/lib/lpc177x_8x/Drivers/source/lpc177x_8x_emc.c ****  *                    - EMC_DYN_MEM_TRAS: Dynamic RAS register
 503:../src/lib/lpc177x_8x/Drivers/source/lpc177x_8x_emc.c ****  *                    - EMC_DYN_MEM_TSREX: Dynamic SREX register
 504:../src/lib/lpc177x_8x/Drivers/source/lpc177x_8x_emc.c ****  *                    - EMC_DYN_MEM_TAPR: Dynamic APR register
 505:../src/lib/lpc177x_8x/Drivers/source/lpc177x_8x_emc.c ****  *                    - EMC_DYN_MEM_TDAL: Dynamic DAL register
 506:../src/lib/lpc177x_8x/Drivers/source/lpc177x_8x_emc.c ****  *                    - EMC_DYN_MEM_TWR: Dynamic WR register
 507:../src/lib/lpc177x_8x/Drivers/source/lpc177x_8x_emc.c ****  *                    - EMC_DYN_MEM_TRC: Dynamic RC register
 508:../src/lib/lpc177x_8x/Drivers/source/lpc177x_8x_emc.c ****  *                    - EMC_DYN_MEM_TRFC: Dynamic RFC register
 509:../src/lib/lpc177x_8x/Drivers/source/lpc177x_8x_emc.c ****  *                    - EMC_DYN_MEM_TXSR: Dynamic XSR register
 510:../src/lib/lpc177x_8x/Drivers/source/lpc177x_8x_emc.c ****  *                    - EMC_DYN_MEM_TRRD: Dynamic RRD register
 511:../src/lib/lpc177x_8x/Drivers/source/lpc177x_8x_emc.c ****  *                    - EMC_DYN_MEM_TMRD: Dynamic MRD register
 512:../src/lib/lpc177x_8x/Drivers/source/lpc177x_8x_emc.c ****  *
 513:../src/lib/lpc177x_8x/Drivers/source/lpc177x_8x_emc.c ****  * @return         EMC_FUNC_OK/EMC_FUNC_INVALID_PARAM
 514:../src/lib/lpc177x_8x/Drivers/source/lpc177x_8x_emc.c ****  **********************************************************************/
 515:../src/lib/lpc177x_8x/Drivers/source/lpc177x_8x_emc.c **** EMC_FUNC_CODE EMC_SetDynMemoryParameter(EMC_DYN_MEM_PAR par, uint32_t val)
 516:../src/lib/lpc177x_8x/Drivers/source/lpc177x_8x_emc.c **** {
 1468              		.loc 1 516 0
 1469              		.cfi_startproc
 1470              		@ args = 0, pretend = 0, frame = 8
 1471              		@ frame_needed = 1, uses_anonymous_args = 0
 1472              		@ link register save eliminated.
 1473 0a4c 80B4     		push	{r7}
 1474              	.LCFI38:
 1475              		.cfi_def_cfa_offset 4
 1476              		.cfi_offset 7, -4
 1477 0a4e 83B0     		sub	sp, sp, #12
 1478              	.LCFI39:
 1479              		.cfi_def_cfa_offset 16
 1480 0a50 00AF     		add	r7, sp, #0
 1481              	.LCFI40:
 1482              		.cfi_def_cfa_register 7
 1483 0a52 0346     		mov	r3, r0
 1484 0a54 3960     		str	r1, [r7, #0]
 1485 0a56 FB71     		strb	r3, [r7, #7]
 517:../src/lib/lpc177x_8x/Drivers/source/lpc177x_8x_emc.c ****     switch ( par)
 1486              		.loc 1 517 0
 1487 0a58 FB79     		ldrb	r3, [r7, #7]	@ zero_extendqisi2
 1488 0a5a 0C2B     		cmp	r3, #12
 1489 0a5c 6CD8     		bhi	.L69
 1490 0a5e 01A2     		adr	r2, .L83
 1491 0a60 52F823F0 		ldr	pc, [r2, r3, lsl #2]
 1492              		.align	2
 1493              	.L83:
 1494 0a64 990A0000 		.word	.L70+1
 1495 0a68 A90A0000 		.word	.L71+1
 1496 0a6c B50A0000 		.word	.L72+1
 1497 0a70 C10A0000 		.word	.L73+1
 1498 0a74 CD0A0000 		.word	.L74+1
 1499 0a78 D90A0000 		.word	.L75+1
 1500 0a7c E50A0000 		.word	.L76+1
 1501 0a80 F10A0000 		.word	.L77+1
 1502 0a84 FD0A0000 		.word	.L78+1
 1503 0a88 090B0000 		.word	.L79+1
 1504 0a8c 150B0000 		.word	.L80+1
 1505 0a90 210B0000 		.word	.L81+1
 1506 0a94 2D0B0000 		.word	.L82+1
 1507              	.L70:
 518:../src/lib/lpc177x_8x/Drivers/source/lpc177x_8x_emc.c ****     {
 519:../src/lib/lpc177x_8x/Drivers/source/lpc177x_8x_emc.c ****         case EMC_DYN_MEM_REFRESH_TIMER:
 520:../src/lib/lpc177x_8x/Drivers/source/lpc177x_8x_emc.c ****             LPC_EMC->DynamicRefresh = EMC_DynamicRefresh_REFRESH(val);
 1508              		.loc 1 520 0
 1509 0a98 2D4A     		ldr	r2, .L86
 1510 0a9a 3B68     		ldr	r3, [r7, #0]
 1511 0a9c 4FEA8353 		lsl	r3, r3, #22
 1512 0aa0 4FEA9353 		lsr	r3, r3, #22
 1513 0aa4 5362     		str	r3, [r2, #36]
 521:../src/lib/lpc177x_8x/Drivers/source/lpc177x_8x_emc.c ****             break;
 1514              		.loc 1 521 0
 1515 0aa6 4AE0     		b	.L84
 1516              	.L71:
 522:../src/lib/lpc177x_8x/Drivers/source/lpc177x_8x_emc.c ****         
 523:../src/lib/lpc177x_8x/Drivers/source/lpc177x_8x_emc.c ****         case EMC_DYN_MEM_READ_CONFIG:
 524:../src/lib/lpc177x_8x/Drivers/source/lpc177x_8x_emc.c ****             LPC_EMC->DynamicReadConfig = EMC_DynamicReadConfig_RD(val);
 1517              		.loc 1 524 0
 1518 0aa8 294B     		ldr	r3, .L86
 1519 0aaa 3A68     		ldr	r2, [r7, #0]
 1520 0aac 02F00302 		and	r2, r2, #3
 1521 0ab0 9A62     		str	r2, [r3, #40]
 525:../src/lib/lpc177x_8x/Drivers/source/lpc177x_8x_emc.c ****             break;
 1522              		.loc 1 525 0
 1523 0ab2 44E0     		b	.L84
 1524              	.L72:
 526:../src/lib/lpc177x_8x/Drivers/source/lpc177x_8x_emc.c ****         
 527:../src/lib/lpc177x_8x/Drivers/source/lpc177x_8x_emc.c ****         case EMC_DYN_MEM_TRP:
 528:../src/lib/lpc177x_8x/Drivers/source/lpc177x_8x_emc.c ****             LPC_EMC->DynamicRP = EMC_DynamictRP_tRP(val);
 1525              		.loc 1 528 0
 1526 0ab4 264B     		ldr	r3, .L86
 1527 0ab6 3A68     		ldr	r2, [r7, #0]
 1528 0ab8 02F00F02 		and	r2, r2, #15
 1529 0abc 1A63     		str	r2, [r3, #48]
 529:../src/lib/lpc177x_8x/Drivers/source/lpc177x_8x_emc.c ****             break;
 1530              		.loc 1 529 0
 1531 0abe 3EE0     		b	.L84
 1532              	.L73:
 530:../src/lib/lpc177x_8x/Drivers/source/lpc177x_8x_emc.c ****         
 531:../src/lib/lpc177x_8x/Drivers/source/lpc177x_8x_emc.c ****         case EMC_DYN_MEM_TRAS:
 532:../src/lib/lpc177x_8x/Drivers/source/lpc177x_8x_emc.c ****             LPC_EMC->DynamicRAS = EMC_DynamictRP_tRAS(val);
 1533              		.loc 1 532 0
 1534 0ac0 234B     		ldr	r3, .L86
 1535 0ac2 3A68     		ldr	r2, [r7, #0]
 1536 0ac4 02F00F02 		and	r2, r2, #15
 1537 0ac8 5A63     		str	r2, [r3, #52]
 533:../src/lib/lpc177x_8x/Drivers/source/lpc177x_8x_emc.c ****             break;
 1538              		.loc 1 533 0
 1539 0aca 38E0     		b	.L84
 1540              	.L74:
 534:../src/lib/lpc177x_8x/Drivers/source/lpc177x_8x_emc.c ****         
 535:../src/lib/lpc177x_8x/Drivers/source/lpc177x_8x_emc.c ****         case EMC_DYN_MEM_TSREX:
 536:../src/lib/lpc177x_8x/Drivers/source/lpc177x_8x_emc.c ****             LPC_EMC->DynamicSREX = EMC_DynamictRP_tSREX(val);
 1541              		.loc 1 536 0
 1542 0acc 204B     		ldr	r3, .L86
 1543 0ace 3A68     		ldr	r2, [r7, #0]
 1544 0ad0 02F00F02 		and	r2, r2, #15
 1545 0ad4 9A63     		str	r2, [r3, #56]
 537:../src/lib/lpc177x_8x/Drivers/source/lpc177x_8x_emc.c ****             break;
 1546              		.loc 1 537 0
 1547 0ad6 32E0     		b	.L84
 1548              	.L75:
 538:../src/lib/lpc177x_8x/Drivers/source/lpc177x_8x_emc.c ****         
 539:../src/lib/lpc177x_8x/Drivers/source/lpc177x_8x_emc.c ****         case EMC_DYN_MEM_TAPR:
 540:../src/lib/lpc177x_8x/Drivers/source/lpc177x_8x_emc.c ****             LPC_EMC->DynamicAPR = EMC_DynamictAPR_tAPR(val);
 1549              		.loc 1 540 0
 1550 0ad8 1D4B     		ldr	r3, .L86
 1551 0ada 3A68     		ldr	r2, [r7, #0]
 1552 0adc 02F00F02 		and	r2, r2, #15
 1553 0ae0 DA63     		str	r2, [r3, #60]
 541:../src/lib/lpc177x_8x/Drivers/source/lpc177x_8x_emc.c ****             break;
 1554              		.loc 1 541 0
 1555 0ae2 2CE0     		b	.L84
 1556              	.L76:
 542:../src/lib/lpc177x_8x/Drivers/source/lpc177x_8x_emc.c ****         
 543:../src/lib/lpc177x_8x/Drivers/source/lpc177x_8x_emc.c ****         case EMC_DYN_MEM_TDAL:
 544:../src/lib/lpc177x_8x/Drivers/source/lpc177x_8x_emc.c ****             LPC_EMC->DynamicDAL =EMC_DynamictDAL_tDAL(val);
 1557              		.loc 1 544 0
 1558 0ae4 1A4B     		ldr	r3, .L86
 1559 0ae6 3A68     		ldr	r2, [r7, #0]
 1560 0ae8 02F00F02 		and	r2, r2, #15
 1561 0aec 1A64     		str	r2, [r3, #64]
 545:../src/lib/lpc177x_8x/Drivers/source/lpc177x_8x_emc.c ****             break;
 1562              		.loc 1 545 0
 1563 0aee 26E0     		b	.L84
 1564              	.L77:
 546:../src/lib/lpc177x_8x/Drivers/source/lpc177x_8x_emc.c ****         
 547:../src/lib/lpc177x_8x/Drivers/source/lpc177x_8x_emc.c ****         case EMC_DYN_MEM_TWR:
 548:../src/lib/lpc177x_8x/Drivers/source/lpc177x_8x_emc.c ****             LPC_EMC->DynamicWR = EMC_DynamictWR_tWR(val);
 1565              		.loc 1 548 0
 1566 0af0 174B     		ldr	r3, .L86
 1567 0af2 3A68     		ldr	r2, [r7, #0]
 1568 0af4 02F00F02 		and	r2, r2, #15
 1569 0af8 5A64     		str	r2, [r3, #68]
 549:../src/lib/lpc177x_8x/Drivers/source/lpc177x_8x_emc.c ****             break;
 1570              		.loc 1 549 0
 1571 0afa 20E0     		b	.L84
 1572              	.L78:
 550:../src/lib/lpc177x_8x/Drivers/source/lpc177x_8x_emc.c ****         
 551:../src/lib/lpc177x_8x/Drivers/source/lpc177x_8x_emc.c ****         case EMC_DYN_MEM_TRC:
 552:../src/lib/lpc177x_8x/Drivers/source/lpc177x_8x_emc.c ****             LPC_EMC->DynamicRC = EMC_DynamictRC_tRC(val);
 1573              		.loc 1 552 0
 1574 0afc 144B     		ldr	r3, .L86
 1575 0afe 3A68     		ldr	r2, [r7, #0]
 1576 0b00 02F01F02 		and	r2, r2, #31
 1577 0b04 9A64     		str	r2, [r3, #72]
 553:../src/lib/lpc177x_8x/Drivers/source/lpc177x_8x_emc.c ****             break;
 1578              		.loc 1 553 0
 1579 0b06 1AE0     		b	.L84
 1580              	.L79:
 554:../src/lib/lpc177x_8x/Drivers/source/lpc177x_8x_emc.c ****         
 555:../src/lib/lpc177x_8x/Drivers/source/lpc177x_8x_emc.c ****         case EMC_DYN_MEM_TRFC:
 556:../src/lib/lpc177x_8x/Drivers/source/lpc177x_8x_emc.c ****             LPC_EMC->DynamicRFC = EMC_DynamictRFC_tRFC(val);
 1581              		.loc 1 556 0
 1582 0b08 114B     		ldr	r3, .L86
 1583 0b0a 3A68     		ldr	r2, [r7, #0]
 1584 0b0c 02F01F02 		and	r2, r2, #31
 1585 0b10 DA64     		str	r2, [r3, #76]
 557:../src/lib/lpc177x_8x/Drivers/source/lpc177x_8x_emc.c ****             break;
 1586              		.loc 1 557 0
 1587 0b12 14E0     		b	.L84
 1588              	.L80:
 558:../src/lib/lpc177x_8x/Drivers/source/lpc177x_8x_emc.c ****         
 559:../src/lib/lpc177x_8x/Drivers/source/lpc177x_8x_emc.c ****         case EMC_DYN_MEM_TXSR:
 560:../src/lib/lpc177x_8x/Drivers/source/lpc177x_8x_emc.c ****             LPC_EMC->DynamicXSR = EMC_DynamictXSR_tXSR(val);
 1589              		.loc 1 560 0
 1590 0b14 0E4B     		ldr	r3, .L86
 1591 0b16 3A68     		ldr	r2, [r7, #0]
 1592 0b18 02F01F02 		and	r2, r2, #31
 1593 0b1c 1A65     		str	r2, [r3, #80]
 561:../src/lib/lpc177x_8x/Drivers/source/lpc177x_8x_emc.c ****             break;
 1594              		.loc 1 561 0
 1595 0b1e 0EE0     		b	.L84
 1596              	.L81:
 562:../src/lib/lpc177x_8x/Drivers/source/lpc177x_8x_emc.c ****         
 563:../src/lib/lpc177x_8x/Drivers/source/lpc177x_8x_emc.c ****         case EMC_DYN_MEM_TRRD:
 564:../src/lib/lpc177x_8x/Drivers/source/lpc177x_8x_emc.c ****             LPC_EMC->DynamicRRD = EMC_DynamictRRD_tRRD(val);
 1597              		.loc 1 564 0
 1598 0b20 0B4B     		ldr	r3, .L86
 1599 0b22 3A68     		ldr	r2, [r7, #0]
 1600 0b24 02F00F02 		and	r2, r2, #15
 1601 0b28 5A65     		str	r2, [r3, #84]
 565:../src/lib/lpc177x_8x/Drivers/source/lpc177x_8x_emc.c ****             break;
 1602              		.loc 1 565 0
 1603 0b2a 08E0     		b	.L84
 1604              	.L82:
 566:../src/lib/lpc177x_8x/Drivers/source/lpc177x_8x_emc.c ****         
 567:../src/lib/lpc177x_8x/Drivers/source/lpc177x_8x_emc.c ****         case EMC_DYN_MEM_TMRD:
 568:../src/lib/lpc177x_8x/Drivers/source/lpc177x_8x_emc.c ****             LPC_EMC->DynamicMRD = EMC_DynamictMRD_tMRD(val);
 1605              		.loc 1 568 0
 1606 0b2c 084B     		ldr	r3, .L86
 1607 0b2e 3A68     		ldr	r2, [r7, #0]
 1608 0b30 02F01F02 		and	r2, r2, #31
 1609 0b34 9A65     		str	r2, [r3, #88]
 569:../src/lib/lpc177x_8x/Drivers/source/lpc177x_8x_emc.c ****             break;
 1610              		.loc 1 569 0
 1611 0b36 02E0     		b	.L84
 1612              	.L69:
 570:../src/lib/lpc177x_8x/Drivers/source/lpc177x_8x_emc.c ****         default:
 571:../src/lib/lpc177x_8x/Drivers/source/lpc177x_8x_emc.c ****             return EMC_FUNC_INVALID_PARAM;
 1613              		.loc 1 571 0
 1614 0b38 4FF00203 		mov	r3, #2
 1615 0b3c 01E0     		b	.L85
 1616              	.L84:
 572:../src/lib/lpc177x_8x/Drivers/source/lpc177x_8x_emc.c ****     }
 573:../src/lib/lpc177x_8x/Drivers/source/lpc177x_8x_emc.c ****     return EMC_FUNC_OK;
 1617              		.loc 1 573 0
 1618 0b3e 4FF00003 		mov	r3, #0
 1619              	.L85:
 574:../src/lib/lpc177x_8x/Drivers/source/lpc177x_8x_emc.c **** }
 1620              		.loc 1 574 0
 1621 0b42 1846     		mov	r0, r3
 1622 0b44 07F10C07 		add	r7, r7, #12
 1623 0b48 BD46     		mov	sp, r7
 1624 0b4a 80BC     		pop	{r7}
 1625 0b4c 7047     		bx	lr
 1626              	.L87:
 1627 0b4e 00BF     		.align	2
 1628              	.L86:
 1629 0b50 00C00920 		.word	537509888
 1630              		.cfi_endproc
 1631              	.LFE68:
 1633              		.align	2
 1634              		.global	EMC_DynMemConfigMD
 1635              		.thumb
 1636              		.thumb_func
 1638              	EMC_DynMemConfigMD:
 1639              	.LFB69:
 575:../src/lib/lpc177x_8x/Drivers/source/lpc177x_8x_emc.c **** 
 576:../src/lib/lpc177x_8x/Drivers/source/lpc177x_8x_emc.c **** /*********************************************************************//**
 577:../src/lib/lpc177x_8x/Drivers/source/lpc177x_8x_emc.c ****  * @brief         Configure the memory device
 578:../src/lib/lpc177x_8x/Drivers/source/lpc177x_8x_emc.c ****  *
 579:../src/lib/lpc177x_8x/Drivers/source/lpc177x_8x_emc.c ****  * @param[in]    index index number, should be from 0 to 3
 580:../src/lib/lpc177x_8x/Drivers/source/lpc177x_8x_emc.c ****  *
 581:../src/lib/lpc177x_8x/Drivers/source/lpc177x_8x_emc.c ****  * @param[in]    mem_dev Memory device, should be:
 582:../src/lib/lpc177x_8x/Drivers/source/lpc177x_8x_emc.c ****  *
 583:../src/lib/lpc177x_8x/Drivers/source/lpc177x_8x_emc.c ****  *                    - EMC_DYNAMIC_CFG_MEMDEV_SDRAM: SDRAM
 584:../src/lib/lpc177x_8x/Drivers/source/lpc177x_8x_emc.c ****  *
 585:../src/lib/lpc177x_8x/Drivers/source/lpc177x_8x_emc.c ****  *                    - EMC_DYNAMIC_CFG_MEMDEV_LOWPWR_SDRAM: Low-power SDRAM
 586:../src/lib/lpc177x_8x/Drivers/source/lpc177x_8x_emc.c ****  *
 587:../src/lib/lpc177x_8x/Drivers/source/lpc177x_8x_emc.c ****  *
 588:../src/lib/lpc177x_8x/Drivers/source/lpc177x_8x_emc.c ****  * @return         EMC_FUNC_OK/EMC_FUNC_INVALID_PARAM
 589:../src/lib/lpc177x_8x/Drivers/source/lpc177x_8x_emc.c ****  **********************************************************************/
 590:../src/lib/lpc177x_8x/Drivers/source/lpc177x_8x_emc.c **** EMC_FUNC_CODE EMC_DynMemConfigMD(uint32_t index , uint32_t mem_dev)
 591:../src/lib/lpc177x_8x/Drivers/source/lpc177x_8x_emc.c **** {
 1640              		.loc 1 591 0
 1641              		.cfi_startproc
 1642              		@ args = 0, pretend = 0, frame = 8
 1643              		@ frame_needed = 1, uses_anonymous_args = 0
 1644              		@ link register save eliminated.
 1645 0b54 80B4     		push	{r7}
 1646              	.LCFI41:
 1647              		.cfi_def_cfa_offset 4
 1648              		.cfi_offset 7, -4
 1649 0b56 83B0     		sub	sp, sp, #12
 1650              	.LCFI42:
 1651              		.cfi_def_cfa_offset 16
 1652 0b58 00AF     		add	r7, sp, #0
 1653              	.LCFI43:
 1654              		.cfi_def_cfa_register 7
 1655 0b5a 7860     		str	r0, [r7, #4]
 1656 0b5c 3960     		str	r1, [r7, #0]
 592:../src/lib/lpc177x_8x/Drivers/source/lpc177x_8x_emc.c ****     switch (index)
 1657              		.loc 1 592 0
 1658 0b5e 7B68     		ldr	r3, [r7, #4]
 1659 0b60 032B     		cmp	r3, #3
 1660 0b62 57D8     		bhi	.L89
 1661 0b64 01A2     		adr	r2, .L94
 1662 0b66 52F823F0 		ldr	pc, [r2, r3, lsl #2]
 1663 0b6a 00BF     		.align	2
 1664              	.L94:
 1665 0b6c 7D0B0000 		.word	.L90+1
 1666 0b70 A30B0000 		.word	.L91+1
 1667 0b74 C90B0000 		.word	.L92+1
 1668 0b78 EF0B0000 		.word	.L93+1
 1669              	.L90:
 593:../src/lib/lpc177x_8x/Drivers/source/lpc177x_8x_emc.c ****     {
 594:../src/lib/lpc177x_8x/Drivers/source/lpc177x_8x_emc.c ****         case 0:
 595:../src/lib/lpc177x_8x/Drivers/source/lpc177x_8x_emc.c ****             LPC_EMC->DynamicConfig0  &= ~EMC_DYNAMIC_CFG_MEMDEV_BMASK;
 1670              		.loc 1 595 0
 1671 0b7c 2B4B     		ldr	r3, .L97
 1672 0b7e 2B4A     		ldr	r2, .L97
 1673 0b80 D2F80021 		ldr	r2, [r2, #256]
 1674 0b84 22F01802 		bic	r2, r2, #24
 1675 0b88 C3F80021 		str	r2, [r3, #256]
 596:../src/lib/lpc177x_8x/Drivers/source/lpc177x_8x_emc.c ****             LPC_EMC->DynamicConfig0 |=  mem_dev & EMC_DYNAMIC_CFG_MEMDEV_BMASK;
 1676              		.loc 1 596 0
 1677 0b8c 274B     		ldr	r3, .L97
 1678 0b8e 274A     		ldr	r2, .L97
 1679 0b90 D2F80011 		ldr	r1, [r2, #256]
 1680 0b94 3A68     		ldr	r2, [r7, #0]
 1681 0b96 02F01802 		and	r2, r2, #24
 1682 0b9a 0A43     		orrs	r2, r2, r1
 1683 0b9c C3F80021 		str	r2, [r3, #256]
 597:../src/lib/lpc177x_8x/Drivers/source/lpc177x_8x_emc.c ****             break;
 1684              		.loc 1 597 0
 1685 0ba0 3BE0     		b	.L95
 1686              	.L91:
 598:../src/lib/lpc177x_8x/Drivers/source/lpc177x_8x_emc.c ****         
 599:../src/lib/lpc177x_8x/Drivers/source/lpc177x_8x_emc.c ****         case 1:
 600:../src/lib/lpc177x_8x/Drivers/source/lpc177x_8x_emc.c ****             LPC_EMC->DynamicConfig1  &= ~EMC_DYNAMIC_CFG_MEMDEV_BMASK;
 1687              		.loc 1 600 0
 1688 0ba2 224B     		ldr	r3, .L97
 1689 0ba4 214A     		ldr	r2, .L97
 1690 0ba6 D2F82021 		ldr	r2, [r2, #288]
 1691 0baa 22F01802 		bic	r2, r2, #24
 1692 0bae C3F82021 		str	r2, [r3, #288]
 601:../src/lib/lpc177x_8x/Drivers/source/lpc177x_8x_emc.c ****             LPC_EMC->DynamicConfig1 |= mem_dev & EMC_DYNAMIC_CFG_MEMDEV_BMASK;
 1693              		.loc 1 601 0
 1694 0bb2 1E4B     		ldr	r3, .L97
 1695 0bb4 1D4A     		ldr	r2, .L97
 1696 0bb6 D2F82011 		ldr	r1, [r2, #288]
 1697 0bba 3A68     		ldr	r2, [r7, #0]
 1698 0bbc 02F01802 		and	r2, r2, #24
 1699 0bc0 0A43     		orrs	r2, r2, r1
 1700 0bc2 C3F82021 		str	r2, [r3, #288]
 602:../src/lib/lpc177x_8x/Drivers/source/lpc177x_8x_emc.c ****             break;
 1701              		.loc 1 602 0
 1702 0bc6 28E0     		b	.L95
 1703              	.L92:
 603:../src/lib/lpc177x_8x/Drivers/source/lpc177x_8x_emc.c ****         
 604:../src/lib/lpc177x_8x/Drivers/source/lpc177x_8x_emc.c ****         case 2:
 605:../src/lib/lpc177x_8x/Drivers/source/lpc177x_8x_emc.c ****             LPC_EMC->DynamicConfig2  &= ~EMC_DYNAMIC_CFG_MEMDEV_BMASK;
 1704              		.loc 1 605 0
 1705 0bc8 184B     		ldr	r3, .L97
 1706 0bca 184A     		ldr	r2, .L97
 1707 0bcc D2F84021 		ldr	r2, [r2, #320]
 1708 0bd0 22F01802 		bic	r2, r2, #24
 1709 0bd4 C3F84021 		str	r2, [r3, #320]
 606:../src/lib/lpc177x_8x/Drivers/source/lpc177x_8x_emc.c ****             LPC_EMC->DynamicConfig2 |= mem_dev & EMC_DYNAMIC_CFG_MEMDEV_BMASK;
 1710              		.loc 1 606 0
 1711 0bd8 144B     		ldr	r3, .L97
 1712 0bda 144A     		ldr	r2, .L97
 1713 0bdc D2F84011 		ldr	r1, [r2, #320]
 1714 0be0 3A68     		ldr	r2, [r7, #0]
 1715 0be2 02F01802 		and	r2, r2, #24
 1716 0be6 0A43     		orrs	r2, r2, r1
 1717 0be8 C3F84021 		str	r2, [r3, #320]
 607:../src/lib/lpc177x_8x/Drivers/source/lpc177x_8x_emc.c ****             break;
 1718              		.loc 1 607 0
 1719 0bec 15E0     		b	.L95
 1720              	.L93:
 608:../src/lib/lpc177x_8x/Drivers/source/lpc177x_8x_emc.c ****         
 609:../src/lib/lpc177x_8x/Drivers/source/lpc177x_8x_emc.c ****         case 3:
 610:../src/lib/lpc177x_8x/Drivers/source/lpc177x_8x_emc.c ****             LPC_EMC->DynamicConfig3  &= ~EMC_DYNAMIC_CFG_MEMDEV_BMASK;
 1721              		.loc 1 610 0
 1722 0bee 0F4B     		ldr	r3, .L97
 1723 0bf0 0E4A     		ldr	r2, .L97
 1724 0bf2 D2F86021 		ldr	r2, [r2, #352]
 1725 0bf6 22F01802 		bic	r2, r2, #24
 1726 0bfa C3F86021 		str	r2, [r3, #352]
 611:../src/lib/lpc177x_8x/Drivers/source/lpc177x_8x_emc.c ****             LPC_EMC->DynamicConfig3 |=  mem_dev & EMC_DYNAMIC_CFG_MEMDEV_BMASK;
 1727              		.loc 1 611 0
 1728 0bfe 0B4B     		ldr	r3, .L97
 1729 0c00 0A4A     		ldr	r2, .L97
 1730 0c02 D2F86011 		ldr	r1, [r2, #352]
 1731 0c06 3A68     		ldr	r2, [r7, #0]
 1732 0c08 02F01802 		and	r2, r2, #24
 1733 0c0c 0A43     		orrs	r2, r2, r1
 1734 0c0e C3F86021 		str	r2, [r3, #352]
 612:../src/lib/lpc177x_8x/Drivers/source/lpc177x_8x_emc.c ****             break;
 1735              		.loc 1 612 0
 1736 0c12 02E0     		b	.L95
 1737              	.L89:
 613:../src/lib/lpc177x_8x/Drivers/source/lpc177x_8x_emc.c ****         default:
 614:../src/lib/lpc177x_8x/Drivers/source/lpc177x_8x_emc.c ****             return EMC_FUNC_INVALID_PARAM;
 1738              		.loc 1 614 0
 1739 0c14 4FF00203 		mov	r3, #2
 1740 0c18 01E0     		b	.L96
 1741              	.L95:
 615:../src/lib/lpc177x_8x/Drivers/source/lpc177x_8x_emc.c ****     }
 616:../src/lib/lpc177x_8x/Drivers/source/lpc177x_8x_emc.c ****     return EMC_FUNC_OK;
 1742              		.loc 1 616 0
 1743 0c1a 4FF00003 		mov	r3, #0
 1744              	.L96:
 617:../src/lib/lpc177x_8x/Drivers/source/lpc177x_8x_emc.c **** }
 1745              		.loc 1 617 0
 1746 0c1e 1846     		mov	r0, r3
 1747 0c20 07F10C07 		add	r7, r7, #12
 1748 0c24 BD46     		mov	sp, r7
 1749 0c26 80BC     		pop	{r7}
 1750 0c28 7047     		bx	lr
 1751              	.L98:
 1752 0c2a 00BF     		.align	2
 1753              	.L97:
 1754 0c2c 00C00920 		.word	537509888
 1755              		.cfi_endproc
 1756              	.LFE69:
 1758              		.align	2
 1759              		.global	EMC_DynMemConfigAM
 1760              		.thumb
 1761              		.thumb_func
 1763              	EMC_DynMemConfigAM:
 1764              	.LFB70:
 618:../src/lib/lpc177x_8x/Drivers/source/lpc177x_8x_emc.c **** 
 619:../src/lib/lpc177x_8x/Drivers/source/lpc177x_8x_emc.c **** /*********************************************************************//**
 620:../src/lib/lpc177x_8x/Drivers/source/lpc177x_8x_emc.c ****  * @brief         Map the address for the memory device
 621:../src/lib/lpc177x_8x/Drivers/source/lpc177x_8x_emc.c ****  *
 622:../src/lib/lpc177x_8x/Drivers/source/lpc177x_8x_emc.c ****  * @param[in]    index index number, should be from 0 to 3
 623:../src/lib/lpc177x_8x/Drivers/source/lpc177x_8x_emc.c ****  *
 624:../src/lib/lpc177x_8x/Drivers/source/lpc177x_8x_emc.c ****  * @param[in]     add_mapped address where the memory will be mapped
 625:../src/lib/lpc177x_8x/Drivers/source/lpc177x_8x_emc.c ****  *
 626:../src/lib/lpc177x_8x/Drivers/source/lpc177x_8x_emc.c ****  * @return         EMC_FUNC_OK
 627:../src/lib/lpc177x_8x/Drivers/source/lpc177x_8x_emc.c ****  **********************************************************************/
 628:../src/lib/lpc177x_8x/Drivers/source/lpc177x_8x_emc.c **** EMC_FUNC_CODE EMC_DynMemConfigAM(uint32_t index , 
 629:../src/lib/lpc177x_8x/Drivers/source/lpc177x_8x_emc.c ****                                                                        uint8_t addr_bus_width, uint
 630:../src/lib/lpc177x_8x/Drivers/source/lpc177x_8x_emc.c ****                                                                        uint8_t data_bus_width,
 631:../src/lib/lpc177x_8x/Drivers/source/lpc177x_8x_emc.c ****                                                                        uint16_t chip_size)
 632:../src/lib/lpc177x_8x/Drivers/source/lpc177x_8x_emc.c **** {
 1765              		.loc 1 632 0
 1766              		.cfi_startproc
 1767              		@ args = 4, pretend = 0, frame = 40
 1768              		@ frame_needed = 1, uses_anonymous_args = 0
 1769              		@ link register save eliminated.
 1770 0c30 80B4     		push	{r7}
 1771              	.LCFI44:
 1772              		.cfi_def_cfa_offset 4
 1773              		.cfi_offset 7, -4
 1774 0c32 8BB0     		sub	sp, sp, #44
 1775              	.LCFI45:
 1776              		.cfi_def_cfa_offset 48
 1777 0c34 00AF     		add	r7, sp, #0
 1778              	.LCFI46:
 1779              		.cfi_def_cfa_register 7
 1780 0c36 7860     		str	r0, [r7, #4]
 1781 0c38 F970     		strb	r1, [r7, #3]
 1782 0c3a BA70     		strb	r2, [r7, #2]
 1783 0c3c 7B70     		strb	r3, [r7, #1]
 633:../src/lib/lpc177x_8x/Drivers/source/lpc177x_8x_emc.c ****     const     int  chip_max_size   =  512;  // 512Mb
 1784              		.loc 1 633 0
 1785 0c3e 4FF40073 		mov	r3, #512
 1786 0c42 3B61     		str	r3, [r7, #16]
 634:../src/lib/lpc177x_8x/Drivers/source/lpc177x_8x_emc.c ****     uint8_t     data_bus_max_size = 0;
 1787              		.loc 1 634 0
 1788 0c44 4FF00003 		mov	r3, #0
 1789 0c48 87F82730 		strb	r3, [r7, #39]
 635:../src/lib/lpc177x_8x/Drivers/source/lpc177x_8x_emc.c ****     uint32_t  add_mapped_p1 = 0x00, add_mapped_p2 = 0x00, add_mapped_p3 = 0x00;
 1790              		.loc 1 635 0
 1791 0c4c 4FF00003 		mov	r3, #0
 1792 0c50 3B62     		str	r3, [r7, #32]
 1793 0c52 4FF00003 		mov	r3, #0
 1794 0c56 FB60     		str	r3, [r7, #12]
 1795 0c58 4FF00003 		mov	r3, #0
 1796 0c5c FB61     		str	r3, [r7, #28]
 636:../src/lib/lpc177x_8x/Drivers/source/lpc177x_8x_emc.c ****     uint32_t tmp = 16, i = 0, j = 0;
 1797              		.loc 1 636 0
 1798 0c5e 4FF01003 		mov	r3, #16
 1799 0c62 BB60     		str	r3, [r7, #8]
 1800 0c64 4FF00003 		mov	r3, #0
 1801 0c68 BB61     		str	r3, [r7, #24]
 1802 0c6a 4FF00003 		mov	r3, #0
 1803 0c6e 7B61     		str	r3, [r7, #20]
 637:../src/lib/lpc177x_8x/Drivers/source/lpc177x_8x_emc.c **** 
 638:../src/lib/lpc177x_8x/Drivers/source/lpc177x_8x_emc.c ****      /* Get part 3 of address map */
 639:../src/lib/lpc177x_8x/Drivers/source/lpc177x_8x_emc.c ****     switch(addr_bus_width)
 1804              		.loc 1 639 0
 1805 0c70 FB78     		ldrb	r3, [r7, #3]	@ zero_extendqisi2
 1806 0c72 102B     		cmp	r3, #16
 1807 0c74 02D0     		beq	.L101
 1808 0c76 202B     		cmp	r3, #32
 1809 0c78 08D0     		beq	.L102
 1810 0c7a 0FE0     		b	.L123
 1811              	.L101:
 640:../src/lib/lpc177x_8x/Drivers/source/lpc177x_8x_emc.c ****     {
 641:../src/lib/lpc177x_8x/Drivers/source/lpc177x_8x_emc.c ****        case 16:
 642:../src/lib/lpc177x_8x/Drivers/source/lpc177x_8x_emc.c ****           add_mapped_p3 = 0;
 1812              		.loc 1 642 0
 1813 0c7c 4FF00003 		mov	r3, #0
 1814 0c80 FB61     		str	r3, [r7, #28]
 643:../src/lib/lpc177x_8x/Drivers/source/lpc177x_8x_emc.c ****           data_bus_max_size = 16;
 1815              		.loc 1 643 0
 1816 0c82 4FF01003 		mov	r3, #16
 1817 0c86 87F82730 		strb	r3, [r7, #39]
 644:../src/lib/lpc177x_8x/Drivers/source/lpc177x_8x_emc.c ****           break;
 1818              		.loc 1 644 0
 1819 0c8a 0AE0     		b	.L103
 1820              	.L102:
 645:../src/lib/lpc177x_8x/Drivers/source/lpc177x_8x_emc.c ****        case 32:
 646:../src/lib/lpc177x_8x/Drivers/source/lpc177x_8x_emc.c ****            add_mapped_p3 = 1;
 1821              		.loc 1 646 0
 1822 0c8c 4FF00103 		mov	r3, #1
 1823 0c90 FB61     		str	r3, [r7, #28]
 647:../src/lib/lpc177x_8x/Drivers/source/lpc177x_8x_emc.c ****           data_bus_max_size = 32;
 1824              		.loc 1 647 0
 1825 0c92 4FF02003 		mov	r3, #32
 1826 0c96 87F82730 		strb	r3, [r7, #39]
 648:../src/lib/lpc177x_8x/Drivers/source/lpc177x_8x_emc.c ****           break;
 1827              		.loc 1 648 0
 1828 0c9a 02E0     		b	.L103
 1829              	.L123:
 649:../src/lib/lpc177x_8x/Drivers/source/lpc177x_8x_emc.c ****        default:
 650:../src/lib/lpc177x_8x/Drivers/source/lpc177x_8x_emc.c ****             return EMC_FUNC_INVALID_PARAM;
 1830              		.loc 1 650 0
 1831 0c9c 4FF00203 		mov	r3, #2
 1832 0ca0 67E1     		b	.L104
 1833              	.L103:
 651:../src/lib/lpc177x_8x/Drivers/source/lpc177x_8x_emc.c ****      }
 652:../src/lib/lpc177x_8x/Drivers/source/lpc177x_8x_emc.c **** 
 653:../src/lib/lpc177x_8x/Drivers/source/lpc177x_8x_emc.c ****       /* Get part 2 of address map */
 654:../src/lib/lpc177x_8x/Drivers/source/lpc177x_8x_emc.c ****      add_mapped_p2 = EMC_DYNAMIC_CFG_ADD_MAP_P2(addr_map);
 1834              		.loc 1 654 0
 1835 0ca2 BB78     		ldrb	r3, [r7, #2]	@ zero_extendqisi2
 1836 0ca4 4FEA0333 		lsl	r3, r3, #12
 1837 0ca8 03F48053 		and	r3, r3, #4096
 1838 0cac FB60     		str	r3, [r7, #12]
 655:../src/lib/lpc177x_8x/Drivers/source/lpc177x_8x_emc.c **** 
 656:../src/lib/lpc177x_8x/Drivers/source/lpc177x_8x_emc.c **** 
 657:../src/lib/lpc177x_8x/Drivers/source/lpc177x_8x_emc.c ****      /* Get part 1 of address map */
 658:../src/lib/lpc177x_8x/Drivers/source/lpc177x_8x_emc.c ****      if(chip_size == 16)
 1839              		.loc 1 658 0
 1840 0cae 3B8E     		ldrh	r3, [r7, #48]
 1841 0cb0 102B     		cmp	r3, #16
 1842 0cb2 11D1     		bne	.L105
 659:../src/lib/lpc177x_8x/Drivers/source/lpc177x_8x_emc.c ****      {
 660:../src/lib/lpc177x_8x/Drivers/source/lpc177x_8x_emc.c ****           if(data_bus_width == 8)
 1843              		.loc 1 660 0
 1844 0cb4 7B78     		ldrb	r3, [r7, #1]	@ zero_extendqisi2
 1845 0cb6 082B     		cmp	r3, #8
 1846 0cb8 03D1     		bne	.L106
 661:../src/lib/lpc177x_8x/Drivers/source/lpc177x_8x_emc.c ****                add_mapped_p1 = 0;
 1847              		.loc 1 661 0
 1848 0cba 4FF00003 		mov	r3, #0
 1849 0cbe 3B62     		str	r3, [r7, #32]
 1850 0cc0 4FE0     		b	.L107
 1851              	.L106:
 662:../src/lib/lpc177x_8x/Drivers/source/lpc177x_8x_emc.c ****           else  if(data_bus_width == 16)
 1852              		.loc 1 662 0
 1853 0cc2 7B78     		ldrb	r3, [r7, #1]	@ zero_extendqisi2
 1854 0cc4 102B     		cmp	r3, #16
 1855 0cc6 03D1     		bne	.L108
 663:../src/lib/lpc177x_8x/Drivers/source/lpc177x_8x_emc.c ****                add_mapped_p1 = 1;
 1856              		.loc 1 663 0
 1857 0cc8 4FF00103 		mov	r3, #1
 1858 0ccc 3B62     		str	r3, [r7, #32]
 1859 0cce 48E0     		b	.L107
 1860              	.L108:
 664:../src/lib/lpc177x_8x/Drivers/source/lpc177x_8x_emc.c ****           else
 665:../src/lib/lpc177x_8x/Drivers/source/lpc177x_8x_emc.c ****          return EMC_FUNC_INVALID_PARAM;     
 1861              		.loc 1 665 0
 1862 0cd0 4FF00203 		mov	r3, #2
 1863 0cd4 4DE1     		b	.L104
 1864              	.L125:
 666:../src/lib/lpc177x_8x/Drivers/source/lpc177x_8x_emc.c ****      }
 667:../src/lib/lpc177x_8x/Drivers/source/lpc177x_8x_emc.c ****      else
 668:../src/lib/lpc177x_8x/Drivers/source/lpc177x_8x_emc.c ****      {
 669:../src/lib/lpc177x_8x/Drivers/source/lpc177x_8x_emc.c ****            while(1)
 670:../src/lib/lpc177x_8x/Drivers/source/lpc177x_8x_emc.c ****            {
 671:../src/lib/lpc177x_8x/Drivers/source/lpc177x_8x_emc.c ****                 i++;
 672:../src/lib/lpc177x_8x/Drivers/source/lpc177x_8x_emc.c ****                 tmp = 16*(0x01 << (i+1));
 673:../src/lib/lpc177x_8x/Drivers/source/lpc177x_8x_emc.c ****                 if(tmp == chip_size)
 674:../src/lib/lpc177x_8x/Drivers/source/lpc177x_8x_emc.c ****                 {
 675:../src/lib/lpc177x_8x/Drivers/source/lpc177x_8x_emc.c ****                     for(j = 0; (8<<j)<=data_bus_max_size;j++)
 676:../src/lib/lpc177x_8x/Drivers/source/lpc177x_8x_emc.c ****                     {
 677:../src/lib/lpc177x_8x/Drivers/source/lpc177x_8x_emc.c ****                          if((8<<j) == data_bus_width)
 678:../src/lib/lpc177x_8x/Drivers/source/lpc177x_8x_emc.c ****                              break;
 679:../src/lib/lpc177x_8x/Drivers/source/lpc177x_8x_emc.c ****                     }
 680:../src/lib/lpc177x_8x/Drivers/source/lpc177x_8x_emc.c ****                     if( (8<<j) > data_bus_max_size)
 681:../src/lib/lpc177x_8x/Drivers/source/lpc177x_8x_emc.c ****                          return EMC_FUNC_INVALID_PARAM;
 682:../src/lib/lpc177x_8x/Drivers/source/lpc177x_8x_emc.c ****             
 683:../src/lib/lpc177x_8x/Drivers/source/lpc177x_8x_emc.c ****                     add_mapped_p1 = (i<<2) + j;
 684:../src/lib/lpc177x_8x/Drivers/source/lpc177x_8x_emc.c ****                     break;
 685:../src/lib/lpc177x_8x/Drivers/source/lpc177x_8x_emc.c ****                 }
 686:../src/lib/lpc177x_8x/Drivers/source/lpc177x_8x_emc.c ****                 if(tmp >= chip_max_size)
 687:../src/lib/lpc177x_8x/Drivers/source/lpc177x_8x_emc.c ****                 {
 688:../src/lib/lpc177x_8x/Drivers/source/lpc177x_8x_emc.c ****                     return EMC_FUNC_INVALID_PARAM;
 689:../src/lib/lpc177x_8x/Drivers/source/lpc177x_8x_emc.c ****                 }
 690:../src/lib/lpc177x_8x/Drivers/source/lpc177x_8x_emc.c ****            }
 1865              		.loc 1 690 0
 1866 0cd6 00BF     		nop
 1867              	.L105:
 671:../src/lib/lpc177x_8x/Drivers/source/lpc177x_8x_emc.c ****                 i++;
 1868              		.loc 1 671 0
 1869 0cd8 BB69     		ldr	r3, [r7, #24]
 1870 0cda 03F10103 		add	r3, r3, #1
 1871 0cde BB61     		str	r3, [r7, #24]
 672:../src/lib/lpc177x_8x/Drivers/source/lpc177x_8x_emc.c ****                 tmp = 16*(0x01 << (i+1));
 1872              		.loc 1 672 0
 1873 0ce0 BB69     		ldr	r3, [r7, #24]
 1874 0ce2 03F10103 		add	r3, r3, #1
 1875 0ce6 4FF01002 		mov	r2, #16
 1876 0cea 02FA03F3 		lsl	r3, r2, r3
 1877 0cee BB60     		str	r3, [r7, #8]
 673:../src/lib/lpc177x_8x/Drivers/source/lpc177x_8x_emc.c ****                 if(tmp == chip_size)
 1878              		.loc 1 673 0
 1879 0cf0 3A8E     		ldrh	r2, [r7, #48]
 1880 0cf2 BB68     		ldr	r3, [r7, #8]
 1881 0cf4 9A42     		cmp	r2, r3
 1882 0cf6 2DD1     		bne	.L109
 675:../src/lib/lpc177x_8x/Drivers/source/lpc177x_8x_emc.c ****                     for(j = 0; (8<<j)<=data_bus_max_size;j++)
 1883              		.loc 1 675 0
 1884 0cf8 4FF00003 		mov	r3, #0
 1885 0cfc 7B61     		str	r3, [r7, #20]
 1886 0cfe 0BE0     		b	.L110
 1887              	.L113:
 677:../src/lib/lpc177x_8x/Drivers/source/lpc177x_8x_emc.c ****                          if((8<<j) == data_bus_width)
 1888              		.loc 1 677 0
 1889 0d00 7B69     		ldr	r3, [r7, #20]
 1890 0d02 4FF00802 		mov	r2, #8
 1891 0d06 02FA03F2 		lsl	r2, r2, r3
 1892 0d0a 7B78     		ldrb	r3, [r7, #1]	@ zero_extendqisi2
 1893 0d0c 9A42     		cmp	r2, r3
 1894 0d0e 0DD0     		beq	.L124
 1895              	.L111:
 675:../src/lib/lpc177x_8x/Drivers/source/lpc177x_8x_emc.c ****                     for(j = 0; (8<<j)<=data_bus_max_size;j++)
 1896              		.loc 1 675 0
 1897 0d10 7B69     		ldr	r3, [r7, #20]
 1898 0d12 03F10103 		add	r3, r3, #1
 1899 0d16 7B61     		str	r3, [r7, #20]
 1900              	.L110:
 675:../src/lib/lpc177x_8x/Drivers/source/lpc177x_8x_emc.c ****                     for(j = 0; (8<<j)<=data_bus_max_size;j++)
 1901              		.loc 1 675 0 is_stmt 0 discriminator 1
 1902 0d18 7B69     		ldr	r3, [r7, #20]
 1903 0d1a 4FF00802 		mov	r2, #8
 1904 0d1e 02FA03F2 		lsl	r2, r2, r3
 1905 0d22 97F82730 		ldrb	r3, [r7, #39]	@ zero_extendqisi2
 1906 0d26 9A42     		cmp	r2, r3
 1907 0d28 EADD     		ble	.L113
 1908 0d2a 00E0     		b	.L112
 1909              	.L124:
 678:../src/lib/lpc177x_8x/Drivers/source/lpc177x_8x_emc.c ****                              break;
 1910              		.loc 1 678 0 is_stmt 1
 1911 0d2c 00BF     		nop
 1912              	.L112:
 680:../src/lib/lpc177x_8x/Drivers/source/lpc177x_8x_emc.c ****                     if( (8<<j) > data_bus_max_size)
 1913              		.loc 1 680 0
 1914 0d2e 7B69     		ldr	r3, [r7, #20]
 1915 0d30 4FF00802 		mov	r2, #8
 1916 0d34 02FA03F2 		lsl	r2, r2, r3
 1917 0d38 97F82730 		ldrb	r3, [r7, #39]	@ zero_extendqisi2
 1918 0d3c 9A42     		cmp	r2, r3
 1919 0d3e 02DD     		ble	.L114
 681:../src/lib/lpc177x_8x/Drivers/source/lpc177x_8x_emc.c ****                          return EMC_FUNC_INVALID_PARAM;
 1920              		.loc 1 681 0
 1921 0d40 4FF00203 		mov	r3, #2
 1922 0d44 15E1     		b	.L104
 1923              	.L114:
 683:../src/lib/lpc177x_8x/Drivers/source/lpc177x_8x_emc.c ****                     add_mapped_p1 = (i<<2) + j;
 1924              		.loc 1 683 0
 1925 0d46 BB69     		ldr	r3, [r7, #24]
 1926 0d48 4FEA8302 		lsl	r2, r3, #2
 1927 0d4c 7B69     		ldr	r3, [r7, #20]
 1928 0d4e D318     		adds	r3, r2, r3
 1929 0d50 3B62     		str	r3, [r7, #32]
 684:../src/lib/lpc177x_8x/Drivers/source/lpc177x_8x_emc.c ****                     break;
 1930              		.loc 1 684 0
 1931 0d52 06E0     		b	.L107
 1932              	.L109:
 686:../src/lib/lpc177x_8x/Drivers/source/lpc177x_8x_emc.c ****                 if(tmp >= chip_max_size)
 1933              		.loc 1 686 0
 1934 0d54 3A69     		ldr	r2, [r7, #16]
 1935 0d56 BB68     		ldr	r3, [r7, #8]
 1936 0d58 9A42     		cmp	r2, r3
 1937 0d5a BCD8     		bhi	.L125
 688:../src/lib/lpc177x_8x/Drivers/source/lpc177x_8x_emc.c ****                     return EMC_FUNC_INVALID_PARAM;
 1938              		.loc 1 688 0
 1939 0d5c 4FF00203 		mov	r3, #2
 1940 0d60 07E1     		b	.L104
 1941              	.L107:
 691:../src/lib/lpc177x_8x/Drivers/source/lpc177x_8x_emc.c ****        }
 692:../src/lib/lpc177x_8x/Drivers/source/lpc177x_8x_emc.c ****       
 693:../src/lib/lpc177x_8x/Drivers/source/lpc177x_8x_emc.c ****     switch ( index)
 1942              		.loc 1 693 0
 1943 0d62 7B68     		ldr	r3, [r7, #4]
 1944 0d64 032B     		cmp	r3, #3
 1945 0d66 00F2FF80 		bhi	.L116
 1946 0d6a 01A2     		adr	r2, .L121
 1947 0d6c 52F823F0 		ldr	pc, [r2, r3, lsl #2]
 1948              		.align	2
 1949              	.L121:
 1950 0d70 810D0000 		.word	.L117+1
 1951 0d74 FB0D0000 		.word	.L118+1
 1952 0d78 750E0000 		.word	.L119+1
 1953 0d7c EF0E0000 		.word	.L120+1
 1954              	.L117:
 694:../src/lib/lpc177x_8x/Drivers/source/lpc177x_8x_emc.c ****     {
 695:../src/lib/lpc177x_8x/Drivers/source/lpc177x_8x_emc.c ****         case 0:
 696:../src/lib/lpc177x_8x/Drivers/source/lpc177x_8x_emc.c ****             LPC_EMC->DynamicConfig0 &= ~EMC_DYNAMIC_CFG_ADD_MAP_P1_MASK;
 1955              		.loc 1 696 0
 1956 0d80 7F4B     		ldr	r3, .L126
 1957 0d82 7F4A     		ldr	r2, .L126
 1958 0d84 D2F80021 		ldr	r2, [r2, #256]
 1959 0d88 22F4FC52 		bic	r2, r2, #8064
 1960 0d8c C3F80021 		str	r2, [r3, #256]
 697:../src/lib/lpc177x_8x/Drivers/source/lpc177x_8x_emc.c ****             LPC_EMC->DynamicConfig0 |=  EMC_DYNAMIC_CFG_ADD_MAP_P1(add_mapped_p1);
 1961              		.loc 1 697 0
 1962 0d90 7B4B     		ldr	r3, .L126
 1963 0d92 7B4A     		ldr	r2, .L126
 1964 0d94 D2F80011 		ldr	r1, [r2, #256]
 1965 0d98 3A6A     		ldr	r2, [r7, #32]
 1966 0d9a 4FEAC212 		lsl	r2, r2, #7
 1967 0d9e 02F4FC52 		and	r2, r2, #8064
 1968 0da2 0A43     		orrs	r2, r2, r1
 1969 0da4 C3F80021 		str	r2, [r3, #256]
 698:../src/lib/lpc177x_8x/Drivers/source/lpc177x_8x_emc.c ****             LPC_EMC->DynamicConfig0 &= ~EMC_DYNAMIC_CFG_ADD_MAP_P2_MASK;
 1970              		.loc 1 698 0
 1971 0da8 754B     		ldr	r3, .L126
 1972 0daa 754A     		ldr	r2, .L126
 1973 0dac D2F80021 		ldr	r2, [r2, #256]
 1974 0db0 22F48052 		bic	r2, r2, #4096
 1975 0db4 C3F80021 		str	r2, [r3, #256]
 699:../src/lib/lpc177x_8x/Drivers/source/lpc177x_8x_emc.c ****             LPC_EMC->DynamicConfig0 |=  EMC_DYNAMIC_CFG_ADD_MAP_P2(add_mapped_p2);
 1976              		.loc 1 699 0
 1977 0db8 714B     		ldr	r3, .L126
 1978 0dba 714A     		ldr	r2, .L126
 1979 0dbc D2F80011 		ldr	r1, [r2, #256]
 1980 0dc0 FA68     		ldr	r2, [r7, #12]
 1981 0dc2 4FEA0232 		lsl	r2, r2, #12
 1982 0dc6 02F48052 		and	r2, r2, #4096
 1983 0dca 0A43     		orrs	r2, r2, r1
 1984 0dcc C3F80021 		str	r2, [r3, #256]
 700:../src/lib/lpc177x_8x/Drivers/source/lpc177x_8x_emc.c ****             LPC_EMC->DynamicConfig0 &= ~EMC_DYNAMIC_CFG_ADD_MAP_P3_MASK;
 1985              		.loc 1 700 0
 1986 0dd0 6B4B     		ldr	r3, .L126
 1987 0dd2 6B4A     		ldr	r2, .L126
 1988 0dd4 D2F80021 		ldr	r2, [r2, #256]
 1989 0dd8 22F48042 		bic	r2, r2, #16384
 1990 0ddc C3F80021 		str	r2, [r3, #256]
 701:../src/lib/lpc177x_8x/Drivers/source/lpc177x_8x_emc.c ****             LPC_EMC->DynamicConfig0 |=  EMC_DYNAMIC_CFG_ADD_MAP_P3(add_mapped_p3);
 1991              		.loc 1 701 0
 1992 0de0 674B     		ldr	r3, .L126
 1993 0de2 674A     		ldr	r2, .L126
 1994 0de4 D2F80011 		ldr	r1, [r2, #256]
 1995 0de8 FA69     		ldr	r2, [r7, #28]
 1996 0dea 4FEA8232 		lsl	r2, r2, #14
 1997 0dee 02F48042 		and	r2, r2, #16384
 1998 0df2 0A43     		orrs	r2, r2, r1
 1999 0df4 C3F80021 		str	r2, [r3, #256]
 702:../src/lib/lpc177x_8x/Drivers/source/lpc177x_8x_emc.c ****             break;
 2000              		.loc 1 702 0
 2001 0df8 B9E0     		b	.L122
 2002              	.L118:
 703:../src/lib/lpc177x_8x/Drivers/source/lpc177x_8x_emc.c ****         
 704:../src/lib/lpc177x_8x/Drivers/source/lpc177x_8x_emc.c ****         case 1:
 705:../src/lib/lpc177x_8x/Drivers/source/lpc177x_8x_emc.c ****             LPC_EMC->DynamicConfig1 &= ~EMC_DYNAMIC_CFG_ADD_MAP_P1_MASK;
 2003              		.loc 1 705 0
 2004 0dfa 614B     		ldr	r3, .L126
 2005 0dfc 604A     		ldr	r2, .L126
 2006 0dfe D2F82021 		ldr	r2, [r2, #288]
 2007 0e02 22F4FC52 		bic	r2, r2, #8064
 2008 0e06 C3F82021 		str	r2, [r3, #288]
 706:../src/lib/lpc177x_8x/Drivers/source/lpc177x_8x_emc.c ****             LPC_EMC->DynamicConfig1 |=  EMC_DYNAMIC_CFG_ADD_MAP_P1(add_mapped_p1);
 2009              		.loc 1 706 0
 2010 0e0a 5D4B     		ldr	r3, .L126
 2011 0e0c 5C4A     		ldr	r2, .L126
 2012 0e0e D2F82011 		ldr	r1, [r2, #288]
 2013 0e12 3A6A     		ldr	r2, [r7, #32]
 2014 0e14 4FEAC212 		lsl	r2, r2, #7
 2015 0e18 02F4FC52 		and	r2, r2, #8064
 2016 0e1c 0A43     		orrs	r2, r2, r1
 2017 0e1e C3F82021 		str	r2, [r3, #288]
 707:../src/lib/lpc177x_8x/Drivers/source/lpc177x_8x_emc.c ****             LPC_EMC->DynamicConfig1 &= ~EMC_DYNAMIC_CFG_ADD_MAP_P2_MASK;
 2018              		.loc 1 707 0
 2019 0e22 574B     		ldr	r3, .L126
 2020 0e24 564A     		ldr	r2, .L126
 2021 0e26 D2F82021 		ldr	r2, [r2, #288]
 2022 0e2a 22F48052 		bic	r2, r2, #4096
 2023 0e2e C3F82021 		str	r2, [r3, #288]
 708:../src/lib/lpc177x_8x/Drivers/source/lpc177x_8x_emc.c ****             LPC_EMC->DynamicConfig1 |=  EMC_DYNAMIC_CFG_ADD_MAP_P2(add_mapped_p2);
 2024              		.loc 1 708 0
 2025 0e32 534B     		ldr	r3, .L126
 2026 0e34 524A     		ldr	r2, .L126
 2027 0e36 D2F82011 		ldr	r1, [r2, #288]
 2028 0e3a FA68     		ldr	r2, [r7, #12]
 2029 0e3c 4FEA0232 		lsl	r2, r2, #12
 2030 0e40 02F48052 		and	r2, r2, #4096
 2031 0e44 0A43     		orrs	r2, r2, r1
 2032 0e46 C3F82021 		str	r2, [r3, #288]
 709:../src/lib/lpc177x_8x/Drivers/source/lpc177x_8x_emc.c ****             LPC_EMC->DynamicConfig1 &= ~EMC_DYNAMIC_CFG_ADD_MAP_P3_MASK;
 2033              		.loc 1 709 0
 2034 0e4a 4D4B     		ldr	r3, .L126
 2035 0e4c 4C4A     		ldr	r2, .L126
 2036 0e4e D2F82021 		ldr	r2, [r2, #288]
 2037 0e52 22F48042 		bic	r2, r2, #16384
 2038 0e56 C3F82021 		str	r2, [r3, #288]
 710:../src/lib/lpc177x_8x/Drivers/source/lpc177x_8x_emc.c ****             LPC_EMC->DynamicConfig1 |=  EMC_DYNAMIC_CFG_ADD_MAP_P3(add_mapped_p3);
 2039              		.loc 1 710 0
 2040 0e5a 494B     		ldr	r3, .L126
 2041 0e5c 484A     		ldr	r2, .L126
 2042 0e5e D2F82011 		ldr	r1, [r2, #288]
 2043 0e62 FA69     		ldr	r2, [r7, #28]
 2044 0e64 4FEA8232 		lsl	r2, r2, #14
 2045 0e68 02F48042 		and	r2, r2, #16384
 2046 0e6c 0A43     		orrs	r2, r2, r1
 2047 0e6e C3F82021 		str	r2, [r3, #288]
 711:../src/lib/lpc177x_8x/Drivers/source/lpc177x_8x_emc.c **** 
 712:../src/lib/lpc177x_8x/Drivers/source/lpc177x_8x_emc.c ****             break;
 2048              		.loc 1 712 0
 2049 0e72 7CE0     		b	.L122
 2050              	.L119:
 713:../src/lib/lpc177x_8x/Drivers/source/lpc177x_8x_emc.c ****         
 714:../src/lib/lpc177x_8x/Drivers/source/lpc177x_8x_emc.c ****         case 2:
 715:../src/lib/lpc177x_8x/Drivers/source/lpc177x_8x_emc.c ****             LPC_EMC->DynamicConfig2 &= ~EMC_DYNAMIC_CFG_ADD_MAP_P1_MASK;
 2051              		.loc 1 715 0
 2052 0e74 424B     		ldr	r3, .L126
 2053 0e76 424A     		ldr	r2, .L126
 2054 0e78 D2F84021 		ldr	r2, [r2, #320]
 2055 0e7c 22F4FC52 		bic	r2, r2, #8064
 2056 0e80 C3F84021 		str	r2, [r3, #320]
 716:../src/lib/lpc177x_8x/Drivers/source/lpc177x_8x_emc.c ****             LPC_EMC->DynamicConfig2 |=  EMC_DYNAMIC_CFG_ADD_MAP_P1(add_mapped_p1);
 2057              		.loc 1 716 0
 2058 0e84 3E4B     		ldr	r3, .L126
 2059 0e86 3E4A     		ldr	r2, .L126
 2060 0e88 D2F84011 		ldr	r1, [r2, #320]
 2061 0e8c 3A6A     		ldr	r2, [r7, #32]
 2062 0e8e 4FEAC212 		lsl	r2, r2, #7
 2063 0e92 02F4FC52 		and	r2, r2, #8064
 2064 0e96 0A43     		orrs	r2, r2, r1
 2065 0e98 C3F84021 		str	r2, [r3, #320]
 717:../src/lib/lpc177x_8x/Drivers/source/lpc177x_8x_emc.c ****             LPC_EMC->DynamicConfig2 &= ~EMC_DYNAMIC_CFG_ADD_MAP_P2_MASK;
 2066              		.loc 1 717 0
 2067 0e9c 384B     		ldr	r3, .L126
 2068 0e9e 384A     		ldr	r2, .L126
 2069 0ea0 D2F84021 		ldr	r2, [r2, #320]
 2070 0ea4 22F48052 		bic	r2, r2, #4096
 2071 0ea8 C3F84021 		str	r2, [r3, #320]
 718:../src/lib/lpc177x_8x/Drivers/source/lpc177x_8x_emc.c ****             LPC_EMC->DynamicConfig2 |= EMC_DYNAMIC_CFG_ADD_MAP_P2( add_mapped_p2);
 2072              		.loc 1 718 0
 2073 0eac 344B     		ldr	r3, .L126
 2074 0eae 344A     		ldr	r2, .L126
 2075 0eb0 D2F84011 		ldr	r1, [r2, #320]
 2076 0eb4 FA68     		ldr	r2, [r7, #12]
 2077 0eb6 4FEA0232 		lsl	r2, r2, #12
 2078 0eba 02F48052 		and	r2, r2, #4096
 2079 0ebe 0A43     		orrs	r2, r2, r1
 2080 0ec0 C3F84021 		str	r2, [r3, #320]
 719:../src/lib/lpc177x_8x/Drivers/source/lpc177x_8x_emc.c ****             LPC_EMC->DynamicConfig2 &= ~EMC_DYNAMIC_CFG_ADD_MAP_P3_MASK;
 2081              		.loc 1 719 0
 2082 0ec4 2E4B     		ldr	r3, .L126
 2083 0ec6 2E4A     		ldr	r2, .L126
 2084 0ec8 D2F84021 		ldr	r2, [r2, #320]
 2085 0ecc 22F48042 		bic	r2, r2, #16384
 2086 0ed0 C3F84021 		str	r2, [r3, #320]
 720:../src/lib/lpc177x_8x/Drivers/source/lpc177x_8x_emc.c ****             LPC_EMC->DynamicConfig2 |=  EMC_DYNAMIC_CFG_ADD_MAP_P3(add_mapped_p3);
 2087              		.loc 1 720 0
 2088 0ed4 2A4B     		ldr	r3, .L126
 2089 0ed6 2A4A     		ldr	r2, .L126
 2090 0ed8 D2F84011 		ldr	r1, [r2, #320]
 2091 0edc FA69     		ldr	r2, [r7, #28]
 2092 0ede 4FEA8232 		lsl	r2, r2, #14
 2093 0ee2 02F48042 		and	r2, r2, #16384
 2094 0ee6 0A43     		orrs	r2, r2, r1
 2095 0ee8 C3F84021 		str	r2, [r3, #320]
 721:../src/lib/lpc177x_8x/Drivers/source/lpc177x_8x_emc.c **** 
 722:../src/lib/lpc177x_8x/Drivers/source/lpc177x_8x_emc.c ****             break;
 2096              		.loc 1 722 0
 2097 0eec 3FE0     		b	.L122
 2098              	.L120:
 723:../src/lib/lpc177x_8x/Drivers/source/lpc177x_8x_emc.c ****         
 724:../src/lib/lpc177x_8x/Drivers/source/lpc177x_8x_emc.c ****         case 3:
 725:../src/lib/lpc177x_8x/Drivers/source/lpc177x_8x_emc.c ****             LPC_EMC->DynamicConfig3 &= ~EMC_DYNAMIC_CFG_ADD_MAP_P1_MASK;
 2099              		.loc 1 725 0
 2100 0eee 244B     		ldr	r3, .L126
 2101 0ef0 234A     		ldr	r2, .L126
 2102 0ef2 D2F86021 		ldr	r2, [r2, #352]
 2103 0ef6 22F4FC52 		bic	r2, r2, #8064
 2104 0efa C3F86021 		str	r2, [r3, #352]
 726:../src/lib/lpc177x_8x/Drivers/source/lpc177x_8x_emc.c ****             LPC_EMC->DynamicConfig3 |=  EMC_DYNAMIC_CFG_ADD_MAP_P1(add_mapped_p1);
 2105              		.loc 1 726 0
 2106 0efe 204B     		ldr	r3, .L126
 2107 0f00 1F4A     		ldr	r2, .L126
 2108 0f02 D2F86011 		ldr	r1, [r2, #352]
 2109 0f06 3A6A     		ldr	r2, [r7, #32]
 2110 0f08 4FEAC212 		lsl	r2, r2, #7
 2111 0f0c 02F4FC52 		and	r2, r2, #8064
 2112 0f10 0A43     		orrs	r2, r2, r1
 2113 0f12 C3F86021 		str	r2, [r3, #352]
 727:../src/lib/lpc177x_8x/Drivers/source/lpc177x_8x_emc.c ****             LPC_EMC->DynamicConfig3 &= ~EMC_DYNAMIC_CFG_ADD_MAP_P2_MASK;
 2114              		.loc 1 727 0
 2115 0f16 1A4B     		ldr	r3, .L126
 2116 0f18 194A     		ldr	r2, .L126
 2117 0f1a D2F86021 		ldr	r2, [r2, #352]
 2118 0f1e 22F48052 		bic	r2, r2, #4096
 2119 0f22 C3F86021 		str	r2, [r3, #352]
 728:../src/lib/lpc177x_8x/Drivers/source/lpc177x_8x_emc.c ****             LPC_EMC->DynamicConfig3 |=  EMC_DYNAMIC_CFG_ADD_MAP_P2(add_mapped_p2);
 2120              		.loc 1 728 0
 2121 0f26 164B     		ldr	r3, .L126
 2122 0f28 154A     		ldr	r2, .L126
 2123 0f2a D2F86011 		ldr	r1, [r2, #352]
 2124 0f2e FA68     		ldr	r2, [r7, #12]
 2125 0f30 4FEA0232 		lsl	r2, r2, #12
 2126 0f34 02F48052 		and	r2, r2, #4096
 2127 0f38 0A43     		orrs	r2, r2, r1
 2128 0f3a C3F86021 		str	r2, [r3, #352]
 729:../src/lib/lpc177x_8x/Drivers/source/lpc177x_8x_emc.c ****             LPC_EMC->DynamicConfig3 &= ~EMC_DYNAMIC_CFG_ADD_MAP_P3_MASK;
 2129              		.loc 1 729 0
 2130 0f3e 104B     		ldr	r3, .L126
 2131 0f40 0F4A     		ldr	r2, .L126
 2132 0f42 D2F86021 		ldr	r2, [r2, #352]
 2133 0f46 22F48042 		bic	r2, r2, #16384
 2134 0f4a C3F86021 		str	r2, [r3, #352]
 730:../src/lib/lpc177x_8x/Drivers/source/lpc177x_8x_emc.c ****             LPC_EMC->DynamicConfig3 |=  EMC_DYNAMIC_CFG_ADD_MAP_P3(add_mapped_p3);
 2135              		.loc 1 730 0
 2136 0f4e 0C4B     		ldr	r3, .L126
 2137 0f50 0B4A     		ldr	r2, .L126
 2138 0f52 D2F86011 		ldr	r1, [r2, #352]
 2139 0f56 FA69     		ldr	r2, [r7, #28]
 2140 0f58 4FEA8232 		lsl	r2, r2, #14
 2141 0f5c 02F48042 		and	r2, r2, #16384
 2142 0f60 0A43     		orrs	r2, r2, r1
 2143 0f62 C3F86021 		str	r2, [r3, #352]
 731:../src/lib/lpc177x_8x/Drivers/source/lpc177x_8x_emc.c **** 
 732:../src/lib/lpc177x_8x/Drivers/source/lpc177x_8x_emc.c ****             break;
 2144              		.loc 1 732 0
 2145 0f66 02E0     		b	.L122
 2146              	.L116:
 733:../src/lib/lpc177x_8x/Drivers/source/lpc177x_8x_emc.c ****         default:
 734:../src/lib/lpc177x_8x/Drivers/source/lpc177x_8x_emc.c ****             return EMC_FUNC_INVALID_PARAM;
 2147              		.loc 1 734 0
 2148 0f68 4FF00203 		mov	r3, #2
 2149 0f6c 01E0     		b	.L104
 2150              	.L122:
 735:../src/lib/lpc177x_8x/Drivers/source/lpc177x_8x_emc.c ****     }
 736:../src/lib/lpc177x_8x/Drivers/source/lpc177x_8x_emc.c ****     return EMC_FUNC_OK;
 2151              		.loc 1 736 0
 2152 0f6e 4FF00003 		mov	r3, #0
 2153              	.L104:
 737:../src/lib/lpc177x_8x/Drivers/source/lpc177x_8x_emc.c **** }
 2154              		.loc 1 737 0
 2155 0f72 1846     		mov	r0, r3
 2156 0f74 07F12C07 		add	r7, r7, #44
 2157 0f78 BD46     		mov	sp, r7
 2158 0f7a 80BC     		pop	{r7}
 2159 0f7c 7047     		bx	lr
 2160              	.L127:
 2161 0f7e 00BF     		.align	2
 2162              	.L126:
 2163 0f80 00C00920 		.word	537509888
 2164              		.cfi_endproc
 2165              	.LFE70:
 2167              		.align	2
 2168              		.global	EMC_DynMemConfigB
 2169              		.thumb
 2170              		.thumb_func
 2172              	EMC_DynMemConfigB:
 2173              	.LFB71:
 738:../src/lib/lpc177x_8x/Drivers/source/lpc177x_8x_emc.c **** 
 739:../src/lib/lpc177x_8x/Drivers/source/lpc177x_8x_emc.c **** /*********************************************************************//**
 740:../src/lib/lpc177x_8x/Drivers/source/lpc177x_8x_emc.c ****  * @brief         Enable/disable the buffer
 741:../src/lib/lpc177x_8x/Drivers/source/lpc177x_8x_emc.c ****  *
 742:../src/lib/lpc177x_8x/Drivers/source/lpc177x_8x_emc.c ****  * @param[in]    index index number, should be from 0 to 3
 743:../src/lib/lpc177x_8x/Drivers/source/lpc177x_8x_emc.c ****  *
 744:../src/lib/lpc177x_8x/Drivers/source/lpc177x_8x_emc.c ****  * @param[in]     buff_control buffer control mode, should be:
 745:../src/lib/lpc177x_8x/Drivers/source/lpc177x_8x_emc.c ****  *
 746:../src/lib/lpc177x_8x/Drivers/source/lpc177x_8x_emc.c ****  *                - EMC_DYNAMIC_CFG_BUFF_DISABLED: buffer is disabled
 747:../src/lib/lpc177x_8x/Drivers/source/lpc177x_8x_emc.c ****  *
 748:../src/lib/lpc177x_8x/Drivers/source/lpc177x_8x_emc.c ****  *                - EMC_DYNAMIC_CFG_BUFF_ENABLED: buffer is enable
 749:../src/lib/lpc177x_8x/Drivers/source/lpc177x_8x_emc.c ****  *
 750:../src/lib/lpc177x_8x/Drivers/source/lpc177x_8x_emc.c ****  * @return         EMC_FUNC_OK/EMC_FUNC_INVALID_PARAM
 751:../src/lib/lpc177x_8x/Drivers/source/lpc177x_8x_emc.c ****  **********************************************************************/
 752:../src/lib/lpc177x_8x/Drivers/source/lpc177x_8x_emc.c **** EMC_FUNC_CODE EMC_DynMemConfigB(uint32_t index , uint32_t buff_control)
 753:../src/lib/lpc177x_8x/Drivers/source/lpc177x_8x_emc.c **** {
 2174              		.loc 1 753 0
 2175              		.cfi_startproc
 2176              		@ args = 0, pretend = 0, frame = 8
 2177              		@ frame_needed = 1, uses_anonymous_args = 0
 2178              		@ link register save eliminated.
 2179 0f84 80B4     		push	{r7}
 2180              	.LCFI47:
 2181              		.cfi_def_cfa_offset 4
 2182              		.cfi_offset 7, -4
 2183 0f86 83B0     		sub	sp, sp, #12
 2184              	.LCFI48:
 2185              		.cfi_def_cfa_offset 16
 2186 0f88 00AF     		add	r7, sp, #0
 2187              	.LCFI49:
 2188              		.cfi_def_cfa_register 7
 2189 0f8a 7860     		str	r0, [r7, #4]
 2190 0f8c 3960     		str	r1, [r7, #0]
 754:../src/lib/lpc177x_8x/Drivers/source/lpc177x_8x_emc.c ****     switch ( index)
 2191              		.loc 1 754 0
 2192 0f8e 7B68     		ldr	r3, [r7, #4]
 2193 0f90 032B     		cmp	r3, #3
 2194 0f92 57D8     		bhi	.L129
 2195 0f94 01A2     		adr	r2, .L134
 2196 0f96 52F823F0 		ldr	pc, [r2, r3, lsl #2]
 2197 0f9a 00BF     		.align	2
 2198              	.L134:
 2199 0f9c AD0F0000 		.word	.L130+1
 2200 0fa0 D30F0000 		.word	.L131+1
 2201 0fa4 F90F0000 		.word	.L132+1
 2202 0fa8 1F100000 		.word	.L133+1
 2203              	.L130:
 755:../src/lib/lpc177x_8x/Drivers/source/lpc177x_8x_emc.c ****     {
 756:../src/lib/lpc177x_8x/Drivers/source/lpc177x_8x_emc.c ****         case 0:
 757:../src/lib/lpc177x_8x/Drivers/source/lpc177x_8x_emc.c ****             LPC_EMC->DynamicConfig0 &= ~EMC_DYNAMIC_CFG_BUFFENABLE_BMASK;
 2204              		.loc 1 757 0
 2205 0fac 2B4B     		ldr	r3, .L137
 2206 0fae 2B4A     		ldr	r2, .L137
 2207 0fb0 D2F80021 		ldr	r2, [r2, #256]
 2208 0fb4 22F40022 		bic	r2, r2, #524288
 2209 0fb8 C3F80021 		str	r2, [r3, #256]
 758:../src/lib/lpc177x_8x/Drivers/source/lpc177x_8x_emc.c ****             LPC_EMC->DynamicConfig0 |=  buff_control & EMC_DYNAMIC_CFG_BUFFENABLE_BMASK;
 2210              		.loc 1 758 0
 2211 0fbc 274B     		ldr	r3, .L137
 2212 0fbe 274A     		ldr	r2, .L137
 2213 0fc0 D2F80011 		ldr	r1, [r2, #256]
 2214 0fc4 3A68     		ldr	r2, [r7, #0]
 2215 0fc6 02F40022 		and	r2, r2, #524288
 2216 0fca 0A43     		orrs	r2, r2, r1
 2217 0fcc C3F80021 		str	r2, [r3, #256]
 759:../src/lib/lpc177x_8x/Drivers/source/lpc177x_8x_emc.c ****             break;
 2218              		.loc 1 759 0
 2219 0fd0 3BE0     		b	.L135
 2220              	.L131:
 760:../src/lib/lpc177x_8x/Drivers/source/lpc177x_8x_emc.c ****         
 761:../src/lib/lpc177x_8x/Drivers/source/lpc177x_8x_emc.c ****         case 1:
 762:../src/lib/lpc177x_8x/Drivers/source/lpc177x_8x_emc.c ****             LPC_EMC->DynamicConfig1 &= ~EMC_DYNAMIC_CFG_BUFFENABLE_BMASK;
 2221              		.loc 1 762 0
 2222 0fd2 224B     		ldr	r3, .L137
 2223 0fd4 214A     		ldr	r2, .L137
 2224 0fd6 D2F82021 		ldr	r2, [r2, #288]
 2225 0fda 22F40022 		bic	r2, r2, #524288
 2226 0fde C3F82021 		str	r2, [r3, #288]
 763:../src/lib/lpc177x_8x/Drivers/source/lpc177x_8x_emc.c ****             LPC_EMC->DynamicConfig1 |= buff_control& EMC_DYNAMIC_CFG_BUFFENABLE_BMASK;
 2227              		.loc 1 763 0
 2228 0fe2 1E4B     		ldr	r3, .L137
 2229 0fe4 1D4A     		ldr	r2, .L137
 2230 0fe6 D2F82011 		ldr	r1, [r2, #288]
 2231 0fea 3A68     		ldr	r2, [r7, #0]
 2232 0fec 02F40022 		and	r2, r2, #524288
 2233 0ff0 0A43     		orrs	r2, r2, r1
 2234 0ff2 C3F82021 		str	r2, [r3, #288]
 764:../src/lib/lpc177x_8x/Drivers/source/lpc177x_8x_emc.c ****             break;
 2235              		.loc 1 764 0
 2236 0ff6 28E0     		b	.L135
 2237              	.L132:
 765:../src/lib/lpc177x_8x/Drivers/source/lpc177x_8x_emc.c **** 
 766:../src/lib/lpc177x_8x/Drivers/source/lpc177x_8x_emc.c ****         case 2:
 767:../src/lib/lpc177x_8x/Drivers/source/lpc177x_8x_emc.c ****             LPC_EMC->DynamicConfig2 &= ~EMC_DYNAMIC_CFG_BUFFENABLE_BMASK;
 2238              		.loc 1 767 0
 2239 0ff8 184B     		ldr	r3, .L137
 2240 0ffa 184A     		ldr	r2, .L137
 2241 0ffc D2F84021 		ldr	r2, [r2, #320]
 2242 1000 22F40022 		bic	r2, r2, #524288
 2243 1004 C3F84021 		str	r2, [r3, #320]
 768:../src/lib/lpc177x_8x/Drivers/source/lpc177x_8x_emc.c ****             LPC_EMC->DynamicConfig2 |= buff_control& EMC_DYNAMIC_CFG_BUFFENABLE_BMASK;
 2244              		.loc 1 768 0
 2245 1008 144B     		ldr	r3, .L137
 2246 100a 144A     		ldr	r2, .L137
 2247 100c D2F84011 		ldr	r1, [r2, #320]
 2248 1010 3A68     		ldr	r2, [r7, #0]
 2249 1012 02F40022 		and	r2, r2, #524288
 2250 1016 0A43     		orrs	r2, r2, r1
 2251 1018 C3F84021 		str	r2, [r3, #320]
 769:../src/lib/lpc177x_8x/Drivers/source/lpc177x_8x_emc.c ****             break;
 2252              		.loc 1 769 0
 2253 101c 15E0     		b	.L135
 2254              	.L133:
 770:../src/lib/lpc177x_8x/Drivers/source/lpc177x_8x_emc.c **** 
 771:../src/lib/lpc177x_8x/Drivers/source/lpc177x_8x_emc.c ****         case 3:
 772:../src/lib/lpc177x_8x/Drivers/source/lpc177x_8x_emc.c ****             LPC_EMC->DynamicConfig3 &= ~EMC_DYNAMIC_CFG_BUFFENABLE_BMASK;
 2255              		.loc 1 772 0
 2256 101e 0F4B     		ldr	r3, .L137
 2257 1020 0E4A     		ldr	r2, .L137
 2258 1022 D2F86021 		ldr	r2, [r2, #352]
 2259 1026 22F40022 		bic	r2, r2, #524288
 2260 102a C3F86021 		str	r2, [r3, #352]
 773:../src/lib/lpc177x_8x/Drivers/source/lpc177x_8x_emc.c ****             LPC_EMC->DynamicConfig3|= buff_control& EMC_DYNAMIC_CFG_BUFFENABLE_BMASK;
 2261              		.loc 1 773 0
 2262 102e 0B4B     		ldr	r3, .L137
 2263 1030 0A4A     		ldr	r2, .L137
 2264 1032 D2F86011 		ldr	r1, [r2, #352]
 2265 1036 3A68     		ldr	r2, [r7, #0]
 2266 1038 02F40022 		and	r2, r2, #524288
 2267 103c 0A43     		orrs	r2, r2, r1
 2268 103e C3F86021 		str	r2, [r3, #352]
 774:../src/lib/lpc177x_8x/Drivers/source/lpc177x_8x_emc.c ****             break;
 2269              		.loc 1 774 0
 2270 1042 02E0     		b	.L135
 2271              	.L129:
 775:../src/lib/lpc177x_8x/Drivers/source/lpc177x_8x_emc.c ****     default:
 776:../src/lib/lpc177x_8x/Drivers/source/lpc177x_8x_emc.c ****        return EMC_FUNC_INVALID_PARAM;
 2272              		.loc 1 776 0
 2273 1044 4FF00203 		mov	r3, #2
 2274 1048 01E0     		b	.L136
 2275              	.L135:
 777:../src/lib/lpc177x_8x/Drivers/source/lpc177x_8x_emc.c ****     }
 778:../src/lib/lpc177x_8x/Drivers/source/lpc177x_8x_emc.c ****     return EMC_FUNC_OK;
 2276              		.loc 1 778 0
 2277 104a 4FF00003 		mov	r3, #0
 2278              	.L136:
 779:../src/lib/lpc177x_8x/Drivers/source/lpc177x_8x_emc.c **** }
 2279              		.loc 1 779 0
 2280 104e 1846     		mov	r0, r3
 2281 1050 07F10C07 		add	r7, r7, #12
 2282 1054 BD46     		mov	sp, r7
 2283 1056 80BC     		pop	{r7}
 2284 1058 7047     		bx	lr
 2285              	.L138:
 2286 105a 00BF     		.align	2
 2287              	.L137:
 2288 105c 00C00920 		.word	537509888
 2289              		.cfi_endproc
 2290              	.LFE71:
 2292              		.align	2
 2293              		.global	EMC_DynMemConfigP
 2294              		.thumb
 2295              		.thumb_func
 2297              	EMC_DynMemConfigP:
 2298              	.LFB72:
 780:../src/lib/lpc177x_8x/Drivers/source/lpc177x_8x_emc.c **** 
 781:../src/lib/lpc177x_8x/Drivers/source/lpc177x_8x_emc.c **** 
 782:../src/lib/lpc177x_8x/Drivers/source/lpc177x_8x_emc.c **** /*********************************************************************//**
 783:../src/lib/lpc177x_8x/Drivers/source/lpc177x_8x_emc.c ****  * @brief         Configure write permission: protect or not
 784:../src/lib/lpc177x_8x/Drivers/source/lpc177x_8x_emc.c ****  *
 785:../src/lib/lpc177x_8x/Drivers/source/lpc177x_8x_emc.c ****  * @param[in]    index index number, should be from 0 to 3
 786:../src/lib/lpc177x_8x/Drivers/source/lpc177x_8x_emc.c ****  *
 787:../src/lib/lpc177x_8x/Drivers/source/lpc177x_8x_emc.c ****  * @param[in]     permission  permission mode, should be:
 788:../src/lib/lpc177x_8x/Drivers/source/lpc177x_8x_emc.c ****  *
 789:../src/lib/lpc177x_8x/Drivers/source/lpc177x_8x_emc.c ****  *                - EMC_DYNAMIC_CFG_WR_UNPROTECTED: will not protect
 790:../src/lib/lpc177x_8x/Drivers/source/lpc177x_8x_emc.c ****  *
 791:../src/lib/lpc177x_8x/Drivers/source/lpc177x_8x_emc.c ****  *                - EMC_DYNAMIC_CFG_WR_PROTECTED: will protect
 792:../src/lib/lpc177x_8x/Drivers/source/lpc177x_8x_emc.c ****  *
 793:../src/lib/lpc177x_8x/Drivers/source/lpc177x_8x_emc.c ****  * @return         EMC_FUNC_OK
 794:../src/lib/lpc177x_8x/Drivers/source/lpc177x_8x_emc.c ****  **********************************************************************/
 795:../src/lib/lpc177x_8x/Drivers/source/lpc177x_8x_emc.c **** EMC_FUNC_CODE EMC_DynMemConfigP(uint32_t index , uint32_t permission)
 796:../src/lib/lpc177x_8x/Drivers/source/lpc177x_8x_emc.c **** {
 2299              		.loc 1 796 0
 2300              		.cfi_startproc
 2301              		@ args = 0, pretend = 0, frame = 8
 2302              		@ frame_needed = 1, uses_anonymous_args = 0
 2303              		@ link register save eliminated.
 2304 1060 80B4     		push	{r7}
 2305              	.LCFI50:
 2306              		.cfi_def_cfa_offset 4
 2307              		.cfi_offset 7, -4
 2308 1062 83B0     		sub	sp, sp, #12
 2309              	.LCFI51:
 2310              		.cfi_def_cfa_offset 16
 2311 1064 00AF     		add	r7, sp, #0
 2312              	.LCFI52:
 2313              		.cfi_def_cfa_register 7
 2314 1066 7860     		str	r0, [r7, #4]
 2315 1068 3960     		str	r1, [r7, #0]
 797:../src/lib/lpc177x_8x/Drivers/source/lpc177x_8x_emc.c **** 
 798:../src/lib/lpc177x_8x/Drivers/source/lpc177x_8x_emc.c ****     switch ( index)
 2316              		.loc 1 798 0
 2317 106a 7B68     		ldr	r3, [r7, #4]
 2318 106c 032B     		cmp	r3, #3
 2319 106e 57D8     		bhi	.L140
 2320 1070 01A2     		adr	r2, .L145
 2321 1072 52F823F0 		ldr	pc, [r2, r3, lsl #2]
 2322 1076 00BF     		.align	2
 2323              	.L145:
 2324 1078 89100000 		.word	.L141+1
 2325 107c AF100000 		.word	.L142+1
 2326 1080 D5100000 		.word	.L143+1
 2327 1084 FB100000 		.word	.L144+1
 2328              	.L141:
 799:../src/lib/lpc177x_8x/Drivers/source/lpc177x_8x_emc.c ****     {
 800:../src/lib/lpc177x_8x/Drivers/source/lpc177x_8x_emc.c ****         case 0:
 801:../src/lib/lpc177x_8x/Drivers/source/lpc177x_8x_emc.c ****             LPC_EMC->DynamicConfig0 &= ~ EMC_DYNAMIC_CFG_WRPROTECT_BMASK;
 2329              		.loc 1 801 0
 2330 1088 2B4B     		ldr	r3, .L148
 2331 108a 2B4A     		ldr	r2, .L148
 2332 108c D2F80021 		ldr	r2, [r2, #256]
 2333 1090 22F48012 		bic	r2, r2, #1048576
 2334 1094 C3F80021 		str	r2, [r3, #256]
 802:../src/lib/lpc177x_8x/Drivers/source/lpc177x_8x_emc.c ****             LPC_EMC->DynamicConfig0 |= permission&EMC_DYNAMIC_CFG_WRPROTECT_BMASK;
 2335              		.loc 1 802 0
 2336 1098 274B     		ldr	r3, .L148
 2337 109a 274A     		ldr	r2, .L148
 2338 109c D2F80011 		ldr	r1, [r2, #256]
 2339 10a0 3A68     		ldr	r2, [r7, #0]
 2340 10a2 02F48012 		and	r2, r2, #1048576
 2341 10a6 0A43     		orrs	r2, r2, r1
 2342 10a8 C3F80021 		str	r2, [r3, #256]
 803:../src/lib/lpc177x_8x/Drivers/source/lpc177x_8x_emc.c ****             break;
 2343              		.loc 1 803 0
 2344 10ac 3BE0     		b	.L146
 2345              	.L142:
 804:../src/lib/lpc177x_8x/Drivers/source/lpc177x_8x_emc.c ****         
 805:../src/lib/lpc177x_8x/Drivers/source/lpc177x_8x_emc.c ****         case 1:
 806:../src/lib/lpc177x_8x/Drivers/source/lpc177x_8x_emc.c ****             LPC_EMC->DynamicConfig1 &= ~ EMC_DYNAMIC_CFG_WRPROTECT_BMASK;
 2346              		.loc 1 806 0
 2347 10ae 224B     		ldr	r3, .L148
 2348 10b0 214A     		ldr	r2, .L148
 2349 10b2 D2F82021 		ldr	r2, [r2, #288]
 2350 10b6 22F48012 		bic	r2, r2, #1048576
 2351 10ba C3F82021 		str	r2, [r3, #288]
 807:../src/lib/lpc177x_8x/Drivers/source/lpc177x_8x_emc.c ****             LPC_EMC->DynamicConfig1 |= permission&EMC_DYNAMIC_CFG_WRPROTECT_BMASK;
 2352              		.loc 1 807 0
 2353 10be 1E4B     		ldr	r3, .L148
 2354 10c0 1D4A     		ldr	r2, .L148
 2355 10c2 D2F82011 		ldr	r1, [r2, #288]
 2356 10c6 3A68     		ldr	r2, [r7, #0]
 2357 10c8 02F48012 		and	r2, r2, #1048576
 2358 10cc 0A43     		orrs	r2, r2, r1
 2359 10ce C3F82021 		str	r2, [r3, #288]
 808:../src/lib/lpc177x_8x/Drivers/source/lpc177x_8x_emc.c ****             break;
 2360              		.loc 1 808 0
 2361 10d2 28E0     		b	.L146
 2362              	.L143:
 809:../src/lib/lpc177x_8x/Drivers/source/lpc177x_8x_emc.c ****         
 810:../src/lib/lpc177x_8x/Drivers/source/lpc177x_8x_emc.c ****         case 2:
 811:../src/lib/lpc177x_8x/Drivers/source/lpc177x_8x_emc.c ****             LPC_EMC->DynamicConfig2 &= ~ EMC_DYNAMIC_CFG_WRPROTECT_BMASK;
 2363              		.loc 1 811 0
 2364 10d4 184B     		ldr	r3, .L148
 2365 10d6 184A     		ldr	r2, .L148
 2366 10d8 D2F84021 		ldr	r2, [r2, #320]
 2367 10dc 22F48012 		bic	r2, r2, #1048576
 2368 10e0 C3F84021 		str	r2, [r3, #320]
 812:../src/lib/lpc177x_8x/Drivers/source/lpc177x_8x_emc.c ****             LPC_EMC->DynamicConfig2 |= permission&EMC_DYNAMIC_CFG_WRPROTECT_BMASK;
 2369              		.loc 1 812 0
 2370 10e4 144B     		ldr	r3, .L148
 2371 10e6 144A     		ldr	r2, .L148
 2372 10e8 D2F84011 		ldr	r1, [r2, #320]
 2373 10ec 3A68     		ldr	r2, [r7, #0]
 2374 10ee 02F48012 		and	r2, r2, #1048576
 2375 10f2 0A43     		orrs	r2, r2, r1
 2376 10f4 C3F84021 		str	r2, [r3, #320]
 813:../src/lib/lpc177x_8x/Drivers/source/lpc177x_8x_emc.c ****             break;
 2377              		.loc 1 813 0
 2378 10f8 15E0     		b	.L146
 2379              	.L144:
 814:../src/lib/lpc177x_8x/Drivers/source/lpc177x_8x_emc.c ****         
 815:../src/lib/lpc177x_8x/Drivers/source/lpc177x_8x_emc.c ****         case 3:
 816:../src/lib/lpc177x_8x/Drivers/source/lpc177x_8x_emc.c ****             LPC_EMC->DynamicConfig3 &= ~ EMC_DYNAMIC_CFG_WRPROTECT_BMASK;
 2380              		.loc 1 816 0
 2381 10fa 0F4B     		ldr	r3, .L148
 2382 10fc 0E4A     		ldr	r2, .L148
 2383 10fe D2F86021 		ldr	r2, [r2, #352]
 2384 1102 22F48012 		bic	r2, r2, #1048576
 2385 1106 C3F86021 		str	r2, [r3, #352]
 817:../src/lib/lpc177x_8x/Drivers/source/lpc177x_8x_emc.c ****             LPC_EMC->DynamicConfig3 |= permission&EMC_DYNAMIC_CFG_WRPROTECT_BMASK;
 2386              		.loc 1 817 0
 2387 110a 0B4B     		ldr	r3, .L148
 2388 110c 0A4A     		ldr	r2, .L148
 2389 110e D2F86011 		ldr	r1, [r2, #352]
 2390 1112 3A68     		ldr	r2, [r7, #0]
 2391 1114 02F48012 		and	r2, r2, #1048576
 2392 1118 0A43     		orrs	r2, r2, r1
 2393 111a C3F86021 		str	r2, [r3, #352]
 818:../src/lib/lpc177x_8x/Drivers/source/lpc177x_8x_emc.c ****             break;
 2394              		.loc 1 818 0
 2395 111e 02E0     		b	.L146
 2396              	.L140:
 819:../src/lib/lpc177x_8x/Drivers/source/lpc177x_8x_emc.c ****     default:
 820:../src/lib/lpc177x_8x/Drivers/source/lpc177x_8x_emc.c ****        return EMC_FUNC_INVALID_PARAM;
 2397              		.loc 1 820 0
 2398 1120 4FF00203 		mov	r3, #2
 2399 1124 01E0     		b	.L147
 2400              	.L146:
 821:../src/lib/lpc177x_8x/Drivers/source/lpc177x_8x_emc.c ****     }
 822:../src/lib/lpc177x_8x/Drivers/source/lpc177x_8x_emc.c ****     return EMC_FUNC_OK;
 2401              		.loc 1 822 0
 2402 1126 4FF00003 		mov	r3, #0
 2403              	.L147:
 823:../src/lib/lpc177x_8x/Drivers/source/lpc177x_8x_emc.c **** }
 2404              		.loc 1 823 0
 2405 112a 1846     		mov	r0, r3
 2406 112c 07F10C07 		add	r7, r7, #12
 2407 1130 BD46     		mov	sp, r7
 2408 1132 80BC     		pop	{r7}
 2409 1134 7047     		bx	lr
 2410              	.L149:
 2411 1136 00BF     		.align	2
 2412              	.L148:
 2413 1138 00C00920 		.word	537509888
 2414              		.cfi_endproc
 2415              	.LFE72:
 2417              		.align	2
 2418              		.global	EMC_DynMemRAS
 2419              		.thumb
 2420              		.thumb_func
 2422              	EMC_DynMemRAS:
 2423              	.LFB73:
 824:../src/lib/lpc177x_8x/Drivers/source/lpc177x_8x_emc.c **** 
 825:../src/lib/lpc177x_8x/Drivers/source/lpc177x_8x_emc.c **** /*********************************************************************//**
 826:../src/lib/lpc177x_8x/Drivers/source/lpc177x_8x_emc.c ****  * @brief         Set value for RAS latency
 827:../src/lib/lpc177x_8x/Drivers/source/lpc177x_8x_emc.c ****  *
 828:../src/lib/lpc177x_8x/Drivers/source/lpc177x_8x_emc.c ****  * @param[in]    index index number, should be from 0 to 3
 829:../src/lib/lpc177x_8x/Drivers/source/lpc177x_8x_emc.c ****  *
 830:../src/lib/lpc177x_8x/Drivers/source/lpc177x_8x_emc.c ****  * @param[in]     ras_val  RAS value should be in range: 0..3
 831:../src/lib/lpc177x_8x/Drivers/source/lpc177x_8x_emc.c ****  *
 832:../src/lib/lpc177x_8x/Drivers/source/lpc177x_8x_emc.c ****  * @return         EMC_FUNC_OK
 833:../src/lib/lpc177x_8x/Drivers/source/lpc177x_8x_emc.c ****  **********************************************************************/
 834:../src/lib/lpc177x_8x/Drivers/source/lpc177x_8x_emc.c **** EMC_FUNC_CODE EMC_DynMemRAS(uint32_t index , uint32_t ras_val)
 835:../src/lib/lpc177x_8x/Drivers/source/lpc177x_8x_emc.c **** {
 2424              		.loc 1 835 0
 2425              		.cfi_startproc
 2426              		@ args = 0, pretend = 0, frame = 8
 2427              		@ frame_needed = 1, uses_anonymous_args = 0
 2428              		@ link register save eliminated.
 2429 113c 80B4     		push	{r7}
 2430              	.LCFI53:
 2431              		.cfi_def_cfa_offset 4
 2432              		.cfi_offset 7, -4
 2433 113e 83B0     		sub	sp, sp, #12
 2434              	.LCFI54:
 2435              		.cfi_def_cfa_offset 16
 2436 1140 00AF     		add	r7, sp, #0
 2437              	.LCFI55:
 2438              		.cfi_def_cfa_register 7
 2439 1142 7860     		str	r0, [r7, #4]
 2440 1144 3960     		str	r1, [r7, #0]
 836:../src/lib/lpc177x_8x/Drivers/source/lpc177x_8x_emc.c ****     switch ( index)
 2441              		.loc 1 836 0
 2442 1146 7B68     		ldr	r3, [r7, #4]
 2443 1148 032B     		cmp	r3, #3
 2444 114a 57D8     		bhi	.L151
 2445 114c 01A2     		adr	r2, .L156
 2446 114e 52F823F0 		ldr	pc, [r2, r3, lsl #2]
 2447 1152 00BF     		.align	2
 2448              	.L156:
 2449 1154 65110000 		.word	.L152+1
 2450 1158 8B110000 		.word	.L153+1
 2451 115c B1110000 		.word	.L154+1
 2452 1160 D7110000 		.word	.L155+1
 2453              	.L152:
 837:../src/lib/lpc177x_8x/Drivers/source/lpc177x_8x_emc.c ****     {
 838:../src/lib/lpc177x_8x/Drivers/source/lpc177x_8x_emc.c ****         case 0:
 839:../src/lib/lpc177x_8x/Drivers/source/lpc177x_8x_emc.c ****             LPC_EMC->DynamicRasCas0 &= ~EMC_DYNAMIC_RASCAS_RASCFG_BMASK;
 2454              		.loc 1 839 0
 2455 1164 2B4B     		ldr	r3, .L159
 2456 1166 2B4A     		ldr	r2, .L159
 2457 1168 D2F80421 		ldr	r2, [r2, #260]
 2458 116c 22F00302 		bic	r2, r2, #3
 2459 1170 C3F80421 		str	r2, [r3, #260]
 840:../src/lib/lpc177x_8x/Drivers/source/lpc177x_8x_emc.c ****             LPC_EMC->DynamicRasCas0 |=( ras_val << EMC_DYNAMIC_RASCAS_RASCFG_POS)
 2460              		.loc 1 840 0
 2461 1174 274B     		ldr	r3, .L159
 2462 1176 274A     		ldr	r2, .L159
 2463 1178 D2F80411 		ldr	r1, [r2, #260]
 841:../src/lib/lpc177x_8x/Drivers/source/lpc177x_8x_emc.c ****                                                 &EMC_DYNAMIC_RASCAS_RASCFG_BMASK;
 2464              		.loc 1 841 0
 2465 117c 3A68     		ldr	r2, [r7, #0]
 2466 117e 02F00302 		and	r2, r2, #3
 840:../src/lib/lpc177x_8x/Drivers/source/lpc177x_8x_emc.c ****             LPC_EMC->DynamicRasCas0 |=( ras_val << EMC_DYNAMIC_RASCAS_RASCFG_POS)
 2467              		.loc 1 840 0
 2468 1182 0A43     		orrs	r2, r2, r1
 2469 1184 C3F80421 		str	r2, [r3, #260]
 842:../src/lib/lpc177x_8x/Drivers/source/lpc177x_8x_emc.c ****             break;
 2470              		.loc 1 842 0
 2471 1188 3BE0     		b	.L157
 2472              	.L153:
 843:../src/lib/lpc177x_8x/Drivers/source/lpc177x_8x_emc.c ****         
 844:../src/lib/lpc177x_8x/Drivers/source/lpc177x_8x_emc.c ****         case 1:
 845:../src/lib/lpc177x_8x/Drivers/source/lpc177x_8x_emc.c ****             LPC_EMC->DynamicRasCas1 &= ~EMC_DYNAMIC_RASCAS_RASCFG_BMASK;
 2473              		.loc 1 845 0
 2474 118a 224B     		ldr	r3, .L159
 2475 118c 214A     		ldr	r2, .L159
 2476 118e D2F82421 		ldr	r2, [r2, #292]
 2477 1192 22F00302 		bic	r2, r2, #3
 2478 1196 C3F82421 		str	r2, [r3, #292]
 846:../src/lib/lpc177x_8x/Drivers/source/lpc177x_8x_emc.c ****             LPC_EMC->DynamicRasCas1 |= ( ras_val << EMC_DYNAMIC_RASCAS_RASCFG_POS)
 2479              		.loc 1 846 0
 2480 119a 1E4B     		ldr	r3, .L159
 2481 119c 1D4A     		ldr	r2, .L159
 2482 119e D2F82411 		ldr	r1, [r2, #292]
 847:../src/lib/lpc177x_8x/Drivers/source/lpc177x_8x_emc.c ****                                             &EMC_DYNAMIC_RASCAS_RASCFG_BMASK;
 2483              		.loc 1 847 0
 2484 11a2 3A68     		ldr	r2, [r7, #0]
 2485 11a4 02F00302 		and	r2, r2, #3
 846:../src/lib/lpc177x_8x/Drivers/source/lpc177x_8x_emc.c ****             LPC_EMC->DynamicRasCas1 |= ( ras_val << EMC_DYNAMIC_RASCAS_RASCFG_POS)
 2486              		.loc 1 846 0
 2487 11a8 0A43     		orrs	r2, r2, r1
 2488 11aa C3F82421 		str	r2, [r3, #292]
 848:../src/lib/lpc177x_8x/Drivers/source/lpc177x_8x_emc.c ****             break;
 2489              		.loc 1 848 0
 2490 11ae 28E0     		b	.L157
 2491              	.L154:
 849:../src/lib/lpc177x_8x/Drivers/source/lpc177x_8x_emc.c ****         
 850:../src/lib/lpc177x_8x/Drivers/source/lpc177x_8x_emc.c ****         case 2:
 851:../src/lib/lpc177x_8x/Drivers/source/lpc177x_8x_emc.c ****             LPC_EMC->DynamicRasCas2 &= ~EMC_DYNAMIC_RASCAS_RASCFG_BMASK;
 2492              		.loc 1 851 0
 2493 11b0 184B     		ldr	r3, .L159
 2494 11b2 184A     		ldr	r2, .L159
 2495 11b4 D2F84421 		ldr	r2, [r2, #324]
 2496 11b8 22F00302 		bic	r2, r2, #3
 2497 11bc C3F84421 		str	r2, [r3, #324]
 852:../src/lib/lpc177x_8x/Drivers/source/lpc177x_8x_emc.c ****             LPC_EMC->DynamicRasCas2 |= ( ras_val << EMC_DYNAMIC_RASCAS_RASCFG_POS)
 2498              		.loc 1 852 0
 2499 11c0 144B     		ldr	r3, .L159
 2500 11c2 144A     		ldr	r2, .L159
 2501 11c4 D2F84411 		ldr	r1, [r2, #324]
 853:../src/lib/lpc177x_8x/Drivers/source/lpc177x_8x_emc.c ****                                             &EMC_DYNAMIC_RASCAS_RASCFG_BMASK;
 2502              		.loc 1 853 0
 2503 11c8 3A68     		ldr	r2, [r7, #0]
 2504 11ca 02F00302 		and	r2, r2, #3
 852:../src/lib/lpc177x_8x/Drivers/source/lpc177x_8x_emc.c ****             LPC_EMC->DynamicRasCas2 |= ( ras_val << EMC_DYNAMIC_RASCAS_RASCFG_POS)
 2505              		.loc 1 852 0
 2506 11ce 0A43     		orrs	r2, r2, r1
 2507 11d0 C3F84421 		str	r2, [r3, #324]
 854:../src/lib/lpc177x_8x/Drivers/source/lpc177x_8x_emc.c ****             break;
 2508              		.loc 1 854 0
 2509 11d4 15E0     		b	.L157
 2510              	.L155:
 855:../src/lib/lpc177x_8x/Drivers/source/lpc177x_8x_emc.c ****         
 856:../src/lib/lpc177x_8x/Drivers/source/lpc177x_8x_emc.c ****         case 3:
 857:../src/lib/lpc177x_8x/Drivers/source/lpc177x_8x_emc.c ****             LPC_EMC->DynamicRasCas3 &= ~EMC_DYNAMIC_RASCAS_RASCFG_BMASK;
 2511              		.loc 1 857 0
 2512 11d6 0F4B     		ldr	r3, .L159
 2513 11d8 0E4A     		ldr	r2, .L159
 2514 11da D2F86421 		ldr	r2, [r2, #356]
 2515 11de 22F00302 		bic	r2, r2, #3
 2516 11e2 C3F86421 		str	r2, [r3, #356]
 858:../src/lib/lpc177x_8x/Drivers/source/lpc177x_8x_emc.c ****             LPC_EMC->DynamicRasCas3 |= ( ras_val << EMC_DYNAMIC_RASCAS_RASCFG_POS)
 2517              		.loc 1 858 0
 2518 11e6 0B4B     		ldr	r3, .L159
 2519 11e8 0A4A     		ldr	r2, .L159
 2520 11ea D2F86411 		ldr	r1, [r2, #356]
 859:../src/lib/lpc177x_8x/Drivers/source/lpc177x_8x_emc.c ****                                             &EMC_DYNAMIC_RASCAS_RASCFG_BMASK;
 2521              		.loc 1 859 0
 2522 11ee 3A68     		ldr	r2, [r7, #0]
 2523 11f0 02F00302 		and	r2, r2, #3
 858:../src/lib/lpc177x_8x/Drivers/source/lpc177x_8x_emc.c ****             LPC_EMC->DynamicRasCas3 |= ( ras_val << EMC_DYNAMIC_RASCAS_RASCFG_POS)
 2524              		.loc 1 858 0
 2525 11f4 0A43     		orrs	r2, r2, r1
 2526 11f6 C3F86421 		str	r2, [r3, #356]
 860:../src/lib/lpc177x_8x/Drivers/source/lpc177x_8x_emc.c ****             break;
 2527              		.loc 1 860 0
 2528 11fa 02E0     		b	.L157
 2529              	.L151:
 861:../src/lib/lpc177x_8x/Drivers/source/lpc177x_8x_emc.c ****     default:
 862:../src/lib/lpc177x_8x/Drivers/source/lpc177x_8x_emc.c ****        return EMC_FUNC_INVALID_PARAM;
 2530              		.loc 1 862 0
 2531 11fc 4FF00203 		mov	r3, #2
 2532 1200 01E0     		b	.L158
 2533              	.L157:
 863:../src/lib/lpc177x_8x/Drivers/source/lpc177x_8x_emc.c ****     }
 864:../src/lib/lpc177x_8x/Drivers/source/lpc177x_8x_emc.c ****     return EMC_FUNC_OK;
 2534              		.loc 1 864 0
 2535 1202 4FF00003 		mov	r3, #0
 2536              	.L158:
 865:../src/lib/lpc177x_8x/Drivers/source/lpc177x_8x_emc.c **** }
 2537              		.loc 1 865 0
 2538 1206 1846     		mov	r0, r3
 2539 1208 07F10C07 		add	r7, r7, #12
 2540 120c BD46     		mov	sp, r7
 2541 120e 80BC     		pop	{r7}
 2542 1210 7047     		bx	lr
 2543              	.L160:
 2544 1212 00BF     		.align	2
 2545              	.L159:
 2546 1214 00C00920 		.word	537509888
 2547              		.cfi_endproc
 2548              	.LFE73:
 2550              		.align	2
 2551              		.global	EMC_DynMemCAS
 2552              		.thumb
 2553              		.thumb_func
 2555              	EMC_DynMemCAS:
 2556              	.LFB74:
 866:../src/lib/lpc177x_8x/Drivers/source/lpc177x_8x_emc.c **** 
 867:../src/lib/lpc177x_8x/Drivers/source/lpc177x_8x_emc.c **** 
 868:../src/lib/lpc177x_8x/Drivers/source/lpc177x_8x_emc.c **** /*********************************************************************//**
 869:../src/lib/lpc177x_8x/Drivers/source/lpc177x_8x_emc.c ****  * @brief         Set value for CAS latency
 870:../src/lib/lpc177x_8x/Drivers/source/lpc177x_8x_emc.c ****  *
 871:../src/lib/lpc177x_8x/Drivers/source/lpc177x_8x_emc.c ****  * @param[in]    index index number, should be from 0 to 3
 872:../src/lib/lpc177x_8x/Drivers/source/lpc177x_8x_emc.c ****  *
 873:../src/lib/lpc177x_8x/Drivers/source/lpc177x_8x_emc.c ****  * @param[in]     ras_val  CAS value should be in range: 0..3
 874:../src/lib/lpc177x_8x/Drivers/source/lpc177x_8x_emc.c ****  *
 875:../src/lib/lpc177x_8x/Drivers/source/lpc177x_8x_emc.c ****  * @return         EMC_FUNC_OK/EMC_FUNC_INVALID_PARAM
 876:../src/lib/lpc177x_8x/Drivers/source/lpc177x_8x_emc.c ****  **********************************************************************/
 877:../src/lib/lpc177x_8x/Drivers/source/lpc177x_8x_emc.c **** EMC_FUNC_CODE EMC_DynMemCAS(uint32_t index , uint32_t cas_val)
 878:../src/lib/lpc177x_8x/Drivers/source/lpc177x_8x_emc.c **** {    
 2557              		.loc 1 878 0
 2558              		.cfi_startproc
 2559              		@ args = 0, pretend = 0, frame = 8
 2560              		@ frame_needed = 1, uses_anonymous_args = 0
 2561              		@ link register save eliminated.
 2562 1218 80B4     		push	{r7}
 2563              	.LCFI56:
 2564              		.cfi_def_cfa_offset 4
 2565              		.cfi_offset 7, -4
 2566 121a 83B0     		sub	sp, sp, #12
 2567              	.LCFI57:
 2568              		.cfi_def_cfa_offset 16
 2569 121c 00AF     		add	r7, sp, #0
 2570              	.LCFI58:
 2571              		.cfi_def_cfa_register 7
 2572 121e 7860     		str	r0, [r7, #4]
 2573 1220 3960     		str	r1, [r7, #0]
 879:../src/lib/lpc177x_8x/Drivers/source/lpc177x_8x_emc.c ****     switch ( index)
 2574              		.loc 1 879 0
 2575 1222 7B68     		ldr	r3, [r7, #4]
 2576 1224 032B     		cmp	r3, #3
 2577 1226 5FD8     		bhi	.L162
 2578 1228 01A2     		adr	r2, .L167
 2579 122a 52F823F0 		ldr	pc, [r2, r3, lsl #2]
 2580 122e 00BF     		.align	2
 2581              	.L167:
 2582 1230 41120000 		.word	.L163+1
 2583 1234 6B120000 		.word	.L164+1
 2584 1238 95120000 		.word	.L165+1
 2585 123c BF120000 		.word	.L166+1
 2586              	.L163:
 880:../src/lib/lpc177x_8x/Drivers/source/lpc177x_8x_emc.c ****     {
 881:../src/lib/lpc177x_8x/Drivers/source/lpc177x_8x_emc.c ****         case 0:
 882:../src/lib/lpc177x_8x/Drivers/source/lpc177x_8x_emc.c ****             LPC_EMC->DynamicRasCas0 &= ~EMC_DYNAMIC_RASCAS_CASCFG_BMASK;
 2587              		.loc 1 882 0
 2588 1240 2F4B     		ldr	r3, .L170
 2589 1242 2F4A     		ldr	r2, .L170
 2590 1244 D2F80421 		ldr	r2, [r2, #260]
 2591 1248 22F44072 		bic	r2, r2, #768
 2592 124c C3F80421 		str	r2, [r3, #260]
 883:../src/lib/lpc177x_8x/Drivers/source/lpc177x_8x_emc.c ****             LPC_EMC->DynamicRasCas0 |= (cas_val<<EMC_DYNAMIC_RASCAS_CASCFG_POS)
 2593              		.loc 1 883 0
 2594 1250 2B4B     		ldr	r3, .L170
 2595 1252 2B4A     		ldr	r2, .L170
 2596 1254 D2F80411 		ldr	r1, [r2, #260]
 2597 1258 3A68     		ldr	r2, [r7, #0]
 2598 125a 4FEA0222 		lsl	r2, r2, #8
 884:../src/lib/lpc177x_8x/Drivers/source/lpc177x_8x_emc.c ****                                             &EMC_DYNAMIC_RASCAS_CASCFG_BMASK;
 2599              		.loc 1 884 0
 2600 125e 02F44072 		and	r2, r2, #768
 883:../src/lib/lpc177x_8x/Drivers/source/lpc177x_8x_emc.c ****             LPC_EMC->DynamicRasCas0 |= (cas_val<<EMC_DYNAMIC_RASCAS_CASCFG_POS)
 2601              		.loc 1 883 0
 2602 1262 0A43     		orrs	r2, r2, r1
 2603 1264 C3F80421 		str	r2, [r3, #260]
 885:../src/lib/lpc177x_8x/Drivers/source/lpc177x_8x_emc.c ****             break;
 2604              		.loc 1 885 0
 2605 1268 41E0     		b	.L168
 2606              	.L164:
 886:../src/lib/lpc177x_8x/Drivers/source/lpc177x_8x_emc.c ****         
 887:../src/lib/lpc177x_8x/Drivers/source/lpc177x_8x_emc.c ****         case 1:
 888:../src/lib/lpc177x_8x/Drivers/source/lpc177x_8x_emc.c ****             LPC_EMC->DynamicRasCas1 &= ~EMC_DYNAMIC_RASCAS_CASCFG_BMASK;
 2607              		.loc 1 888 0
 2608 126a 254B     		ldr	r3, .L170
 2609 126c 244A     		ldr	r2, .L170
 2610 126e D2F82421 		ldr	r2, [r2, #292]
 2611 1272 22F44072 		bic	r2, r2, #768
 2612 1276 C3F82421 		str	r2, [r3, #292]
 889:../src/lib/lpc177x_8x/Drivers/source/lpc177x_8x_emc.c ****             LPC_EMC->DynamicRasCas1 |= (cas_val<<EMC_DYNAMIC_RASCAS_CASCFG_POS)
 2613              		.loc 1 889 0
 2614 127a 214B     		ldr	r3, .L170
 2615 127c 204A     		ldr	r2, .L170
 2616 127e D2F82411 		ldr	r1, [r2, #292]
 2617 1282 3A68     		ldr	r2, [r7, #0]
 2618 1284 4FEA0222 		lsl	r2, r2, #8
 890:../src/lib/lpc177x_8x/Drivers/source/lpc177x_8x_emc.c ****                                             &EMC_DYNAMIC_RASCAS_CASCFG_BMASK;
 2619              		.loc 1 890 0
 2620 1288 02F44072 		and	r2, r2, #768
 889:../src/lib/lpc177x_8x/Drivers/source/lpc177x_8x_emc.c ****             LPC_EMC->DynamicRasCas1 |= (cas_val<<EMC_DYNAMIC_RASCAS_CASCFG_POS)
 2621              		.loc 1 889 0
 2622 128c 0A43     		orrs	r2, r2, r1
 2623 128e C3F82421 		str	r2, [r3, #292]
 891:../src/lib/lpc177x_8x/Drivers/source/lpc177x_8x_emc.c ****             break;
 2624              		.loc 1 891 0
 2625 1292 2CE0     		b	.L168
 2626              	.L165:
 892:../src/lib/lpc177x_8x/Drivers/source/lpc177x_8x_emc.c ****         
 893:../src/lib/lpc177x_8x/Drivers/source/lpc177x_8x_emc.c ****         case 2:
 894:../src/lib/lpc177x_8x/Drivers/source/lpc177x_8x_emc.c ****             LPC_EMC->DynamicRasCas2 &= ~EMC_DYNAMIC_RASCAS_CASCFG_BMASK;
 2627              		.loc 1 894 0
 2628 1294 1A4B     		ldr	r3, .L170
 2629 1296 1A4A     		ldr	r2, .L170
 2630 1298 D2F84421 		ldr	r2, [r2, #324]
 2631 129c 22F44072 		bic	r2, r2, #768
 2632 12a0 C3F84421 		str	r2, [r3, #324]
 895:../src/lib/lpc177x_8x/Drivers/source/lpc177x_8x_emc.c ****             LPC_EMC->DynamicRasCas2 |= (cas_val<<EMC_DYNAMIC_RASCAS_CASCFG_POS)
 2633              		.loc 1 895 0
 2634 12a4 164B     		ldr	r3, .L170
 2635 12a6 164A     		ldr	r2, .L170
 2636 12a8 D2F84411 		ldr	r1, [r2, #324]
 2637 12ac 3A68     		ldr	r2, [r7, #0]
 2638 12ae 4FEA0222 		lsl	r2, r2, #8
 896:../src/lib/lpc177x_8x/Drivers/source/lpc177x_8x_emc.c ****                                             &EMC_DYNAMIC_RASCAS_CASCFG_BMASK;
 2639              		.loc 1 896 0
 2640 12b2 02F44072 		and	r2, r2, #768
 895:../src/lib/lpc177x_8x/Drivers/source/lpc177x_8x_emc.c ****             LPC_EMC->DynamicRasCas2 |= (cas_val<<EMC_DYNAMIC_RASCAS_CASCFG_POS)
 2641              		.loc 1 895 0
 2642 12b6 0A43     		orrs	r2, r2, r1
 2643 12b8 C3F84421 		str	r2, [r3, #324]
 897:../src/lib/lpc177x_8x/Drivers/source/lpc177x_8x_emc.c ****             break;
 2644              		.loc 1 897 0
 2645 12bc 17E0     		b	.L168
 2646              	.L166:
 898:../src/lib/lpc177x_8x/Drivers/source/lpc177x_8x_emc.c ****         
 899:../src/lib/lpc177x_8x/Drivers/source/lpc177x_8x_emc.c ****         case 3:
 900:../src/lib/lpc177x_8x/Drivers/source/lpc177x_8x_emc.c ****             LPC_EMC->DynamicRasCas3 &= ~EMC_DYNAMIC_RASCAS_CASCFG_BMASK;
 2647              		.loc 1 900 0
 2648 12be 104B     		ldr	r3, .L170
 2649 12c0 0F4A     		ldr	r2, .L170
 2650 12c2 D2F86421 		ldr	r2, [r2, #356]
 2651 12c6 22F44072 		bic	r2, r2, #768
 2652 12ca C3F86421 		str	r2, [r3, #356]
 901:../src/lib/lpc177x_8x/Drivers/source/lpc177x_8x_emc.c ****             LPC_EMC->DynamicRasCas3 |= (cas_val<<EMC_DYNAMIC_RASCAS_CASCFG_POS)
 2653              		.loc 1 901 0
 2654 12ce 0C4B     		ldr	r3, .L170
 2655 12d0 0B4A     		ldr	r2, .L170
 2656 12d2 D2F86411 		ldr	r1, [r2, #356]
 2657 12d6 3A68     		ldr	r2, [r7, #0]
 2658 12d8 4FEA0222 		lsl	r2, r2, #8
 902:../src/lib/lpc177x_8x/Drivers/source/lpc177x_8x_emc.c ****                                             &EMC_DYNAMIC_RASCAS_CASCFG_BMASK;
 2659              		.loc 1 902 0
 2660 12dc 02F44072 		and	r2, r2, #768
 901:../src/lib/lpc177x_8x/Drivers/source/lpc177x_8x_emc.c ****             LPC_EMC->DynamicRasCas3 |= (cas_val<<EMC_DYNAMIC_RASCAS_CASCFG_POS)
 2661              		.loc 1 901 0
 2662 12e0 0A43     		orrs	r2, r2, r1
 2663 12e2 C3F86421 		str	r2, [r3, #356]
 903:../src/lib/lpc177x_8x/Drivers/source/lpc177x_8x_emc.c ****             break;
 2664              		.loc 1 903 0
 2665 12e6 02E0     		b	.L168
 2666              	.L162:
 904:../src/lib/lpc177x_8x/Drivers/source/lpc177x_8x_emc.c ****     default:
 905:../src/lib/lpc177x_8x/Drivers/source/lpc177x_8x_emc.c ****        return EMC_FUNC_INVALID_PARAM;
 2667              		.loc 1 905 0
 2668 12e8 4FF00203 		mov	r3, #2
 2669 12ec 01E0     		b	.L169
 2670              	.L168:
 906:../src/lib/lpc177x_8x/Drivers/source/lpc177x_8x_emc.c ****     }
 907:../src/lib/lpc177x_8x/Drivers/source/lpc177x_8x_emc.c ****     return EMC_FUNC_OK;
 2671              		.loc 1 907 0
 2672 12ee 4FF00003 		mov	r3, #0
 2673              	.L169:
 908:../src/lib/lpc177x_8x/Drivers/source/lpc177x_8x_emc.c **** }
 2674              		.loc 1 908 0
 2675 12f2 1846     		mov	r0, r3
 2676 12f4 07F10C07 		add	r7, r7, #12
 2677 12f8 BD46     		mov	sp, r7
 2678 12fa 80BC     		pop	{r7}
 2679 12fc 7047     		bx	lr
 2680              	.L171:
 2681 12fe 00BF     		.align	2
 2682              	.L170:
 2683 1300 00C00920 		.word	537509888
 2684              		.cfi_endproc
 2685              	.LFE74:
 2687              		.align	2
 2688              		.global	EMC_StaticExtendedWait
 2689              		.thumb
 2690              		.thumb_func
 2692              	EMC_StaticExtendedWait:
 2693              	.LFB75:
 909:../src/lib/lpc177x_8x/Drivers/source/lpc177x_8x_emc.c **** 
 910:../src/lib/lpc177x_8x/Drivers/source/lpc177x_8x_emc.c **** /*********************************************************************//**
 911:../src/lib/lpc177x_8x/Drivers/source/lpc177x_8x_emc.c ****  * @brief         Set extended wait time out for accessing static memory
 912:../src/lib/lpc177x_8x/Drivers/source/lpc177x_8x_emc.c ****  *
 913:../src/lib/lpc177x_8x/Drivers/source/lpc177x_8x_emc.c ****  * @param[in]    Extended_wait_time_out timeout value that will be set
 914:../src/lib/lpc177x_8x/Drivers/source/lpc177x_8x_emc.c ****  *
 915:../src/lib/lpc177x_8x/Drivers/source/lpc177x_8x_emc.c ****  * @return         EMC_FUNC_OK
 916:../src/lib/lpc177x_8x/Drivers/source/lpc177x_8x_emc.c ****  **********************************************************************/
 917:../src/lib/lpc177x_8x/Drivers/source/lpc177x_8x_emc.c **** EMC_FUNC_CODE EMC_StaticExtendedWait(uint32_t Extended_wait_time_out)
 918:../src/lib/lpc177x_8x/Drivers/source/lpc177x_8x_emc.c **** {
 2694              		.loc 1 918 0
 2695              		.cfi_startproc
 2696              		@ args = 0, pretend = 0, frame = 8
 2697              		@ frame_needed = 1, uses_anonymous_args = 0
 2698              		@ link register save eliminated.
 2699 1304 80B4     		push	{r7}
 2700              	.LCFI59:
 2701              		.cfi_def_cfa_offset 4
 2702              		.cfi_offset 7, -4
 2703 1306 83B0     		sub	sp, sp, #12
 2704              	.LCFI60:
 2705              		.cfi_def_cfa_offset 16
 2706 1308 00AF     		add	r7, sp, #0
 2707              	.LCFI61:
 2708              		.cfi_def_cfa_register 7
 2709 130a 7860     		str	r0, [r7, #4]
 919:../src/lib/lpc177x_8x/Drivers/source/lpc177x_8x_emc.c ****     LPC_EMC->StaticExtendedWait = EMC_StaticExtendedWait_EXTENDEDWAIT(Extended_wait_time_out);
 2710              		.loc 1 919 0
 2711 130c 074A     		ldr	r2, .L174
 2712 130e 7B68     		ldr	r3, [r7, #4]
 2713 1310 4FEA8353 		lsl	r3, r3, #22
 2714 1314 4FEA9353 		lsr	r3, r3, #22
 2715 1318 C2F88030 		str	r3, [r2, #128]
 920:../src/lib/lpc177x_8x/Drivers/source/lpc177x_8x_emc.c ****     return EMC_FUNC_OK;
 2716              		.loc 1 920 0
 2717 131c 4FF00003 		mov	r3, #0
 921:../src/lib/lpc177x_8x/Drivers/source/lpc177x_8x_emc.c **** }
 2718              		.loc 1 921 0
 2719 1320 1846     		mov	r0, r3
 2720 1322 07F10C07 		add	r7, r7, #12
 2721 1326 BD46     		mov	sp, r7
 2722 1328 80BC     		pop	{r7}
 2723 132a 7047     		bx	lr
 2724              	.L175:
 2725              		.align	2
 2726              	.L174:
 2727 132c 00C00920 		.word	537509888
 2728              		.cfi_endproc
 2729              	.LFE75:
 2731              		.align	2
 2732              		.global	EMC_StaMemConfigMW
 2733              		.thumb
 2734              		.thumb_func
 2736              	EMC_StaMemConfigMW:
 2737              	.LFB76:
 922:../src/lib/lpc177x_8x/Drivers/source/lpc177x_8x_emc.c **** 
 923:../src/lib/lpc177x_8x/Drivers/source/lpc177x_8x_emc.c **** /*********************************************************************//**
 924:../src/lib/lpc177x_8x/Drivers/source/lpc177x_8x_emc.c ****  * @brief         Configure the memory width
 925:../src/lib/lpc177x_8x/Drivers/source/lpc177x_8x_emc.c ****  *
 926:../src/lib/lpc177x_8x/Drivers/source/lpc177x_8x_emc.c ****  * @param[in]    index index number, should be from 0 to 3
 927:../src/lib/lpc177x_8x/Drivers/source/lpc177x_8x_emc.c ****  *
 928:../src/lib/lpc177x_8x/Drivers/source/lpc177x_8x_emc.c ****  * @param[in]     mem_width  memory width, should be:
 929:../src/lib/lpc177x_8x/Drivers/source/lpc177x_8x_emc.c ****  *
 930:../src/lib/lpc177x_8x/Drivers/source/lpc177x_8x_emc.c ****  *                - EMC_STATIC_CFG_MW_8BITS: 8-bits
 931:../src/lib/lpc177x_8x/Drivers/source/lpc177x_8x_emc.c ****  *
 932:../src/lib/lpc177x_8x/Drivers/source/lpc177x_8x_emc.c ****  *                - EMC_STATIC_CFG_MW_16BITS: 16-bits
 933:../src/lib/lpc177x_8x/Drivers/source/lpc177x_8x_emc.c ****  *
 934:../src/lib/lpc177x_8x/Drivers/source/lpc177x_8x_emc.c ****  *                - EMC_STATIC_CFG_MW_32BITS02: 32-bits
 935:../src/lib/lpc177x_8x/Drivers/source/lpc177x_8x_emc.c ****  *
 936:../src/lib/lpc177x_8x/Drivers/source/lpc177x_8x_emc.c ****  * @return         EMC_FUNC_OK/EMC_FUNC_INVALID_PARAM
 937:../src/lib/lpc177x_8x/Drivers/source/lpc177x_8x_emc.c ****  **********************************************************************/
 938:../src/lib/lpc177x_8x/Drivers/source/lpc177x_8x_emc.c **** EMC_FUNC_CODE EMC_StaMemConfigMW(uint32_t index , uint32_t mem_width)
 939:../src/lib/lpc177x_8x/Drivers/source/lpc177x_8x_emc.c **** {
 2738              		.loc 1 939 0
 2739              		.cfi_startproc
 2740              		@ args = 0, pretend = 0, frame = 16
 2741              		@ frame_needed = 1, uses_anonymous_args = 0
 2742              		@ link register save eliminated.
 2743 1330 80B4     		push	{r7}
 2744              	.LCFI62:
 2745              		.cfi_def_cfa_offset 4
 2746              		.cfi_offset 7, -4
 2747 1332 85B0     		sub	sp, sp, #20
 2748              	.LCFI63:
 2749              		.cfi_def_cfa_offset 24
 2750 1334 00AF     		add	r7, sp, #0
 2751              	.LCFI64:
 2752              		.cfi_def_cfa_register 7
 2753 1336 7860     		str	r0, [r7, #4]
 2754 1338 3960     		str	r1, [r7, #0]
 940:../src/lib/lpc177x_8x/Drivers/source/lpc177x_8x_emc.c ****     uint32_t mem_width_flg = 0;
 2755              		.loc 1 940 0
 2756 133a 4FF00003 		mov	r3, #0
 2757 133e FB60     		str	r3, [r7, #12]
 941:../src/lib/lpc177x_8x/Drivers/source/lpc177x_8x_emc.c ****     switch(mem_width)
 2758              		.loc 1 941 0
 2759 1340 3B68     		ldr	r3, [r7, #0]
 2760 1342 102B     		cmp	r3, #16
 2761 1344 07D0     		beq	.L179
 2762 1346 202B     		cmp	r3, #32
 2763 1348 09D0     		beq	.L180
 2764 134a 082B     		cmp	r3, #8
 2765 134c 0BD1     		bne	.L190
 2766              	.L178:
 942:../src/lib/lpc177x_8x/Drivers/source/lpc177x_8x_emc.c ****     {
 943:../src/lib/lpc177x_8x/Drivers/source/lpc177x_8x_emc.c ****         case 8:
 944:../src/lib/lpc177x_8x/Drivers/source/lpc177x_8x_emc.c ****             mem_width_flg = EMC_STATIC_CFG_MW_8BITS;
 2767              		.loc 1 944 0
 2768 134e 4FF00003 		mov	r3, #0
 2769 1352 FB60     		str	r3, [r7, #12]
 945:../src/lib/lpc177x_8x/Drivers/source/lpc177x_8x_emc.c ****             break;
 2770              		.loc 1 945 0
 2771 1354 0AE0     		b	.L181
 2772              	.L179:
 946:../src/lib/lpc177x_8x/Drivers/source/lpc177x_8x_emc.c ****         case 16:
 947:../src/lib/lpc177x_8x/Drivers/source/lpc177x_8x_emc.c ****             mem_width_flg = EMC_STATIC_CFG_MW_16BITS;
 2773              		.loc 1 947 0
 2774 1356 4FF00103 		mov	r3, #1
 2775 135a FB60     		str	r3, [r7, #12]
 948:../src/lib/lpc177x_8x/Drivers/source/lpc177x_8x_emc.c ****             break;
 2776              		.loc 1 948 0
 2777 135c 06E0     		b	.L181
 2778              	.L180:
 949:../src/lib/lpc177x_8x/Drivers/source/lpc177x_8x_emc.c ****         case 32:
 950:../src/lib/lpc177x_8x/Drivers/source/lpc177x_8x_emc.c ****             mem_width_flg = EMC_STATIC_CFG_MW_32BITS;
 2779              		.loc 1 950 0
 2780 135e 4FF00203 		mov	r3, #2
 2781 1362 FB60     		str	r3, [r7, #12]
 951:../src/lib/lpc177x_8x/Drivers/source/lpc177x_8x_emc.c ****             break;
 2782              		.loc 1 951 0
 2783 1364 02E0     		b	.L181
 2784              	.L190:
 952:../src/lib/lpc177x_8x/Drivers/source/lpc177x_8x_emc.c ****         default:
 953:../src/lib/lpc177x_8x/Drivers/source/lpc177x_8x_emc.c ****             return EMC_FUNC_INVALID_PARAM;
 2785              		.loc 1 953 0
 2786 1366 4FF00203 		mov	r3, #2
 2787 136a 56E0     		b	.L182
 2788              	.L181:
 954:../src/lib/lpc177x_8x/Drivers/source/lpc177x_8x_emc.c ****     }
 955:../src/lib/lpc177x_8x/Drivers/source/lpc177x_8x_emc.c ****     switch ( index)
 2789              		.loc 1 955 0
 2790 136c 7B68     		ldr	r3, [r7, #4]
 2791 136e 032B     		cmp	r3, #3
 2792 1370 4ED8     		bhi	.L183
 2793 1372 01A2     		adr	r2, .L188
 2794 1374 52F823F0 		ldr	pc, [r2, r3, lsl #2]
 2795              		.align	2
 2796              	.L188:
 2797 1378 89130000 		.word	.L184+1
 2798 137c AB130000 		.word	.L185+1
 2799 1380 CD130000 		.word	.L186+1
 2800 1384 EF130000 		.word	.L187+1
 2801              	.L184:
 956:../src/lib/lpc177x_8x/Drivers/source/lpc177x_8x_emc.c ****     {
 957:../src/lib/lpc177x_8x/Drivers/source/lpc177x_8x_emc.c ****         case 0:
 958:../src/lib/lpc177x_8x/Drivers/source/lpc177x_8x_emc.c ****             LPC_EMC->StaticConfig0 &= ~ EMC_STATIC_CFG_MEMWIDTH_BMASK;
 2802              		.loc 1 958 0
 2803 1388 274B     		ldr	r3, .L191
 2804 138a 274A     		ldr	r2, .L191
 2805 138c D2F80022 		ldr	r2, [r2, #512]
 2806 1390 22F00302 		bic	r2, r2, #3
 2807 1394 C3F80022 		str	r2, [r3, #512]
 959:../src/lib/lpc177x_8x/Drivers/source/lpc177x_8x_emc.c ****             LPC_EMC->StaticConfig0 |= mem_width_flg;
 2808              		.loc 1 959 0
 2809 1398 234B     		ldr	r3, .L191
 2810 139a 234A     		ldr	r2, .L191
 2811 139c D2F80012 		ldr	r1, [r2, #512]
 2812 13a0 FA68     		ldr	r2, [r7, #12]
 2813 13a2 0A43     		orrs	r2, r2, r1
 2814 13a4 C3F80022 		str	r2, [r3, #512]
 960:../src/lib/lpc177x_8x/Drivers/source/lpc177x_8x_emc.c ****             break;
 2815              		.loc 1 960 0
 2816 13a8 35E0     		b	.L189
 2817              	.L185:
 961:../src/lib/lpc177x_8x/Drivers/source/lpc177x_8x_emc.c ****         
 962:../src/lib/lpc177x_8x/Drivers/source/lpc177x_8x_emc.c ****         case 1:
 963:../src/lib/lpc177x_8x/Drivers/source/lpc177x_8x_emc.c ****             LPC_EMC->StaticConfig1 &= ~ EMC_STATIC_CFG_MEMWIDTH_BMASK;
 2818              		.loc 1 963 0
 2819 13aa 1F4B     		ldr	r3, .L191
 2820 13ac 1E4A     		ldr	r2, .L191
 2821 13ae D2F82022 		ldr	r2, [r2, #544]
 2822 13b2 22F00302 		bic	r2, r2, #3
 2823 13b6 C3F82022 		str	r2, [r3, #544]
 964:../src/lib/lpc177x_8x/Drivers/source/lpc177x_8x_emc.c ****             LPC_EMC->StaticConfig1 |= mem_width_flg;
 2824              		.loc 1 964 0
 2825 13ba 1B4B     		ldr	r3, .L191
 2826 13bc 1A4A     		ldr	r2, .L191
 2827 13be D2F82012 		ldr	r1, [r2, #544]
 2828 13c2 FA68     		ldr	r2, [r7, #12]
 2829 13c4 0A43     		orrs	r2, r2, r1
 2830 13c6 C3F82022 		str	r2, [r3, #544]
 965:../src/lib/lpc177x_8x/Drivers/source/lpc177x_8x_emc.c ****             break;
 2831              		.loc 1 965 0
 2832 13ca 24E0     		b	.L189
 2833              	.L186:
 966:../src/lib/lpc177x_8x/Drivers/source/lpc177x_8x_emc.c ****         
 967:../src/lib/lpc177x_8x/Drivers/source/lpc177x_8x_emc.c ****         case 2:
 968:../src/lib/lpc177x_8x/Drivers/source/lpc177x_8x_emc.c ****             LPC_EMC->StaticConfig2 &= ~ EMC_STATIC_CFG_MEMWIDTH_BMASK;
 2834              		.loc 1 968 0
 2835 13cc 164B     		ldr	r3, .L191
 2836 13ce 164A     		ldr	r2, .L191
 2837 13d0 D2F84022 		ldr	r2, [r2, #576]
 2838 13d4 22F00302 		bic	r2, r2, #3
 2839 13d8 C3F84022 		str	r2, [r3, #576]
 969:../src/lib/lpc177x_8x/Drivers/source/lpc177x_8x_emc.c ****             LPC_EMC->StaticConfig2 |= mem_width_flg;
 2840              		.loc 1 969 0
 2841 13dc 124B     		ldr	r3, .L191
 2842 13de 124A     		ldr	r2, .L191
 2843 13e0 D2F84012 		ldr	r1, [r2, #576]
 2844 13e4 FA68     		ldr	r2, [r7, #12]
 2845 13e6 0A43     		orrs	r2, r2, r1
 2846 13e8 C3F84022 		str	r2, [r3, #576]
 970:../src/lib/lpc177x_8x/Drivers/source/lpc177x_8x_emc.c ****             break;
 2847              		.loc 1 970 0
 2848 13ec 13E0     		b	.L189
 2849              	.L187:
 971:../src/lib/lpc177x_8x/Drivers/source/lpc177x_8x_emc.c ****         
 972:../src/lib/lpc177x_8x/Drivers/source/lpc177x_8x_emc.c ****         case 3:
 973:../src/lib/lpc177x_8x/Drivers/source/lpc177x_8x_emc.c ****             LPC_EMC->StaticConfig3 &= ~ EMC_STATIC_CFG_MEMWIDTH_BMASK;
 2850              		.loc 1 973 0
 2851 13ee 0E4B     		ldr	r3, .L191
 2852 13f0 0D4A     		ldr	r2, .L191
 2853 13f2 D2F86022 		ldr	r2, [r2, #608]
 2854 13f6 22F00302 		bic	r2, r2, #3
 2855 13fa C3F86022 		str	r2, [r3, #608]
 974:../src/lib/lpc177x_8x/Drivers/source/lpc177x_8x_emc.c ****             LPC_EMC->StaticConfig3 |= mem_width_flg;
 2856              		.loc 1 974 0
 2857 13fe 0A4B     		ldr	r3, .L191
 2858 1400 094A     		ldr	r2, .L191
 2859 1402 D2F86012 		ldr	r1, [r2, #608]
 2860 1406 FA68     		ldr	r2, [r7, #12]
 2861 1408 0A43     		orrs	r2, r2, r1
 2862 140a C3F86022 		str	r2, [r3, #608]
 975:../src/lib/lpc177x_8x/Drivers/source/lpc177x_8x_emc.c ****             break;
 2863              		.loc 1 975 0
 2864 140e 02E0     		b	.L189
 2865              	.L183:
 976:../src/lib/lpc177x_8x/Drivers/source/lpc177x_8x_emc.c ****     default:
 977:../src/lib/lpc177x_8x/Drivers/source/lpc177x_8x_emc.c ****             return EMC_FUNC_INVALID_PARAM;
 2866              		.loc 1 977 0
 2867 1410 4FF00203 		mov	r3, #2
 2868 1414 01E0     		b	.L182
 2869              	.L189:
 978:../src/lib/lpc177x_8x/Drivers/source/lpc177x_8x_emc.c ****     }
 979:../src/lib/lpc177x_8x/Drivers/source/lpc177x_8x_emc.c ****     return EMC_FUNC_OK;
 2870              		.loc 1 979 0
 2871 1416 4FF00003 		mov	r3, #0
 2872              	.L182:
 980:../src/lib/lpc177x_8x/Drivers/source/lpc177x_8x_emc.c **** }
 2873              		.loc 1 980 0
 2874 141a 1846     		mov	r0, r3
 2875 141c 07F11407 		add	r7, r7, #20
 2876 1420 BD46     		mov	sp, r7
 2877 1422 80BC     		pop	{r7}
 2878 1424 7047     		bx	lr
 2879              	.L192:
 2880 1426 00BF     		.align	2
 2881              	.L191:
 2882 1428 00C00920 		.word	537509888
 2883              		.cfi_endproc
 2884              	.LFE76:
 2886              		.align	2
 2887              		.global	EMC_StaMemConfigPM
 2888              		.thumb
 2889              		.thumb_func
 2891              	EMC_StaMemConfigPM:
 2892              	.LFB77:
 981:../src/lib/lpc177x_8x/Drivers/source/lpc177x_8x_emc.c **** /*********************************************************************//**
 982:../src/lib/lpc177x_8x/Drivers/source/lpc177x_8x_emc.c ****  * @brief         Configure the page mode
 983:../src/lib/lpc177x_8x/Drivers/source/lpc177x_8x_emc.c ****  *
 984:../src/lib/lpc177x_8x/Drivers/source/lpc177x_8x_emc.c ****  * @param[in]    index index number, should be from 0 to 3
 985:../src/lib/lpc177x_8x/Drivers/source/lpc177x_8x_emc.c ****  *
 986:../src/lib/lpc177x_8x/Drivers/source/lpc177x_8x_emc.c ****  * @param[in]     page_mode  page mode, should be:
 987:../src/lib/lpc177x_8x/Drivers/source/lpc177x_8x_emc.c ****  *
 988:../src/lib/lpc177x_8x/Drivers/source/lpc177x_8x_emc.c ****  *                - EMC_CFG_PM_DISABLE: disable
 989:../src/lib/lpc177x_8x/Drivers/source/lpc177x_8x_emc.c ****  *
 990:../src/lib/lpc177x_8x/Drivers/source/lpc177x_8x_emc.c ****  *                 - EMC_CFG_PM_ASYNC_ENABLE: asynchronous page mode enable
 991:../src/lib/lpc177x_8x/Drivers/source/lpc177x_8x_emc.c ****  *
 992:../src/lib/lpc177x_8x/Drivers/source/lpc177x_8x_emc.c ****  * @return         EMC_FUNC_OK/EMC_FUNC_INVALID_PARAM
 993:../src/lib/lpc177x_8x/Drivers/source/lpc177x_8x_emc.c ****  **********************************************************************/
 994:../src/lib/lpc177x_8x/Drivers/source/lpc177x_8x_emc.c **** EMC_FUNC_CODE EMC_StaMemConfigPM(uint32_t index , uint32_t page_mode)
 995:../src/lib/lpc177x_8x/Drivers/source/lpc177x_8x_emc.c **** {
 2893              		.loc 1 995 0
 2894              		.cfi_startproc
 2895              		@ args = 0, pretend = 0, frame = 8
 2896              		@ frame_needed = 1, uses_anonymous_args = 0
 2897              		@ link register save eliminated.
 2898 142c 80B4     		push	{r7}
 2899              	.LCFI65:
 2900              		.cfi_def_cfa_offset 4
 2901              		.cfi_offset 7, -4
 2902 142e 83B0     		sub	sp, sp, #12
 2903              	.LCFI66:
 2904              		.cfi_def_cfa_offset 16
 2905 1430 00AF     		add	r7, sp, #0
 2906              	.LCFI67:
 2907              		.cfi_def_cfa_register 7
 2908 1432 7860     		str	r0, [r7, #4]
 2909 1434 3960     		str	r1, [r7, #0]
 996:../src/lib/lpc177x_8x/Drivers/source/lpc177x_8x_emc.c ****     switch ( index)
 2910              		.loc 1 996 0
 2911 1436 7B68     		ldr	r3, [r7, #4]
 2912 1438 032B     		cmp	r3, #3
 2913 143a 57D8     		bhi	.L194
 2914 143c 01A2     		adr	r2, .L199
 2915 143e 52F823F0 		ldr	pc, [r2, r3, lsl #2]
 2916 1442 00BF     		.align	2
 2917              	.L199:
 2918 1444 55140000 		.word	.L195+1
 2919 1448 7B140000 		.word	.L196+1
 2920 144c A1140000 		.word	.L197+1
 2921 1450 C7140000 		.word	.L198+1
 2922              	.L195:
 997:../src/lib/lpc177x_8x/Drivers/source/lpc177x_8x_emc.c ****     {
 998:../src/lib/lpc177x_8x/Drivers/source/lpc177x_8x_emc.c ****         case 0:
 999:../src/lib/lpc177x_8x/Drivers/source/lpc177x_8x_emc.c ****             LPC_EMC->StaticConfig0  &= ~EMC_STATIC_CFG_PAGEMODE_MASK;
 2923              		.loc 1 999 0
 2924 1454 2B4B     		ldr	r3, .L202
 2925 1456 2B4A     		ldr	r2, .L202
 2926 1458 D2F80022 		ldr	r2, [r2, #512]
 2927 145c 22F00802 		bic	r2, r2, #8
 2928 1460 C3F80022 		str	r2, [r3, #512]
1000:../src/lib/lpc177x_8x/Drivers/source/lpc177x_8x_emc.c ****             LPC_EMC->StaticConfig0 |= page_mode&EMC_STATIC_CFG_PAGEMODE_MASK;
 2929              		.loc 1 1000 0
 2930 1464 274B     		ldr	r3, .L202
 2931 1466 274A     		ldr	r2, .L202
 2932 1468 D2F80012 		ldr	r1, [r2, #512]
 2933 146c 3A68     		ldr	r2, [r7, #0]
 2934 146e 02F00802 		and	r2, r2, #8
 2935 1472 0A43     		orrs	r2, r2, r1
 2936 1474 C3F80022 		str	r2, [r3, #512]
1001:../src/lib/lpc177x_8x/Drivers/source/lpc177x_8x_emc.c ****             break;
 2937              		.loc 1 1001 0
 2938 1478 3BE0     		b	.L200
 2939              	.L196:
1002:../src/lib/lpc177x_8x/Drivers/source/lpc177x_8x_emc.c ****         
1003:../src/lib/lpc177x_8x/Drivers/source/lpc177x_8x_emc.c ****         case 1:
1004:../src/lib/lpc177x_8x/Drivers/source/lpc177x_8x_emc.c ****             LPC_EMC->StaticConfig1  &= ~EMC_STATIC_CFG_PAGEMODE_MASK;
 2940              		.loc 1 1004 0
 2941 147a 224B     		ldr	r3, .L202
 2942 147c 214A     		ldr	r2, .L202
 2943 147e D2F82022 		ldr	r2, [r2, #544]
 2944 1482 22F00802 		bic	r2, r2, #8
 2945 1486 C3F82022 		str	r2, [r3, #544]
1005:../src/lib/lpc177x_8x/Drivers/source/lpc177x_8x_emc.c ****             LPC_EMC->StaticConfig1  |= page_mode&EMC_STATIC_CFG_PAGEMODE_MASK;
 2946              		.loc 1 1005 0
 2947 148a 1E4B     		ldr	r3, .L202
 2948 148c 1D4A     		ldr	r2, .L202
 2949 148e D2F82012 		ldr	r1, [r2, #544]
 2950 1492 3A68     		ldr	r2, [r7, #0]
 2951 1494 02F00802 		and	r2, r2, #8
 2952 1498 0A43     		orrs	r2, r2, r1
 2953 149a C3F82022 		str	r2, [r3, #544]
1006:../src/lib/lpc177x_8x/Drivers/source/lpc177x_8x_emc.c ****             break;
 2954              		.loc 1 1006 0
 2955 149e 28E0     		b	.L200
 2956              	.L197:
1007:../src/lib/lpc177x_8x/Drivers/source/lpc177x_8x_emc.c ****         
1008:../src/lib/lpc177x_8x/Drivers/source/lpc177x_8x_emc.c ****         case 2:
1009:../src/lib/lpc177x_8x/Drivers/source/lpc177x_8x_emc.c ****             LPC_EMC->StaticConfig2  &= ~EMC_STATIC_CFG_PAGEMODE_MASK;
 2957              		.loc 1 1009 0
 2958 14a0 184B     		ldr	r3, .L202
 2959 14a2 184A     		ldr	r2, .L202
 2960 14a4 D2F84022 		ldr	r2, [r2, #576]
 2961 14a8 22F00802 		bic	r2, r2, #8
 2962 14ac C3F84022 		str	r2, [r3, #576]
1010:../src/lib/lpc177x_8x/Drivers/source/lpc177x_8x_emc.c ****             LPC_EMC->StaticConfig2  |= page_mode&EMC_STATIC_CFG_PAGEMODE_MASK;
 2963              		.loc 1 1010 0
 2964 14b0 144B     		ldr	r3, .L202
 2965 14b2 144A     		ldr	r2, .L202
 2966 14b4 D2F84012 		ldr	r1, [r2, #576]
 2967 14b8 3A68     		ldr	r2, [r7, #0]
 2968 14ba 02F00802 		and	r2, r2, #8
 2969 14be 0A43     		orrs	r2, r2, r1
 2970 14c0 C3F84022 		str	r2, [r3, #576]
1011:../src/lib/lpc177x_8x/Drivers/source/lpc177x_8x_emc.c ****             break;
 2971              		.loc 1 1011 0
 2972 14c4 15E0     		b	.L200
 2973              	.L198:
1012:../src/lib/lpc177x_8x/Drivers/source/lpc177x_8x_emc.c ****         
1013:../src/lib/lpc177x_8x/Drivers/source/lpc177x_8x_emc.c ****         case 3:
1014:../src/lib/lpc177x_8x/Drivers/source/lpc177x_8x_emc.c ****             LPC_EMC->StaticConfig3  &= ~EMC_STATIC_CFG_PAGEMODE_MASK;
 2974              		.loc 1 1014 0
 2975 14c6 0F4B     		ldr	r3, .L202
 2976 14c8 0E4A     		ldr	r2, .L202
 2977 14ca D2F86022 		ldr	r2, [r2, #608]
 2978 14ce 22F00802 		bic	r2, r2, #8
 2979 14d2 C3F86022 		str	r2, [r3, #608]
1015:../src/lib/lpc177x_8x/Drivers/source/lpc177x_8x_emc.c ****             LPC_EMC->StaticConfig3  |= page_mode&EMC_STATIC_CFG_PAGEMODE_MASK;
 2980              		.loc 1 1015 0
 2981 14d6 0B4B     		ldr	r3, .L202
 2982 14d8 0A4A     		ldr	r2, .L202
 2983 14da D2F86012 		ldr	r1, [r2, #608]
 2984 14de 3A68     		ldr	r2, [r7, #0]
 2985 14e0 02F00802 		and	r2, r2, #8
 2986 14e4 0A43     		orrs	r2, r2, r1
 2987 14e6 C3F86022 		str	r2, [r3, #608]
1016:../src/lib/lpc177x_8x/Drivers/source/lpc177x_8x_emc.c ****             break;
 2988              		.loc 1 1016 0
 2989 14ea 02E0     		b	.L200
 2990              	.L194:
1017:../src/lib/lpc177x_8x/Drivers/source/lpc177x_8x_emc.c ****     default:
1018:../src/lib/lpc177x_8x/Drivers/source/lpc177x_8x_emc.c ****             return EMC_FUNC_INVALID_PARAM;
 2991              		.loc 1 1018 0
 2992 14ec 4FF00203 		mov	r3, #2
 2993 14f0 01E0     		b	.L201
 2994              	.L200:
1019:../src/lib/lpc177x_8x/Drivers/source/lpc177x_8x_emc.c ****     }
1020:../src/lib/lpc177x_8x/Drivers/source/lpc177x_8x_emc.c ****     return EMC_FUNC_OK;
 2995              		.loc 1 1020 0
 2996 14f2 4FF00003 		mov	r3, #0
 2997              	.L201:
1021:../src/lib/lpc177x_8x/Drivers/source/lpc177x_8x_emc.c **** }
 2998              		.loc 1 1021 0
 2999 14f6 1846     		mov	r0, r3
 3000 14f8 07F10C07 		add	r7, r7, #12
 3001 14fc BD46     		mov	sp, r7
 3002 14fe 80BC     		pop	{r7}
 3003 1500 7047     		bx	lr
 3004              	.L203:
 3005 1502 00BF     		.align	2
 3006              	.L202:
 3007 1504 00C00920 		.word	537509888
 3008              		.cfi_endproc
 3009              	.LFE77:
 3011              		.align	2
 3012              		.global	EMC_StaMemConfigPC
 3013              		.thumb
 3014              		.thumb_func
 3016              	EMC_StaMemConfigPC:
 3017              	.LFB78:
1022:../src/lib/lpc177x_8x/Drivers/source/lpc177x_8x_emc.c **** 
1023:../src/lib/lpc177x_8x/Drivers/source/lpc177x_8x_emc.c **** 
1024:../src/lib/lpc177x_8x/Drivers/source/lpc177x_8x_emc.c **** /*********************************************************************//**
1025:../src/lib/lpc177x_8x/Drivers/source/lpc177x_8x_emc.c ****  * @brief         Configure the chip select polarity
1026:../src/lib/lpc177x_8x/Drivers/source/lpc177x_8x_emc.c ****  *
1027:../src/lib/lpc177x_8x/Drivers/source/lpc177x_8x_emc.c ****  * @param[in]    index index number, should be from 0 to 3
1028:../src/lib/lpc177x_8x/Drivers/source/lpc177x_8x_emc.c ****  *
1029:../src/lib/lpc177x_8x/Drivers/source/lpc177x_8x_emc.c ****  * @param[in]     pagepol_val_mode  page mode, should be:
1030:../src/lib/lpc177x_8x/Drivers/source/lpc177x_8x_emc.c ****  *
1031:../src/lib/lpc177x_8x/Drivers/source/lpc177x_8x_emc.c ****  *                 - EMC_CFG_BYTELAND_PC_ACTIVE_LO: Active LOW ship select
1032:../src/lib/lpc177x_8x/Drivers/source/lpc177x_8x_emc.c ****  *
1033:../src/lib/lpc177x_8x/Drivers/source/lpc177x_8x_emc.c ****  *                 - EMC_CFG_BYTELAND_PC_ACTIVE_HI: Active HIGH chip select
1034:../src/lib/lpc177x_8x/Drivers/source/lpc177x_8x_emc.c ****  *
1035:../src/lib/lpc177x_8x/Drivers/source/lpc177x_8x_emc.c ****  * @return         EMC_FUNC_OK/EMC_FUNC_INVALID_PARAM
1036:../src/lib/lpc177x_8x/Drivers/source/lpc177x_8x_emc.c ****  **********************************************************************/
1037:../src/lib/lpc177x_8x/Drivers/source/lpc177x_8x_emc.c **** EMC_FUNC_CODE EMC_StaMemConfigPC(uint32_t index , uint32_t pol_val)
1038:../src/lib/lpc177x_8x/Drivers/source/lpc177x_8x_emc.c **** {
 3018              		.loc 1 1038 0
 3019              		.cfi_startproc
 3020              		@ args = 0, pretend = 0, frame = 8
 3021              		@ frame_needed = 1, uses_anonymous_args = 0
 3022              		@ link register save eliminated.
 3023 1508 80B4     		push	{r7}
 3024              	.LCFI68:
 3025              		.cfi_def_cfa_offset 4
 3026              		.cfi_offset 7, -4
 3027 150a 83B0     		sub	sp, sp, #12
 3028              	.LCFI69:
 3029              		.cfi_def_cfa_offset 16
 3030 150c 00AF     		add	r7, sp, #0
 3031              	.LCFI70:
 3032              		.cfi_def_cfa_register 7
 3033 150e 7860     		str	r0, [r7, #4]
 3034 1510 3960     		str	r1, [r7, #0]
1039:../src/lib/lpc177x_8x/Drivers/source/lpc177x_8x_emc.c ****     switch ( index)
 3035              		.loc 1 1039 0
 3036 1512 7B68     		ldr	r3, [r7, #4]
 3037 1514 032B     		cmp	r3, #3
 3038 1516 57D8     		bhi	.L205
 3039 1518 01A2     		adr	r2, .L210
 3040 151a 52F823F0 		ldr	pc, [r2, r3, lsl #2]
 3041 151e 00BF     		.align	2
 3042              	.L210:
 3043 1520 31150000 		.word	.L206+1
 3044 1524 57150000 		.word	.L207+1
 3045 1528 7D150000 		.word	.L208+1
 3046 152c A3150000 		.word	.L209+1
 3047              	.L206:
1040:../src/lib/lpc177x_8x/Drivers/source/lpc177x_8x_emc.c ****     {
1041:../src/lib/lpc177x_8x/Drivers/source/lpc177x_8x_emc.c ****         case 0:
1042:../src/lib/lpc177x_8x/Drivers/source/lpc177x_8x_emc.c ****             LPC_EMC->StaticConfig0 &= ~EMC_STATIC_CFG_CHIPPOLARITY_MASK;
 3048              		.loc 1 1042 0
 3049 1530 2B4B     		ldr	r3, .L213
 3050 1532 2B4A     		ldr	r2, .L213
 3051 1534 D2F80022 		ldr	r2, [r2, #512]
 3052 1538 22F04002 		bic	r2, r2, #64
 3053 153c C3F80022 		str	r2, [r3, #512]
1043:../src/lib/lpc177x_8x/Drivers/source/lpc177x_8x_emc.c ****             LPC_EMC->StaticConfig0  |=  pol_val&EMC_STATIC_CFG_CHIPPOLARITY_MASK;
 3054              		.loc 1 1043 0
 3055 1540 274B     		ldr	r3, .L213
 3056 1542 274A     		ldr	r2, .L213
 3057 1544 D2F80012 		ldr	r1, [r2, #512]
 3058 1548 3A68     		ldr	r2, [r7, #0]
 3059 154a 02F04002 		and	r2, r2, #64
 3060 154e 0A43     		orrs	r2, r2, r1
 3061 1550 C3F80022 		str	r2, [r3, #512]
1044:../src/lib/lpc177x_8x/Drivers/source/lpc177x_8x_emc.c ****             break;
 3062              		.loc 1 1044 0
 3063 1554 3BE0     		b	.L211
 3064              	.L207:
1045:../src/lib/lpc177x_8x/Drivers/source/lpc177x_8x_emc.c ****             
1046:../src/lib/lpc177x_8x/Drivers/source/lpc177x_8x_emc.c ****         case 1:
1047:../src/lib/lpc177x_8x/Drivers/source/lpc177x_8x_emc.c ****             LPC_EMC->StaticConfig1 &= ~EMC_STATIC_CFG_CHIPPOLARITY_MASK;
 3065              		.loc 1 1047 0
 3066 1556 224B     		ldr	r3, .L213
 3067 1558 214A     		ldr	r2, .L213
 3068 155a D2F82022 		ldr	r2, [r2, #544]
 3069 155e 22F04002 		bic	r2, r2, #64
 3070 1562 C3F82022 		str	r2, [r3, #544]
1048:../src/lib/lpc177x_8x/Drivers/source/lpc177x_8x_emc.c ****             LPC_EMC->StaticConfig1  |=  pol_val&EMC_STATIC_CFG_CHIPPOLARITY_MASK;
 3071              		.loc 1 1048 0
 3072 1566 1E4B     		ldr	r3, .L213
 3073 1568 1D4A     		ldr	r2, .L213
 3074 156a D2F82012 		ldr	r1, [r2, #544]
 3075 156e 3A68     		ldr	r2, [r7, #0]
 3076 1570 02F04002 		and	r2, r2, #64
 3077 1574 0A43     		orrs	r2, r2, r1
 3078 1576 C3F82022 		str	r2, [r3, #544]
1049:../src/lib/lpc177x_8x/Drivers/source/lpc177x_8x_emc.c ****             break;
 3079              		.loc 1 1049 0
 3080 157a 28E0     		b	.L211
 3081              	.L208:
1050:../src/lib/lpc177x_8x/Drivers/source/lpc177x_8x_emc.c ****             
1051:../src/lib/lpc177x_8x/Drivers/source/lpc177x_8x_emc.c ****         case 2:
1052:../src/lib/lpc177x_8x/Drivers/source/lpc177x_8x_emc.c ****             LPC_EMC->StaticConfig2 &= ~EMC_STATIC_CFG_CHIPPOLARITY_MASK;
 3082              		.loc 1 1052 0
 3083 157c 184B     		ldr	r3, .L213
 3084 157e 184A     		ldr	r2, .L213
 3085 1580 D2F84022 		ldr	r2, [r2, #576]
 3086 1584 22F04002 		bic	r2, r2, #64
 3087 1588 C3F84022 		str	r2, [r3, #576]
1053:../src/lib/lpc177x_8x/Drivers/source/lpc177x_8x_emc.c ****             LPC_EMC->StaticConfig2 |=  pol_val&EMC_STATIC_CFG_CHIPPOLARITY_MASK;
 3088              		.loc 1 1053 0
 3089 158c 144B     		ldr	r3, .L213
 3090 158e 144A     		ldr	r2, .L213
 3091 1590 D2F84012 		ldr	r1, [r2, #576]
 3092 1594 3A68     		ldr	r2, [r7, #0]
 3093 1596 02F04002 		and	r2, r2, #64
 3094 159a 0A43     		orrs	r2, r2, r1
 3095 159c C3F84022 		str	r2, [r3, #576]
1054:../src/lib/lpc177x_8x/Drivers/source/lpc177x_8x_emc.c ****             break;
 3096              		.loc 1 1054 0
 3097 15a0 15E0     		b	.L211
 3098              	.L209:
1055:../src/lib/lpc177x_8x/Drivers/source/lpc177x_8x_emc.c ****             
1056:../src/lib/lpc177x_8x/Drivers/source/lpc177x_8x_emc.c ****         case 3:
1057:../src/lib/lpc177x_8x/Drivers/source/lpc177x_8x_emc.c ****             LPC_EMC->StaticConfig3 &= ~EMC_STATIC_CFG_CHIPPOLARITY_MASK;
 3099              		.loc 1 1057 0
 3100 15a2 0F4B     		ldr	r3, .L213
 3101 15a4 0E4A     		ldr	r2, .L213
 3102 15a6 D2F86022 		ldr	r2, [r2, #608]
 3103 15aa 22F04002 		bic	r2, r2, #64
 3104 15ae C3F86022 		str	r2, [r3, #608]
1058:../src/lib/lpc177x_8x/Drivers/source/lpc177x_8x_emc.c ****             LPC_EMC->StaticConfig3  |=  pol_val&EMC_STATIC_CFG_CHIPPOLARITY_MASK;
 3105              		.loc 1 1058 0
 3106 15b2 0B4B     		ldr	r3, .L213
 3107 15b4 0A4A     		ldr	r2, .L213
 3108 15b6 D2F86012 		ldr	r1, [r2, #608]
 3109 15ba 3A68     		ldr	r2, [r7, #0]
 3110 15bc 02F04002 		and	r2, r2, #64
 3111 15c0 0A43     		orrs	r2, r2, r1
 3112 15c2 C3F86022 		str	r2, [r3, #608]
1059:../src/lib/lpc177x_8x/Drivers/source/lpc177x_8x_emc.c ****             break;
 3113              		.loc 1 1059 0
 3114 15c6 02E0     		b	.L211
 3115              	.L205:
1060:../src/lib/lpc177x_8x/Drivers/source/lpc177x_8x_emc.c ****     default:
1061:../src/lib/lpc177x_8x/Drivers/source/lpc177x_8x_emc.c ****             return EMC_FUNC_INVALID_PARAM;
 3116              		.loc 1 1061 0
 3117 15c8 4FF00203 		mov	r3, #2
 3118 15cc 01E0     		b	.L212
 3119              	.L211:
1062:../src/lib/lpc177x_8x/Drivers/source/lpc177x_8x_emc.c ****     }
1063:../src/lib/lpc177x_8x/Drivers/source/lpc177x_8x_emc.c ****     return EMC_FUNC_OK;
 3120              		.loc 1 1063 0
 3121 15ce 4FF00003 		mov	r3, #0
 3122              	.L212:
1064:../src/lib/lpc177x_8x/Drivers/source/lpc177x_8x_emc.c **** }
 3123              		.loc 1 1064 0
 3124 15d2 1846     		mov	r0, r3
 3125 15d4 07F10C07 		add	r7, r7, #12
 3126 15d8 BD46     		mov	sp, r7
 3127 15da 80BC     		pop	{r7}
 3128 15dc 7047     		bx	lr
 3129              	.L214:
 3130 15de 00BF     		.align	2
 3131              	.L213:
 3132 15e0 00C00920 		.word	537509888
 3133              		.cfi_endproc
 3134              	.LFE78:
 3136              		.align	2
 3137              		.global	EMC_StaMemConfigPB
 3138              		.thumb
 3139              		.thumb_func
 3141              	EMC_StaMemConfigPB:
 3142              	.LFB79:
1065:../src/lib/lpc177x_8x/Drivers/source/lpc177x_8x_emc.c **** 
1066:../src/lib/lpc177x_8x/Drivers/source/lpc177x_8x_emc.c **** 
1067:../src/lib/lpc177x_8x/Drivers/source/lpc177x_8x_emc.c **** /*********************************************************************//**
1068:../src/lib/lpc177x_8x/Drivers/source/lpc177x_8x_emc.c ****  * @brief         Configure the byte lane state
1069:../src/lib/lpc177x_8x/Drivers/source/lpc177x_8x_emc.c ****  *
1070:../src/lib/lpc177x_8x/Drivers/source/lpc177x_8x_emc.c ****  * @param[in]    index index number, should be from 0 to 3
1071:../src/lib/lpc177x_8x/Drivers/source/lpc177x_8x_emc.c ****  *
1072:../src/lib/lpc177x_8x/Drivers/source/lpc177x_8x_emc.c ****  * @param[in]     pb_val  Byte lane state, should be:
1073:../src/lib/lpc177x_8x/Drivers/source/lpc177x_8x_emc.c ****  *
1074:../src/lib/lpc177x_8x/Drivers/source/lpc177x_8x_emc.c ****  *                 - EMC_CFG_BYTELAND_READ_BITSHIGH: For reads all bits 
1075:../src/lib/lpc177x_8x/Drivers/source/lpc177x_8x_emc.c ****  *                in BLSn[3:0] are HIGH.
1076:../src/lib/lpc177x_8x/Drivers/source/lpc177x_8x_emc.c ****  *
1077:../src/lib/lpc177x_8x/Drivers/source/lpc177x_8x_emc.c ****  *                 - EMC_CFG_BYTELAND_READ_BITSLOW: For reads all bits 
1078:../src/lib/lpc177x_8x/Drivers/source/lpc177x_8x_emc.c ****  *                in BLSn[3:0] are LOW.
1079:../src/lib/lpc177x_8x/Drivers/source/lpc177x_8x_emc.c ****  *
1080:../src/lib/lpc177x_8x/Drivers/source/lpc177x_8x_emc.c ****  * @return         EMC_FUNC_OK/EMC_FUNC_INVALID_PARAM
1081:../src/lib/lpc177x_8x/Drivers/source/lpc177x_8x_emc.c ****  **********************************************************************/
1082:../src/lib/lpc177x_8x/Drivers/source/lpc177x_8x_emc.c **** EMC_FUNC_CODE EMC_StaMemConfigPB(uint32_t index , uint32_t pb_val)
1083:../src/lib/lpc177x_8x/Drivers/source/lpc177x_8x_emc.c **** {
 3143              		.loc 1 1083 0
 3144              		.cfi_startproc
 3145              		@ args = 0, pretend = 0, frame = 8
 3146              		@ frame_needed = 1, uses_anonymous_args = 0
 3147              		@ link register save eliminated.
 3148 15e4 80B4     		push	{r7}
 3149              	.LCFI71:
 3150              		.cfi_def_cfa_offset 4
 3151              		.cfi_offset 7, -4
 3152 15e6 83B0     		sub	sp, sp, #12
 3153              	.LCFI72:
 3154              		.cfi_def_cfa_offset 16
 3155 15e8 00AF     		add	r7, sp, #0
 3156              	.LCFI73:
 3157              		.cfi_def_cfa_register 7
 3158 15ea 7860     		str	r0, [r7, #4]
 3159 15ec 3960     		str	r1, [r7, #0]
1084:../src/lib/lpc177x_8x/Drivers/source/lpc177x_8x_emc.c ****     switch ( index)
 3160              		.loc 1 1084 0
 3161 15ee 7B68     		ldr	r3, [r7, #4]
 3162 15f0 032B     		cmp	r3, #3
 3163 15f2 57D8     		bhi	.L216
 3164 15f4 01A2     		adr	r2, .L221
 3165 15f6 52F823F0 		ldr	pc, [r2, r3, lsl #2]
 3166 15fa 00BF     		.align	2
 3167              	.L221:
 3168 15fc 0D160000 		.word	.L217+1
 3169 1600 33160000 		.word	.L218+1
 3170 1604 59160000 		.word	.L219+1
 3171 1608 7F160000 		.word	.L220+1
 3172              	.L217:
1085:../src/lib/lpc177x_8x/Drivers/source/lpc177x_8x_emc.c ****     {
1086:../src/lib/lpc177x_8x/Drivers/source/lpc177x_8x_emc.c ****         case 0:
1087:../src/lib/lpc177x_8x/Drivers/source/lpc177x_8x_emc.c ****             LPC_EMC->StaticConfig0 &= ~EMC_STATIC_CFG_BYTELAND_MASK;
 3173              		.loc 1 1087 0
 3174 160c 2B4B     		ldr	r3, .L224
 3175 160e 2B4A     		ldr	r2, .L224
 3176 1610 D2F80022 		ldr	r2, [r2, #512]
 3177 1614 22F08002 		bic	r2, r2, #128
 3178 1618 C3F80022 		str	r2, [r3, #512]
1088:../src/lib/lpc177x_8x/Drivers/source/lpc177x_8x_emc.c ****             LPC_EMC->StaticConfig0 |= pb_val&EMC_STATIC_CFG_BYTELAND_MASK;
 3179              		.loc 1 1088 0
 3180 161c 274B     		ldr	r3, .L224
 3181 161e 274A     		ldr	r2, .L224
 3182 1620 D2F80012 		ldr	r1, [r2, #512]
 3183 1624 3A68     		ldr	r2, [r7, #0]
 3184 1626 02F08002 		and	r2, r2, #128
 3185 162a 0A43     		orrs	r2, r2, r1
 3186 162c C3F80022 		str	r2, [r3, #512]
1089:../src/lib/lpc177x_8x/Drivers/source/lpc177x_8x_emc.c ****             break;
 3187              		.loc 1 1089 0
 3188 1630 3BE0     		b	.L222
 3189              	.L218:
1090:../src/lib/lpc177x_8x/Drivers/source/lpc177x_8x_emc.c **** 
1091:../src/lib/lpc177x_8x/Drivers/source/lpc177x_8x_emc.c ****         case 1:
1092:../src/lib/lpc177x_8x/Drivers/source/lpc177x_8x_emc.c ****             LPC_EMC->StaticConfig1 &= ~EMC_STATIC_CFG_BYTELAND_MASK;
 3190              		.loc 1 1092 0
 3191 1632 224B     		ldr	r3, .L224
 3192 1634 214A     		ldr	r2, .L224
 3193 1636 D2F82022 		ldr	r2, [r2, #544]
 3194 163a 22F08002 		bic	r2, r2, #128
 3195 163e C3F82022 		str	r2, [r3, #544]
1093:../src/lib/lpc177x_8x/Drivers/source/lpc177x_8x_emc.c ****             LPC_EMC->StaticConfig1 |= pb_val&EMC_STATIC_CFG_BYTELAND_MASK;
 3196              		.loc 1 1093 0
 3197 1642 1E4B     		ldr	r3, .L224
 3198 1644 1D4A     		ldr	r2, .L224
 3199 1646 D2F82012 		ldr	r1, [r2, #544]
 3200 164a 3A68     		ldr	r2, [r7, #0]
 3201 164c 02F08002 		and	r2, r2, #128
 3202 1650 0A43     		orrs	r2, r2, r1
 3203 1652 C3F82022 		str	r2, [r3, #544]
1094:../src/lib/lpc177x_8x/Drivers/source/lpc177x_8x_emc.c ****             break;
 3204              		.loc 1 1094 0
 3205 1656 28E0     		b	.L222
 3206              	.L219:
1095:../src/lib/lpc177x_8x/Drivers/source/lpc177x_8x_emc.c **** 
1096:../src/lib/lpc177x_8x/Drivers/source/lpc177x_8x_emc.c ****         case 2:
1097:../src/lib/lpc177x_8x/Drivers/source/lpc177x_8x_emc.c ****             LPC_EMC->StaticConfig2 &= ~EMC_STATIC_CFG_BYTELAND_MASK;
 3207              		.loc 1 1097 0
 3208 1658 184B     		ldr	r3, .L224
 3209 165a 184A     		ldr	r2, .L224
 3210 165c D2F84022 		ldr	r2, [r2, #576]
 3211 1660 22F08002 		bic	r2, r2, #128
 3212 1664 C3F84022 		str	r2, [r3, #576]
1098:../src/lib/lpc177x_8x/Drivers/source/lpc177x_8x_emc.c ****             LPC_EMC->StaticConfig2 |= pb_val&EMC_STATIC_CFG_BYTELAND_MASK;
 3213              		.loc 1 1098 0
 3214 1668 144B     		ldr	r3, .L224
 3215 166a 144A     		ldr	r2, .L224
 3216 166c D2F84012 		ldr	r1, [r2, #576]
 3217 1670 3A68     		ldr	r2, [r7, #0]
 3218 1672 02F08002 		and	r2, r2, #128
 3219 1676 0A43     		orrs	r2, r2, r1
 3220 1678 C3F84022 		str	r2, [r3, #576]
1099:../src/lib/lpc177x_8x/Drivers/source/lpc177x_8x_emc.c ****             break;
 3221              		.loc 1 1099 0
 3222 167c 15E0     		b	.L222
 3223              	.L220:
1100:../src/lib/lpc177x_8x/Drivers/source/lpc177x_8x_emc.c **** 
1101:../src/lib/lpc177x_8x/Drivers/source/lpc177x_8x_emc.c ****         case 3:
1102:../src/lib/lpc177x_8x/Drivers/source/lpc177x_8x_emc.c ****             LPC_EMC->StaticConfig3 &= ~EMC_STATIC_CFG_BYTELAND_MASK;
 3224              		.loc 1 1102 0
 3225 167e 0F4B     		ldr	r3, .L224
 3226 1680 0E4A     		ldr	r2, .L224
 3227 1682 D2F86022 		ldr	r2, [r2, #608]
 3228 1686 22F08002 		bic	r2, r2, #128
 3229 168a C3F86022 		str	r2, [r3, #608]
1103:../src/lib/lpc177x_8x/Drivers/source/lpc177x_8x_emc.c ****             LPC_EMC->StaticConfig3 |= pb_val&EMC_STATIC_CFG_BYTELAND_MASK;
 3230              		.loc 1 1103 0
 3231 168e 0B4B     		ldr	r3, .L224
 3232 1690 0A4A     		ldr	r2, .L224
 3233 1692 D2F86012 		ldr	r1, [r2, #608]
 3234 1696 3A68     		ldr	r2, [r7, #0]
 3235 1698 02F08002 		and	r2, r2, #128
 3236 169c 0A43     		orrs	r2, r2, r1
 3237 169e C3F86022 		str	r2, [r3, #608]
1104:../src/lib/lpc177x_8x/Drivers/source/lpc177x_8x_emc.c ****             break;
 3238              		.loc 1 1104 0
 3239 16a2 02E0     		b	.L222
 3240              	.L216:
1105:../src/lib/lpc177x_8x/Drivers/source/lpc177x_8x_emc.c ****     default:
1106:../src/lib/lpc177x_8x/Drivers/source/lpc177x_8x_emc.c ****             return EMC_FUNC_INVALID_PARAM;
 3241              		.loc 1 1106 0
 3242 16a4 4FF00203 		mov	r3, #2
 3243 16a8 01E0     		b	.L223
 3244              	.L222:
1107:../src/lib/lpc177x_8x/Drivers/source/lpc177x_8x_emc.c ****     }
1108:../src/lib/lpc177x_8x/Drivers/source/lpc177x_8x_emc.c ****     return EMC_FUNC_OK;
 3245              		.loc 1 1108 0
 3246 16aa 4FF00003 		mov	r3, #0
 3247              	.L223:
1109:../src/lib/lpc177x_8x/Drivers/source/lpc177x_8x_emc.c **** }
 3248              		.loc 1 1109 0
 3249 16ae 1846     		mov	r0, r3
 3250 16b0 07F10C07 		add	r7, r7, #12
 3251 16b4 BD46     		mov	sp, r7
 3252 16b6 80BC     		pop	{r7}
 3253 16b8 7047     		bx	lr
 3254              	.L225:
 3255 16ba 00BF     		.align	2
 3256              	.L224:
 3257 16bc 00C00920 		.word	537509888
 3258              		.cfi_endproc
 3259              	.LFE79:
 3261              		.align	2
 3262              		.global	EMC_StaMemConfigEW
 3263              		.thumb
 3264              		.thumb_func
 3266              	EMC_StaMemConfigEW:
 3267              	.LFB80:
1110:../src/lib/lpc177x_8x/Drivers/source/lpc177x_8x_emc.c **** 
1111:../src/lib/lpc177x_8x/Drivers/source/lpc177x_8x_emc.c **** /*********************************************************************//**
1112:../src/lib/lpc177x_8x/Drivers/source/lpc177x_8x_emc.c ****  * @brief         Configure the extended wait value
1113:../src/lib/lpc177x_8x/Drivers/source/lpc177x_8x_emc.c ****  *
1114:../src/lib/lpc177x_8x/Drivers/source/lpc177x_8x_emc.c ****  * @param[in]    index index number, should be from 0 to 3
1115:../src/lib/lpc177x_8x/Drivers/source/lpc177x_8x_emc.c ****  *
1116:../src/lib/lpc177x_8x/Drivers/source/lpc177x_8x_emc.c ****  * @param[in]     ex_wait  Extended wait mode, should be:
1117:../src/lib/lpc177x_8x/Drivers/source/lpc177x_8x_emc.c ****  *
1118:../src/lib/lpc177x_8x/Drivers/source/lpc177x_8x_emc.c ****  *                - EMC_CFG_EW_DISABLED: Extended wait disabled.
1119:../src/lib/lpc177x_8x/Drivers/source/lpc177x_8x_emc.c ****  *
1120:../src/lib/lpc177x_8x/Drivers/source/lpc177x_8x_emc.c ****  *                - EMC_CFG_EW_ENABLED: Extended wait enabled.
1121:../src/lib/lpc177x_8x/Drivers/source/lpc177x_8x_emc.c ****  *
1122:../src/lib/lpc177x_8x/Drivers/source/lpc177x_8x_emc.c ****  * @return         EMC_FUNC_OK/EMC_FUNC_INVALID_PARAM
1123:../src/lib/lpc177x_8x/Drivers/source/lpc177x_8x_emc.c ****  **********************************************************************/
1124:../src/lib/lpc177x_8x/Drivers/source/lpc177x_8x_emc.c **** EMC_FUNC_CODE EMC_StaMemConfigEW(uint32_t index , uint32_t ex_wait)
1125:../src/lib/lpc177x_8x/Drivers/source/lpc177x_8x_emc.c **** {
 3268              		.loc 1 1125 0
 3269              		.cfi_startproc
 3270              		@ args = 0, pretend = 0, frame = 8
 3271              		@ frame_needed = 1, uses_anonymous_args = 0
 3272              		@ link register save eliminated.
 3273 16c0 80B4     		push	{r7}
 3274              	.LCFI74:
 3275              		.cfi_def_cfa_offset 4
 3276              		.cfi_offset 7, -4
 3277 16c2 83B0     		sub	sp, sp, #12
 3278              	.LCFI75:
 3279              		.cfi_def_cfa_offset 16
 3280 16c4 00AF     		add	r7, sp, #0
 3281              	.LCFI76:
 3282              		.cfi_def_cfa_register 7
 3283 16c6 7860     		str	r0, [r7, #4]
 3284 16c8 3960     		str	r1, [r7, #0]
1126:../src/lib/lpc177x_8x/Drivers/source/lpc177x_8x_emc.c ****     switch ( index)
 3285              		.loc 1 1126 0
 3286 16ca 7B68     		ldr	r3, [r7, #4]
 3287 16cc 032B     		cmp	r3, #3
 3288 16ce 57D8     		bhi	.L227
 3289 16d0 01A2     		adr	r2, .L232
 3290 16d2 52F823F0 		ldr	pc, [r2, r3, lsl #2]
 3291 16d6 00BF     		.align	2
 3292              	.L232:
 3293 16d8 E9160000 		.word	.L228+1
 3294 16dc 0F170000 		.word	.L229+1
 3295 16e0 35170000 		.word	.L230+1
 3296 16e4 5B170000 		.word	.L231+1
 3297              	.L228:
1127:../src/lib/lpc177x_8x/Drivers/source/lpc177x_8x_emc.c ****     {
1128:../src/lib/lpc177x_8x/Drivers/source/lpc177x_8x_emc.c ****         case 0:
1129:../src/lib/lpc177x_8x/Drivers/source/lpc177x_8x_emc.c ****             LPC_EMC->StaticConfig0 &= ~EMC_STATIC_CFG_EXTWAIT_MASK;
 3298              		.loc 1 1129 0
 3299 16e8 2B4B     		ldr	r3, .L235
 3300 16ea 2B4A     		ldr	r2, .L235
 3301 16ec D2F80022 		ldr	r2, [r2, #512]
 3302 16f0 22F48072 		bic	r2, r2, #256
 3303 16f4 C3F80022 		str	r2, [r3, #512]
1130:../src/lib/lpc177x_8x/Drivers/source/lpc177x_8x_emc.c ****             LPC_EMC->StaticConfig0 |=  ex_wait&EMC_STATIC_CFG_EXTWAIT_MASK;
 3304              		.loc 1 1130 0
 3305 16f8 274B     		ldr	r3, .L235
 3306 16fa 274A     		ldr	r2, .L235
 3307 16fc D2F80012 		ldr	r1, [r2, #512]
 3308 1700 3A68     		ldr	r2, [r7, #0]
 3309 1702 02F48072 		and	r2, r2, #256
 3310 1706 0A43     		orrs	r2, r2, r1
 3311 1708 C3F80022 		str	r2, [r3, #512]
1131:../src/lib/lpc177x_8x/Drivers/source/lpc177x_8x_emc.c ****             break;
 3312              		.loc 1 1131 0
 3313 170c 3BE0     		b	.L233
 3314              	.L229:
1132:../src/lib/lpc177x_8x/Drivers/source/lpc177x_8x_emc.c ****         
1133:../src/lib/lpc177x_8x/Drivers/source/lpc177x_8x_emc.c ****         case 1:
1134:../src/lib/lpc177x_8x/Drivers/source/lpc177x_8x_emc.c ****             LPC_EMC->StaticConfig1 &= ~EMC_STATIC_CFG_EXTWAIT_MASK;
 3315              		.loc 1 1134 0
 3316 170e 224B     		ldr	r3, .L235
 3317 1710 214A     		ldr	r2, .L235
 3318 1712 D2F82022 		ldr	r2, [r2, #544]
 3319 1716 22F48072 		bic	r2, r2, #256
 3320 171a C3F82022 		str	r2, [r3, #544]
1135:../src/lib/lpc177x_8x/Drivers/source/lpc177x_8x_emc.c ****             LPC_EMC->StaticConfig1 |=  ex_wait&EMC_STATIC_CFG_EXTWAIT_MASK;
 3321              		.loc 1 1135 0
 3322 171e 1E4B     		ldr	r3, .L235
 3323 1720 1D4A     		ldr	r2, .L235
 3324 1722 D2F82012 		ldr	r1, [r2, #544]
 3325 1726 3A68     		ldr	r2, [r7, #0]
 3326 1728 02F48072 		and	r2, r2, #256
 3327 172c 0A43     		orrs	r2, r2, r1
 3328 172e C3F82022 		str	r2, [r3, #544]
1136:../src/lib/lpc177x_8x/Drivers/source/lpc177x_8x_emc.c ****             break;
 3329              		.loc 1 1136 0
 3330 1732 28E0     		b	.L233
 3331              	.L230:
1137:../src/lib/lpc177x_8x/Drivers/source/lpc177x_8x_emc.c ****         
1138:../src/lib/lpc177x_8x/Drivers/source/lpc177x_8x_emc.c ****         case 2:
1139:../src/lib/lpc177x_8x/Drivers/source/lpc177x_8x_emc.c ****             LPC_EMC->StaticConfig2 &= ~EMC_STATIC_CFG_EXTWAIT_MASK;
 3332              		.loc 1 1139 0
 3333 1734 184B     		ldr	r3, .L235
 3334 1736 184A     		ldr	r2, .L235
 3335 1738 D2F84022 		ldr	r2, [r2, #576]
 3336 173c 22F48072 		bic	r2, r2, #256
 3337 1740 C3F84022 		str	r2, [r3, #576]
1140:../src/lib/lpc177x_8x/Drivers/source/lpc177x_8x_emc.c ****             LPC_EMC->StaticConfig2  |=  ex_wait&EMC_STATIC_CFG_EXTWAIT_MASK;
 3338              		.loc 1 1140 0
 3339 1744 144B     		ldr	r3, .L235
 3340 1746 144A     		ldr	r2, .L235
 3341 1748 D2F84012 		ldr	r1, [r2, #576]
 3342 174c 3A68     		ldr	r2, [r7, #0]
 3343 174e 02F48072 		and	r2, r2, #256
 3344 1752 0A43     		orrs	r2, r2, r1
 3345 1754 C3F84022 		str	r2, [r3, #576]
1141:../src/lib/lpc177x_8x/Drivers/source/lpc177x_8x_emc.c ****             break;
 3346              		.loc 1 1141 0
 3347 1758 15E0     		b	.L233
 3348              	.L231:
1142:../src/lib/lpc177x_8x/Drivers/source/lpc177x_8x_emc.c ****         
1143:../src/lib/lpc177x_8x/Drivers/source/lpc177x_8x_emc.c ****         case 3:
1144:../src/lib/lpc177x_8x/Drivers/source/lpc177x_8x_emc.c ****             LPC_EMC->StaticConfig3 &= ~EMC_STATIC_CFG_EXTWAIT_MASK;
 3349              		.loc 1 1144 0
 3350 175a 0F4B     		ldr	r3, .L235
 3351 175c 0E4A     		ldr	r2, .L235
 3352 175e D2F86022 		ldr	r2, [r2, #608]
 3353 1762 22F48072 		bic	r2, r2, #256
 3354 1766 C3F86022 		str	r2, [r3, #608]
1145:../src/lib/lpc177x_8x/Drivers/source/lpc177x_8x_emc.c ****             LPC_EMC->StaticConfig3  |=  ex_wait&EMC_STATIC_CFG_EXTWAIT_MASK;
 3355              		.loc 1 1145 0
 3356 176a 0B4B     		ldr	r3, .L235
 3357 176c 0A4A     		ldr	r2, .L235
 3358 176e D2F86012 		ldr	r1, [r2, #608]
 3359 1772 3A68     		ldr	r2, [r7, #0]
 3360 1774 02F48072 		and	r2, r2, #256
 3361 1778 0A43     		orrs	r2, r2, r1
 3362 177a C3F86022 		str	r2, [r3, #608]
1146:../src/lib/lpc177x_8x/Drivers/source/lpc177x_8x_emc.c ****             break;
 3363              		.loc 1 1146 0
 3364 177e 02E0     		b	.L233
 3365              	.L227:
1147:../src/lib/lpc177x_8x/Drivers/source/lpc177x_8x_emc.c ****     default:
1148:../src/lib/lpc177x_8x/Drivers/source/lpc177x_8x_emc.c ****             return EMC_FUNC_INVALID_PARAM;
 3366              		.loc 1 1148 0
 3367 1780 4FF00203 		mov	r3, #2
 3368 1784 01E0     		b	.L234
 3369              	.L233:
1149:../src/lib/lpc177x_8x/Drivers/source/lpc177x_8x_emc.c ****     }
1150:../src/lib/lpc177x_8x/Drivers/source/lpc177x_8x_emc.c ****     return EMC_FUNC_OK;
 3370              		.loc 1 1150 0
 3371 1786 4FF00003 		mov	r3, #0
 3372              	.L234:
1151:../src/lib/lpc177x_8x/Drivers/source/lpc177x_8x_emc.c **** }
 3373              		.loc 1 1151 0
 3374 178a 1846     		mov	r0, r3
 3375 178c 07F10C07 		add	r7, r7, #12
 3376 1790 BD46     		mov	sp, r7
 3377 1792 80BC     		pop	{r7}
 3378 1794 7047     		bx	lr
 3379              	.L236:
 3380 1796 00BF     		.align	2
 3381              	.L235:
 3382 1798 00C00920 		.word	537509888
 3383              		.cfi_endproc
 3384              	.LFE80:
 3386              		.align	2
 3387              		.global	EMC_StaMemConfigB
 3388              		.thumb
 3389              		.thumb_func
 3391              	EMC_StaMemConfigB:
 3392              	.LFB81:
1152:../src/lib/lpc177x_8x/Drivers/source/lpc177x_8x_emc.c **** 
1153:../src/lib/lpc177x_8x/Drivers/source/lpc177x_8x_emc.c **** /*********************************************************************//**
1154:../src/lib/lpc177x_8x/Drivers/source/lpc177x_8x_emc.c ****  * @brief         Configure the buffer enable value
1155:../src/lib/lpc177x_8x/Drivers/source/lpc177x_8x_emc.c ****  *
1156:../src/lib/lpc177x_8x/Drivers/source/lpc177x_8x_emc.c ****  * @param[in]    index index number, should be from 0 to 3
1157:../src/lib/lpc177x_8x/Drivers/source/lpc177x_8x_emc.c ****  *
1158:../src/lib/lpc177x_8x/Drivers/source/lpc177x_8x_emc.c ****  * @param[in]     buf_val  Buffer mode, should be:
1159:../src/lib/lpc177x_8x/Drivers/source/lpc177x_8x_emc.c ****  *
1160:../src/lib/lpc177x_8x/Drivers/source/lpc177x_8x_emc.c ****  *                - EMC_CFG_BUF_DISABLED: Buffer disabled.
1161:../src/lib/lpc177x_8x/Drivers/source/lpc177x_8x_emc.c ****  *
1162:../src/lib/lpc177x_8x/Drivers/source/lpc177x_8x_emc.c ****  *                - EMC_CFG_BUF_ENABLED: Buffer enabled.
1163:../src/lib/lpc177x_8x/Drivers/source/lpc177x_8x_emc.c ****  *
1164:../src/lib/lpc177x_8x/Drivers/source/lpc177x_8x_emc.c ****  * @return         EMC_FUNC_OK/EMC_FUNC_INVALID_PARAM
1165:../src/lib/lpc177x_8x/Drivers/source/lpc177x_8x_emc.c ****  **********************************************************************/
1166:../src/lib/lpc177x_8x/Drivers/source/lpc177x_8x_emc.c **** EMC_FUNC_CODE EMC_StaMemConfigB(uint32_t index , uint32_t buf_val)
1167:../src/lib/lpc177x_8x/Drivers/source/lpc177x_8x_emc.c **** {    
 3393              		.loc 1 1167 0
 3394              		.cfi_startproc
 3395              		@ args = 0, pretend = 0, frame = 8
 3396              		@ frame_needed = 1, uses_anonymous_args = 0
 3397              		@ link register save eliminated.
 3398 179c 80B4     		push	{r7}
 3399              	.LCFI77:
 3400              		.cfi_def_cfa_offset 4
 3401              		.cfi_offset 7, -4
 3402 179e 83B0     		sub	sp, sp, #12
 3403              	.LCFI78:
 3404              		.cfi_def_cfa_offset 16
 3405 17a0 00AF     		add	r7, sp, #0
 3406              	.LCFI79:
 3407              		.cfi_def_cfa_register 7
 3408 17a2 7860     		str	r0, [r7, #4]
 3409 17a4 3960     		str	r1, [r7, #0]
1168:../src/lib/lpc177x_8x/Drivers/source/lpc177x_8x_emc.c ****     switch ( index)
 3410              		.loc 1 1168 0
 3411 17a6 7B68     		ldr	r3, [r7, #4]
 3412 17a8 032B     		cmp	r3, #3
 3413 17aa 57D8     		bhi	.L238
 3414 17ac 01A2     		adr	r2, .L243
 3415 17ae 52F823F0 		ldr	pc, [r2, r3, lsl #2]
 3416 17b2 00BF     		.align	2
 3417              	.L243:
 3418 17b4 C5170000 		.word	.L239+1
 3419 17b8 EB170000 		.word	.L240+1
 3420 17bc 11180000 		.word	.L241+1
 3421 17c0 37180000 		.word	.L242+1
 3422              	.L239:
1169:../src/lib/lpc177x_8x/Drivers/source/lpc177x_8x_emc.c ****     {
1170:../src/lib/lpc177x_8x/Drivers/source/lpc177x_8x_emc.c ****         case 0:
1171:../src/lib/lpc177x_8x/Drivers/source/lpc177x_8x_emc.c ****             LPC_EMC->StaticConfig0 &= ~EMC_STATIC_CFG_BUFENABLE_MASK;
 3423              		.loc 1 1171 0
 3424 17c4 2B4B     		ldr	r3, .L246
 3425 17c6 2B4A     		ldr	r2, .L246
 3426 17c8 D2F80022 		ldr	r2, [r2, #512]
 3427 17cc 22F40022 		bic	r2, r2, #524288
 3428 17d0 C3F80022 		str	r2, [r3, #512]
1172:../src/lib/lpc177x_8x/Drivers/source/lpc177x_8x_emc.c ****             LPC_EMC->StaticConfig0 |=  buf_val&EMC_STATIC_CFG_BUFENABLE_MASK;
 3429              		.loc 1 1172 0
 3430 17d4 274B     		ldr	r3, .L246
 3431 17d6 274A     		ldr	r2, .L246
 3432 17d8 D2F80012 		ldr	r1, [r2, #512]
 3433 17dc 3A68     		ldr	r2, [r7, #0]
 3434 17de 02F40022 		and	r2, r2, #524288
 3435 17e2 0A43     		orrs	r2, r2, r1
 3436 17e4 C3F80022 		str	r2, [r3, #512]
1173:../src/lib/lpc177x_8x/Drivers/source/lpc177x_8x_emc.c ****             break;
 3437              		.loc 1 1173 0
 3438 17e8 3BE0     		b	.L244
 3439              	.L240:
1174:../src/lib/lpc177x_8x/Drivers/source/lpc177x_8x_emc.c ****         
1175:../src/lib/lpc177x_8x/Drivers/source/lpc177x_8x_emc.c ****         case 1:
1176:../src/lib/lpc177x_8x/Drivers/source/lpc177x_8x_emc.c ****             LPC_EMC->StaticConfig1 &= ~EMC_STATIC_CFG_BUFENABLE_MASK;
 3440              		.loc 1 1176 0
 3441 17ea 224B     		ldr	r3, .L246
 3442 17ec 214A     		ldr	r2, .L246
 3443 17ee D2F82022 		ldr	r2, [r2, #544]
 3444 17f2 22F40022 		bic	r2, r2, #524288
 3445 17f6 C3F82022 		str	r2, [r3, #544]
1177:../src/lib/lpc177x_8x/Drivers/source/lpc177x_8x_emc.c ****             LPC_EMC->StaticConfig1  |=  buf_val&EMC_STATIC_CFG_BUFENABLE_MASK;
 3446              		.loc 1 1177 0
 3447 17fa 1E4B     		ldr	r3, .L246
 3448 17fc 1D4A     		ldr	r2, .L246
 3449 17fe D2F82012 		ldr	r1, [r2, #544]
 3450 1802 3A68     		ldr	r2, [r7, #0]
 3451 1804 02F40022 		and	r2, r2, #524288
 3452 1808 0A43     		orrs	r2, r2, r1
 3453 180a C3F82022 		str	r2, [r3, #544]
1178:../src/lib/lpc177x_8x/Drivers/source/lpc177x_8x_emc.c ****             break;
 3454              		.loc 1 1178 0
 3455 180e 28E0     		b	.L244
 3456              	.L241:
1179:../src/lib/lpc177x_8x/Drivers/source/lpc177x_8x_emc.c ****         
1180:../src/lib/lpc177x_8x/Drivers/source/lpc177x_8x_emc.c ****         case 2:
1181:../src/lib/lpc177x_8x/Drivers/source/lpc177x_8x_emc.c ****             LPC_EMC->StaticConfig2 &= ~EMC_STATIC_CFG_BUFENABLE_MASK;
 3457              		.loc 1 1181 0
 3458 1810 184B     		ldr	r3, .L246
 3459 1812 184A     		ldr	r2, .L246
 3460 1814 D2F84022 		ldr	r2, [r2, #576]
 3461 1818 22F40022 		bic	r2, r2, #524288
 3462 181c C3F84022 		str	r2, [r3, #576]
1182:../src/lib/lpc177x_8x/Drivers/source/lpc177x_8x_emc.c ****             LPC_EMC->StaticConfig2  |=  buf_val&EMC_STATIC_CFG_BUFENABLE_MASK;
 3463              		.loc 1 1182 0
 3464 1820 144B     		ldr	r3, .L246
 3465 1822 144A     		ldr	r2, .L246
 3466 1824 D2F84012 		ldr	r1, [r2, #576]
 3467 1828 3A68     		ldr	r2, [r7, #0]
 3468 182a 02F40022 		and	r2, r2, #524288
 3469 182e 0A43     		orrs	r2, r2, r1
 3470 1830 C3F84022 		str	r2, [r3, #576]
1183:../src/lib/lpc177x_8x/Drivers/source/lpc177x_8x_emc.c ****             break;
 3471              		.loc 1 1183 0
 3472 1834 15E0     		b	.L244
 3473              	.L242:
1184:../src/lib/lpc177x_8x/Drivers/source/lpc177x_8x_emc.c ****         
1185:../src/lib/lpc177x_8x/Drivers/source/lpc177x_8x_emc.c ****         case 3:
1186:../src/lib/lpc177x_8x/Drivers/source/lpc177x_8x_emc.c ****             LPC_EMC->StaticConfig3 &= ~EMC_STATIC_CFG_BUFENABLE_MASK;
 3474              		.loc 1 1186 0
 3475 1836 0F4B     		ldr	r3, .L246
 3476 1838 0E4A     		ldr	r2, .L246
 3477 183a D2F86022 		ldr	r2, [r2, #608]
 3478 183e 22F40022 		bic	r2, r2, #524288
 3479 1842 C3F86022 		str	r2, [r3, #608]
1187:../src/lib/lpc177x_8x/Drivers/source/lpc177x_8x_emc.c ****             LPC_EMC->StaticConfig3  |=  buf_val&EMC_STATIC_CFG_BUFENABLE_MASK;
 3480              		.loc 1 1187 0
 3481 1846 0B4B     		ldr	r3, .L246
 3482 1848 0A4A     		ldr	r2, .L246
 3483 184a D2F86012 		ldr	r1, [r2, #608]
 3484 184e 3A68     		ldr	r2, [r7, #0]
 3485 1850 02F40022 		and	r2, r2, #524288
 3486 1854 0A43     		orrs	r2, r2, r1
 3487 1856 C3F86022 		str	r2, [r3, #608]
1188:../src/lib/lpc177x_8x/Drivers/source/lpc177x_8x_emc.c ****             break;
 3488              		.loc 1 1188 0
 3489 185a 02E0     		b	.L244
 3490              	.L238:
1189:../src/lib/lpc177x_8x/Drivers/source/lpc177x_8x_emc.c ****     default:
1190:../src/lib/lpc177x_8x/Drivers/source/lpc177x_8x_emc.c ****             return EMC_FUNC_INVALID_PARAM;
 3491              		.loc 1 1190 0
 3492 185c 4FF00203 		mov	r3, #2
 3493 1860 01E0     		b	.L245
 3494              	.L244:
1191:../src/lib/lpc177x_8x/Drivers/source/lpc177x_8x_emc.c ****     }
1192:../src/lib/lpc177x_8x/Drivers/source/lpc177x_8x_emc.c ****     return EMC_FUNC_OK;
 3495              		.loc 1 1192 0
 3496 1862 4FF00003 		mov	r3, #0
 3497              	.L245:
1193:../src/lib/lpc177x_8x/Drivers/source/lpc177x_8x_emc.c **** }
 3498              		.loc 1 1193 0
 3499 1866 1846     		mov	r0, r3
 3500 1868 07F10C07 		add	r7, r7, #12
 3501 186c BD46     		mov	sp, r7
 3502 186e 80BC     		pop	{r7}
 3503 1870 7047     		bx	lr
 3504              	.L247:
 3505 1872 00BF     		.align	2
 3506              	.L246:
 3507 1874 00C00920 		.word	537509888
 3508              		.cfi_endproc
 3509              	.LFE81:
 3511              		.align	2
 3512              		.global	EMC_StaMemConfigpP
 3513              		.thumb
 3514              		.thumb_func
 3516              	EMC_StaMemConfigpP:
 3517              	.LFB82:
1194:../src/lib/lpc177x_8x/Drivers/source/lpc177x_8x_emc.c **** 
1195:../src/lib/lpc177x_8x/Drivers/source/lpc177x_8x_emc.c **** /*********************************************************************//**
1196:../src/lib/lpc177x_8x/Drivers/source/lpc177x_8x_emc.c ****  * @brief         Configure the write permission
1197:../src/lib/lpc177x_8x/Drivers/source/lpc177x_8x_emc.c ****  *
1198:../src/lib/lpc177x_8x/Drivers/source/lpc177x_8x_emc.c ****  * @param[in]    index index number, should be from 0 to 3
1199:../src/lib/lpc177x_8x/Drivers/source/lpc177x_8x_emc.c ****  *
1200:../src/lib/lpc177x_8x/Drivers/source/lpc177x_8x_emc.c ****  * @param[in]     per_val  Permission mode, should be:
1201:../src/lib/lpc177x_8x/Drivers/source/lpc177x_8x_emc.c ****  *
1202:../src/lib/lpc177x_8x/Drivers/source/lpc177x_8x_emc.c ****  *                - EMC_CFG_WRITEPROTECT_DISABLED: Write not protected.
1203:../src/lib/lpc177x_8x/Drivers/source/lpc177x_8x_emc.c ****  *
1204:../src/lib/lpc177x_8x/Drivers/source/lpc177x_8x_emc.c ****  *                - EMC_CFG_WRITEPROTECT_ENABLED: Write protected.
1205:../src/lib/lpc177x_8x/Drivers/source/lpc177x_8x_emc.c ****  *
1206:../src/lib/lpc177x_8x/Drivers/source/lpc177x_8x_emc.c ****  * @return         EMC_FUNC_OK/EMC_FUNC_INVALID_PARAM
1207:../src/lib/lpc177x_8x/Drivers/source/lpc177x_8x_emc.c ****  **********************************************************************/
1208:../src/lib/lpc177x_8x/Drivers/source/lpc177x_8x_emc.c **** EMC_FUNC_CODE EMC_StaMemConfigpP(uint32_t index , uint32_t per_val)
1209:../src/lib/lpc177x_8x/Drivers/source/lpc177x_8x_emc.c **** {
 3518              		.loc 1 1209 0
 3519              		.cfi_startproc
 3520              		@ args = 0, pretend = 0, frame = 8
 3521              		@ frame_needed = 1, uses_anonymous_args = 0
 3522              		@ link register save eliminated.
 3523 1878 80B4     		push	{r7}
 3524              	.LCFI80:
 3525              		.cfi_def_cfa_offset 4
 3526              		.cfi_offset 7, -4
 3527 187a 83B0     		sub	sp, sp, #12
 3528              	.LCFI81:
 3529              		.cfi_def_cfa_offset 16
 3530 187c 00AF     		add	r7, sp, #0
 3531              	.LCFI82:
 3532              		.cfi_def_cfa_register 7
 3533 187e 7860     		str	r0, [r7, #4]
 3534 1880 3960     		str	r1, [r7, #0]
1210:../src/lib/lpc177x_8x/Drivers/source/lpc177x_8x_emc.c ****     switch ( index)
 3535              		.loc 1 1210 0
 3536 1882 7B68     		ldr	r3, [r7, #4]
 3537 1884 032B     		cmp	r3, #3
 3538 1886 57D8     		bhi	.L249
 3539 1888 01A2     		adr	r2, .L254
 3540 188a 52F823F0 		ldr	pc, [r2, r3, lsl #2]
 3541 188e 00BF     		.align	2
 3542              	.L254:
 3543 1890 A1180000 		.word	.L250+1
 3544 1894 C7180000 		.word	.L251+1
 3545 1898 ED180000 		.word	.L252+1
 3546 189c 13190000 		.word	.L253+1
 3547              	.L250:
1211:../src/lib/lpc177x_8x/Drivers/source/lpc177x_8x_emc.c ****     {
1212:../src/lib/lpc177x_8x/Drivers/source/lpc177x_8x_emc.c ****         case 0:
