   1              		.syntax unified
   2              		.cpu cortex-m4
   3              		.fpu softvfp
   4              		.eabi_attribute 20, 1
   5              		.eabi_attribute 21, 1
   6              		.eabi_attribute 23, 3
   7              		.eabi_attribute 24, 1
   8              		.eabi_attribute 25, 1
   9              		.eabi_attribute 26, 1
  10              		.eabi_attribute 30, 6
  11              		.eabi_attribute 34, 1
  12              		.eabi_attribute 18, 4
  13              		.thumb
  14              		.file	"lpc177x_8x_lcd.c"
  15              		.text
  16              	.Ltext0:
  17              		.cfi_sections	.debug_frame
  18              		.global	lcd_hsize
  19              		.bss
  20              		.align	2
  23              	lcd_hsize:
  24 0000 00000000 		.space	4
  25              		.global	lcd_vsize
  26              		.align	2
  29              	lcd_vsize:
  30 0004 00000000 		.space	4
  31              		.global	lcd_cursor_base_addr
  32              		.align	2
  35              	lcd_cursor_base_addr:
  36 0008 00000000 		.space	4
  37              		.global	lcd_cursor_size
  38              		.data
  39              		.align	2
  42              	lcd_cursor_size:
  43 0000 40000000 		.word	64
  44              		.comm	lcd_config,48,4
  45              		.align	2
  48              	bits_per_pixel:
  49 0004 01       		.byte	1
  50 0005 02       		.byte	2
  51 0006 04       		.byte	4
  52 0007 08       		.byte	8
  53 0008 10       		.byte	16
  54 0009 20       		.byte	32
  55 000a 10       		.byte	16
  56 000b 10       		.byte	16
  57              		.comm	rect,4096,4
  58              		.text
  59              		.align	2
  60              		.global	LCD_Init
  61              		.thumb
  62              		.thumb_func
  64              	LCD_Init:
  65              	.LFB55:
  66              		.file 1 "../src/lib/lpc177x_8x/Drivers/source/lpc177x_8x_lcd.c"
   1:../src/lib/lpc177x_8x/Drivers/source/lpc177x_8x_lcd.c **** /**********************************************************************
   2:../src/lib/lpc177x_8x/Drivers/source/lpc177x_8x_lcd.c **** * $Id$      lpc177x_8x_lcd.c            2011-10-14
   3:../src/lib/lpc177x_8x/Drivers/source/lpc177x_8x_lcd.c **** *//**
   4:../src/lib/lpc177x_8x/Drivers/source/lpc177x_8x_lcd.c **** * @file     lpc177x_8x_lcd.c
   5:../src/lib/lpc177x_8x/Drivers/source/lpc177x_8x_lcd.c **** * @brief    Contains all functions support for LCD firmware library
   6:../src/lib/lpc177x_8x/Drivers/source/lpc177x_8x_lcd.c **** *           on LPC177x_8x
   7:../src/lib/lpc177x_8x/Drivers/source/lpc177x_8x_lcd.c **** * @version  1.0
   8:../src/lib/lpc177x_8x/Drivers/source/lpc177x_8x_lcd.c **** * @date     14. October. 2011
   9:../src/lib/lpc177x_8x/Drivers/source/lpc177x_8x_lcd.c **** * @author   NXP MCU SW Application Team
  10:../src/lib/lpc177x_8x/Drivers/source/lpc177x_8x_lcd.c **** * 
  11:../src/lib/lpc177x_8x/Drivers/source/lpc177x_8x_lcd.c **** * Copyright(C) 2011, NXP Semiconductor
  12:../src/lib/lpc177x_8x/Drivers/source/lpc177x_8x_lcd.c **** * All rights reserved.
  13:../src/lib/lpc177x_8x/Drivers/source/lpc177x_8x_lcd.c **** *
  14:../src/lib/lpc177x_8x/Drivers/source/lpc177x_8x_lcd.c **** ***********************************************************************
  15:../src/lib/lpc177x_8x/Drivers/source/lpc177x_8x_lcd.c **** * Software that is described herein is for illustrative purposes only
  16:../src/lib/lpc177x_8x/Drivers/source/lpc177x_8x_lcd.c **** * which provides customers with programming information regarding the
  17:../src/lib/lpc177x_8x/Drivers/source/lpc177x_8x_lcd.c **** * products. This software is supplied "AS IS" without any warranties.
  18:../src/lib/lpc177x_8x/Drivers/source/lpc177x_8x_lcd.c **** * NXP Semiconductors assumes no responsibility or liability for the
  19:../src/lib/lpc177x_8x/Drivers/source/lpc177x_8x_lcd.c **** * use of the software, conveys no license or title under any patent,
  20:../src/lib/lpc177x_8x/Drivers/source/lpc177x_8x_lcd.c **** * copyright, or mask work right to the product. NXP Semiconductors
  21:../src/lib/lpc177x_8x/Drivers/source/lpc177x_8x_lcd.c **** * reserves the right to make changes in the software without
  22:../src/lib/lpc177x_8x/Drivers/source/lpc177x_8x_lcd.c **** * notification. NXP Semiconductors also make no representation or
  23:../src/lib/lpc177x_8x/Drivers/source/lpc177x_8x_lcd.c **** * warranty that such application will be suitable for the specified
  24:../src/lib/lpc177x_8x/Drivers/source/lpc177x_8x_lcd.c **** * use without further testing or modification.
  25:../src/lib/lpc177x_8x/Drivers/source/lpc177x_8x_lcd.c **** * Permission to use, copy, modify, and distribute this software and its
  26:../src/lib/lpc177x_8x/Drivers/source/lpc177x_8x_lcd.c **** * documentation is hereby granted, under NXP Semiconductors'
  27:../src/lib/lpc177x_8x/Drivers/source/lpc177x_8x_lcd.c **** * relevant copyright in the software, without fee, provided that it
  28:../src/lib/lpc177x_8x/Drivers/source/lpc177x_8x_lcd.c **** * is used in conjunction with NXP Semiconductors microcontrollers.  This
  29:../src/lib/lpc177x_8x/Drivers/source/lpc177x_8x_lcd.c **** * copyright, permission, and disclaimer notice must appear in all copies of
  30:../src/lib/lpc177x_8x/Drivers/source/lpc177x_8x_lcd.c **** * this code.
  31:../src/lib/lpc177x_8x/Drivers/source/lpc177x_8x_lcd.c **** **********************************************************************/
  32:../src/lib/lpc177x_8x/Drivers/source/lpc177x_8x_lcd.c **** #ifdef __BUILD_WITH_EXAMPLE__
  33:../src/lib/lpc177x_8x/Drivers/source/lpc177x_8x_lcd.c **** #include "lpc177x_8x_libcfg.h"
  34:../src/lib/lpc177x_8x/Drivers/source/lpc177x_8x_lcd.c **** #else
  35:../src/lib/lpc177x_8x/Drivers/source/lpc177x_8x_lcd.c **** #include "lpc177x_8x_libcfg_default.h"
  36:../src/lib/lpc177x_8x/Drivers/source/lpc177x_8x_lcd.c **** #endif /* __BUILD_WITH_EXAMPLE__ */
  37:../src/lib/lpc177x_8x/Drivers/source/lpc177x_8x_lcd.c **** #ifdef _LCD
  38:../src/lib/lpc177x_8x/Drivers/source/lpc177x_8x_lcd.c **** 
  39:../src/lib/lpc177x_8x/Drivers/source/lpc177x_8x_lcd.c **** #include "lpc177x_8x_clkpwr.h"
  40:../src/lib/lpc177x_8x/Drivers/source/lpc177x_8x_lcd.c **** #include "lpc177x_8x_pinsel.h"
  41:../src/lib/lpc177x_8x/Drivers/source/lpc177x_8x_lcd.c **** #include "lpc177x_8x_gpio.h"
  42:../src/lib/lpc177x_8x/Drivers/source/lpc177x_8x_lcd.c **** #include "lpc177x_8x_lcd.h"
  43:../src/lib/lpc177x_8x/Drivers/source/lpc177x_8x_lcd.c **** 
  44:../src/lib/lpc177x_8x/Drivers/source/lpc177x_8x_lcd.c **** uint32_t lcd_hsize = 0, lcd_vsize = 0;
  45:../src/lib/lpc177x_8x/Drivers/source/lpc177x_8x_lcd.c **** uint32_t lcd_cursor_base_addr = 0;
  46:../src/lib/lpc177x_8x/Drivers/source/lpc177x_8x_lcd.c **** uint32_t lcd_cursor_size = 64;
  47:../src/lib/lpc177x_8x/Drivers/source/lpc177x_8x_lcd.c **** LCD_Config_Type  lcd_config;
  48:../src/lib/lpc177x_8x/Drivers/source/lpc177x_8x_lcd.c **** static uint8_t bits_per_pixel[] = {  1, 2, 4, 8, 16, 32, 16, 16  };
  49:../src/lib/lpc177x_8x/Drivers/source/lpc177x_8x_lcd.c **** uint32_t rect[1024];
  50:../src/lib/lpc177x_8x/Drivers/source/lpc177x_8x_lcd.c **** 
  51:../src/lib/lpc177x_8x/Drivers/source/lpc177x_8x_lcd.c **** 
  52:../src/lib/lpc177x_8x/Drivers/source/lpc177x_8x_lcd.c **** static void LCD_SetHorizontalTiming(LCD_HConfig_Type* pConfig);
  53:../src/lib/lpc177x_8x/Drivers/source/lpc177x_8x_lcd.c **** static void LCD_SetVertialTiming(LCD_VConfig_Type* pConfig);
  54:../src/lib/lpc177x_8x/Drivers/source/lpc177x_8x_lcd.c **** static void LCD_SetPolarity(LCD_TYPES lcd_type, LCD_POLARITY_Type* pConfig);
  55:../src/lib/lpc177x_8x/Drivers/source/lpc177x_8x_lcd.c **** static void LCD_CtrlSetup(LCD_Config_Type* pConfig);
  56:../src/lib/lpc177x_8x/Drivers/source/lpc177x_8x_lcd.c **** 
  57:../src/lib/lpc177x_8x/Drivers/source/lpc177x_8x_lcd.c **** /** @addtogroup LCD_Private_Functions LCD Private Function
  58:../src/lib/lpc177x_8x/Drivers/source/lpc177x_8x_lcd.c ****  * @ingroup LCD
  59:../src/lib/lpc177x_8x/Drivers/source/lpc177x_8x_lcd.c ****  * @{
  60:../src/lib/lpc177x_8x/Drivers/source/lpc177x_8x_lcd.c ****  */
  61:../src/lib/lpc177x_8x/Drivers/source/lpc177x_8x_lcd.c **** 
  62:../src/lib/lpc177x_8x/Drivers/source/lpc177x_8x_lcd.c **** 
  63:../src/lib/lpc177x_8x/Drivers/source/lpc177x_8x_lcd.c **** /*********************************************************************//**
  64:../src/lib/lpc177x_8x/Drivers/source/lpc177x_8x_lcd.c ****  * @brief       Init LCD. The input clock is CClk
  65:../src/lib/lpc177x_8x/Drivers/source/lpc177x_8x_lcd.c ****  *
  66:../src/lib/lpc177x_8x/Drivers/source/lpc177x_8x_lcd.c ****  * @param[in] pConfig              Configuration Information
  67:../src/lib/lpc177x_8x/Drivers/source/lpc177x_8x_lcd.c ****  *
  68:../src/lib/lpc177x_8x/Drivers/source/lpc177x_8x_lcd.c ****  * @return  LCD_FUNC_OK   Execute successfully
  69:../src/lib/lpc177x_8x/Drivers/source/lpc177x_8x_lcd.c ****  *                  LCD_FUNC_ERR  Error occurred.
  70:../src/lib/lpc177x_8x/Drivers/source/lpc177x_8x_lcd.c ****  *
  71:../src/lib/lpc177x_8x/Drivers/source/lpc177x_8x_lcd.c ****  **********************************************************************/
  72:../src/lib/lpc177x_8x/Drivers/source/lpc177x_8x_lcd.c **** LCD_RET_CODE LCD_Init (LCD_Config_Type* pConfig)
  73:../src/lib/lpc177x_8x/Drivers/source/lpc177x_8x_lcd.c **** {
  67              		.loc 1 73 0
  68              		.cfi_startproc
  69              		@ args = 0, pretend = 0, frame = 16
  70              		@ frame_needed = 1, uses_anonymous_args = 0
  71 0000 B0B5     		push	{r4, r5, r7, lr}
  72              	.LCFI0:
  73              		.cfi_def_cfa_offset 16
  74              		.cfi_offset 4, -16
  75              		.cfi_offset 5, -12
  76              		.cfi_offset 7, -8
  77              		.cfi_offset 14, -4
  78 0002 84B0     		sub	sp, sp, #16
  79              	.LCFI1:
  80              		.cfi_def_cfa_offset 32
  81 0004 00AF     		add	r7, sp, #0
  82              	.LCFI2:
  83              		.cfi_def_cfa_register 7
  84 0006 7860     		str	r0, [r7, #4]
  74:../src/lib/lpc177x_8x/Drivers/source/lpc177x_8x_lcd.c ****     uint8_t clkdiv;
  75:../src/lib/lpc177x_8x/Drivers/source/lpc177x_8x_lcd.c **** 
  76:../src/lib/lpc177x_8x/Drivers/source/lpc177x_8x_lcd.c ****     if(pConfig == NULL)
  85              		.loc 1 76 0
  86 0008 7B68     		ldr	r3, [r7, #4]
  87 000a 002B     		cmp	r3, #0
  88 000c 02D1     		bne	.L2
  77:../src/lib/lpc177x_8x/Drivers/source/lpc177x_8x_lcd.c ****         return LCD_FUNC_ERR;
  89              		.loc 1 77 0
  90 000e 4FF0FF33 		mov	r3, #-1
  91 0012 6BE1     		b	.L3
  92              	.L2:
  78:../src/lib/lpc177x_8x/Drivers/source/lpc177x_8x_lcd.c **** 
  79:../src/lib/lpc177x_8x/Drivers/source/lpc177x_8x_lcd.c ****     if(pConfig->big_endian_byte & !pConfig->big_endian_pixel)
  93              		.loc 1 79 0
  94 0014 7B68     		ldr	r3, [r7, #4]
  95 0016 1B7F     		ldrb	r3, [r3, #28]	@ zero_extendqisi2
  96 0018 1A46     		mov	r2, r3
  97 001a 7B68     		ldr	r3, [r7, #4]
  98 001c 5B7F     		ldrb	r3, [r3, #29]	@ zero_extendqisi2
  99 001e 002B     		cmp	r3, #0
 100 0020 14BF     		ite	ne
 101 0022 0023     		movne	r3, #0
 102 0024 0123     		moveq	r3, #1
 103 0026 DBB2     		uxtb	r3, r3
 104 0028 1340     		ands	r3, r3, r2
 105 002a 002B     		cmp	r3, #0
 106 002c 02D0     		beq	.L4
  80:../src/lib/lpc177x_8x/Drivers/source/lpc177x_8x_lcd.c ****       return LCD_FUNC_ERR;
 107              		.loc 1 80 0
 108 002e 4FF0FF33 		mov	r3, #-1
 109 0032 5BE1     		b	.L3
 110              	.L4:
  81:../src/lib/lpc177x_8x/Drivers/source/lpc177x_8x_lcd.c ****     
  82:../src/lib/lpc177x_8x/Drivers/source/lpc177x_8x_lcd.c ****     lcd_config = *pConfig;
 111              		.loc 1 82 0
 112 0034 B04A     		ldr	r2, .L7
 113 0036 7B68     		ldr	r3, [r7, #4]
 114 0038 1446     		mov	r4, r2
 115 003a 1D46     		mov	r5, r3
 116 003c 0FCD     		ldmia	r5!, {r0, r1, r2, r3}
 117 003e 0FC4     		stmia	r4!, {r0, r1, r2, r3}
 118 0040 0FCD     		ldmia	r5!, {r0, r1, r2, r3}
 119 0042 0FC4     		stmia	r4!, {r0, r1, r2, r3}
 120 0044 95E80F00 		ldmia	r5, {r0, r1, r2, r3}
 121 0048 84E80F00 		stmia	r4, {r0, r1, r2, r3}
  83:../src/lib/lpc177x_8x/Drivers/source/lpc177x_8x_lcd.c ****     
  84:../src/lib/lpc177x_8x/Drivers/source/lpc177x_8x_lcd.c ****     // Assign pins
  85:../src/lib/lpc177x_8x/Drivers/source/lpc177x_8x_lcd.c ****     PINSEL_ConfigPin(0,4,7);
 122              		.loc 1 85 0
 123 004c 4FF00000 		mov	r0, #0
 124 0050 4FF00401 		mov	r1, #4
 125 0054 4FF00702 		mov	r2, #7
 126 0058 FFF7FEFF 		bl	PINSEL_ConfigPin
  86:../src/lib/lpc177x_8x/Drivers/source/lpc177x_8x_lcd.c ****     PINSEL_ConfigPin(0,5,7);
 127              		.loc 1 86 0
 128 005c 4FF00000 		mov	r0, #0
 129 0060 4FF00501 		mov	r1, #5
 130 0064 4FF00702 		mov	r2, #7
 131 0068 FFF7FEFF 		bl	PINSEL_ConfigPin
  87:../src/lib/lpc177x_8x/Drivers/source/lpc177x_8x_lcd.c ****     PINSEL_ConfigPin(0,6,7);
 132              		.loc 1 87 0
 133 006c 4FF00000 		mov	r0, #0
 134 0070 4FF00601 		mov	r1, #6
 135 0074 4FF00702 		mov	r2, #7
 136 0078 FFF7FEFF 		bl	PINSEL_ConfigPin
  88:../src/lib/lpc177x_8x/Drivers/source/lpc177x_8x_lcd.c ****     PINSEL_ConfigPin(0,7,7);
 137              		.loc 1 88 0
 138 007c 4FF00000 		mov	r0, #0
 139 0080 4FF00701 		mov	r1, #7
 140 0084 4FF00702 		mov	r2, #7
 141 0088 FFF7FEFF 		bl	PINSEL_ConfigPin
  89:../src/lib/lpc177x_8x/Drivers/source/lpc177x_8x_lcd.c ****     PINSEL_ConfigPin(0,8,7);
 142              		.loc 1 89 0
 143 008c 4FF00000 		mov	r0, #0
 144 0090 4FF00801 		mov	r1, #8
 145 0094 4FF00702 		mov	r2, #7
 146 0098 FFF7FEFF 		bl	PINSEL_ConfigPin
  90:../src/lib/lpc177x_8x/Drivers/source/lpc177x_8x_lcd.c ****     PINSEL_ConfigPin(0,9,7);
 147              		.loc 1 90 0
 148 009c 4FF00000 		mov	r0, #0
 149 00a0 4FF00901 		mov	r1, #9
 150 00a4 4FF00702 		mov	r2, #7
 151 00a8 FFF7FEFF 		bl	PINSEL_ConfigPin
  91:../src/lib/lpc177x_8x/Drivers/source/lpc177x_8x_lcd.c ****     PINSEL_ConfigPin(1,20,7);
 152              		.loc 1 91 0
 153 00ac 4FF00100 		mov	r0, #1
 154 00b0 4FF01401 		mov	r1, #20
 155 00b4 4FF00702 		mov	r2, #7
 156 00b8 FFF7FEFF 		bl	PINSEL_ConfigPin
  92:../src/lib/lpc177x_8x/Drivers/source/lpc177x_8x_lcd.c ****     PINSEL_ConfigPin(1,21,7);
 157              		.loc 1 92 0
 158 00bc 4FF00100 		mov	r0, #1
 159 00c0 4FF01501 		mov	r1, #21
 160 00c4 4FF00702 		mov	r2, #7
 161 00c8 FFF7FEFF 		bl	PINSEL_ConfigPin
  93:../src/lib/lpc177x_8x/Drivers/source/lpc177x_8x_lcd.c ****     PINSEL_ConfigPin(1,22,7);
 162              		.loc 1 93 0
 163 00cc 4FF00100 		mov	r0, #1
 164 00d0 4FF01601 		mov	r1, #22
 165 00d4 4FF00702 		mov	r2, #7
 166 00d8 FFF7FEFF 		bl	PINSEL_ConfigPin
  94:../src/lib/lpc177x_8x/Drivers/source/lpc177x_8x_lcd.c ****     PINSEL_ConfigPin(1,23,7);
 167              		.loc 1 94 0
 168 00dc 4FF00100 		mov	r0, #1
 169 00e0 4FF01701 		mov	r1, #23
 170 00e4 4FF00702 		mov	r2, #7
 171 00e8 FFF7FEFF 		bl	PINSEL_ConfigPin
  95:../src/lib/lpc177x_8x/Drivers/source/lpc177x_8x_lcd.c ****     PINSEL_ConfigPin(1,24,7);
 172              		.loc 1 95 0
 173 00ec 4FF00100 		mov	r0, #1
 174 00f0 4FF01801 		mov	r1, #24
 175 00f4 4FF00702 		mov	r2, #7
 176 00f8 FFF7FEFF 		bl	PINSEL_ConfigPin
  96:../src/lib/lpc177x_8x/Drivers/source/lpc177x_8x_lcd.c ****     PINSEL_ConfigPin(1,25,7);
 177              		.loc 1 96 0
 178 00fc 4FF00100 		mov	r0, #1
 179 0100 4FF01901 		mov	r1, #25
 180 0104 4FF00702 		mov	r2, #7
 181 0108 FFF7FEFF 		bl	PINSEL_ConfigPin
  97:../src/lib/lpc177x_8x/Drivers/source/lpc177x_8x_lcd.c ****     PINSEL_ConfigPin(1,26,7);
 182              		.loc 1 97 0
 183 010c 4FF00100 		mov	r0, #1
 184 0110 4FF01A01 		mov	r1, #26
 185 0114 4FF00702 		mov	r2, #7
 186 0118 FFF7FEFF 		bl	PINSEL_ConfigPin
  98:../src/lib/lpc177x_8x/Drivers/source/lpc177x_8x_lcd.c ****     PINSEL_ConfigPin(1,27,7);
 187              		.loc 1 98 0
 188 011c 4FF00100 		mov	r0, #1
 189 0120 4FF01B01 		mov	r1, #27
 190 0124 4FF00702 		mov	r2, #7
 191 0128 FFF7FEFF 		bl	PINSEL_ConfigPin
  99:../src/lib/lpc177x_8x/Drivers/source/lpc177x_8x_lcd.c ****     PINSEL_ConfigPin(1,28,7);
 192              		.loc 1 99 0
 193 012c 4FF00100 		mov	r0, #1
 194 0130 4FF01C01 		mov	r1, #28
 195 0134 4FF00702 		mov	r2, #7
 196 0138 FFF7FEFF 		bl	PINSEL_ConfigPin
 100:../src/lib/lpc177x_8x/Drivers/source/lpc177x_8x_lcd.c ****     PINSEL_ConfigPin(1,29,7);
 197              		.loc 1 100 0
 198 013c 4FF00100 		mov	r0, #1
 199 0140 4FF01D01 		mov	r1, #29
 200 0144 4FF00702 		mov	r2, #7
 201 0148 FFF7FEFF 		bl	PINSEL_ConfigPin
 101:../src/lib/lpc177x_8x/Drivers/source/lpc177x_8x_lcd.c ****     PINSEL_ConfigPin(2,0,7);
 202              		.loc 1 101 0
 203 014c 4FF00200 		mov	r0, #2
 204 0150 4FF00001 		mov	r1, #0
 205 0154 4FF00702 		mov	r2, #7
 206 0158 FFF7FEFF 		bl	PINSEL_ConfigPin
 102:../src/lib/lpc177x_8x/Drivers/source/lpc177x_8x_lcd.c ****     PINSEL_ConfigPin(2,1,7);
 207              		.loc 1 102 0
 208 015c 4FF00200 		mov	r0, #2
 209 0160 4FF00101 		mov	r1, #1
 210 0164 4FF00702 		mov	r2, #7
 211 0168 FFF7FEFF 		bl	PINSEL_ConfigPin
 103:../src/lib/lpc177x_8x/Drivers/source/lpc177x_8x_lcd.c ****     PINSEL_ConfigPin(2,2,7);
 212              		.loc 1 103 0
 213 016c 4FF00200 		mov	r0, #2
 214 0170 4FF00201 		mov	r1, #2
 215 0174 4FF00702 		mov	r2, #7
 216 0178 FFF7FEFF 		bl	PINSEL_ConfigPin
 104:../src/lib/lpc177x_8x/Drivers/source/lpc177x_8x_lcd.c ****     PINSEL_ConfigPin(2,3,7);
 217              		.loc 1 104 0
 218 017c 4FF00200 		mov	r0, #2
 219 0180 4FF00301 		mov	r1, #3
 220 0184 4FF00702 		mov	r2, #7
 221 0188 FFF7FEFF 		bl	PINSEL_ConfigPin
 105:../src/lib/lpc177x_8x/Drivers/source/lpc177x_8x_lcd.c ****     PINSEL_ConfigPin(2,4,7);
 222              		.loc 1 105 0
 223 018c 4FF00200 		mov	r0, #2
 224 0190 4FF00401 		mov	r1, #4
 225 0194 4FF00702 		mov	r2, #7
 226 0198 FFF7FEFF 		bl	PINSEL_ConfigPin
 106:../src/lib/lpc177x_8x/Drivers/source/lpc177x_8x_lcd.c ****     PINSEL_ConfigPin(2,5,7);
 227              		.loc 1 106 0
 228 019c 4FF00200 		mov	r0, #2
 229 01a0 4FF00501 		mov	r1, #5
 230 01a4 4FF00702 		mov	r2, #7
 231 01a8 FFF7FEFF 		bl	PINSEL_ConfigPin
 107:../src/lib/lpc177x_8x/Drivers/source/lpc177x_8x_lcd.c ****     PINSEL_ConfigPin(2,6,7);
 232              		.loc 1 107 0
 233 01ac 4FF00200 		mov	r0, #2
 234 01b0 4FF00601 		mov	r1, #6
 235 01b4 4FF00702 		mov	r2, #7
 236 01b8 FFF7FEFF 		bl	PINSEL_ConfigPin
 108:../src/lib/lpc177x_8x/Drivers/source/lpc177x_8x_lcd.c ****     PINSEL_ConfigPin(2,7,7);
 237              		.loc 1 108 0
 238 01bc 4FF00200 		mov	r0, #2
 239 01c0 4FF00701 		mov	r1, #7
 240 01c4 4FF00702 		mov	r2, #7
 241 01c8 FFF7FEFF 		bl	PINSEL_ConfigPin
 109:../src/lib/lpc177x_8x/Drivers/source/lpc177x_8x_lcd.c ****     PINSEL_ConfigPin(2,8,7);
 242              		.loc 1 109 0
 243 01cc 4FF00200 		mov	r0, #2
 244 01d0 4FF00801 		mov	r1, #8
 245 01d4 4FF00702 		mov	r2, #7
 246 01d8 FFF7FEFF 		bl	PINSEL_ConfigPin
 110:../src/lib/lpc177x_8x/Drivers/source/lpc177x_8x_lcd.c ****     PINSEL_ConfigPin(2,9,7);
 247              		.loc 1 110 0
 248 01dc 4FF00200 		mov	r0, #2
 249 01e0 4FF00901 		mov	r1, #9
 250 01e4 4FF00702 		mov	r2, #7
 251 01e8 FFF7FEFF 		bl	PINSEL_ConfigPin
 111:../src/lib/lpc177x_8x/Drivers/source/lpc177x_8x_lcd.c ****     PINSEL_ConfigPin(2,11,7);
 252              		.loc 1 111 0
 253 01ec 4FF00200 		mov	r0, #2
 254 01f0 4FF00B01 		mov	r1, #11
 255 01f4 4FF00702 		mov	r2, #7
 256 01f8 FFF7FEFF 		bl	PINSEL_ConfigPin
 112:../src/lib/lpc177x_8x/Drivers/source/lpc177x_8x_lcd.c ****     PINSEL_ConfigPin(2,12,7);
 257              		.loc 1 112 0
 258 01fc 4FF00200 		mov	r0, #2
 259 0200 4FF00C01 		mov	r1, #12
 260 0204 4FF00702 		mov	r2, #7
 261 0208 FFF7FEFF 		bl	PINSEL_ConfigPin
 113:../src/lib/lpc177x_8x/Drivers/source/lpc177x_8x_lcd.c ****     PINSEL_ConfigPin(2,13,7);
 262              		.loc 1 113 0
 263 020c 4FF00200 		mov	r0, #2
 264 0210 4FF00D01 		mov	r1, #13
 265 0214 4FF00702 		mov	r2, #7
 266 0218 FFF7FEFF 		bl	PINSEL_ConfigPin
 114:../src/lib/lpc177x_8x/Drivers/source/lpc177x_8x_lcd.c ****     PINSEL_ConfigPin(4,28,7);
 267              		.loc 1 114 0
 268 021c 4FF00400 		mov	r0, #4
 269 0220 4FF01C01 		mov	r1, #28
 270 0224 4FF00702 		mov	r2, #7
 271 0228 FFF7FEFF 		bl	PINSEL_ConfigPin
 115:../src/lib/lpc177x_8x/Drivers/source/lpc177x_8x_lcd.c ****     PINSEL_ConfigPin(4,29,7);
 272              		.loc 1 115 0
 273 022c 4FF00400 		mov	r0, #4
 274 0230 4FF01D01 		mov	r1, #29
 275 0234 4FF00702 		mov	r2, #7
 276 0238 FFF7FEFF 		bl	PINSEL_ConfigPin
 116:../src/lib/lpc177x_8x/Drivers/source/lpc177x_8x_lcd.c ****     
 117:../src/lib/lpc177x_8x/Drivers/source/lpc177x_8x_lcd.c ****     //Turn on LCD clock
 118:../src/lib/lpc177x_8x/Drivers/source/lpc177x_8x_lcd.c ****     CLKPWR_ConfigPPWR(CLKPWR_PCONP_PCLCD, ENABLE);
 277              		.loc 1 118 0
 278 023c 4FF00100 		mov	r0, #1
 279 0240 4FF00101 		mov	r1, #1
 280 0244 FFF7FEFF 		bl	CLKPWR_ConfigPPWR
 119:../src/lib/lpc177x_8x/Drivers/source/lpc177x_8x_lcd.c **** 
 120:../src/lib/lpc177x_8x/Drivers/source/lpc177x_8x_lcd.c ****     // Set clock    
 121:../src/lib/lpc177x_8x/Drivers/source/lpc177x_8x_lcd.c ****     LPC_LCD->POL &= ~(0x01 << 5);
 281              		.loc 1 121 0
 282 0248 2C4B     		ldr	r3, .L7+4
 283 024a 2C4A     		ldr	r2, .L7+4
 284 024c 9268     		ldr	r2, [r2, #8]
 285 024e 22F02002 		bic	r2, r2, #32
 286 0252 9A60     		str	r2, [r3, #8]
 122:../src/lib/lpc177x_8x/Drivers/source/lpc177x_8x_lcd.c ****     if( pConfig->panel_clk > 0) {
 287              		.loc 1 122 0
 288 0254 7B68     		ldr	r3, [r7, #4]
 289 0256 5B69     		ldr	r3, [r3, #20]
 290 0258 002B     		cmp	r3, #0
 291 025a 18D0     		beq	.L5
 123:../src/lib/lpc177x_8x/Drivers/source/lpc177x_8x_lcd.c ****         clkdiv = CLKPWR_GetCLK(CLKPWR_CLKTYPE_CPU) / pConfig->panel_clk - 1;
 292              		.loc 1 123 0
 293 025c 4FF00000 		mov	r0, #0
 294 0260 FFF7FEFF 		bl	CLKPWR_GetCLK
 295 0264 0246     		mov	r2, r0
 296 0266 7B68     		ldr	r3, [r7, #4]
 297 0268 5B69     		ldr	r3, [r3, #20]
 298 026a B2FBF3F3 		udiv	r3, r2, r3
 299 026e DBB2     		uxtb	r3, r3
 300 0270 03F1FF33 		add	r3, r3, #-1
 301 0274 FB73     		strb	r3, [r7, #15]
 124:../src/lib/lpc177x_8x/Drivers/source/lpc177x_8x_lcd.c ****         LPC_SC->LCD_CFG = clkdiv & 0x1F;
 302              		.loc 1 124 0
 303 0276 224B     		ldr	r3, .L7+8
 304 0278 FA7B     		ldrb	r2, [r7, #15]	@ zero_extendqisi2
 305 027a 02F01F02 		and	r2, r2, #31
 306 027e C3F8B821 		str	r2, [r3, #440]
 125:../src/lib/lpc177x_8x/Drivers/source/lpc177x_8x_lcd.c ****         LPC_LCD->POL |=(1<<26);
 307              		.loc 1 125 0
 308 0282 1E4B     		ldr	r3, .L7+4
 309 0284 1D4A     		ldr	r2, .L7+4
 310 0286 9268     		ldr	r2, [r2, #8]
 311 0288 42F08062 		orr	r2, r2, #67108864
 312 028c 9A60     		str	r2, [r3, #8]
 313              	.L5:
 126:../src/lib/lpc177x_8x/Drivers/source/lpc177x_8x_lcd.c ****     }
 127:../src/lib/lpc177x_8x/Drivers/source/lpc177x_8x_lcd.c **** 
 128:../src/lib/lpc177x_8x/Drivers/source/lpc177x_8x_lcd.c ****     // init Horizontal Timing
 129:../src/lib/lpc177x_8x/Drivers/source/lpc177x_8x_lcd.c ****     LCD_SetHorizontalTiming(&pConfig->hConfig);
 314              		.loc 1 129 0
 315 028e 7B68     		ldr	r3, [r7, #4]
 316 0290 1846     		mov	r0, r3
 317 0292 00F037F8 		bl	LCD_SetHorizontalTiming
 130:../src/lib/lpc177x_8x/Drivers/source/lpc177x_8x_lcd.c **** 
 131:../src/lib/lpc177x_8x/Drivers/source/lpc177x_8x_lcd.c ****     // Init Vertical Timing
 132:../src/lib/lpc177x_8x/Drivers/source/lpc177x_8x_lcd.c ****     LCD_SetVertialTiming(&pConfig->vConfig);
 318              		.loc 1 132 0
 319 0296 7B68     		ldr	r3, [r7, #4]
 320 0298 03F10603 		add	r3, r3, #6
 321 029c 1846     		mov	r0, r3
 322 029e 00F07DF8 		bl	LCD_SetVertialTiming
 133:../src/lib/lpc177x_8x/Drivers/source/lpc177x_8x_lcd.c **** 
 134:../src/lib/lpc177x_8x/Drivers/source/lpc177x_8x_lcd.c ****     // Set Polarity
 135:../src/lib/lpc177x_8x/Drivers/source/lpc177x_8x_lcd.c ****     LCD_SetPolarity(pConfig->lcd_type, &pConfig->polarity);
 323              		.loc 1 135 0
 324 02a2 7B68     		ldr	r3, [r7, #4]
 325 02a4 5A7E     		ldrb	r2, [r3, #25]	@ zero_extendqisi2
 326 02a6 7B68     		ldr	r3, [r7, #4]
 327 02a8 03F10C03 		add	r3, r3, #12
 328 02ac 1046     		mov	r0, r2
 329 02ae 1946     		mov	r1, r3
 330 02b0 00F0B8F8 		bl	LCD_SetPolarity
 136:../src/lib/lpc177x_8x/Drivers/source/lpc177x_8x_lcd.c **** 
 137:../src/lib/lpc177x_8x/Drivers/source/lpc177x_8x_lcd.c ****     if(NULL != pConfig->lcd_palette)
 331              		.loc 1 137 0
 332 02b4 7B68     		ldr	r3, [r7, #4]
 333 02b6 9B6A     		ldr	r3, [r3, #40]
 334 02b8 002B     		cmp	r3, #0
 335 02ba 04D0     		beq	.L6
 138:../src/lib/lpc177x_8x/Drivers/source/lpc177x_8x_lcd.c ****     {
 139:../src/lib/lpc177x_8x/Drivers/source/lpc177x_8x_lcd.c ****         LCD_SetPalette(pConfig->lcd_palette);
 336              		.loc 1 139 0
 337 02bc 7B68     		ldr	r3, [r7, #4]
 338 02be 9B6A     		ldr	r3, [r3, #40]
 339 02c0 1846     		mov	r0, r3
 340 02c2 FFF7FEFF 		bl	LCD_SetPalette
 341              	.L6:
 140:../src/lib/lpc177x_8x/Drivers/source/lpc177x_8x_lcd.c ****     }
 141:../src/lib/lpc177x_8x/Drivers/source/lpc177x_8x_lcd.c **** 
 142:../src/lib/lpc177x_8x/Drivers/source/lpc177x_8x_lcd.c ****     // Set Base address
 143:../src/lib/lpc177x_8x/Drivers/source/lpc177x_8x_lcd.c ****     LCD_SetBaseAddress(LCD_PANEL_UPPER, pConfig->lcd_panel_upper);
 342              		.loc 1 143 0
 343 02c6 7B68     		ldr	r3, [r7, #4]
 344 02c8 1B6A     		ldr	r3, [r3, #32]
 345 02ca 4FF00000 		mov	r0, #0
 346 02ce 1946     		mov	r1, r3
 347 02d0 FFF7FEFF 		bl	LCD_SetBaseAddress
 144:../src/lib/lpc177x_8x/Drivers/source/lpc177x_8x_lcd.c ****     LCD_SetBaseAddress(LCD_PANEL_LOWER, pConfig->lcd_panel_lower);
 348              		.loc 1 144 0
 349 02d4 7B68     		ldr	r3, [r7, #4]
 350 02d6 5B6A     		ldr	r3, [r3, #36]
 351 02d8 4FF00100 		mov	r0, #1
 352 02dc 1946     		mov	r1, r3
 353 02de FFF7FEFF 		bl	LCD_SetBaseAddress
 145:../src/lib/lpc177x_8x/Drivers/source/lpc177x_8x_lcd.c **** 
 146:../src/lib/lpc177x_8x/Drivers/source/lpc177x_8x_lcd.c ****         // Setup
 147:../src/lib/lpc177x_8x/Drivers/source/lpc177x_8x_lcd.c ****     LCD_CtrlSetup(pConfig);
 354              		.loc 1 147 0
 355 02e2 7868     		ldr	r0, [r7, #4]
 356 02e4 00F030F9 		bl	LCD_CtrlSetup
 148:../src/lib/lpc177x_8x/Drivers/source/lpc177x_8x_lcd.c ****     
 149:../src/lib/lpc177x_8x/Drivers/source/lpc177x_8x_lcd.c ****     return LCD_FUNC_OK;
 357              		.loc 1 149 0
 358 02e8 4FF00003 		mov	r3, #0
 359              	.L3:
 150:../src/lib/lpc177x_8x/Drivers/source/lpc177x_8x_lcd.c **** 
 151:../src/lib/lpc177x_8x/Drivers/source/lpc177x_8x_lcd.c ****     
 152:../src/lib/lpc177x_8x/Drivers/source/lpc177x_8x_lcd.c **** }
 360              		.loc 1 152 0
 361 02ec 1846     		mov	r0, r3
 362 02ee 07F11007 		add	r7, r7, #16
 363 02f2 BD46     		mov	sp, r7
 364 02f4 B0BD     		pop	{r4, r5, r7, pc}
 365              	.L8:
 366 02f6 00BF     		.align	2
 367              	.L7:
 368 02f8 00000000 		.word	lcd_config
 369 02fc 00800820 		.word	537427968
 370 0300 00C00F40 		.word	1074774016
 371              		.cfi_endproc
 372              	.LFE55:
 374              		.align	2
 375              		.thumb
 376              		.thumb_func
 378              	LCD_SetHorizontalTiming:
 379              	.LFB56:
 153:../src/lib/lpc177x_8x/Drivers/source/lpc177x_8x_lcd.c **** /*********************************************************************//**
 154:../src/lib/lpc177x_8x/Drivers/source/lpc177x_8x_lcd.c ****  * @brief       Horizontal Timing Setting
 155:../src/lib/lpc177x_8x/Drivers/source/lpc177x_8x_lcd.c ****  *
 156:../src/lib/lpc177x_8x/Drivers/source/lpc177x_8x_lcd.c ****  * @param[in] pConfig              Configuration Information
 157:../src/lib/lpc177x_8x/Drivers/source/lpc177x_8x_lcd.c ****  *
 158:../src/lib/lpc177x_8x/Drivers/source/lpc177x_8x_lcd.c ****  * @return  None.
 159:../src/lib/lpc177x_8x/Drivers/source/lpc177x_8x_lcd.c ****  *
 160:../src/lib/lpc177x_8x/Drivers/source/lpc177x_8x_lcd.c ****  **********************************************************************/
 161:../src/lib/lpc177x_8x/Drivers/source/lpc177x_8x_lcd.c **** void LCD_SetHorizontalTiming(LCD_HConfig_Type* pConfig)
 162:../src/lib/lpc177x_8x/Drivers/source/lpc177x_8x_lcd.c **** {
 380              		.loc 1 162 0
 381              		.cfi_startproc
 382              		@ args = 0, pretend = 0, frame = 8
 383              		@ frame_needed = 1, uses_anonymous_args = 0
 384              		@ link register save eliminated.
 385 0304 80B4     		push	{r7}
 386              	.LCFI3:
 387              		.cfi_def_cfa_offset 4
 388              		.cfi_offset 7, -4
 389 0306 83B0     		sub	sp, sp, #12
 390              	.LCFI4:
 391              		.cfi_def_cfa_offset 16
 392 0308 00AF     		add	r7, sp, #0
 393              	.LCFI5:
 394              		.cfi_def_cfa_register 7
 395 030a 7860     		str	r0, [r7, #4]
 163:../src/lib/lpc177x_8x/Drivers/source/lpc177x_8x_lcd.c ****     LPC_LCD->TIMH = 0; //reset TIMH before set value
 396              		.loc 1 163 0
 397 030c 214B     		ldr	r3, .L10
 398 030e 4FF00002 		mov	r2, #0
 399 0312 1A60     		str	r2, [r3, #0]
 164:../src/lib/lpc177x_8x/Drivers/source/lpc177x_8x_lcd.c ****     LPC_LCD->TIMH |= ((pConfig->hbp - 1)& 0xFF)<<24;
 400              		.loc 1 164 0
 401 0314 1F4B     		ldr	r3, .L10
 402 0316 1F4A     		ldr	r2, .L10
 403 0318 1168     		ldr	r1, [r2, #0]
 404 031a 7A68     		ldr	r2, [r7, #4]
 405 031c 5278     		ldrb	r2, [r2, #1]	@ zero_extendqisi2
 406 031e 02F1FF32 		add	r2, r2, #-1
 407 0322 4FEA0262 		lsl	r2, r2, #24
 408 0326 0A43     		orrs	r2, r2, r1
 409 0328 1A60     		str	r2, [r3, #0]
 165:../src/lib/lpc177x_8x/Drivers/source/lpc177x_8x_lcd.c ****     LPC_LCD->TIMH |= ((pConfig->hfp - 1)& 0xFF)<<16;
 410              		.loc 1 165 0
 411 032a 1A4B     		ldr	r3, .L10
 412 032c 194A     		ldr	r2, .L10
 413 032e 1168     		ldr	r1, [r2, #0]
 414 0330 7A68     		ldr	r2, [r7, #4]
 415 0332 1278     		ldrb	r2, [r2, #0]	@ zero_extendqisi2
 416 0334 02F1FF32 		add	r2, r2, #-1
 417 0338 D2B2     		uxtb	r2, r2
 418 033a 4FEA0242 		lsl	r2, r2, #16
 419 033e 0A43     		orrs	r2, r2, r1
 420 0340 1A60     		str	r2, [r3, #0]
 166:../src/lib/lpc177x_8x/Drivers/source/lpc177x_8x_lcd.c ****     LPC_LCD->TIMH |= ((pConfig->hsw - 1)& 0xFF)<<8;
 421              		.loc 1 166 0
 422 0342 144A     		ldr	r2, .L10
 423 0344 134B     		ldr	r3, .L10
 424 0346 1968     		ldr	r1, [r3, #0]
 425 0348 7B68     		ldr	r3, [r7, #4]
 426 034a 9B78     		ldrb	r3, [r3, #2]	@ zero_extendqisi2
 427 034c 03F1FF33 		add	r3, r3, #-1
 428 0350 4FEA0323 		lsl	r3, r3, #8
 429 0354 4FEA0343 		lsl	r3, r3, #16
 430 0358 4FEA1343 		lsr	r3, r3, #16
 431 035c 0B43     		orrs	r3, r3, r1
 432 035e 1360     		str	r3, [r2, #0]
 167:../src/lib/lpc177x_8x/Drivers/source/lpc177x_8x_lcd.c ****     LPC_LCD->TIMH |= ((pConfig->ppl/16 - 1)& 0x3F)<<2;
 433              		.loc 1 167 0
 434 0360 0C4B     		ldr	r3, .L10
 435 0362 0C4A     		ldr	r2, .L10
 436 0364 1168     		ldr	r1, [r2, #0]
 437 0366 7A68     		ldr	r2, [r7, #4]
 438 0368 9288     		ldrh	r2, [r2, #4]
 439 036a 4FEA1212 		lsr	r2, r2, #4
 440 036e 92B2     		uxth	r2, r2
 441 0370 02F1FF32 		add	r2, r2, #-1
 442 0374 4FEA8202 		lsl	r2, r2, #2
 443 0378 D2B2     		uxtb	r2, r2
 444 037a 0A43     		orrs	r2, r2, r1
 445 037c 1A60     		str	r2, [r3, #0]
 168:../src/lib/lpc177x_8x/Drivers/source/lpc177x_8x_lcd.c ****     lcd_hsize =  pConfig->ppl;
 446              		.loc 1 168 0
 447 037e 7B68     		ldr	r3, [r7, #4]
 448 0380 9B88     		ldrh	r3, [r3, #4]
 449 0382 1A46     		mov	r2, r3
 450 0384 044B     		ldr	r3, .L10+4
 451 0386 1A60     		str	r2, [r3, #0]
 169:../src/lib/lpc177x_8x/Drivers/source/lpc177x_8x_lcd.c **** }
 452              		.loc 1 169 0
 453 0388 07F10C07 		add	r7, r7, #12
 454 038c BD46     		mov	sp, r7
 455 038e 80BC     		pop	{r7}
 456 0390 7047     		bx	lr
 457              	.L11:
 458 0392 00BF     		.align	2
 459              	.L10:
 460 0394 00800820 		.word	537427968
 461 0398 00000000 		.word	lcd_hsize
 462              		.cfi_endproc
 463              	.LFE56:
 465              		.align	2
 466              		.thumb
 467              		.thumb_func
 469              	LCD_SetVertialTiming:
 470              	.LFB57:
 170:../src/lib/lpc177x_8x/Drivers/source/lpc177x_8x_lcd.c **** 
 171:../src/lib/lpc177x_8x/Drivers/source/lpc177x_8x_lcd.c **** /*********************************************************************//**
 172:../src/lib/lpc177x_8x/Drivers/source/lpc177x_8x_lcd.c ****  * @brief       Vertical Timing Setting
 173:../src/lib/lpc177x_8x/Drivers/source/lpc177x_8x_lcd.c ****  *
 174:../src/lib/lpc177x_8x/Drivers/source/lpc177x_8x_lcd.c ****  * @param[in] pConfig              Configuration Information
 175:../src/lib/lpc177x_8x/Drivers/source/lpc177x_8x_lcd.c ****  *
 176:../src/lib/lpc177x_8x/Drivers/source/lpc177x_8x_lcd.c ****  * @return  None.
 177:../src/lib/lpc177x_8x/Drivers/source/lpc177x_8x_lcd.c ****  *
 178:../src/lib/lpc177x_8x/Drivers/source/lpc177x_8x_lcd.c ****  **********************************************************************/
 179:../src/lib/lpc177x_8x/Drivers/source/lpc177x_8x_lcd.c **** void LCD_SetVertialTiming(LCD_VConfig_Type* pConfig)
 180:../src/lib/lpc177x_8x/Drivers/source/lpc177x_8x_lcd.c **** {
 471              		.loc 1 180 0
 472              		.cfi_startproc
 473              		@ args = 0, pretend = 0, frame = 8
 474              		@ frame_needed = 1, uses_anonymous_args = 0
 475              		@ link register save eliminated.
 476 039c 80B4     		push	{r7}
 477              	.LCFI6:
 478              		.cfi_def_cfa_offset 4
 479              		.cfi_offset 7, -4
 480 039e 83B0     		sub	sp, sp, #12
 481              	.LCFI7:
 482              		.cfi_def_cfa_offset 16
 483 03a0 00AF     		add	r7, sp, #0
 484              	.LCFI8:
 485              		.cfi_def_cfa_register 7
 486 03a2 7860     		str	r0, [r7, #4]
 181:../src/lib/lpc177x_8x/Drivers/source/lpc177x_8x_lcd.c ****     LPC_LCD->TIMV = 0;  //reset TIMV value before setting
 487              		.loc 1 181 0
 488 03a4 1D4B     		ldr	r3, .L13
 489 03a6 4FF00002 		mov	r2, #0
 490 03aa 5A60     		str	r2, [r3, #4]
 182:../src/lib/lpc177x_8x/Drivers/source/lpc177x_8x_lcd.c ****     LPC_LCD->TIMV |= ((pConfig->vbp)& 0xFF)<<24;
 491              		.loc 1 182 0
 492 03ac 1B4B     		ldr	r3, .L13
 493 03ae 1B4A     		ldr	r2, .L13
 494 03b0 5168     		ldr	r1, [r2, #4]
 495 03b2 7A68     		ldr	r2, [r7, #4]
 496 03b4 5278     		ldrb	r2, [r2, #1]	@ zero_extendqisi2
 497 03b6 4FEA0262 		lsl	r2, r2, #24
 498 03ba 0A43     		orrs	r2, r2, r1
 499 03bc 5A60     		str	r2, [r3, #4]
 183:../src/lib/lpc177x_8x/Drivers/source/lpc177x_8x_lcd.c ****     LPC_LCD->TIMV |= ((pConfig->vfp)& 0xFF)<<16;
 500              		.loc 1 183 0
 501 03be 174B     		ldr	r3, .L13
 502 03c0 164A     		ldr	r2, .L13
 503 03c2 5168     		ldr	r1, [r2, #4]
 504 03c4 7A68     		ldr	r2, [r7, #4]
 505 03c6 1278     		ldrb	r2, [r2, #0]	@ zero_extendqisi2
 506 03c8 4FEA0242 		lsl	r2, r2, #16
 507 03cc 0A43     		orrs	r2, r2, r1
 508 03ce 5A60     		str	r2, [r3, #4]
 184:../src/lib/lpc177x_8x/Drivers/source/lpc177x_8x_lcd.c ****     LPC_LCD->TIMV |= ((pConfig->vsw - 1)& 0x3F)<<10;
 509              		.loc 1 184 0
 510 03d0 124A     		ldr	r2, .L13
 511 03d2 124B     		ldr	r3, .L13
 512 03d4 5968     		ldr	r1, [r3, #4]
 513 03d6 7B68     		ldr	r3, [r7, #4]
 514 03d8 9B78     		ldrb	r3, [r3, #2]	@ zero_extendqisi2
 515 03da 03F1FF33 		add	r3, r3, #-1
 516 03de 4FEA8323 		lsl	r3, r3, #10
 517 03e2 4FEA0343 		lsl	r3, r3, #16
 518 03e6 4FEA1343 		lsr	r3, r3, #16
 519 03ea 0B43     		orrs	r3, r3, r1
 520 03ec 5360     		str	r3, [r2, #4]
 185:../src/lib/lpc177x_8x/Drivers/source/lpc177x_8x_lcd.c ****     LPC_LCD->TIMV |= ((pConfig->lpp - 1)& 0x03FF)<<0;
 521              		.loc 1 185 0
 522 03ee 0B4A     		ldr	r2, .L13
 523 03f0 0A4B     		ldr	r3, .L13
 524 03f2 5968     		ldr	r1, [r3, #4]
 525 03f4 7B68     		ldr	r3, [r7, #4]
 526 03f6 9B88     		ldrh	r3, [r3, #4]
 527 03f8 03F1FF33 		add	r3, r3, #-1
 528 03fc 4FEA8353 		lsl	r3, r3, #22
 529 0400 4FEA9353 		lsr	r3, r3, #22
 530 0404 0B43     		orrs	r3, r3, r1
 531 0406 5360     		str	r3, [r2, #4]
 186:../src/lib/lpc177x_8x/Drivers/source/lpc177x_8x_lcd.c ****     lcd_vsize =   pConfig->lpp;
 532              		.loc 1 186 0
 533 0408 7B68     		ldr	r3, [r7, #4]
 534 040a 9B88     		ldrh	r3, [r3, #4]
 535 040c 1A46     		mov	r2, r3
 536 040e 044B     		ldr	r3, .L13+4
 537 0410 1A60     		str	r2, [r3, #0]
 187:../src/lib/lpc177x_8x/Drivers/source/lpc177x_8x_lcd.c **** }
 538              		.loc 1 187 0
 539 0412 07F10C07 		add	r7, r7, #12
 540 0416 BD46     		mov	sp, r7
 541 0418 80BC     		pop	{r7}
 542 041a 7047     		bx	lr
 543              	.L14:
 544              		.align	2
 545              	.L13:
 546 041c 00800820 		.word	537427968
 547 0420 00000000 		.word	lcd_vsize
 548              		.cfi_endproc
 549              	.LFE57:
 551              		.align	2
 552              		.thumb
 553              		.thumb_func
 555              	LCD_SetPolarity:
 556              	.LFB58:
 188:../src/lib/lpc177x_8x/Drivers/source/lpc177x_8x_lcd.c **** 
 189:../src/lib/lpc177x_8x/Drivers/source/lpc177x_8x_lcd.c **** /*********************************************************************//**
 190:../src/lib/lpc177x_8x/Drivers/source/lpc177x_8x_lcd.c ****  * @brief       Polarity Setting
 191:../src/lib/lpc177x_8x/Drivers/source/lpc177x_8x_lcd.c ****  *
 192:../src/lib/lpc177x_8x/Drivers/source/lpc177x_8x_lcd.c ****  * @param[in] pConfig              Configuration Information
 193:../src/lib/lpc177x_8x/Drivers/source/lpc177x_8x_lcd.c ****  * @param[in] lcd_type            It can be:
 194:../src/lib/lpc177x_8x/Drivers/source/lpc177x_8x_lcd.c ****  *                                                - LCD_STN_MONOCHROME
 195:../src/lib/lpc177x_8x/Drivers/source/lpc177x_8x_lcd.c ****  *                                                - LCD_STN_COLOR
 196:../src/lib/lpc177x_8x/Drivers/source/lpc177x_8x_lcd.c ****  *                                                - LCD_TFT
 197:../src/lib/lpc177x_8x/Drivers/source/lpc177x_8x_lcd.c ****  *
 198:../src/lib/lpc177x_8x/Drivers/source/lpc177x_8x_lcd.c ****  * @return  None.
 199:../src/lib/lpc177x_8x/Drivers/source/lpc177x_8x_lcd.c ****  *
 200:../src/lib/lpc177x_8x/Drivers/source/lpc177x_8x_lcd.c ****  **********************************************************************/
 201:../src/lib/lpc177x_8x/Drivers/source/lpc177x_8x_lcd.c **** void LCD_SetPolarity(LCD_TYPES lcd_type, LCD_POLARITY_Type* pConfig)
 202:../src/lib/lpc177x_8x/Drivers/source/lpc177x_8x_lcd.c **** {
 557              		.loc 1 202 0
 558              		.cfi_startproc
 559              		@ args = 0, pretend = 0, frame = 8
 560              		@ frame_needed = 1, uses_anonymous_args = 0
 561              		@ link register save eliminated.
 562 0424 80B4     		push	{r7}
 563              	.LCFI9:
 564              		.cfi_def_cfa_offset 4
 565              		.cfi_offset 7, -4
 566 0426 83B0     		sub	sp, sp, #12
 567              	.LCFI10:
 568              		.cfi_def_cfa_offset 16
 569 0428 00AF     		add	r7, sp, #0
 570              	.LCFI11:
 571              		.cfi_def_cfa_register 7
 572 042a 0346     		mov	r3, r0
 573 042c 3960     		str	r1, [r7, #0]
 574 042e FB71     		strb	r3, [r7, #7]
 203:../src/lib/lpc177x_8x/Drivers/source/lpc177x_8x_lcd.c ****     // LCDFP pin is active LOW and inactive HIGH
 204:../src/lib/lpc177x_8x/Drivers/source/lpc177x_8x_lcd.c ****     if(pConfig->invert_vsync)
 575              		.loc 1 204 0
 576 0430 3B68     		ldr	r3, [r7, #0]
 577 0432 9B79     		ldrb	r3, [r3, #6]	@ zero_extendqisi2
 578 0434 002B     		cmp	r3, #0
 579 0436 06D0     		beq	.L16
 205:../src/lib/lpc177x_8x/Drivers/source/lpc177x_8x_lcd.c ****         LPC_LCD->POL |= (1<<11);
 580              		.loc 1 205 0
 581 0438 344B     		ldr	r3, .L26
 582 043a 344A     		ldr	r2, .L26
 583 043c 9268     		ldr	r2, [r2, #8]
 584 043e 42F40062 		orr	r2, r2, #2048
 585 0442 9A60     		str	r2, [r3, #8]
 586 0444 05E0     		b	.L17
 587              	.L16:
 206:../src/lib/lpc177x_8x/Drivers/source/lpc177x_8x_lcd.c ****     else
 207:../src/lib/lpc177x_8x/Drivers/source/lpc177x_8x_lcd.c ****         LPC_LCD->POL &= ~(1<<11);        
 588              		.loc 1 207 0
 589 0446 314B     		ldr	r3, .L26
 590 0448 304A     		ldr	r2, .L26
 591 044a 9268     		ldr	r2, [r2, #8]
 592 044c 22F40062 		bic	r2, r2, #2048
 593 0450 9A60     		str	r2, [r3, #8]
 594              	.L17:
 208:../src/lib/lpc177x_8x/Drivers/source/lpc177x_8x_lcd.c ****     // LCDLP pin is active LOW and inactive HIGH
 209:../src/lib/lpc177x_8x/Drivers/source/lpc177x_8x_lcd.c ****     if(pConfig->invert_hsync)
 595              		.loc 1 209 0
 596 0452 3B68     		ldr	r3, [r7, #0]
 597 0454 5B79     		ldrb	r3, [r3, #5]	@ zero_extendqisi2
 598 0456 002B     		cmp	r3, #0
 599 0458 06D0     		beq	.L18
 210:../src/lib/lpc177x_8x/Drivers/source/lpc177x_8x_lcd.c ****         LPC_LCD->POL |= (1<<12);
 600              		.loc 1 210 0
 601 045a 2C4B     		ldr	r3, .L26
 602 045c 2B4A     		ldr	r2, .L26
 603 045e 9268     		ldr	r2, [r2, #8]
 604 0460 42F48052 		orr	r2, r2, #4096
 605 0464 9A60     		str	r2, [r3, #8]
 606 0466 05E0     		b	.L19
 607              	.L18:
 211:../src/lib/lpc177x_8x/Drivers/source/lpc177x_8x_lcd.c ****     else
 212:../src/lib/lpc177x_8x/Drivers/source/lpc177x_8x_lcd.c ****         LPC_LCD->POL &= ~(1<<12);
 608              		.loc 1 212 0
 609 0468 284B     		ldr	r3, .L26
 610 046a 284A     		ldr	r2, .L26
 611 046c 9268     		ldr	r2, [r2, #8]
 612 046e 22F48052 		bic	r2, r2, #4096
 613 0472 9A60     		str	r2, [r3, #8]
 614              	.L19:
 213:../src/lib/lpc177x_8x/Drivers/source/lpc177x_8x_lcd.c ****     // data is driven out into the LCD on the falling edge
 214:../src/lib/lpc177x_8x/Drivers/source/lpc177x_8x_lcd.c ****     if(pConfig->invert_panel_clock)
 615              		.loc 1 214 0
 616 0474 3B68     		ldr	r3, [r7, #0]
 617 0476 1B79     		ldrb	r3, [r3, #4]	@ zero_extendqisi2
 618 0478 002B     		cmp	r3, #0
 619 047a 06D0     		beq	.L20
 215:../src/lib/lpc177x_8x/Drivers/source/lpc177x_8x_lcd.c ****         LPC_LCD->POL |= (1<<13);
 620              		.loc 1 215 0
 621 047c 234B     		ldr	r3, .L26
 622 047e 234A     		ldr	r2, .L26
 623 0480 9268     		ldr	r2, [r2, #8]
 624 0482 42F40052 		orr	r2, r2, #8192
 625 0486 9A60     		str	r2, [r3, #8]
 626 0488 05E0     		b	.L21
 627              	.L20:
 216:../src/lib/lpc177x_8x/Drivers/source/lpc177x_8x_lcd.c ****     else
 217:../src/lib/lpc177x_8x/Drivers/source/lpc177x_8x_lcd.c ****         LPC_LCD->POL &= ~(1<<13);
 628              		.loc 1 217 0
 629 048a 204B     		ldr	r3, .L26
 630 048c 1F4A     		ldr	r2, .L26
 631 048e 9268     		ldr	r2, [r2, #8]
 632 0490 22F40052 		bic	r2, r2, #8192
 633 0494 9A60     		str	r2, [r3, #8]
 634              	.L21:
 218:../src/lib/lpc177x_8x/Drivers/source/lpc177x_8x_lcd.c ****     
 219:../src/lib/lpc177x_8x/Drivers/source/lpc177x_8x_lcd.c ****     // active high
 220:../src/lib/lpc177x_8x/Drivers/source/lpc177x_8x_lcd.c ****     if(pConfig->active_high) {
 635              		.loc 1 220 0
 636 0496 3B68     		ldr	r3, [r7, #0]
 637 0498 9B78     		ldrb	r3, [r3, #2]	@ zero_extendqisi2
 638 049a 002B     		cmp	r3, #0
 639 049c 06D0     		beq	.L22
 221:../src/lib/lpc177x_8x/Drivers/source/lpc177x_8x_lcd.c ****       LPC_LCD->POL &= ~(1<<14);
 640              		.loc 1 221 0
 641 049e 1B4B     		ldr	r3, .L26
 642 04a0 1A4A     		ldr	r2, .L26
 643 04a2 9268     		ldr	r2, [r2, #8]
 644 04a4 22F48042 		bic	r2, r2, #16384
 645 04a8 9A60     		str	r2, [r3, #8]
 646 04aa 05E0     		b	.L23
 647              	.L22:
 222:../src/lib/lpc177x_8x/Drivers/source/lpc177x_8x_lcd.c ****     }
 223:../src/lib/lpc177x_8x/Drivers/source/lpc177x_8x_lcd.c ****     else
 224:../src/lib/lpc177x_8x/Drivers/source/lpc177x_8x_lcd.c ****     {
 225:../src/lib/lpc177x_8x/Drivers/source/lpc177x_8x_lcd.c ****       LPC_LCD->POL |= (1<<14);
 648              		.loc 1 225 0
 649 04ac 174B     		ldr	r3, .L26
 650 04ae 174A     		ldr	r2, .L26
 651 04b0 9268     		ldr	r2, [r2, #8]
 652 04b2 42F48042 		orr	r2, r2, #16384
 653 04b6 9A60     		str	r2, [r3, #8]
 654              	.L23:
 226:../src/lib/lpc177x_8x/Drivers/source/lpc177x_8x_lcd.c ****     }
 227:../src/lib/lpc177x_8x/Drivers/source/lpc177x_8x_lcd.c **** 
 228:../src/lib/lpc177x_8x/Drivers/source/lpc177x_8x_lcd.c ****     LPC_LCD->POL &= ~(0x3FF <<16);
 655              		.loc 1 228 0
 656 04b8 144A     		ldr	r2, .L26
 657 04ba 144B     		ldr	r3, .L26
 658 04bc 9B68     		ldr	r3, [r3, #8]
 659 04be 23F07F73 		bic	r3, r3, #66846720
 660 04c2 23F44033 		bic	r3, r3, #196608
 661 04c6 9360     		str	r3, [r2, #8]
 229:../src/lib/lpc177x_8x/Drivers/source/lpc177x_8x_lcd.c ****     LPC_LCD->POL |= (pConfig->cpl - 1)<<16;
 662              		.loc 1 229 0
 663 04c8 104B     		ldr	r3, .L26
 664 04ca 104A     		ldr	r2, .L26
 665 04cc 9168     		ldr	r1, [r2, #8]
 666 04ce 3A68     		ldr	r2, [r7, #0]
 667 04d0 1288     		ldrh	r2, [r2, #0]
 668 04d2 02F1FF32 		add	r2, r2, #-1
 669 04d6 4FEA0242 		lsl	r2, r2, #16
 670 04da 0A43     		orrs	r2, r2, r1
 671 04dc 9A60     		str	r2, [r3, #8]
 230:../src/lib/lpc177x_8x/Drivers/source/lpc177x_8x_lcd.c **** 
 231:../src/lib/lpc177x_8x/Drivers/source/lpc177x_8x_lcd.c ****     if(lcd_type == LCD_STN_COLOR || lcd_type == LCD_STN_MONOCHROME)
 672              		.loc 1 231 0
 673 04de FB79     		ldrb	r3, [r7, #7]	@ zero_extendqisi2
 674 04e0 012B     		cmp	r3, #1
 675 04e2 02D0     		beq	.L24
 676              		.loc 1 231 0 is_stmt 0 discriminator 1
 677 04e4 FB79     		ldrb	r3, [r7, #7]	@ zero_extendqisi2
 678 04e6 002B     		cmp	r3, #0
 679 04e8 0AD1     		bne	.L15
 680              	.L24:
 232:../src/lib/lpc177x_8x/Drivers/source/lpc177x_8x_lcd.c ****     LPC_LCD->POL |= (pConfig->acb & 0x1F) << 6;
 681              		.loc 1 232 0 is_stmt 1
 682 04ea 084B     		ldr	r3, .L26
 683 04ec 074A     		ldr	r2, .L26
 684 04ee 9168     		ldr	r1, [r2, #8]
 685 04f0 3A68     		ldr	r2, [r7, #0]
 686 04f2 D278     		ldrb	r2, [r2, #3]	@ zero_extendqisi2
 687 04f4 02F01F02 		and	r2, r2, #31
 688 04f8 4FEA8212 		lsl	r2, r2, #6
 689 04fc 0A43     		orrs	r2, r2, r1
 690 04fe 9A60     		str	r2, [r3, #8]
 691              	.L15:
 233:../src/lib/lpc177x_8x/Drivers/source/lpc177x_8x_lcd.c ****     }
 692              		.loc 1 233 0
 693 0500 07F10C07 		add	r7, r7, #12
 694 0504 BD46     		mov	sp, r7
 695 0506 80BC     		pop	{r7}
 696 0508 7047     		bx	lr
 697              	.L27:
 698 050a 00BF     		.align	2
 699              	.L26:
 700 050c 00800820 		.word	537427968
 701              		.cfi_endproc
 702              	.LFE58:
 704              		.align	2
 705              		.global	LCD_SetBaseAddress
 706              		.thumb
 707              		.thumb_func
 709              	LCD_SetBaseAddress:
 710              	.LFB59:
 234:../src/lib/lpc177x_8x/Drivers/source/lpc177x_8x_lcd.c **** 
 235:../src/lib/lpc177x_8x/Drivers/source/lpc177x_8x_lcd.c **** /*********************************************************************//**
 236:../src/lib/lpc177x_8x/Drivers/source/lpc177x_8x_lcd.c ****  * @brief       Set base address of frame buffer
 237:../src/lib/lpc177x_8x/Drivers/source/lpc177x_8x_lcd.c ****  *
 238:../src/lib/lpc177x_8x/Drivers/source/lpc177x_8x_lcd.c ****  * @param[in] panel           identify which panel is.
 239:../src/lib/lpc177x_8x/Drivers/source/lpc177x_8x_lcd.c ****  * @param[in] pAddress          base address of the inputted panel.
 240:../src/lib/lpc177x_8x/Drivers/source/lpc177x_8x_lcd.c ****  *
 241:../src/lib/lpc177x_8x/Drivers/source/lpc177x_8x_lcd.c ****  * @return  None.
 242:../src/lib/lpc177x_8x/Drivers/source/lpc177x_8x_lcd.c ****  *
 243:../src/lib/lpc177x_8x/Drivers/source/lpc177x_8x_lcd.c ****  **********************************************************************/
 244:../src/lib/lpc177x_8x/Drivers/source/lpc177x_8x_lcd.c **** void LCD_SetBaseAddress(LCD_PANEL panel, uint32_t pAddress)
 245:../src/lib/lpc177x_8x/Drivers/source/lpc177x_8x_lcd.c **** {
 711              		.loc 1 245 0
 712              		.cfi_startproc
 713              		@ args = 0, pretend = 0, frame = 8
 714              		@ frame_needed = 1, uses_anonymous_args = 0
 715              		@ link register save eliminated.
 716 0510 80B4     		push	{r7}
 717              	.LCFI12:
 718              		.cfi_def_cfa_offset 4
 719              		.cfi_offset 7, -4
 720 0512 83B0     		sub	sp, sp, #12
 721              	.LCFI13:
 722              		.cfi_def_cfa_offset 16
 723 0514 00AF     		add	r7, sp, #0
 724              	.LCFI14:
 725              		.cfi_def_cfa_register 7
 726 0516 0346     		mov	r3, r0
 727 0518 3960     		str	r1, [r7, #0]
 728 051a FB71     		strb	r3, [r7, #7]
 246:../src/lib/lpc177x_8x/Drivers/source/lpc177x_8x_lcd.c ****     // Frame Base Address doubleword aligned
 247:../src/lib/lpc177x_8x/Drivers/source/lpc177x_8x_lcd.c ****     if(panel == LCD_PANEL_UPPER)
 729              		.loc 1 247 0
 730 051c FB79     		ldrb	r3, [r7, #7]	@ zero_extendqisi2
 731 051e 002B     		cmp	r3, #0
 732 0520 05D1     		bne	.L29
 248:../src/lib/lpc177x_8x/Drivers/source/lpc177x_8x_lcd.c ****         LPC_LCD->UPBASE = pAddress & ~7UL ;
 733              		.loc 1 248 0
 734 0522 084B     		ldr	r3, .L31
 735 0524 3A68     		ldr	r2, [r7, #0]
 736 0526 22F00702 		bic	r2, r2, #7
 737 052a 1A61     		str	r2, [r3, #16]
 738 052c 04E0     		b	.L28
 739              	.L29:
 249:../src/lib/lpc177x_8x/Drivers/source/lpc177x_8x_lcd.c ****     else
 250:../src/lib/lpc177x_8x/Drivers/source/lpc177x_8x_lcd.c ****         LPC_LCD->LPBASE = pAddress & ~7UL ;
 740              		.loc 1 250 0
 741 052e 054B     		ldr	r3, .L31
 742 0530 3A68     		ldr	r2, [r7, #0]
 743 0532 22F00702 		bic	r2, r2, #7
 744 0536 5A61     		str	r2, [r3, #20]
 745              	.L28:
 251:../src/lib/lpc177x_8x/Drivers/source/lpc177x_8x_lcd.c **** }
 746              		.loc 1 251 0
 747 0538 07F10C07 		add	r7, r7, #12
 748 053c BD46     		mov	sp, r7
 749 053e 80BC     		pop	{r7}
 750 0540 7047     		bx	lr
 751              	.L32:
 752 0542 00BF     		.align	2
 753              	.L31:
 754 0544 00800820 		.word	537427968
 755              		.cfi_endproc
 756              	.LFE59:
 758              		.align	2
 759              		.thumb
 760              		.thumb_func
 762              	LCD_CtrlSetup:
 763              	.LFB60:
 252:../src/lib/lpc177x_8x/Drivers/source/lpc177x_8x_lcd.c **** 
 253:../src/lib/lpc177x_8x/Drivers/source/lpc177x_8x_lcd.c **** /*********************************************************************//**
 254:../src/lib/lpc177x_8x/Drivers/source/lpc177x_8x_lcd.c ****  * @brief       LCD Setup.
 255:../src/lib/lpc177x_8x/Drivers/source/lpc177x_8x_lcd.c ****  *
 256:../src/lib/lpc177x_8x/Drivers/source/lpc177x_8x_lcd.c ****  * @param[in] pConfig             Configuration information.
 257:../src/lib/lpc177x_8x/Drivers/source/lpc177x_8x_lcd.c ****  *
 258:../src/lib/lpc177x_8x/Drivers/source/lpc177x_8x_lcd.c ****  * @return  None.
 259:../src/lib/lpc177x_8x/Drivers/source/lpc177x_8x_lcd.c ****  *
 260:../src/lib/lpc177x_8x/Drivers/source/lpc177x_8x_lcd.c ****  **********************************************************************/
 261:../src/lib/lpc177x_8x/Drivers/source/lpc177x_8x_lcd.c **** void LCD_CtrlSetup(LCD_Config_Type* pConfig)
 262:../src/lib/lpc177x_8x/Drivers/source/lpc177x_8x_lcd.c **** {
 764              		.loc 1 262 0
 765              		.cfi_startproc
 766              		@ args = 0, pretend = 0, frame = 8
 767              		@ frame_needed = 1, uses_anonymous_args = 0
 768              		@ link register save eliminated.
 769 0548 80B4     		push	{r7}
 770              	.LCFI15:
 771              		.cfi_def_cfa_offset 4
 772              		.cfi_offset 7, -4
 773 054a 83B0     		sub	sp, sp, #12
 774              	.LCFI16:
 775              		.cfi_def_cfa_offset 16
 776 054c 00AF     		add	r7, sp, #0
 777              	.LCFI17:
 778              		.cfi_def_cfa_register 7
 779 054e 7860     		str	r0, [r7, #4]
 263:../src/lib/lpc177x_8x/Drivers/source/lpc177x_8x_lcd.c ****     // disable LCD controller   
 264:../src/lib/lpc177x_8x/Drivers/source/lpc177x_8x_lcd.c ****     LPC_LCD->CTRL = 0;
 780              		.loc 1 264 0
 781 0550 4D4B     		ldr	r3, .L47
 782 0552 4FF00002 		mov	r2, #0
 783 0556 9A61     		str	r2, [r3, #24]
 265:../src/lib/lpc177x_8x/Drivers/source/lpc177x_8x_lcd.c ****     
 266:../src/lib/lpc177x_8x/Drivers/source/lpc177x_8x_lcd.c ****     //  bpp
 267:../src/lib/lpc177x_8x/Drivers/source/lpc177x_8x_lcd.c ****     LPC_LCD->CTRL &= ~(0x07 <<1);
 784              		.loc 1 267 0
 785 0558 4B4B     		ldr	r3, .L47
 786 055a 4B4A     		ldr	r2, .L47
 787 055c 9269     		ldr	r2, [r2, #24]
 788 055e 22F00E02 		bic	r2, r2, #14
 789 0562 9A61     		str	r2, [r3, #24]
 268:../src/lib/lpc177x_8x/Drivers/source/lpc177x_8x_lcd.c ****     LPC_LCD->CTRL |=((pConfig->lcd_bpp & 0x07)<<1);
 790              		.loc 1 268 0
 791 0564 484B     		ldr	r3, .L47
 792 0566 484A     		ldr	r2, .L47
 793 0568 9169     		ldr	r1, [r2, #24]
 794 056a 7A68     		ldr	r2, [r7, #4]
 795 056c 127E     		ldrb	r2, [r2, #24]	@ zero_extendqisi2
 796 056e 02F00702 		and	r2, r2, #7
 797 0572 4FEA4202 		lsl	r2, r2, #1
 798 0576 0A43     		orrs	r2, r2, r1
 799 0578 9A61     		str	r2, [r3, #24]
 269:../src/lib/lpc177x_8x/Drivers/source/lpc177x_8x_lcd.c **** 
 270:../src/lib/lpc177x_8x/Drivers/source/lpc177x_8x_lcd.c ****     if(pConfig->lcd_type == LCD_TFT) {
 800              		.loc 1 270 0
 801 057a 7B68     		ldr	r3, [r7, #4]
 802 057c 5B7E     		ldrb	r3, [r3, #25]	@ zero_extendqisi2
 803 057e 022B     		cmp	r3, #2
 804 0580 06D1     		bne	.L34
 271:../src/lib/lpc177x_8x/Drivers/source/lpc177x_8x_lcd.c ****         LPC_LCD->CTRL |=  (0x01 << 5);  // TFT
 805              		.loc 1 271 0
 806 0582 414B     		ldr	r3, .L47
 807 0584 404A     		ldr	r2, .L47
 808 0586 9269     		ldr	r2, [r2, #24]
 809 0588 42F02002 		orr	r2, r2, #32
 810 058c 9A61     		str	r2, [r3, #24]
 811 058e 3CE0     		b	.L35
 812              	.L34:
 272:../src/lib/lpc177x_8x/Drivers/source/lpc177x_8x_lcd.c ****     }
 273:../src/lib/lpc177x_8x/Drivers/source/lpc177x_8x_lcd.c ****     else {
 274:../src/lib/lpc177x_8x/Drivers/source/lpc177x_8x_lcd.c ****         // Color/Mono
 275:../src/lib/lpc177x_8x/Drivers/source/lpc177x_8x_lcd.c ****         if(pConfig->lcd_type == LCD_STN_COLOR) {
 813              		.loc 1 275 0
 814 0590 7B68     		ldr	r3, [r7, #4]
 815 0592 5B7E     		ldrb	r3, [r3, #25]	@ zero_extendqisi2
 816 0594 012B     		cmp	r3, #1
 817 0596 06D1     		bne	.L36
 276:../src/lib/lpc177x_8x/Drivers/source/lpc177x_8x_lcd.c ****             LPC_LCD->CTRL &= ~ (0x01 << 4);  // Color
 818              		.loc 1 276 0
 819 0598 3B4B     		ldr	r3, .L47
 820 059a 3B4A     		ldr	r2, .L47
 821 059c 9269     		ldr	r2, [r2, #24]
 822 059e 22F01002 		bic	r2, r2, #16
 823 05a2 9A61     		str	r2, [r3, #24]
 824 05a4 09E0     		b	.L37
 825              	.L36:
 277:../src/lib/lpc177x_8x/Drivers/source/lpc177x_8x_lcd.c ****         }
 278:../src/lib/lpc177x_8x/Drivers/source/lpc177x_8x_lcd.c ****         else if (pConfig->lcd_type == LCD_STN_MONOCHROME) {
 826              		.loc 1 278 0
 827 05a6 7B68     		ldr	r3, [r7, #4]
 828 05a8 5B7E     		ldrb	r3, [r3, #25]	@ zero_extendqisi2
 829 05aa 002B     		cmp	r3, #0
 830 05ac 05D1     		bne	.L37
 279:../src/lib/lpc177x_8x/Drivers/source/lpc177x_8x_lcd.c ****             LPC_LCD->CTRL |=  (0x01 << 4);   // Mono
 831              		.loc 1 279 0
 832 05ae 364B     		ldr	r3, .L47
 833 05b0 354A     		ldr	r2, .L47
 834 05b2 9269     		ldr	r2, [r2, #24]
 835 05b4 42F01002 		orr	r2, r2, #16
 836 05b8 9A61     		str	r2, [r3, #24]
 837              	.L37:
 280:../src/lib/lpc177x_8x/Drivers/source/lpc177x_8x_lcd.c ****          }
 281:../src/lib/lpc177x_8x/Drivers/source/lpc177x_8x_lcd.c **** 
 282:../src/lib/lpc177x_8x/Drivers/source/lpc177x_8x_lcd.c ****         // STN/TFT
 283:../src/lib/lpc177x_8x/Drivers/source/lpc177x_8x_lcd.c ****         LPC_LCD->CTRL &= ~ (0x01 << 5);  // STN
 838              		.loc 1 283 0
 839 05ba 334B     		ldr	r3, .L47
 840 05bc 324A     		ldr	r2, .L47
 841 05be 9269     		ldr	r2, [r2, #24]
 842 05c0 22F02002 		bic	r2, r2, #32
 843 05c4 9A61     		str	r2, [r3, #24]
 284:../src/lib/lpc177x_8x/Drivers/source/lpc177x_8x_lcd.c **** 
 285:../src/lib/lpc177x_8x/Drivers/source/lpc177x_8x_lcd.c ****         // Mono4/8
 286:../src/lib/lpc177x_8x/Drivers/source/lpc177x_8x_lcd.c ****         if(pConfig->lcd_mono8)
 844              		.loc 1 286 0
 845 05c6 7B68     		ldr	r3, [r7, #4]
 846 05c8 9B7E     		ldrb	r3, [r3, #26]	@ zero_extendqisi2
 847 05ca 002B     		cmp	r3, #0
 848 05cc 06D0     		beq	.L38
 287:../src/lib/lpc177x_8x/Drivers/source/lpc177x_8x_lcd.c ****             LPC_LCD->CTRL |= (0x01 << 6);
 849              		.loc 1 287 0
 850 05ce 2E4B     		ldr	r3, .L47
 851 05d0 2D4A     		ldr	r2, .L47
 852 05d2 9269     		ldr	r2, [r2, #24]
 853 05d4 42F04002 		orr	r2, r2, #64
 854 05d8 9A61     		str	r2, [r3, #24]
 855 05da 05E0     		b	.L39
 856              	.L38:
 288:../src/lib/lpc177x_8x/Drivers/source/lpc177x_8x_lcd.c ****         else
 289:../src/lib/lpc177x_8x/Drivers/source/lpc177x_8x_lcd.c ****             LPC_LCD->CTRL &= ~(0x01 << 6);
 857              		.loc 1 289 0
 858 05dc 2A4B     		ldr	r3, .L47
 859 05de 2A4A     		ldr	r2, .L47
 860 05e0 9269     		ldr	r2, [r2, #24]
 861 05e2 22F04002 		bic	r2, r2, #64
 862 05e6 9A61     		str	r2, [r3, #24]
 863              	.L39:
 290:../src/lib/lpc177x_8x/Drivers/source/lpc177x_8x_lcd.c **** 
 291:../src/lib/lpc177x_8x/Drivers/source/lpc177x_8x_lcd.c ****         // Single/dual
 292:../src/lib/lpc177x_8x/Drivers/source/lpc177x_8x_lcd.c ****         if(pConfig->lcd_dual)
 864              		.loc 1 292 0
 865 05e8 7B68     		ldr	r3, [r7, #4]
 866 05ea DB7E     		ldrb	r3, [r3, #27]	@ zero_extendqisi2
 867 05ec 002B     		cmp	r3, #0
 868 05ee 06D0     		beq	.L40
 293:../src/lib/lpc177x_8x/Drivers/source/lpc177x_8x_lcd.c ****             LPC_LCD->CTRL |= (0x01 << 7);
 869              		.loc 1 293 0
 870 05f0 254B     		ldr	r3, .L47
 871 05f2 254A     		ldr	r2, .L47
 872 05f4 9269     		ldr	r2, [r2, #24]
 873 05f6 42F08002 		orr	r2, r2, #128
 874 05fa 9A61     		str	r2, [r3, #24]
 875 05fc 05E0     		b	.L35
 876              	.L40:
 294:../src/lib/lpc177x_8x/Drivers/source/lpc177x_8x_lcd.c ****         else
 295:../src/lib/lpc177x_8x/Drivers/source/lpc177x_8x_lcd.c ****             LPC_LCD->CTRL &= ~(0x01 << 7);
 877              		.loc 1 295 0
 878 05fe 224B     		ldr	r3, .L47
 879 0600 214A     		ldr	r2, .L47
 880 0602 9269     		ldr	r2, [r2, #24]
 881 0604 22F08002 		bic	r2, r2, #128
 882 0608 9A61     		str	r2, [r3, #24]
 883              	.L35:
 296:../src/lib/lpc177x_8x/Drivers/source/lpc177x_8x_lcd.c ****     }
 297:../src/lib/lpc177x_8x/Drivers/source/lpc177x_8x_lcd.c ****     
 298:../src/lib/lpc177x_8x/Drivers/source/lpc177x_8x_lcd.c ****     // notmal output
 299:../src/lib/lpc177x_8x/Drivers/source/lpc177x_8x_lcd.c ****     if(pConfig->lcd_bgr)
 884              		.loc 1 299 0
 885 060a 7B68     		ldr	r3, [r7, #4]
 886 060c 93F82C30 		ldrb	r3, [r3, #44]	@ zero_extendqisi2
 887 0610 002B     		cmp	r3, #0
 888 0612 06D0     		beq	.L41
 300:../src/lib/lpc177x_8x/Drivers/source/lpc177x_8x_lcd.c ****         LPC_LCD->CTRL |= (1<<8);    // BGR
 889              		.loc 1 300 0
 890 0614 1C4B     		ldr	r3, .L47
 891 0616 1C4A     		ldr	r2, .L47
 892 0618 9269     		ldr	r2, [r2, #24]
 893 061a 42F48072 		orr	r2, r2, #256
 894 061e 9A61     		str	r2, [r3, #24]
 895 0620 05E0     		b	.L42
 896              	.L41:
 301:../src/lib/lpc177x_8x/Drivers/source/lpc177x_8x_lcd.c ****     else
 302:../src/lib/lpc177x_8x/Drivers/source/lpc177x_8x_lcd.c ****         LPC_LCD->CTRL &= ~(1<<8);   // RGB
 897              		.loc 1 302 0
 898 0622 194B     		ldr	r3, .L47
 899 0624 184A     		ldr	r2, .L47
 900 0626 9269     		ldr	r2, [r2, #24]
 901 0628 22F48072 		bic	r2, r2, #256
 902 062c 9A61     		str	r2, [r3, #24]
 903              	.L42:
 303:../src/lib/lpc177x_8x/Drivers/source/lpc177x_8x_lcd.c **** 
 304:../src/lib/lpc177x_8x/Drivers/source/lpc177x_8x_lcd.c ****         // Byte order
 305:../src/lib/lpc177x_8x/Drivers/source/lpc177x_8x_lcd.c ****     if(pConfig->big_endian_byte)
 904              		.loc 1 305 0
 905 062e 7B68     		ldr	r3, [r7, #4]
 906 0630 1B7F     		ldrb	r3, [r3, #28]	@ zero_extendqisi2
 907 0632 002B     		cmp	r3, #0
 908 0634 06D0     		beq	.L43
 306:../src/lib/lpc177x_8x/Drivers/source/lpc177x_8x_lcd.c ****       LPC_LCD->CTRL |= (1<<9);
 909              		.loc 1 306 0
 910 0636 144B     		ldr	r3, .L47
 911 0638 134A     		ldr	r2, .L47
 912 063a 9269     		ldr	r2, [r2, #24]
 913 063c 42F40072 		orr	r2, r2, #512
 914 0640 9A61     		str	r2, [r3, #24]
 915 0642 05E0     		b	.L44
 916              	.L43:
 307:../src/lib/lpc177x_8x/Drivers/source/lpc177x_8x_lcd.c ****     else
 308:../src/lib/lpc177x_8x/Drivers/source/lpc177x_8x_lcd.c ****       LPC_LCD->CTRL &= ~(1<<9);
 917              		.loc 1 308 0
 918 0644 104B     		ldr	r3, .L47
 919 0646 104A     		ldr	r2, .L47
 920 0648 9269     		ldr	r2, [r2, #24]
 921 064a 22F40072 		bic	r2, r2, #512
 922 064e 9A61     		str	r2, [r3, #24]
 923              	.L44:
 309:../src/lib/lpc177x_8x/Drivers/source/lpc177x_8x_lcd.c **** 
 310:../src/lib/lpc177x_8x/Drivers/source/lpc177x_8x_lcd.c ****     // Pixel order
 311:../src/lib/lpc177x_8x/Drivers/source/lpc177x_8x_lcd.c ****     if(pConfig->big_endian_pixel)
 924              		.loc 1 311 0
 925 0650 7B68     		ldr	r3, [r7, #4]
 926 0652 5B7F     		ldrb	r3, [r3, #29]	@ zero_extendqisi2
 927 0654 002B     		cmp	r3, #0
 928 0656 06D0     		beq	.L45
 312:../src/lib/lpc177x_8x/Drivers/source/lpc177x_8x_lcd.c ****       LPC_LCD->CTRL |= (1<<10);
 929              		.loc 1 312 0
 930 0658 0B4B     		ldr	r3, .L47
 931 065a 0B4A     		ldr	r2, .L47
 932 065c 9269     		ldr	r2, [r2, #24]
 933 065e 42F48062 		orr	r2, r2, #1024
 934 0662 9A61     		str	r2, [r3, #24]
 935 0664 05E0     		b	.L46
 936              	.L45:
 313:../src/lib/lpc177x_8x/Drivers/source/lpc177x_8x_lcd.c ****     else
 314:../src/lib/lpc177x_8x/Drivers/source/lpc177x_8x_lcd.c ****       LPC_LCD->CTRL &= ~(1<<10);
 937              		.loc 1 314 0
 938 0666 084B     		ldr	r3, .L47
 939 0668 074A     		ldr	r2, .L47
 940 066a 9269     		ldr	r2, [r2, #24]
 941 066c 22F48062 		bic	r2, r2, #1024
 942 0670 9A61     		str	r2, [r3, #24]
 943              	.L46:
 315:../src/lib/lpc177x_8x/Drivers/source/lpc177x_8x_lcd.c ****     
 316:../src/lib/lpc177x_8x/Drivers/source/lpc177x_8x_lcd.c ****     // disable power
 317:../src/lib/lpc177x_8x/Drivers/source/lpc177x_8x_lcd.c ****     LPC_LCD->CTRL &= ~(1<<11);
 944              		.loc 1 317 0
 945 0672 054B     		ldr	r3, .L47
 946 0674 044A     		ldr	r2, .L47
 947 0676 9269     		ldr	r2, [r2, #24]
 948 0678 22F40062 		bic	r2, r2, #2048
 949 067c 9A61     		str	r2, [r3, #24]
 318:../src/lib/lpc177x_8x/Drivers/source/lpc177x_8x_lcd.c **** }
 950              		.loc 1 318 0
 951 067e 07F10C07 		add	r7, r7, #12
 952 0682 BD46     		mov	sp, r7
 953 0684 80BC     		pop	{r7}
 954 0686 7047     		bx	lr
 955              	.L48:
 956              		.align	2
 957              	.L47:
 958 0688 00800820 		.word	537427968
 959              		.cfi_endproc
 960              	.LFE60:
 962              		.align	2
 963              		.global	LCD_Enable
 964              		.thumb
 965              		.thumb_func
 967              	LCD_Enable:
 968              	.LFB61:
 319:../src/lib/lpc177x_8x/Drivers/source/lpc177x_8x_lcd.c **** 
 320:../src/lib/lpc177x_8x/Drivers/source/lpc177x_8x_lcd.c **** /*********************************************************************//**
 321:../src/lib/lpc177x_8x/Drivers/source/lpc177x_8x_lcd.c ****  * @brief       Enable/disable LCD Display.
 322:../src/lib/lpc177x_8x/Drivers/source/lpc177x_8x_lcd.c ****  *
 323:../src/lib/lpc177x_8x/Drivers/source/lpc177x_8x_lcd.c ****  * @param[in] bEna           0: disable, 1: enable.
 324:../src/lib/lpc177x_8x/Drivers/source/lpc177x_8x_lcd.c ****  *
 325:../src/lib/lpc177x_8x/Drivers/source/lpc177x_8x_lcd.c ****  * @return  None.
 326:../src/lib/lpc177x_8x/Drivers/source/lpc177x_8x_lcd.c ****  *
 327:../src/lib/lpc177x_8x/Drivers/source/lpc177x_8x_lcd.c ****  **********************************************************************/
 328:../src/lib/lpc177x_8x/Drivers/source/lpc177x_8x_lcd.c **** void LCD_Enable (Bool bEna)
 329:../src/lib/lpc177x_8x/Drivers/source/lpc177x_8x_lcd.c **** {
 969              		.loc 1 329 0
 970              		.cfi_startproc
 971              		@ args = 0, pretend = 0, frame = 16
 972              		@ frame_needed = 1, uses_anonymous_args = 0
 973              		@ link register save eliminated.
 974 068c 80B4     		push	{r7}
 975              	.LCFI18:
 976              		.cfi_def_cfa_offset 4
 977              		.cfi_offset 7, -4
 978 068e 85B0     		sub	sp, sp, #20
 979              	.LCFI19:
 980              		.cfi_def_cfa_offset 24
 981 0690 00AF     		add	r7, sp, #0
 982              	.LCFI20:
 983              		.cfi_def_cfa_register 7
 984 0692 0346     		mov	r3, r0
 985 0694 FB71     		strb	r3, [r7, #7]
 330:../src/lib/lpc177x_8x/Drivers/source/lpc177x_8x_lcd.c ****   volatile uint32_t i;
 331:../src/lib/lpc177x_8x/Drivers/source/lpc177x_8x_lcd.c ****   if (bEna)
 986              		.loc 1 331 0
 987 0696 FB79     		ldrb	r3, [r7, #7]	@ zero_extendqisi2
 988 0698 002B     		cmp	r3, #0
 989 069a 17D0     		beq	.L50
 332:../src/lib/lpc177x_8x/Drivers/source/lpc177x_8x_lcd.c ****   {
 333:../src/lib/lpc177x_8x/Drivers/source/lpc177x_8x_lcd.c ****     LPC_LCD->CTRL |= (1<<0);
 990              		.loc 1 333 0
 991 069c 194B     		ldr	r3, .L56
 992 069e 194A     		ldr	r2, .L56
 993 06a0 9269     		ldr	r2, [r2, #24]
 994 06a2 42F00102 		orr	r2, r2, #1
 995 06a6 9A61     		str	r2, [r3, #24]
 334:../src/lib/lpc177x_8x/Drivers/source/lpc177x_8x_lcd.c ****     for(i = LCD_PWR_ENA_DIS_DLY; i; i--);
 996              		.loc 1 334 0
 997 06a8 42F21073 		movw	r3, #10000
 998 06ac FB60     		str	r3, [r7, #12]
 999 06ae 03E0     		b	.L51
 1000              	.L52:
 1001              		.loc 1 334 0 is_stmt 0 discriminator 2
 1002 06b0 FB68     		ldr	r3, [r7, #12]
 1003 06b2 03F1FF33 		add	r3, r3, #-1
 1004 06b6 FB60     		str	r3, [r7, #12]
 1005              	.L51:
 1006              		.loc 1 334 0 discriminator 1
 1007 06b8 FB68     		ldr	r3, [r7, #12]
 1008 06ba 002B     		cmp	r3, #0
 1009 06bc F8D1     		bne	.L52
 335:../src/lib/lpc177x_8x/Drivers/source/lpc177x_8x_lcd.c ****     LPC_LCD->CTRL |= (1<<11);
 1010              		.loc 1 335 0 is_stmt 1
 1011 06be 114B     		ldr	r3, .L56
 1012 06c0 104A     		ldr	r2, .L56
 1013 06c2 9269     		ldr	r2, [r2, #24]
 1014 06c4 42F40062 		orr	r2, r2, #2048
 1015 06c8 9A61     		str	r2, [r3, #24]
 1016 06ca 16E0     		b	.L49
 1017              	.L50:
 336:../src/lib/lpc177x_8x/Drivers/source/lpc177x_8x_lcd.c ****   }
 337:../src/lib/lpc177x_8x/Drivers/source/lpc177x_8x_lcd.c ****   else
 338:../src/lib/lpc177x_8x/Drivers/source/lpc177x_8x_lcd.c ****   {
 339:../src/lib/lpc177x_8x/Drivers/source/lpc177x_8x_lcd.c ****     LPC_LCD->CTRL &= ~(1<<11);
 1018              		.loc 1 339 0
 1019 06cc 0D4B     		ldr	r3, .L56
 1020 06ce 0D4A     		ldr	r2, .L56
 1021 06d0 9269     		ldr	r2, [r2, #24]
 1022 06d2 22F40062 		bic	r2, r2, #2048
 1023 06d6 9A61     		str	r2, [r3, #24]
 340:../src/lib/lpc177x_8x/Drivers/source/lpc177x_8x_lcd.c ****     for(i = LCD_PWR_ENA_DIS_DLY; i; i--);
 1024              		.loc 1 340 0
 1025 06d8 42F21073 		movw	r3, #10000
 1026 06dc FB60     		str	r3, [r7, #12]
 1027 06de 03E0     		b	.L54
 1028              	.L55:
 1029              		.loc 1 340 0 is_stmt 0 discriminator 2
 1030 06e0 FB68     		ldr	r3, [r7, #12]
 1031 06e2 03F1FF33 		add	r3, r3, #-1
 1032 06e6 FB60     		str	r3, [r7, #12]
 1033              	.L54:
 1034              		.loc 1 340 0 discriminator 1
 1035 06e8 FB68     		ldr	r3, [r7, #12]
 1036 06ea 002B     		cmp	r3, #0
 1037 06ec F8D1     		bne	.L55
 341:../src/lib/lpc177x_8x/Drivers/source/lpc177x_8x_lcd.c ****     LPC_LCD->CTRL &= ~(1<<0);
 1038              		.loc 1 341 0 is_stmt 1
 1039 06ee 054B     		ldr	r3, .L56
 1040 06f0 044A     		ldr	r2, .L56
 1041 06f2 9269     		ldr	r2, [r2, #24]
 1042 06f4 22F00102 		bic	r2, r2, #1
 1043 06f8 9A61     		str	r2, [r3, #24]
 1044              	.L49:
 342:../src/lib/lpc177x_8x/Drivers/source/lpc177x_8x_lcd.c ****   }
 343:../src/lib/lpc177x_8x/Drivers/source/lpc177x_8x_lcd.c **** }
 1045              		.loc 1 343 0
 1046 06fa 07F11407 		add	r7, r7, #20
 1047 06fe BD46     		mov	sp, r7
 1048 0700 80BC     		pop	{r7}
 1049 0702 7047     		bx	lr
 1050              	.L57:
 1051              		.align	2
 1052              	.L56:
 1053 0704 00800820 		.word	537427968
 1054              		.cfi_endproc
 1055              	.LFE61:
 1057              		.align	2
 1058              		.global	LCD_SetPalette
 1059              		.thumb
 1060              		.thumb_func
 1062              	LCD_SetPalette:
 1063              	.LFB62:
 344:../src/lib/lpc177x_8x/Drivers/source/lpc177x_8x_lcd.c **** 
 345:../src/lib/lpc177x_8x/Drivers/source/lpc177x_8x_lcd.c **** 
 346:../src/lib/lpc177x_8x/Drivers/source/lpc177x_8x_lcd.c **** /*********************************************************************//**
 347:../src/lib/lpc177x_8x/Drivers/source/lpc177x_8x_lcd.c ****  * @brief       Set palette.
 348:../src/lib/lpc177x_8x/Drivers/source/lpc177x_8x_lcd.c ****  *
 349:../src/lib/lpc177x_8x/Drivers/source/lpc177x_8x_lcd.c ****  * @param[in] bEna           0: disable, 1: enable.
 350:../src/lib/lpc177x_8x/Drivers/source/lpc177x_8x_lcd.c ****  *
 351:../src/lib/lpc177x_8x/Drivers/source/lpc177x_8x_lcd.c ****  * @return  None.
 352:../src/lib/lpc177x_8x/Drivers/source/lpc177x_8x_lcd.c ****  *
 353:../src/lib/lpc177x_8x/Drivers/source/lpc177x_8x_lcd.c ****  **********************************************************************/
 354:../src/lib/lpc177x_8x/Drivers/source/lpc177x_8x_lcd.c **** void LCD_SetPalette (const uint8_t* pPallete)
 355:../src/lib/lpc177x_8x/Drivers/source/lpc177x_8x_lcd.c **** {
 1064              		.loc 1 355 0
 1065              		.cfi_startproc
 1066              		@ args = 0, pretend = 0, frame = 24
 1067              		@ frame_needed = 1, uses_anonymous_args = 0
 1068              		@ link register save eliminated.
 1069 0708 80B4     		push	{r7}
 1070              	.LCFI21:
 1071              		.cfi_def_cfa_offset 4
 1072              		.cfi_offset 7, -4
 1073 070a 87B0     		sub	sp, sp, #28
 1074              	.LCFI22:
 1075              		.cfi_def_cfa_offset 32
 1076 070c 00AF     		add	r7, sp, #0
 1077              	.LCFI23:
 1078              		.cfi_def_cfa_register 7
 1079 070e 7860     		str	r0, [r7, #4]
 356:../src/lib/lpc177x_8x/Drivers/source/lpc177x_8x_lcd.c ****     uint32_t i;
 357:../src/lib/lpc177x_8x/Drivers/source/lpc177x_8x_lcd.c ****     uint32_t size = (0x01 << bits_per_pixel[lcd_config.lcd_bpp])/2 ;
 1080              		.loc 1 357 0
 1081 0710 174B     		ldr	r3, .L61
 1082 0712 1B7E     		ldrb	r3, [r3, #24]	@ zero_extendqisi2
 1083 0714 174A     		ldr	r2, .L61+4
 1084 0716 D35C     		ldrb	r3, [r2, r3]	@ zero_extendqisi2
 1085 0718 4FF00102 		mov	r2, #1
 1086 071c 02FA03F3 		lsl	r3, r2, r3
 1087 0720 4FEAD372 		lsr	r2, r3, #31
 1088 0724 D318     		adds	r3, r2, r3
 1089 0726 4FEA6303 		asr	r3, r3, #1
 1090 072a BB60     		str	r3, [r7, #8]
 358:../src/lib/lpc177x_8x/Drivers/source/lpc177x_8x_lcd.c ****     uint32_t * pDst = (uint32_t *)LPC_LCD->PAL;
 1091              		.loc 1 358 0
 1092 072c 124B     		ldr	r3, .L61+8
 1093 072e 3B61     		str	r3, [r7, #16]
 359:../src/lib/lpc177x_8x/Drivers/source/lpc177x_8x_lcd.c ****     uint32_t * pInput = (uint32_t*) pPallete;
 1094              		.loc 1 359 0
 1095 0730 7B68     		ldr	r3, [r7, #4]
 1096 0732 FB60     		str	r3, [r7, #12]
 360:../src/lib/lpc177x_8x/Drivers/source/lpc177x_8x_lcd.c **** 
 361:../src/lib/lpc177x_8x/Drivers/source/lpc177x_8x_lcd.c ****     for (i = 0; i < size; i++)
 1097              		.loc 1 361 0
 1098 0734 4FF00003 		mov	r3, #0
 1099 0738 7B61     		str	r3, [r7, #20]
 1100 073a 0FE0     		b	.L59
 1101              	.L60:
 362:../src/lib/lpc177x_8x/Drivers/source/lpc177x_8x_lcd.c ****     {
 363:../src/lib/lpc177x_8x/Drivers/source/lpc177x_8x_lcd.c ****       *pDst = *pInput;
 1102              		.loc 1 363 0 discriminator 2
 1103 073c FB68     		ldr	r3, [r7, #12]
 1104 073e 1A68     		ldr	r2, [r3, #0]
 1105 0740 3B69     		ldr	r3, [r7, #16]
 1106 0742 1A60     		str	r2, [r3, #0]
 364:../src/lib/lpc177x_8x/Drivers/source/lpc177x_8x_lcd.c ****       pDst++;
 1107              		.loc 1 364 0 discriminator 2
 1108 0744 3B69     		ldr	r3, [r7, #16]
 1109 0746 03F10403 		add	r3, r3, #4
 1110 074a 3B61     		str	r3, [r7, #16]
 365:../src/lib/lpc177x_8x/Drivers/source/lpc177x_8x_lcd.c ****       pInput++;
 1111              		.loc 1 365 0 discriminator 2
 1112 074c FB68     		ldr	r3, [r7, #12]
 1113 074e 03F10403 		add	r3, r3, #4
 1114 0752 FB60     		str	r3, [r7, #12]
 361:../src/lib/lpc177x_8x/Drivers/source/lpc177x_8x_lcd.c ****     for (i = 0; i < size; i++)
 1115              		.loc 1 361 0 discriminator 2
 1116 0754 7B69     		ldr	r3, [r7, #20]
 1117 0756 03F10103 		add	r3, r3, #1
 1118 075a 7B61     		str	r3, [r7, #20]
 1119              	.L59:
 361:../src/lib/lpc177x_8x/Drivers/source/lpc177x_8x_lcd.c ****     for (i = 0; i < size; i++)
 1120              		.loc 1 361 0 is_stmt 0 discriminator 1
 1121 075c 7A69     		ldr	r2, [r7, #20]
 1122 075e BB68     		ldr	r3, [r7, #8]
 1123 0760 9A42     		cmp	r2, r3
 1124 0762 EBD3     		bcc	.L60
 366:../src/lib/lpc177x_8x/Drivers/source/lpc177x_8x_lcd.c ****     }
 367:../src/lib/lpc177x_8x/Drivers/source/lpc177x_8x_lcd.c **** }
 1125              		.loc 1 367 0 is_stmt 1
 1126 0764 07F11C07 		add	r7, r7, #28
 1127 0768 BD46     		mov	sp, r7
 1128 076a 80BC     		pop	{r7}
 1129 076c 7047     		bx	lr
 1130              	.L62:
 1131 076e 00BF     		.align	2
 1132              	.L61:
 1133 0770 00000000 		.word	lcd_config
 1134 0774 04000000 		.word	bits_per_pixel
 1135 0778 00820820 		.word	537428480
 1136              		.cfi_endproc
 1137              	.LFE62:
 1139              		.align	2
 1140              		.global	LCD_GetWordOffset
 1141              		.thumb
 1142              		.thumb_func
 1144              	LCD_GetWordOffset:
 1145              	.LFB63:
 368:../src/lib/lpc177x_8x/Drivers/source/lpc177x_8x_lcd.c **** /*********************************************************************//**
 369:../src/lib/lpc177x_8x/Drivers/source/lpc177x_8x_lcd.c ****  * @brief       Get word offset for the given pixel
 370:../src/lib/lpc177x_8x/Drivers/source/lpc177x_8x_lcd.c ****  *
 371:../src/lib/lpc177x_8x/Drivers/source/lpc177x_8x_lcd.c ****  * @param[in] x      x position of input pixel
 372:../src/lib/lpc177x_8x/Drivers/source/lpc177x_8x_lcd.c ****  * @param[in] y      y position of input pixel
 373:../src/lib/lpc177x_8x/Drivers/source/lpc177x_8x_lcd.c ****  *
 374:../src/lib/lpc177x_8x/Drivers/source/lpc177x_8x_lcd.c ****  * @return      Offset
 375:../src/lib/lpc177x_8x/Drivers/source/lpc177x_8x_lcd.c ****  *
 376:../src/lib/lpc177x_8x/Drivers/source/lpc177x_8x_lcd.c ****  **********************************************************************/
 377:../src/lib/lpc177x_8x/Drivers/source/lpc177x_8x_lcd.c **** uint32_t LCD_GetWordOffset(uint32_t x, uint32_t y)
 378:../src/lib/lpc177x_8x/Drivers/source/lpc177x_8x_lcd.c **** {
 1146              		.loc 1 378 0
 1147              		.cfi_startproc
 1148              		@ args = 0, pretend = 0, frame = 16
 1149              		@ frame_needed = 1, uses_anonymous_args = 0
 1150              		@ link register save eliminated.
 1151 077c 80B4     		push	{r7}
 1152              	.LCFI24:
 1153              		.cfi_def_cfa_offset 4
 1154              		.cfi_offset 7, -4
 1155 077e 85B0     		sub	sp, sp, #20
 1156              	.LCFI25:
 1157              		.cfi_def_cfa_offset 24
 1158 0780 00AF     		add	r7, sp, #0
 1159              	.LCFI26:
 1160              		.cfi_def_cfa_register 7
 1161 0782 7860     		str	r0, [r7, #4]
 1162 0784 3960     		str	r1, [r7, #0]
 379:../src/lib/lpc177x_8x/Drivers/source/lpc177x_8x_lcd.c ****   uint32_t pixel_num = x + y*lcd_hsize;
 1163              		.loc 1 379 0
 1164 0786 0B4B     		ldr	r3, .L65
 1165 0788 1B68     		ldr	r3, [r3, #0]
 1166 078a 3A68     		ldr	r2, [r7, #0]
 1167 078c 02FB03F2 		mul	r2, r2, r3
 1168 0790 7B68     		ldr	r3, [r7, #4]
 1169 0792 D318     		adds	r3, r2, r3
 1170 0794 FB60     		str	r3, [r7, #12]
 380:../src/lib/lpc177x_8x/Drivers/source/lpc177x_8x_lcd.c **** 
 381:../src/lib/lpc177x_8x/Drivers/source/lpc177x_8x_lcd.c ****   return (pixel_num * bits_per_pixel[lcd_config.lcd_bpp])/32;
 1171              		.loc 1 381 0
 1172 0796 084B     		ldr	r3, .L65+4
 1173 0798 1B7E     		ldrb	r3, [r3, #24]	@ zero_extendqisi2
 1174 079a 084A     		ldr	r2, .L65+8
 1175 079c D35C     		ldrb	r3, [r2, r3]	@ zero_extendqisi2
 1176 079e FA68     		ldr	r2, [r7, #12]
 1177 07a0 02FB03F3 		mul	r3, r2, r3
 1178 07a4 4FEA5313 		lsr	r3, r3, #5
 382:../src/lib/lpc177x_8x/Drivers/source/lpc177x_8x_lcd.c **** }
 1179              		.loc 1 382 0
 1180 07a8 1846     		mov	r0, r3
 1181 07aa 07F11407 		add	r7, r7, #20
 1182 07ae BD46     		mov	sp, r7
 1183 07b0 80BC     		pop	{r7}
 1184 07b2 7047     		bx	lr
 1185              	.L66:
 1186              		.align	2
 1187              	.L65:
 1188 07b4 00000000 		.word	lcd_hsize
 1189 07b8 00000000 		.word	lcd_config
 1190 07bc 04000000 		.word	bits_per_pixel
 1191              		.cfi_endproc
 1192              	.LFE63:
 1194              		.align	2
 1195              		.global	LCD_GetBitOffset
 1196              		.thumb
 1197              		.thumb_func
 1199              	LCD_GetBitOffset:
 1200              	.LFB64:
 383:../src/lib/lpc177x_8x/Drivers/source/lpc177x_8x_lcd.c **** /*********************************************************************//**
 384:../src/lib/lpc177x_8x/Drivers/source/lpc177x_8x_lcd.c ****  * @brief       Get bit offset for the given pixel
 385:../src/lib/lpc177x_8x/Drivers/source/lpc177x_8x_lcd.c ****  *
 386:../src/lib/lpc177x_8x/Drivers/source/lpc177x_8x_lcd.c ****  * @param[in] x      x position of input pixel
 387:../src/lib/lpc177x_8x/Drivers/source/lpc177x_8x_lcd.c ****  * @param[in] y      y position of input pixel
 388:../src/lib/lpc177x_8x/Drivers/source/lpc177x_8x_lcd.c ****  *
 389:../src/lib/lpc177x_8x/Drivers/source/lpc177x_8x_lcd.c ****  * @return      Offset
 390:../src/lib/lpc177x_8x/Drivers/source/lpc177x_8x_lcd.c ****  *
 391:../src/lib/lpc177x_8x/Drivers/source/lpc177x_8x_lcd.c ****  **********************************************************************/
 392:../src/lib/lpc177x_8x/Drivers/source/lpc177x_8x_lcd.c **** uint32_t LCD_GetBitOffset(uint32_t x, uint32_t y)
 393:../src/lib/lpc177x_8x/Drivers/source/lpc177x_8x_lcd.c **** {
 1201              		.loc 1 393 0
 1202              		.cfi_startproc
 1203              		@ args = 0, pretend = 0, frame = 16
 1204              		@ frame_needed = 1, uses_anonymous_args = 0
 1205              		@ link register save eliminated.
 1206 07c0 80B4     		push	{r7}
 1207              	.LCFI27:
 1208              		.cfi_def_cfa_offset 4
 1209              		.cfi_offset 7, -4
 1210 07c2 85B0     		sub	sp, sp, #20
 1211              	.LCFI28:
 1212              		.cfi_def_cfa_offset 24
 1213 07c4 00AF     		add	r7, sp, #0
 1214              	.LCFI29:
 1215              		.cfi_def_cfa_register 7
 1216 07c6 7860     		str	r0, [r7, #4]
 1217 07c8 3960     		str	r1, [r7, #0]
 394:../src/lib/lpc177x_8x/Drivers/source/lpc177x_8x_lcd.c ****   uint32_t pixel_num;
 395:../src/lib/lpc177x_8x/Drivers/source/lpc177x_8x_lcd.c ****   uint32_t ofs;
 396:../src/lib/lpc177x_8x/Drivers/source/lpc177x_8x_lcd.c ****   pixel_num = x + y*lcd_hsize;
 1218              		.loc 1 396 0
 1219 07ca 2A4B     		ldr	r3, .L71
 1220 07cc 1B68     		ldr	r3, [r3, #0]
 1221 07ce 3A68     		ldr	r2, [r7, #0]
 1222 07d0 02FB03F2 		mul	r2, r2, r3
 1223 07d4 7B68     		ldr	r3, [r7, #4]
 1224 07d6 D318     		adds	r3, r2, r3
 1225 07d8 BB60     		str	r3, [r7, #8]
 397:../src/lib/lpc177x_8x/Drivers/source/lpc177x_8x_lcd.c ****   
 398:../src/lib/lpc177x_8x/Drivers/source/lpc177x_8x_lcd.c ****   ofs = (pixel_num * bits_per_pixel[lcd_config.lcd_bpp])%32;
 1226              		.loc 1 398 0
 1227 07da 274B     		ldr	r3, .L71+4
 1228 07dc 1B7E     		ldrb	r3, [r3, #24]	@ zero_extendqisi2
 1229 07de 274A     		ldr	r2, .L71+8
 1230 07e0 D35C     		ldrb	r3, [r2, r3]	@ zero_extendqisi2
 1231 07e2 BA68     		ldr	r2, [r7, #8]
 1232 07e4 02FB03F3 		mul	r3, r2, r3
 1233 07e8 03F01F03 		and	r3, r3, #31
 1234 07ec FB60     		str	r3, [r7, #12]
 399:../src/lib/lpc177x_8x/Drivers/source/lpc177x_8x_lcd.c ****   
 400:../src/lib/lpc177x_8x/Drivers/source/lpc177x_8x_lcd.c ****   if(lcd_config.big_endian_pixel & lcd_config.big_endian_byte)
 1235              		.loc 1 400 0
 1236 07ee 224B     		ldr	r3, .L71+4
 1237 07f0 5A7F     		ldrb	r2, [r3, #29]	@ zero_extendqisi2
 1238 07f2 214B     		ldr	r3, .L71+4
 1239 07f4 1B7F     		ldrb	r3, [r3, #28]	@ zero_extendqisi2
 1240 07f6 1340     		ands	r3, r3, r2
 1241 07f8 DBB2     		uxtb	r3, r3
 1242 07fa 002B     		cmp	r3, #0
 1243 07fc 0CD0     		beq	.L68
 401:../src/lib/lpc177x_8x/Drivers/source/lpc177x_8x_lcd.c ****   {
 402:../src/lib/lpc177x_8x/Drivers/source/lpc177x_8x_lcd.c ****      ofs = 32 - bits_per_pixel[lcd_config.lcd_bpp] - ofs;
 1244              		.loc 1 402 0
 1245 07fe 1E4B     		ldr	r3, .L71+4
 1246 0800 1B7E     		ldrb	r3, [r3, #24]	@ zero_extendqisi2
 1247 0802 1E4A     		ldr	r2, .L71+8
 1248 0804 D35C     		ldrb	r3, [r2, r3]	@ zero_extendqisi2
 1249 0806 C3F10003 		rsb	r3, r3, #0
 1250 080a 1A46     		mov	r2, r3
 1251 080c FB68     		ldr	r3, [r7, #12]
 1252 080e D31A     		subs	r3, r2, r3
 1253 0810 03F12003 		add	r3, r3, #32
 1254 0814 FB60     		str	r3, [r7, #12]
 1255 0816 25E0     		b	.L69
 1256              	.L68:
 403:../src/lib/lpc177x_8x/Drivers/source/lpc177x_8x_lcd.c ****   }
 404:../src/lib/lpc177x_8x/Drivers/source/lpc177x_8x_lcd.c ****   else if (lcd_config.big_endian_pixel & !lcd_config.big_endian_byte)
 1257              		.loc 1 404 0
 1258 0818 174B     		ldr	r3, .L71+4
 1259 081a 5B7F     		ldrb	r3, [r3, #29]	@ zero_extendqisi2
 1260 081c 1A46     		mov	r2, r3
 1261 081e 164B     		ldr	r3, .L71+4
 1262 0820 1B7F     		ldrb	r3, [r3, #28]	@ zero_extendqisi2
 1263 0822 002B     		cmp	r3, #0
 1264 0824 14BF     		ite	ne
 1265 0826 0023     		movne	r3, #0
 1266 0828 0123     		moveq	r3, #1
 1267 082a DBB2     		uxtb	r3, r3
 1268 082c 1340     		ands	r3, r3, r2
 1269 082e 002B     		cmp	r3, #0
 1270 0830 18D0     		beq	.L69
 405:../src/lib/lpc177x_8x/Drivers/source/lpc177x_8x_lcd.c ****   {
 406:../src/lib/lpc177x_8x/Drivers/source/lpc177x_8x_lcd.c ****      if(bits_per_pixel[lcd_config.lcd_bpp] < 8)
 1271              		.loc 1 406 0
 1272 0832 114B     		ldr	r3, .L71+4
 1273 0834 1B7E     		ldrb	r3, [r3, #24]	@ zero_extendqisi2
 1274 0836 114A     		ldr	r2, .L71+8
 1275 0838 D35C     		ldrb	r3, [r2, r3]	@ zero_extendqisi2
 1276 083a 072B     		cmp	r3, #7
 1277 083c 12D8     		bhi	.L69
 407:../src/lib/lpc177x_8x/Drivers/source/lpc177x_8x_lcd.c ****      {
 408:../src/lib/lpc177x_8x/Drivers/source/lpc177x_8x_lcd.c ****         ofs = (ofs/8)*8 + (8 - (ofs%8)-bits_per_pixel[lcd_config.lcd_bpp]);
 1278              		.loc 1 408 0
 1279 083e FB68     		ldr	r3, [r7, #12]
 1280 0840 4FEAD303 		lsr	r3, r3, #3
 1281 0844 4FEAC302 		lsl	r2, r3, #3
 1282 0848 FB68     		ldr	r3, [r7, #12]
 1283 084a 03F00703 		and	r3, r3, #7
 1284 084e C3F10001 		rsb	r1, r3, #0
 1285 0852 094B     		ldr	r3, .L71+4
 1286 0854 1B7E     		ldrb	r3, [r3, #24]	@ zero_extendqisi2
 1287 0856 0948     		ldr	r0, .L71+8
 1288 0858 C35C     		ldrb	r3, [r0, r3]	@ zero_extendqisi2
 1289 085a CB1A     		subs	r3, r1, r3
 1290 085c D318     		adds	r3, r2, r3
 1291 085e 03F10803 		add	r3, r3, #8
 1292 0862 FB60     		str	r3, [r7, #12]
 1293              	.L69:
 409:../src/lib/lpc177x_8x/Drivers/source/lpc177x_8x_lcd.c ****      }
 410:../src/lib/lpc177x_8x/Drivers/source/lpc177x_8x_lcd.c ****   }
 411:../src/lib/lpc177x_8x/Drivers/source/lpc177x_8x_lcd.c ****   return ofs;
 1294              		.loc 1 411 0
 1295 0864 FB68     		ldr	r3, [r7, #12]
 412:../src/lib/lpc177x_8x/Drivers/source/lpc177x_8x_lcd.c **** }
 1296              		.loc 1 412 0
 1297 0866 1846     		mov	r0, r3
 1298 0868 07F11407 		add	r7, r7, #20
 1299 086c BD46     		mov	sp, r7
 1300 086e 80BC     		pop	{r7}
 1301 0870 7047     		bx	lr
 1302              	.L72:
 1303 0872 00BF     		.align	2
 1304              	.L71:
 1305 0874 00000000 		.word	lcd_hsize
 1306 0878 00000000 		.word	lcd_config
 1307 087c 04000000 		.word	bits_per_pixel
 1308              		.cfi_endproc
 1309              	.LFE64:
 1311              		.align	2
 1312              		.global	LCD_SetImage
 1313              		.thumb
 1314              		.thumb_func
 1316              	LCD_SetImage:
 1317              	.LFB65:
 413:../src/lib/lpc177x_8x/Drivers/source/lpc177x_8x_lcd.c **** 
 414:../src/lib/lpc177x_8x/Drivers/source/lpc177x_8x_lcd.c **** 
 415:../src/lib/lpc177x_8x/Drivers/source/lpc177x_8x_lcd.c **** 
 416:../src/lib/lpc177x_8x/Drivers/source/lpc177x_8x_lcd.c **** /*********************************************************************//**
 417:../src/lib/lpc177x_8x/Drivers/source/lpc177x_8x_lcd.c ****  * @brief       Copy pixel values from image buffer to frame buffer.
 418:../src/lib/lpc177x_8x/Drivers/source/lpc177x_8x_lcd.c ****  *
 419:../src/lib/lpc177x_8x/Drivers/source/lpc177x_8x_lcd.c ****  * @param[in] panel          It can be:
 420:../src/lib/lpc177x_8x/Drivers/source/lpc177x_8x_lcd.c ****  *                                             - LCD_PANEL_UPPER
 421:../src/lib/lpc177x_8x/Drivers/source/lpc177x_8x_lcd.c ****  *                                             - LCD_PANEL_LOWER
 422:../src/lib/lpc177x_8x/Drivers/source/lpc177x_8x_lcd.c ****  * @param[in] pPain         point to image buffer.
 423:../src/lib/lpc177x_8x/Drivers/source/lpc177x_8x_lcd.c ****  *
 424:../src/lib/lpc177x_8x/Drivers/source/lpc177x_8x_lcd.c ****  * @return  None.
 425:../src/lib/lpc177x_8x/Drivers/source/lpc177x_8x_lcd.c ****  *
 426:../src/lib/lpc177x_8x/Drivers/source/lpc177x_8x_lcd.c ****  **********************************************************************/
 427:../src/lib/lpc177x_8x/Drivers/source/lpc177x_8x_lcd.c **** void LCD_SetImage(LCD_PANEL panel, const uint8_t *pPain)
 428:../src/lib/lpc177x_8x/Drivers/source/lpc177x_8x_lcd.c **** {
 1318              		.loc 1 428 0
 1319              		.cfi_startproc
 1320              		@ args = 0, pretend = 0, frame = 24
 1321              		@ frame_needed = 1, uses_anonymous_args = 0
 1322              		@ link register save eliminated.
 1323 0880 80B4     		push	{r7}
 1324              	.LCFI30:
 1325              		.cfi_def_cfa_offset 4
 1326              		.cfi_offset 7, -4
 1327 0882 87B0     		sub	sp, sp, #28
 1328              	.LCFI31:
 1329              		.cfi_def_cfa_offset 32
 1330 0884 00AF     		add	r7, sp, #0
 1331              	.LCFI32:
 1332              		.cfi_def_cfa_register 7
 1333 0886 0346     		mov	r3, r0
 1334 0888 3960     		str	r1, [r7, #0]
 1335 088a FB71     		strb	r3, [r7, #7]
 429:../src/lib/lpc177x_8x/Drivers/source/lpc177x_8x_lcd.c ****     volatile uint32_t i;
 430:../src/lib/lpc177x_8x/Drivers/source/lpc177x_8x_lcd.c ****     uint32_t * pWordDst = NULL;
 1336              		.loc 1 430 0
 1337 088c 4FF00003 		mov	r3, #0
 1338 0890 7B61     		str	r3, [r7, #20]
 431:../src/lib/lpc177x_8x/Drivers/source/lpc177x_8x_lcd.c ****     uint8_t* pByteDst = NULL;
 1339              		.loc 1 431 0
 1340 0892 4FF00003 		mov	r3, #0
 1341 0896 3B61     		str	r3, [r7, #16]
 432:../src/lib/lpc177x_8x/Drivers/source/lpc177x_8x_lcd.c ****     uint32_t bytes_num;
 433:../src/lib/lpc177x_8x/Drivers/source/lpc177x_8x_lcd.c **** 
 434:../src/lib/lpc177x_8x/Drivers/source/lpc177x_8x_lcd.c ****     if(panel == LCD_PANEL_UPPER)
 1342              		.loc 1 434 0
 1343 0898 FB79     		ldrb	r3, [r7, #7]	@ zero_extendqisi2
 1344 089a 002B     		cmp	r3, #0
 1345 089c 03D1     		bne	.L74
 435:../src/lib/lpc177x_8x/Drivers/source/lpc177x_8x_lcd.c ****         pWordDst = (uint32_t*) LPC_LCD->UPBASE;
 1346              		.loc 1 435 0
 1347 089e 2C4B     		ldr	r3, .L84
 1348 08a0 1B69     		ldr	r3, [r3, #16]
 1349 08a2 7B61     		str	r3, [r7, #20]
 1350 08a4 02E0     		b	.L75
 1351              	.L74:
 436:../src/lib/lpc177x_8x/Drivers/source/lpc177x_8x_lcd.c ****     else
 437:../src/lib/lpc177x_8x/Drivers/source/lpc177x_8x_lcd.c ****         pWordDst = (uint32_t*) LPC_LCD->LPBASE;
 1352              		.loc 1 437 0
 1353 08a6 2A4B     		ldr	r3, .L84
 1354 08a8 5B69     		ldr	r3, [r3, #20]
 1355 08aa 7B61     		str	r3, [r7, #20]
 1356              	.L75:
 438:../src/lib/lpc177x_8x/Drivers/source/lpc177x_8x_lcd.c **** 
 439:../src/lib/lpc177x_8x/Drivers/source/lpc177x_8x_lcd.c ****     pByteDst = (uint8_t*) pWordDst;
 1357              		.loc 1 439 0
 1358 08ac 7B69     		ldr	r3, [r7, #20]
 1359 08ae 3B61     		str	r3, [r7, #16]
 440:../src/lib/lpc177x_8x/Drivers/source/lpc177x_8x_lcd.c ****     bytes_num =  ((lcd_hsize * lcd_vsize) * bits_per_pixel[lcd_config.lcd_bpp]) /8;
 1360              		.loc 1 440 0
 1361 08b0 284B     		ldr	r3, .L84+4
 1362 08b2 1B68     		ldr	r3, [r3, #0]
 1363 08b4 284A     		ldr	r2, .L84+8
 1364 08b6 1268     		ldr	r2, [r2, #0]
 1365 08b8 02FB03F3 		mul	r3, r2, r3
 1366 08bc 274A     		ldr	r2, .L84+12
 1367 08be 127E     		ldrb	r2, [r2, #24]	@ zero_extendqisi2
 1368 08c0 2749     		ldr	r1, .L84+16
 1369 08c2 8A5C     		ldrb	r2, [r1, r2]	@ zero_extendqisi2
 1370 08c4 02FB03F3 		mul	r3, r2, r3
 1371 08c8 4FEAD303 		lsr	r3, r3, #3
 1372 08cc FB60     		str	r3, [r7, #12]
 441:../src/lib/lpc177x_8x/Drivers/source/lpc177x_8x_lcd.c **** 
 442:../src/lib/lpc177x_8x/Drivers/source/lpc177x_8x_lcd.c ****     if (NULL == pPain)
 1373              		.loc 1 442 0
 1374 08ce 3B68     		ldr	r3, [r7, #0]
 1375 08d0 002B     		cmp	r3, #0
 1376 08d2 14D1     		bne	.L76
 443:../src/lib/lpc177x_8x/Drivers/source/lpc177x_8x_lcd.c ****     {
 444:../src/lib/lpc177x_8x/Drivers/source/lpc177x_8x_lcd.c ****         // clear display memory
 445:../src/lib/lpc177x_8x/Drivers/source/lpc177x_8x_lcd.c ****         for( i = 0; bytes_num > i; i++)
 1377              		.loc 1 445 0
 1378 08d4 4FF00003 		mov	r3, #0
 1379 08d8 BB60     		str	r3, [r7, #8]
 1380 08da 0BE0     		b	.L77
 1381              	.L78:
 446:../src/lib/lpc177x_8x/Drivers/source/lpc177x_8x_lcd.c ****         {
 447:../src/lib/lpc177x_8x/Drivers/source/lpc177x_8x_lcd.c ****              *pByteDst++ = 0;
 1382              		.loc 1 447 0 discriminator 2
 1383 08dc 3B69     		ldr	r3, [r7, #16]
 1384 08de 4FF00002 		mov	r2, #0
 1385 08e2 1A70     		strb	r2, [r3, #0]
 1386 08e4 3B69     		ldr	r3, [r7, #16]
 1387 08e6 03F10103 		add	r3, r3, #1
 1388 08ea 3B61     		str	r3, [r7, #16]
 445:../src/lib/lpc177x_8x/Drivers/source/lpc177x_8x_lcd.c ****         for( i = 0; bytes_num > i; i++)
 1389              		.loc 1 445 0 discriminator 2
 1390 08ec BB68     		ldr	r3, [r7, #8]
 1391 08ee 03F10103 		add	r3, r3, #1
 1392 08f2 BB60     		str	r3, [r7, #8]
 1393              	.L77:
 445:../src/lib/lpc177x_8x/Drivers/source/lpc177x_8x_lcd.c ****         for( i = 0; bytes_num > i; i++)
 1394              		.loc 1 445 0 is_stmt 0 discriminator 1
 1395 08f4 BB68     		ldr	r3, [r7, #8]
 1396 08f6 FA68     		ldr	r2, [r7, #12]
 1397 08f8 9A42     		cmp	r2, r3
 1398 08fa EFD8     		bhi	.L78
 445:../src/lib/lpc177x_8x/Drivers/source/lpc177x_8x_lcd.c ****         for( i = 0; bytes_num > i; i++)
 1399              		.loc 1 445 0
 1400 08fc 17E0     		b	.L79
 1401              	.L76:
 448:../src/lib/lpc177x_8x/Drivers/source/lpc177x_8x_lcd.c ****         }
 449:../src/lib/lpc177x_8x/Drivers/source/lpc177x_8x_lcd.c ****     }
 450:../src/lib/lpc177x_8x/Drivers/source/lpc177x_8x_lcd.c ****     else
 451:../src/lib/lpc177x_8x/Drivers/source/lpc177x_8x_lcd.c ****     {
 452:../src/lib/lpc177x_8x/Drivers/source/lpc177x_8x_lcd.c ****         // set display memory
 453:../src/lib/lpc177x_8x/Drivers/source/lpc177x_8x_lcd.c ****         for(i = 0; bytes_num > i; i++)
 1402              		.loc 1 453 0 is_stmt 1
 1403 08fe 4FF00003 		mov	r3, #0
 1404 0902 BB60     		str	r3, [r7, #8]
 1405 0904 0FE0     		b	.L80
 1406              	.L81:
 454:../src/lib/lpc177x_8x/Drivers/source/lpc177x_8x_lcd.c ****         {
 455:../src/lib/lpc177x_8x/Drivers/source/lpc177x_8x_lcd.c ****             *pByteDst++ = *pPain++;
 1407              		.loc 1 455 0 discriminator 2
 1408 0906 3B68     		ldr	r3, [r7, #0]
 1409 0908 1A78     		ldrb	r2, [r3, #0]	@ zero_extendqisi2
 1410 090a 3B69     		ldr	r3, [r7, #16]
 1411 090c 1A70     		strb	r2, [r3, #0]
 1412 090e 3B69     		ldr	r3, [r7, #16]
 1413 0910 03F10103 		add	r3, r3, #1
 1414 0914 3B61     		str	r3, [r7, #16]
 1415 0916 3B68     		ldr	r3, [r7, #0]
 1416 0918 03F10103 		add	r3, r3, #1
 1417 091c 3B60     		str	r3, [r7, #0]
 453:../src/lib/lpc177x_8x/Drivers/source/lpc177x_8x_lcd.c ****         for(i = 0; bytes_num > i; i++)
 1418              		.loc 1 453 0 discriminator 2
 1419 091e BB68     		ldr	r3, [r7, #8]
 1420 0920 03F10103 		add	r3, r3, #1
 1421 0924 BB60     		str	r3, [r7, #8]
 1422              	.L80:
 453:../src/lib/lpc177x_8x/Drivers/source/lpc177x_8x_lcd.c ****         for(i = 0; bytes_num > i; i++)
 1423              		.loc 1 453 0 is_stmt 0 discriminator 1
 1424 0926 BB68     		ldr	r3, [r7, #8]
 1425 0928 FA68     		ldr	r2, [r7, #12]
 1426 092a 9A42     		cmp	r2, r3
 1427 092c EBD8     		bhi	.L81
 1428              	.L79:
 456:../src/lib/lpc177x_8x/Drivers/source/lpc177x_8x_lcd.c ****         }
 457:../src/lib/lpc177x_8x/Drivers/source/lpc177x_8x_lcd.c ****     }
 458:../src/lib/lpc177x_8x/Drivers/source/lpc177x_8x_lcd.c **** 
 459:../src/lib/lpc177x_8x/Drivers/source/lpc177x_8x_lcd.c ****     for(i = LCD_PWR_ENA_DIS_DLY; i; i--);
 1429              		.loc 1 459 0 is_stmt 1
 1430 092e 42F21073 		movw	r3, #10000
 1431 0932 BB60     		str	r3, [r7, #8]
 1432 0934 03E0     		b	.L82
 1433              	.L83:
 1434              		.loc 1 459 0 is_stmt 0 discriminator 2
 1435 0936 BB68     		ldr	r3, [r7, #8]
 1436 0938 03F1FF33 		add	r3, r3, #-1
 1437 093c BB60     		str	r3, [r7, #8]
 1438              	.L82:
 1439              		.loc 1 459 0 discriminator 1
 1440 093e BB68     		ldr	r3, [r7, #8]
 1441 0940 002B     		cmp	r3, #0
 1442 0942 F8D1     		bne	.L83
 460:../src/lib/lpc177x_8x/Drivers/source/lpc177x_8x_lcd.c **** }
 1443              		.loc 1 460 0 is_stmt 1
 1444 0944 07F11C07 		add	r7, r7, #28
 1445 0948 BD46     		mov	sp, r7
 1446 094a 80BC     		pop	{r7}
 1447 094c 7047     		bx	lr
 1448              	.L85:
 1449 094e 00BF     		.align	2
 1450              	.L84:
 1451 0950 00800820 		.word	537427968
 1452 0954 00000000 		.word	lcd_hsize
 1453 0958 00000000 		.word	lcd_vsize
 1454 095c 00000000 		.word	lcd_config
 1455 0960 04000000 		.word	bits_per_pixel
 1456              		.cfi_endproc
 1457              	.LFE65:
 1459              		.align	2
 1460              		.global	LCD_PutPixel
 1461              		.thumb
 1462              		.thumb_func
 1464              	LCD_PutPixel:
 1465              	.LFB66:
 461:../src/lib/lpc177x_8x/Drivers/source/lpc177x_8x_lcd.c **** /*********************************************************************//**
 462:../src/lib/lpc177x_8x/Drivers/source/lpc177x_8x_lcd.c ****  * @brief       Draw a pixel on the given panel.
 463:../src/lib/lpc177x_8x/Drivers/source/lpc177x_8x_lcd.c ****  *
 464:../src/lib/lpc177x_8x/Drivers/source/lpc177x_8x_lcd.c ****  * @param[in] panel          It can be:
 465:../src/lib/lpc177x_8x/Drivers/source/lpc177x_8x_lcd.c ****  *                                             - LCD_PANEL_UPPER
 466:../src/lib/lpc177x_8x/Drivers/source/lpc177x_8x_lcd.c ****  *                                             - LCD_PANEL_LOWER
 467:../src/lib/lpc177x_8x/Drivers/source/lpc177x_8x_lcd.c ****  * @param[in] X_Left        X position.
 468:../src/lib/lpc177x_8x/Drivers/source/lpc177x_8x_lcd.c ****  * @param[in] Y_Up          Y position.
 469:../src/lib/lpc177x_8x/Drivers/source/lpc177x_8x_lcd.c ****  * @param[in] color         Color which is placed to the given pixel.
 470:../src/lib/lpc177x_8x/Drivers/source/lpc177x_8x_lcd.c ****  *
 471:../src/lib/lpc177x_8x/Drivers/source/lpc177x_8x_lcd.c ****  * @return  None.
 472:../src/lib/lpc177x_8x/Drivers/source/lpc177x_8x_lcd.c ****  *
 473:../src/lib/lpc177x_8x/Drivers/source/lpc177x_8x_lcd.c ****  **********************************************************************/
 474:../src/lib/lpc177x_8x/Drivers/source/lpc177x_8x_lcd.c **** void LCD_PutPixel (LCD_PANEL panel, uint32_t X_Left, uint32_t Y_Up, LcdPixel_t color)
 475:../src/lib/lpc177x_8x/Drivers/source/lpc177x_8x_lcd.c **** {
 1466              		.loc 1 475 0
 1467              		.cfi_startproc
 1468              		@ args = 0, pretend = 0, frame = 48
 1469              		@ frame_needed = 1, uses_anonymous_args = 0
 1470 0964 80B5     		push	{r7, lr}
 1471              	.LCFI33:
 1472              		.cfi_def_cfa_offset 8
 1473              		.cfi_offset 7, -8
 1474              		.cfi_offset 14, -4
 1475 0966 8CB0     		sub	sp, sp, #48
 1476              	.LCFI34:
 1477              		.cfi_def_cfa_offset 56
 1478 0968 00AF     		add	r7, sp, #0
 1479              	.LCFI35:
 1480              		.cfi_def_cfa_register 7
 1481 096a B960     		str	r1, [r7, #8]
 1482 096c 7A60     		str	r2, [r7, #4]
 1483 096e 3B60     		str	r3, [r7, #0]
 1484 0970 0346     		mov	r3, r0
 1485 0972 FB73     		strb	r3, [r7, #15]
 476:../src/lib/lpc177x_8x/Drivers/source/lpc177x_8x_lcd.c ****     uint32_t k;
 477:../src/lib/lpc177x_8x/Drivers/source/lpc177x_8x_lcd.c ****     uint32_t * pWordData = NULL;
 1486              		.loc 1 477 0
 1487 0974 4FF00003 		mov	r3, #0
 1488 0978 BB62     		str	r3, [r7, #40]
 478:../src/lib/lpc177x_8x/Drivers/source/lpc177x_8x_lcd.c ****     uint8_t*   pByteData = NULL;
 1489              		.loc 1 478 0
 1490 097a 4FF00003 		mov	r3, #0
 1491 097e FB61     		str	r3, [r7, #28]
 479:../src/lib/lpc177x_8x/Drivers/source/lpc177x_8x_lcd.c ****     uint32_t  bitOffset;
 480:../src/lib/lpc177x_8x/Drivers/source/lpc177x_8x_lcd.c ****     uint8_t*   pByteSrc = (uint8_t*)&color;
 1492              		.loc 1 480 0
 1493 0980 3B46     		mov	r3, r7
 1494 0982 7B62     		str	r3, [r7, #36]
 481:../src/lib/lpc177x_8x/Drivers/source/lpc177x_8x_lcd.c ****     uint8_t  bpp = bits_per_pixel[lcd_config.lcd_bpp];
 1495              		.loc 1 481 0
 1496 0984 524B     		ldr	r3, .L98
 1497 0986 1B7E     		ldrb	r3, [r3, #24]	@ zero_extendqisi2
 1498 0988 524A     		ldr	r2, .L98+4
 1499 098a D35C     		ldrb	r3, [r2, r3]
 1500 098c FB76     		strb	r3, [r7, #27]
 482:../src/lib/lpc177x_8x/Drivers/source/lpc177x_8x_lcd.c ****     uint8_t  bytes_per_pixel = bpp/8;
 1501              		.loc 1 482 0
 1502 098e FB7E     		ldrb	r3, [r7, #27]	@ zero_extendqisi2
 1503 0990 4FEAD303 		lsr	r3, r3, #3
 1504 0994 BB76     		strb	r3, [r7, #26]
 483:../src/lib/lpc177x_8x/Drivers/source/lpc177x_8x_lcd.c ****     uint32_t start_bit;
 484:../src/lib/lpc177x_8x/Drivers/source/lpc177x_8x_lcd.c ****   
 485:../src/lib/lpc177x_8x/Drivers/source/lpc177x_8x_lcd.c ****     if((X_Left >= lcd_hsize)||(Y_Up >= lcd_vsize))
 1505              		.loc 1 485 0
 1506 0996 504B     		ldr	r3, .L98+8
 1507 0998 1B68     		ldr	r3, [r3, #0]
 1508 099a BA68     		ldr	r2, [r7, #8]
 1509 099c 9A42     		cmp	r2, r3
 1510 099e 80F09180 		bcs	.L97
 1511              		.loc 1 485 0 is_stmt 0 discriminator 1
 1512 09a2 4E4B     		ldr	r3, .L98+12
 1513 09a4 1B68     		ldr	r3, [r3, #0]
 1514 09a6 7A68     		ldr	r2, [r7, #4]
 1515 09a8 9A42     		cmp	r2, r3
 1516 09aa 80F08B80 		bcs	.L97
 1517              	.L88:
 486:../src/lib/lpc177x_8x/Drivers/source/lpc177x_8x_lcd.c ****         return;
 487:../src/lib/lpc177x_8x/Drivers/source/lpc177x_8x_lcd.c **** 
 488:../src/lib/lpc177x_8x/Drivers/source/lpc177x_8x_lcd.c ****     if(panel == LCD_PANEL_UPPER)
 1518              		.loc 1 488 0 is_stmt 1
 1519 09ae FB7B     		ldrb	r3, [r7, #15]	@ zero_extendqisi2
 1520 09b0 002B     		cmp	r3, #0
 1521 09b2 0BD1     		bne	.L90
 489:../src/lib/lpc177x_8x/Drivers/source/lpc177x_8x_lcd.c ****     pWordData = (uint32_t*) LPC_LCD->UPBASE + LCD_GetWordOffset(X_Left,Y_Up);
 1522              		.loc 1 489 0
 1523 09b4 B868     		ldr	r0, [r7, #8]
 1524 09b6 7968     		ldr	r1, [r7, #4]
 1525 09b8 FFF7FEFF 		bl	LCD_GetWordOffset
 1526 09bc 0346     		mov	r3, r0
 1527 09be 4FEA8302 		lsl	r2, r3, #2
 1528 09c2 474B     		ldr	r3, .L98+16
 1529 09c4 1B69     		ldr	r3, [r3, #16]
 1530 09c6 D318     		adds	r3, r2, r3
 1531 09c8 BB62     		str	r3, [r7, #40]
 1532 09ca 0AE0     		b	.L91
 1533              	.L90:
 490:../src/lib/lpc177x_8x/Drivers/source/lpc177x_8x_lcd.c ****     else
 491:../src/lib/lpc177x_8x/Drivers/source/lpc177x_8x_lcd.c ****     pWordData = (uint32_t*) LPC_LCD->LPBASE + LCD_GetWordOffset(X_Left,Y_Up);
 1534              		.loc 1 491 0
 1535 09cc B868     		ldr	r0, [r7, #8]
 1536 09ce 7968     		ldr	r1, [r7, #4]
 1537 09d0 FFF7FEFF 		bl	LCD_GetWordOffset
 1538 09d4 0346     		mov	r3, r0
 1539 09d6 4FEA8302 		lsl	r2, r3, #2
 1540 09da 414B     		ldr	r3, .L98+16
 1541 09dc 5B69     		ldr	r3, [r3, #20]
 1542 09de D318     		adds	r3, r2, r3
 1543 09e0 BB62     		str	r3, [r7, #40]
 1544              	.L91:
 492:../src/lib/lpc177x_8x/Drivers/source/lpc177x_8x_lcd.c ****     
 493:../src/lib/lpc177x_8x/Drivers/source/lpc177x_8x_lcd.c ****     bitOffset = LCD_GetBitOffset(X_Left,Y_Up);
 1545              		.loc 1 493 0
 1546 09e2 B868     		ldr	r0, [r7, #8]
 1547 09e4 7968     		ldr	r1, [r7, #4]
 1548 09e6 FFF7FEFF 		bl	LCD_GetBitOffset
 1549 09ea 7861     		str	r0, [r7, #20]
 494:../src/lib/lpc177x_8x/Drivers/source/lpc177x_8x_lcd.c ****     pByteData = (uint8_t*) pWordData;
 1550              		.loc 1 494 0
 1551 09ec BB6A     		ldr	r3, [r7, #40]
 1552 09ee FB61     		str	r3, [r7, #28]
 495:../src/lib/lpc177x_8x/Drivers/source/lpc177x_8x_lcd.c ****     pByteData += bitOffset/8;
 1553              		.loc 1 495 0
 1554 09f0 7B69     		ldr	r3, [r7, #20]
 1555 09f2 4FEAD303 		lsr	r3, r3, #3
 1556 09f6 FA69     		ldr	r2, [r7, #28]
 1557 09f8 D318     		adds	r3, r2, r3
 1558 09fa FB61     		str	r3, [r7, #28]
 496:../src/lib/lpc177x_8x/Drivers/source/lpc177x_8x_lcd.c ****     
 497:../src/lib/lpc177x_8x/Drivers/source/lpc177x_8x_lcd.c ****     start_bit =  bitOffset%8;
 1559              		.loc 1 497 0
 1560 09fc 7B69     		ldr	r3, [r7, #20]
 1561 09fe 03F00703 		and	r3, r3, #7
 1562 0a02 3B61     		str	r3, [r7, #16]
 498:../src/lib/lpc177x_8x/Drivers/source/lpc177x_8x_lcd.c **** 
 499:../src/lib/lpc177x_8x/Drivers/source/lpc177x_8x_lcd.c ****     if(bpp < 8)
 1563              		.loc 1 499 0
 1564 0a04 FB7E     		ldrb	r3, [r7, #27]	@ zero_extendqisi2
 1565 0a06 072B     		cmp	r3, #7
 1566 0a08 45D8     		bhi	.L92
 1567              	.LBB2:
 500:../src/lib/lpc177x_8x/Drivers/source/lpc177x_8x_lcd.c ****     {
 501:../src/lib/lpc177x_8x/Drivers/source/lpc177x_8x_lcd.c ****       uint8_t bit_pos = start_bit;
 1568              		.loc 1 501 0
 1569 0a0a 3B69     		ldr	r3, [r7, #16]
 1570 0a0c 87F82330 		strb	r3, [r7, #35]
 502:../src/lib/lpc177x_8x/Drivers/source/lpc177x_8x_lcd.c ****       uint8_t bit_ofs = 0;
 1571              		.loc 1 502 0
 1572 0a10 4FF00003 		mov	r3, #0
 1573 0a14 87F82230 		strb	r3, [r7, #34]
 503:../src/lib/lpc177x_8x/Drivers/source/lpc177x_8x_lcd.c ****       for(bit_ofs = 0;bit_ofs <bpp; bit_ofs++,bit_pos++)
 1574              		.loc 1 503 0
 1575 0a18 4FF00003 		mov	r3, #0
 1576 0a1c 87F82230 		strb	r3, [r7, #34]
 1577 0a20 33E0     		b	.L93
 1578              	.L94:
 504:../src/lib/lpc177x_8x/Drivers/source/lpc177x_8x_lcd.c ****       {
 505:../src/lib/lpc177x_8x/Drivers/source/lpc177x_8x_lcd.c ****           *pByteData &= ~ (0x01 << bit_pos);
 1579              		.loc 1 505 0 discriminator 2
 1580 0a22 FB69     		ldr	r3, [r7, #28]
 1581 0a24 1B78     		ldrb	r3, [r3, #0]	@ zero_extendqisi2
 1582 0a26 DAB2     		uxtb	r2, r3
 1583 0a28 97F82330 		ldrb	r3, [r7, #35]	@ zero_extendqisi2
 1584 0a2c 4FF00101 		mov	r1, #1
 1585 0a30 01FA03F3 		lsl	r3, r1, r3
 1586 0a34 DBB2     		uxtb	r3, r3
 1587 0a36 6FEA0303 		mvn	r3, r3
 1588 0a3a DBB2     		uxtb	r3, r3
 1589 0a3c 1340     		ands	r3, r3, r2
 1590 0a3e DBB2     		uxtb	r3, r3
 1591 0a40 DAB2     		uxtb	r2, r3
 1592 0a42 FB69     		ldr	r3, [r7, #28]
 1593 0a44 1A70     		strb	r2, [r3, #0]
 506:../src/lib/lpc177x_8x/Drivers/source/lpc177x_8x_lcd.c ****           *pByteData |= ((*pByteSrc >> (bit_ofs)) & 0x01) << bit_pos; 
 1594              		.loc 1 506 0 discriminator 2
 1595 0a46 FB69     		ldr	r3, [r7, #28]
 1596 0a48 1B78     		ldrb	r3, [r3, #0]	@ zero_extendqisi2
 1597 0a4a DAB2     		uxtb	r2, r3
 1598 0a4c 7B6A     		ldr	r3, [r7, #36]
 1599 0a4e 1B78     		ldrb	r3, [r3, #0]	@ zero_extendqisi2
 1600 0a50 1946     		mov	r1, r3
 1601 0a52 97F82230 		ldrb	r3, [r7, #34]	@ zero_extendqisi2
 1602 0a56 41FA03F3 		asr	r3, r1, r3
 1603 0a5a 03F00101 		and	r1, r3, #1
 1604 0a5e 97F82330 		ldrb	r3, [r7, #35]	@ zero_extendqisi2
 1605 0a62 01FA03F3 		lsl	r3, r1, r3
 1606 0a66 DBB2     		uxtb	r3, r3
 1607 0a68 1343     		orrs	r3, r3, r2
 1608 0a6a DBB2     		uxtb	r3, r3
 1609 0a6c DAB2     		uxtb	r2, r3
 1610 0a6e FB69     		ldr	r3, [r7, #28]
 1611 0a70 1A70     		strb	r2, [r3, #0]
 503:../src/lib/lpc177x_8x/Drivers/source/lpc177x_8x_lcd.c ****       for(bit_ofs = 0;bit_ofs <bpp; bit_ofs++,bit_pos++)
 1612              		.loc 1 503 0 discriminator 2
 1613 0a72 97F82230 		ldrb	r3, [r7, #34]
 1614 0a76 03F10103 		add	r3, r3, #1
 1615 0a7a 87F82230 		strb	r3, [r7, #34]
 1616 0a7e 97F82330 		ldrb	r3, [r7, #35]
 1617 0a82 03F10103 		add	r3, r3, #1
 1618 0a86 87F82330 		strb	r3, [r7, #35]
 1619              	.L93:
 503:../src/lib/lpc177x_8x/Drivers/source/lpc177x_8x_lcd.c ****       for(bit_ofs = 0;bit_ofs <bpp; bit_ofs++,bit_pos++)
 1620              		.loc 1 503 0 is_stmt 0 discriminator 1
 1621 0a8a 97F82220 		ldrb	r2, [r7, #34]	@ zero_extendqisi2
 1622 0a8e FB7E     		ldrb	r3, [r7, #27]	@ zero_extendqisi2
 1623 0a90 9A42     		cmp	r2, r3
 1624 0a92 C6D3     		bcc	.L94
 503:../src/lib/lpc177x_8x/Drivers/source/lpc177x_8x_lcd.c ****       for(bit_ofs = 0;bit_ofs <bpp; bit_ofs++,bit_pos++)
 1625              		.loc 1 503 0
 1626 0a94 17E0     		b	.L86
 1627              	.L92:
 1628              	.LBE2:
 507:../src/lib/lpc177x_8x/Drivers/source/lpc177x_8x_lcd.c ****       }
 508:../src/lib/lpc177x_8x/Drivers/source/lpc177x_8x_lcd.c ****     }
 509:../src/lib/lpc177x_8x/Drivers/source/lpc177x_8x_lcd.c ****     else
 510:../src/lib/lpc177x_8x/Drivers/source/lpc177x_8x_lcd.c ****     {
 511:../src/lib/lpc177x_8x/Drivers/source/lpc177x_8x_lcd.c ****          for(k = 0; k < bytes_per_pixel; k++)
 1629              		.loc 1 511 0 is_stmt 1
 1630 0a96 4FF00003 		mov	r3, #0
 1631 0a9a FB62     		str	r3, [r7, #44]
 1632 0a9c 0DE0     		b	.L95
 1633              	.L96:
 512:../src/lib/lpc177x_8x/Drivers/source/lpc177x_8x_lcd.c ****         {
 513:../src/lib/lpc177x_8x/Drivers/source/lpc177x_8x_lcd.c ****            *(pByteData+ k) = *pByteSrc++;
 1634              		.loc 1 513 0 discriminator 2
 1635 0a9e FA69     		ldr	r2, [r7, #28]
 1636 0aa0 FB6A     		ldr	r3, [r7, #44]
 1637 0aa2 D318     		adds	r3, r2, r3
 1638 0aa4 7A6A     		ldr	r2, [r7, #36]
 1639 0aa6 1278     		ldrb	r2, [r2, #0]	@ zero_extendqisi2
 1640 0aa8 1A70     		strb	r2, [r3, #0]
 1641 0aaa 7B6A     		ldr	r3, [r7, #36]
 1642 0aac 03F10103 		add	r3, r3, #1
 1643 0ab0 7B62     		str	r3, [r7, #36]
 511:../src/lib/lpc177x_8x/Drivers/source/lpc177x_8x_lcd.c ****          for(k = 0; k < bytes_per_pixel; k++)
 1644              		.loc 1 511 0 discriminator 2
 1645 0ab2 FB6A     		ldr	r3, [r7, #44]
 1646 0ab4 03F10103 		add	r3, r3, #1
 1647 0ab8 FB62     		str	r3, [r7, #44]
 1648              	.L95:
 511:../src/lib/lpc177x_8x/Drivers/source/lpc177x_8x_lcd.c ****          for(k = 0; k < bytes_per_pixel; k++)
 1649              		.loc 1 511 0 is_stmt 0 discriminator 1
 1650 0aba BA7E     		ldrb	r2, [r7, #26]	@ zero_extendqisi2
 1651 0abc FB6A     		ldr	r3, [r7, #44]
 1652 0abe 9A42     		cmp	r2, r3
 1653 0ac0 EDD8     		bhi	.L96
 1654 0ac2 00E0     		b	.L86
 1655              	.L97:
 486:../src/lib/lpc177x_8x/Drivers/source/lpc177x_8x_lcd.c ****         return;
 1656              		.loc 1 486 0 is_stmt 1
 1657 0ac4 00BF     		nop
 1658              	.L86:
 514:../src/lib/lpc177x_8x/Drivers/source/lpc177x_8x_lcd.c ****         }
 515:../src/lib/lpc177x_8x/Drivers/source/lpc177x_8x_lcd.c ****     }
 516:../src/lib/lpc177x_8x/Drivers/source/lpc177x_8x_lcd.c **** }
 1659              		.loc 1 516 0
 1660 0ac6 07F13007 		add	r7, r7, #48
 1661 0aca BD46     		mov	sp, r7
 1662 0acc 80BD     		pop	{r7, pc}
 1663              	.L99:
 1664 0ace 00BF     		.align	2
 1665              	.L98:
 1666 0ad0 00000000 		.word	lcd_config
 1667 0ad4 04000000 		.word	bits_per_pixel
 1668 0ad8 00000000 		.word	lcd_hsize
 1669 0adc 00000000 		.word	lcd_vsize
 1670 0ae0 00800820 		.word	537427968
 1671              		.cfi_endproc
 1672              	.LFE66:
 1674              		.align	2
 1675              		.global	LCD_LoadPic
 1676              		.thumb
 1677              		.thumb_func
 1679              	LCD_LoadPic:
 1680              	.LFB67:
 517:../src/lib/lpc177x_8x/Drivers/source/lpc177x_8x_lcd.c **** /*********************************************************************//**
 518:../src/lib/lpc177x_8x/Drivers/source/lpc177x_8x_lcd.c ****  * @brief       Place given image to given position.
 519:../src/lib/lpc177x_8x/Drivers/source/lpc177x_8x_lcd.c ****  *
 520:../src/lib/lpc177x_8x/Drivers/source/lpc177x_8x_lcd.c ****  * @param[in] panel          It can be:
 521:../src/lib/lpc177x_8x/Drivers/source/lpc177x_8x_lcd.c ****  *                                             - LCD_PANEL_UPPER
 522:../src/lib/lpc177x_8x/Drivers/source/lpc177x_8x_lcd.c ****  *                                             - LCD_PANEL_LOWER
 523:../src/lib/lpc177x_8x/Drivers/source/lpc177x_8x_lcd.c ****  * @param[in] X_Left        Start X position.
 524:../src/lib/lpc177x_8x/Drivers/source/lpc177x_8x_lcd.c ****  * @param[in] Y_Up          Start Y position.
 525:../src/lib/lpc177x_8x/Drivers/source/lpc177x_8x_lcd.c ****  * @param[in] pBmp          Image information. 
 526:../src/lib/lpc177x_8x/Drivers/source/lpc177x_8x_lcd.c ****  * @param[in] Mask          Mask on pixel values.
 527:../src/lib/lpc177x_8x/Drivers/source/lpc177x_8x_lcd.c ****  *
 528:../src/lib/lpc177x_8x/Drivers/source/lpc177x_8x_lcd.c ****  * @return  None.
 529:../src/lib/lpc177x_8x/Drivers/source/lpc177x_8x_lcd.c ****  *
 530:../src/lib/lpc177x_8x/Drivers/source/lpc177x_8x_lcd.c ****  **********************************************************************/
 531:../src/lib/lpc177x_8x/Drivers/source/lpc177x_8x_lcd.c **** void LCD_LoadPic (LCD_PANEL panel, uint32_t X_Left, uint32_t Y_Up, 
 532:../src/lib/lpc177x_8x/Drivers/source/lpc177x_8x_lcd.c ****                         Bmp_t * pBmp, uint32_t Mask)
 533:../src/lib/lpc177x_8x/Drivers/source/lpc177x_8x_lcd.c **** {
 1681              		.loc 1 533 0
 1682              		.cfi_startproc
 1683              		@ args = 4, pretend = 0, frame = 72
 1684              		@ frame_needed = 1, uses_anonymous_args = 0
 1685 0ae4 80B5     		push	{r7, lr}
 1686              	.LCFI36:
 1687              		.cfi_def_cfa_offset 8
 1688              		.cfi_offset 7, -8
 1689              		.cfi_offset 14, -4
 1690 0ae6 92B0     		sub	sp, sp, #72
 1691              	.LCFI37:
 1692              		.cfi_def_cfa_offset 80
 1693 0ae8 00AF     		add	r7, sp, #0
 1694              	.LCFI38:
 1695              		.cfi_def_cfa_register 7
 1696 0aea B960     		str	r1, [r7, #8]
 1697 0aec 7A60     		str	r2, [r7, #4]
 1698 0aee 3B60     		str	r3, [r7, #0]
 1699 0af0 0346     		mov	r3, r0
 1700 0af2 FB73     		strb	r3, [r7, #15]
 534:../src/lib/lpc177x_8x/Drivers/source/lpc177x_8x_lcd.c ****   uint32_t i, j, k, inc;
 535:../src/lib/lpc177x_8x/Drivers/source/lpc177x_8x_lcd.c ****   uint32_t * pWordData = NULL;
 1701              		.loc 1 535 0
 1702 0af4 4FF00003 		mov	r3, #0
 1703 0af8 BB63     		str	r3, [r7, #56]
 536:../src/lib/lpc177x_8x/Drivers/source/lpc177x_8x_lcd.c ****   uint8_t*   pByteData = NULL;
 1704              		.loc 1 536 0
 1705 0afa 4FF00003 		mov	r3, #0
 1706 0afe 7B63     		str	r3, [r7, #52]
 537:../src/lib/lpc177x_8x/Drivers/source/lpc177x_8x_lcd.c ****   uint32_t  bitOffset;
 538:../src/lib/lpc177x_8x/Drivers/source/lpc177x_8x_lcd.c ****   uint8_t*   pByteSrc = (uint8_t*) pBmp->pPicStream;
 1707              		.loc 1 538 0
 1708 0b00 3B68     		ldr	r3, [r7, #0]
 1709 0b02 5B69     		ldr	r3, [r3, #20]
 1710 0b04 3B63     		str	r3, [r7, #48]
 539:../src/lib/lpc177x_8x/Drivers/source/lpc177x_8x_lcd.c ****   uint32_t X_LeftHold = X_Left;
 1711              		.loc 1 539 0
 1712 0b06 BB68     		ldr	r3, [r7, #8]
 1713 0b08 FB62     		str	r3, [r7, #44]
 540:../src/lib/lpc177x_8x/Drivers/source/lpc177x_8x_lcd.c ****   uint8_t  bpp = bits_per_pixel[lcd_config.lcd_bpp];
 1714              		.loc 1 540 0
 1715 0b0a 9F4B     		ldr	r3, .L136
 1716 0b0c 1B7E     		ldrb	r3, [r3, #24]	@ zero_extendqisi2
 1717 0b0e 9F4A     		ldr	r2, .L136+4
 1718 0b10 D35C     		ldrb	r3, [r2, r3]
 1719 0b12 87F82930 		strb	r3, [r7, #41]
 541:../src/lib/lpc177x_8x/Drivers/source/lpc177x_8x_lcd.c ****   uint8_t  bytes_per_pixel = bpp/8;
 1720              		.loc 1 541 0
 1721 0b16 97F82930 		ldrb	r3, [r7, #41]	@ zero_extendqisi2
 1722 0b1a 4FEAD303 		lsr	r3, r3, #3
 1723 0b1e 87F82830 		strb	r3, [r7, #40]
 542:../src/lib/lpc177x_8x/Drivers/source/lpc177x_8x_lcd.c ****   uint8_t  pixels_per_byte = 8/bpp;
 1724              		.loc 1 542 0
 1725 0b22 97F82930 		ldrb	r3, [r7, #41]	@ zero_extendqisi2
 1726 0b26 4FF00802 		mov	r2, #8
 1727 0b2a 92FBF3F3 		sdiv	r3, r2, r3
 1728 0b2e 87F82730 		strb	r3, [r7, #39]
 543:../src/lib/lpc177x_8x/Drivers/source/lpc177x_8x_lcd.c ****   uint32_t hsize, vsize;
 544:../src/lib/lpc177x_8x/Drivers/source/lpc177x_8x_lcd.c ****   uint32_t start_bit;
 545:../src/lib/lpc177x_8x/Drivers/source/lpc177x_8x_lcd.c **** 
 546:../src/lib/lpc177x_8x/Drivers/source/lpc177x_8x_lcd.c ****   if(pBmp->BytesPP == 0)
 1729              		.loc 1 546 0
 1730 0b32 3B68     		ldr	r3, [r7, #0]
 1731 0b34 DB68     		ldr	r3, [r3, #12]
 1732 0b36 002B     		cmp	r3, #0
 1733 0b38 03D1     		bne	.L101
 547:../src/lib/lpc177x_8x/Drivers/source/lpc177x_8x_lcd.c ****     pBmp->BytesPP = bytes_per_pixel;
 1734              		.loc 1 547 0
 1735 0b3a 97F82820 		ldrb	r2, [r7, #40]	@ zero_extendqisi2
 1736 0b3e 3B68     		ldr	r3, [r7, #0]
 1737 0b40 DA60     		str	r2, [r3, #12]
 1738              	.L101:
 548:../src/lib/lpc177x_8x/Drivers/source/lpc177x_8x_lcd.c ****          
 549:../src/lib/lpc177x_8x/Drivers/source/lpc177x_8x_lcd.c ****   hsize = pBmp->H_Size;
 1739              		.loc 1 549 0
 1740 0b42 3B68     		ldr	r3, [r7, #0]
 1741 0b44 1B68     		ldr	r3, [r3, #0]
 1742 0b46 3B62     		str	r3, [r7, #32]
 550:../src/lib/lpc177x_8x/Drivers/source/lpc177x_8x_lcd.c ****   vsize = pBmp->V_Size;
 1743              		.loc 1 550 0
 1744 0b48 3B68     		ldr	r3, [r7, #0]
 1745 0b4a 5B68     		ldr	r3, [r3, #4]
 1746 0b4c FB61     		str	r3, [r7, #28]
 551:../src/lib/lpc177x_8x/Drivers/source/lpc177x_8x_lcd.c ****   inc = (pixels_per_byte > 0) ? pixels_per_byte:1;
 1747              		.loc 1 551 0
 1748 0b4e 97F82730 		ldrb	r3, [r7, #39]	@ zero_extendqisi2
 1749 0b52 002B     		cmp	r3, #0
 1750 0b54 02D0     		beq	.L102
 1751              		.loc 1 551 0 is_stmt 0 discriminator 1
 1752 0b56 97F82730 		ldrb	r3, [r7, #39]	@ zero_extendqisi2
 1753 0b5a 01E0     		b	.L103
 1754              	.L102:
 1755              		.loc 1 551 0 discriminator 2
 1756 0b5c 4FF00103 		mov	r3, #1
 1757              	.L103:
 1758              		.loc 1 551 0 discriminator 3
 1759 0b60 BB61     		str	r3, [r7, #24]
 552:../src/lib/lpc177x_8x/Drivers/source/lpc177x_8x_lcd.c ****    
 553:../src/lib/lpc177x_8x/Drivers/source/lpc177x_8x_lcd.c ****   for(i = 0; i < vsize; i++)
 1760              		.loc 1 553 0 is_stmt 1 discriminator 3
 1761 0b62 4FF00003 		mov	r3, #0
 1762 0b66 7B64     		str	r3, [r7, #68]
 1763 0b68 97E1     		b	.L104
 1764              	.L134:
 554:../src/lib/lpc177x_8x/Drivers/source/lpc177x_8x_lcd.c ****   {
 555:../src/lib/lpc177x_8x/Drivers/source/lpc177x_8x_lcd.c ****     if(panel == LCD_PANEL_UPPER)
 1765              		.loc 1 555 0
 1766 0b6a FB7B     		ldrb	r3, [r7, #15]	@ zero_extendqisi2
 1767 0b6c 002B     		cmp	r3, #0
 1768 0b6e 0BD1     		bne	.L105
 556:../src/lib/lpc177x_8x/Drivers/source/lpc177x_8x_lcd.c ****     pWordData = (uint32_t*) LPC_LCD->UPBASE + LCD_GetWordOffset(X_Left,Y_Up);
 1769              		.loc 1 556 0
 1770 0b70 B868     		ldr	r0, [r7, #8]
 1771 0b72 7968     		ldr	r1, [r7, #4]
 1772 0b74 FFF7FEFF 		bl	LCD_GetWordOffset
 1773 0b78 0346     		mov	r3, r0
 1774 0b7a 4FEA8302 		lsl	r2, r3, #2
 1775 0b7e 844B     		ldr	r3, .L136+8
 1776 0b80 1B69     		ldr	r3, [r3, #16]
 1777 0b82 D318     		adds	r3, r2, r3
 1778 0b84 BB63     		str	r3, [r7, #56]
 1779 0b86 0AE0     		b	.L106
 1780              	.L105:
 557:../src/lib/lpc177x_8x/Drivers/source/lpc177x_8x_lcd.c ****     else
 558:../src/lib/lpc177x_8x/Drivers/source/lpc177x_8x_lcd.c ****     pWordData = (uint32_t*) LPC_LCD->LPBASE + LCD_GetWordOffset(X_Left,Y_Up);
 1781              		.loc 1 558 0
 1782 0b88 B868     		ldr	r0, [r7, #8]
 1783 0b8a 7968     		ldr	r1, [r7, #4]
 1784 0b8c FFF7FEFF 		bl	LCD_GetWordOffset
 1785 0b90 0346     		mov	r3, r0
 1786 0b92 4FEA8302 		lsl	r2, r3, #2
 1787 0b96 7E4B     		ldr	r3, .L136+8
 1788 0b98 5B69     		ldr	r3, [r3, #20]
 1789 0b9a D318     		adds	r3, r2, r3
 1790 0b9c BB63     		str	r3, [r7, #56]
 1791              	.L106:
 559:../src/lib/lpc177x_8x/Drivers/source/lpc177x_8x_lcd.c **** 
 560:../src/lib/lpc177x_8x/Drivers/source/lpc177x_8x_lcd.c ****     bitOffset = LCD_GetBitOffset(X_Left,Y_Up);
 1792              		.loc 1 560 0
 1793 0b9e B868     		ldr	r0, [r7, #8]
 1794 0ba0 7968     		ldr	r1, [r7, #4]
 1795 0ba2 FFF7FEFF 		bl	LCD_GetBitOffset
 1796 0ba6 7861     		str	r0, [r7, #20]
 561:../src/lib/lpc177x_8x/Drivers/source/lpc177x_8x_lcd.c ****     pByteData = (uint8_t*) pWordData;
 1797              		.loc 1 561 0
 1798 0ba8 BB6B     		ldr	r3, [r7, #56]
 1799 0baa 7B63     		str	r3, [r7, #52]
 562:../src/lib/lpc177x_8x/Drivers/source/lpc177x_8x_lcd.c ****     pByteData += bitOffset/8;
 1800              		.loc 1 562 0
 1801 0bac 7B69     		ldr	r3, [r7, #20]
 1802 0bae 4FEAD303 		lsr	r3, r3, #3
 1803 0bb2 7A6B     		ldr	r2, [r7, #52]
 1804 0bb4 D318     		adds	r3, r2, r3
 1805 0bb6 7B63     		str	r3, [r7, #52]
 563:../src/lib/lpc177x_8x/Drivers/source/lpc177x_8x_lcd.c ****     
 564:../src/lib/lpc177x_8x/Drivers/source/lpc177x_8x_lcd.c ****     start_bit =  bitOffset%8;
 1806              		.loc 1 564 0
 1807 0bb8 7B69     		ldr	r3, [r7, #20]
 1808 0bba 03F00703 		and	r3, r3, #7
 1809 0bbe 3B61     		str	r3, [r7, #16]
 565:../src/lib/lpc177x_8x/Drivers/source/lpc177x_8x_lcd.c ****   
 566:../src/lib/lpc177x_8x/Drivers/source/lpc177x_8x_lcd.c ****     if(pBmp->BytesPP > 0)
 1810              		.loc 1 566 0
 1811 0bc0 3B68     		ldr	r3, [r7, #0]
 1812 0bc2 DB68     		ldr	r3, [r3, #12]
 1813 0bc4 002B     		cmp	r3, #0
 1814 0bc6 0CD0     		beq	.L107
 567:../src/lib/lpc177x_8x/Drivers/source/lpc177x_8x_lcd.c ****     pByteSrc = (uint8_t*) pBmp->pPicStream + i*hsize*pBmp->BytesPP; // storage of each line must be
 1815              		.loc 1 567 0
 1816 0bc8 3B68     		ldr	r3, [r7, #0]
 1817 0bca 5A69     		ldr	r2, [r3, #20]
 1818 0bcc 7B6C     		ldr	r3, [r7, #68]
 1819 0bce 396A     		ldr	r1, [r7, #32]
 1820 0bd0 01FB03F3 		mul	r3, r1, r3
 1821 0bd4 3968     		ldr	r1, [r7, #0]
 1822 0bd6 C968     		ldr	r1, [r1, #12]
 1823 0bd8 01FB03F3 		mul	r3, r1, r3
 1824 0bdc D318     		adds	r3, r2, r3
 1825 0bde 3B63     		str	r3, [r7, #48]
 1826 0be0 0FE0     		b	.L108
 1827              	.L107:
 568:../src/lib/lpc177x_8x/Drivers/source/lpc177x_8x_lcd.c ****     else
 569:../src/lib/lpc177x_8x/Drivers/source/lpc177x_8x_lcd.c ****     pByteSrc = (uint8_t*) pBmp->pPicStream + (i*hsize*pBmp->BitsPP + 7)/8; // storage of each line 
 1828              		.loc 1 569 0
 1829 0be2 3B68     		ldr	r3, [r7, #0]
 1830 0be4 5A69     		ldr	r2, [r3, #20]
 1831 0be6 7B6C     		ldr	r3, [r7, #68]
 1832 0be8 396A     		ldr	r1, [r7, #32]
 1833 0bea 01FB03F3 		mul	r3, r1, r3
 1834 0bee 3968     		ldr	r1, [r7, #0]
 1835 0bf0 8968     		ldr	r1, [r1, #8]
 1836 0bf2 01FB03F3 		mul	r3, r1, r3
 1837 0bf6 03F10703 		add	r3, r3, #7
 1838 0bfa 4FEAD303 		lsr	r3, r3, #3
 1839 0bfe D318     		adds	r3, r2, r3
 1840 0c00 3B63     		str	r3, [r7, #48]
 1841              	.L108:
 570:../src/lib/lpc177x_8x/Drivers/source/lpc177x_8x_lcd.c ****     
 571:../src/lib/lpc177x_8x/Drivers/source/lpc177x_8x_lcd.c ****     X_LeftHold = X_Left;
 1842              		.loc 1 571 0
 1843 0c02 BB68     		ldr	r3, [r7, #8]
 1844 0c04 FB62     		str	r3, [r7, #44]
 572:../src/lib/lpc177x_8x/Drivers/source/lpc177x_8x_lcd.c **** 
 573:../src/lib/lpc177x_8x/Drivers/source/lpc177x_8x_lcd.c ****     for(j = 0; j <= hsize; j+= inc)
 1845              		.loc 1 573 0
 1846 0c06 4FF00003 		mov	r3, #0
 1847 0c0a 3B64     		str	r3, [r7, #64]
 1848 0c0c 2EE1     		b	.L109
 1849              	.L131:
 574:../src/lib/lpc177x_8x/Drivers/source/lpc177x_8x_lcd.c ****     {
 575:../src/lib/lpc177x_8x/Drivers/source/lpc177x_8x_lcd.c ****          if((X_LeftHold  >= lcd_hsize) || (X_LeftHold - X_Left  >= hsize))
 1850              		.loc 1 575 0
 1851 0c0e 614B     		ldr	r3, .L136+12
 1852 0c10 1B68     		ldr	r3, [r3, #0]
 1853 0c12 FA6A     		ldr	r2, [r7, #44]
 1854 0c14 9A42     		cmp	r2, r3
 1855 0c16 80F02E81 		bcs	.L110
 1856              		.loc 1 575 0 is_stmt 0 discriminator 1
 1857 0c1a FA6A     		ldr	r2, [r7, #44]
 1858 0c1c BB68     		ldr	r3, [r7, #8]
 1859 0c1e D21A     		subs	r2, r2, r3
 1860 0c20 3B6A     		ldr	r3, [r7, #32]
 1861 0c22 9A42     		cmp	r2, r3
 1862 0c24 80F02781 		bcs	.L110
 576:../src/lib/lpc177x_8x/Drivers/source/lpc177x_8x_lcd.c ****             break;
 577:../src/lib/lpc177x_8x/Drivers/source/lpc177x_8x_lcd.c ****          if(bpp < 8)
 1863              		.loc 1 577 0 is_stmt 1
 1864 0c28 97F82930 		ldrb	r3, [r7, #41]	@ zero_extendqisi2
 1865 0c2c 072B     		cmp	r3, #7
 1866 0c2e 00F2DC80 		bhi	.L111
 1867              	.LBB3:
 578:../src/lib/lpc177x_8x/Drivers/source/lpc177x_8x_lcd.c ****          {
 579:../src/lib/lpc177x_8x/Drivers/source/lpc177x_8x_lcd.c ****           uint8_t bit_pos = start_bit;
 1868              		.loc 1 579 0
 1869 0c32 3B69     		ldr	r3, [r7, #16]
 1870 0c34 87F82B30 		strb	r3, [r7, #43]
 580:../src/lib/lpc177x_8x/Drivers/source/lpc177x_8x_lcd.c ****           uint8_t bit_ofs = 0;
 1871              		.loc 1 580 0
 1872 0c38 4FF00003 		mov	r3, #0
 1873 0c3c 87F82A30 		strb	r3, [r7, #42]
 581:../src/lib/lpc177x_8x/Drivers/source/lpc177x_8x_lcd.c ****           for(k = 0; k < 8; k+= bpp)
 1874              		.loc 1 581 0
 1875 0c40 4FF00003 		mov	r3, #0
 1876 0c44 FB63     		str	r3, [r7, #60]
 1877 0c46 C7E0     		b	.L112
 1878              	.L124:
 582:../src/lib/lpc177x_8x/Drivers/source/lpc177x_8x_lcd.c ****           {
 583:../src/lib/lpc177x_8x/Drivers/source/lpc177x_8x_lcd.c ****               for(bit_ofs = 0;bit_ofs <bpp; bit_ofs++,bit_pos++)
 1879              		.loc 1 583 0
 1880 0c48 4FF00003 		mov	r3, #0
 1881 0c4c 87F82A30 		strb	r3, [r7, #42]
 1882 0c50 35E0     		b	.L113
 1883              	.L114:
 584:../src/lib/lpc177x_8x/Drivers/source/lpc177x_8x_lcd.c ****               {
 585:../src/lib/lpc177x_8x/Drivers/source/lpc177x_8x_lcd.c ****                  *pByteData &= ~ (0x01 << bit_pos);
 1884              		.loc 1 585 0 discriminator 2
 1885 0c52 7B6B     		ldr	r3, [r7, #52]
 1886 0c54 1B78     		ldrb	r3, [r3, #0]	@ zero_extendqisi2
 1887 0c56 DAB2     		uxtb	r2, r3
 1888 0c58 97F82B30 		ldrb	r3, [r7, #43]	@ zero_extendqisi2
 1889 0c5c 4FF00101 		mov	r1, #1
 1890 0c60 01FA03F3 		lsl	r3, r1, r3
 1891 0c64 DBB2     		uxtb	r3, r3
 1892 0c66 6FEA0303 		mvn	r3, r3
 1893 0c6a DBB2     		uxtb	r3, r3
 1894 0c6c 1340     		ands	r3, r3, r2
 1895 0c6e DBB2     		uxtb	r3, r3
 1896 0c70 DAB2     		uxtb	r2, r3
 1897 0c72 7B6B     		ldr	r3, [r7, #52]
 1898 0c74 1A70     		strb	r2, [r3, #0]
 586:../src/lib/lpc177x_8x/Drivers/source/lpc177x_8x_lcd.c ****                  *pByteData |= ((*pByteSrc >> (k+bit_ofs)) & 0x01) << bit_pos; 
 1899              		.loc 1 586 0 discriminator 2
 1900 0c76 7B6B     		ldr	r3, [r7, #52]
 1901 0c78 1B78     		ldrb	r3, [r3, #0]	@ zero_extendqisi2
 1902 0c7a DAB2     		uxtb	r2, r3
 1903 0c7c 3B6B     		ldr	r3, [r7, #48]
 1904 0c7e 1B78     		ldrb	r3, [r3, #0]	@ zero_extendqisi2
 1905 0c80 1946     		mov	r1, r3
 1906 0c82 97F82A00 		ldrb	r0, [r7, #42]	@ zero_extendqisi2
 1907 0c86 FB6B     		ldr	r3, [r7, #60]
 1908 0c88 C318     		adds	r3, r0, r3
 1909 0c8a 41FA03F3 		asr	r3, r1, r3
 1910 0c8e 03F00101 		and	r1, r3, #1
 1911 0c92 97F82B30 		ldrb	r3, [r7, #43]	@ zero_extendqisi2
 1912 0c96 01FA03F3 		lsl	r3, r1, r3
 1913 0c9a DBB2     		uxtb	r3, r3
 1914 0c9c 1343     		orrs	r3, r3, r2
 1915 0c9e DBB2     		uxtb	r3, r3
 1916 0ca0 DAB2     		uxtb	r2, r3
 1917 0ca2 7B6B     		ldr	r3, [r7, #52]
 1918 0ca4 1A70     		strb	r2, [r3, #0]
 583:../src/lib/lpc177x_8x/Drivers/source/lpc177x_8x_lcd.c ****               for(bit_ofs = 0;bit_ofs <bpp; bit_ofs++,bit_pos++)
 1919              		.loc 1 583 0 discriminator 2
 1920 0ca6 97F82A30 		ldrb	r3, [r7, #42]
 1921 0caa 03F10103 		add	r3, r3, #1
 1922 0cae 87F82A30 		strb	r3, [r7, #42]
 1923 0cb2 97F82B30 		ldrb	r3, [r7, #43]
 1924 0cb6 03F10103 		add	r3, r3, #1
 1925 0cba 87F82B30 		strb	r3, [r7, #43]
 1926              	.L113:
 583:../src/lib/lpc177x_8x/Drivers/source/lpc177x_8x_lcd.c ****               for(bit_ofs = 0;bit_ofs <bpp; bit_ofs++,bit_pos++)
 1927              		.loc 1 583 0 is_stmt 0 discriminator 1
 1928 0cbe 97F82A20 		ldrb	r2, [r7, #42]	@ zero_extendqisi2
 1929 0cc2 97F82930 		ldrb	r3, [r7, #41]	@ zero_extendqisi2
 1930 0cc6 9A42     		cmp	r2, r3
 1931 0cc8 C3D3     		bcc	.L114
 587:../src/lib/lpc177x_8x/Drivers/source/lpc177x_8x_lcd.c ****               }
 588:../src/lib/lpc177x_8x/Drivers/source/lpc177x_8x_lcd.c ****               if(lcd_config.big_endian_byte && lcd_config.big_endian_pixel)
 1932              		.loc 1 588 0 is_stmt 1
 1933 0cca 2F4B     		ldr	r3, .L136
 1934 0ccc 1B7F     		ldrb	r3, [r3, #28]	@ zero_extendqisi2
 1935 0cce 002B     		cmp	r3, #0
 1936 0cd0 2FD0     		beq	.L115
 1937              		.loc 1 588 0 is_stmt 0 discriminator 1
 1938 0cd2 2D4B     		ldr	r3, .L136
 1939 0cd4 5B7F     		ldrb	r3, [r3, #29]	@ zero_extendqisi2
 1940 0cd6 002B     		cmp	r3, #0
 1941 0cd8 2BD0     		beq	.L115
 589:../src/lib/lpc177x_8x/Drivers/source/lpc177x_8x_lcd.c ****               {
 590:../src/lib/lpc177x_8x/Drivers/source/lpc177x_8x_lcd.c ****                 if(bit_pos >= bpp*2)
 1942              		.loc 1 590 0 is_stmt 1
 1943 0cda 97F82B20 		ldrb	r2, [r7, #43]	@ zero_extendqisi2
 1944 0cde 97F82930 		ldrb	r3, [r7, #41]	@ zero_extendqisi2
 1945 0ce2 4FEA4303 		lsl	r3, r3, #1
 1946 0ce6 9A42     		cmp	r2, r3
 1947 0ce8 0EDB     		blt	.L116
 591:../src/lib/lpc177x_8x/Drivers/source/lpc177x_8x_lcd.c ****                     bit_pos -= bpp*2;
 1948              		.loc 1 591 0
 1949 0cea 97F82930 		ldrb	r3, [r7, #41]
 1950 0cee 1A46     		mov	r2, r3
 1951 0cf0 4FEAC212 		lsl	r2, r2, #7
 1952 0cf4 D31A     		subs	r3, r2, r3
 1953 0cf6 4FEA4303 		lsl	r3, r3, #1
 1954 0cfa DAB2     		uxtb	r2, r3
 1955 0cfc 97F82B30 		ldrb	r3, [r7, #43]
 1956 0d00 D318     		adds	r3, r2, r3
 1957 0d02 87F82B30 		strb	r3, [r7, #43]
 590:../src/lib/lpc177x_8x/Drivers/source/lpc177x_8x_lcd.c ****                 if(bit_pos >= bpp*2)
 1958              		.loc 1 590 0
 1959 0d06 53E0     		b	.L119
 1960              	.L116:
 592:../src/lib/lpc177x_8x/Drivers/source/lpc177x_8x_lcd.c ****                 else
 593:../src/lib/lpc177x_8x/Drivers/source/lpc177x_8x_lcd.c ****                 {
 594:../src/lib/lpc177x_8x/Drivers/source/lpc177x_8x_lcd.c ****                    bit_pos = 8-bpp;
 1961              		.loc 1 594 0
 1962 0d08 97F82930 		ldrb	r3, [r7, #41]
 1963 0d0c C3F10803 		rsb	r3, r3, #8
 1964 0d10 87F82B30 		strb	r3, [r7, #43]
 595:../src/lib/lpc177x_8x/Drivers/source/lpc177x_8x_lcd.c ****                    if((((uint32_t)pByteData)%4) == 0)
 1965              		.loc 1 595 0
 1966 0d14 7B6B     		ldr	r3, [r7, #52]
 1967 0d16 03F00303 		and	r3, r3, #3
 1968 0d1a 002B     		cmp	r3, #0
 1969 0d1c 04D1     		bne	.L118
 596:../src/lib/lpc177x_8x/Drivers/source/lpc177x_8x_lcd.c ****                      pByteData += 7; // change to next word
 1970              		.loc 1 596 0
 1971 0d1e 7B6B     		ldr	r3, [r7, #52]
 1972 0d20 03F10703 		add	r3, r3, #7
 1973 0d24 7B63     		str	r3, [r7, #52]
 590:../src/lib/lpc177x_8x/Drivers/source/lpc177x_8x_lcd.c ****                 if(bit_pos >= bpp*2)
 1974              		.loc 1 590 0
 1975 0d26 43E0     		b	.L119
 1976              	.L118:
 597:../src/lib/lpc177x_8x/Drivers/source/lpc177x_8x_lcd.c ****                    else
 598:../src/lib/lpc177x_8x/Drivers/source/lpc177x_8x_lcd.c ****                      pByteData--;  // change to previous byte
 1977              		.loc 1 598 0
 1978 0d28 7B6B     		ldr	r3, [r7, #52]
 1979 0d2a 03F1FF33 		add	r3, r3, #-1
 1980 0d2e 7B63     		str	r3, [r7, #52]
 590:../src/lib/lpc177x_8x/Drivers/source/lpc177x_8x_lcd.c ****                 if(bit_pos >= bpp*2)
 1981              		.loc 1 590 0
 1982 0d30 3EE0     		b	.L119
 1983              	.L115:
 599:../src/lib/lpc177x_8x/Drivers/source/lpc177x_8x_lcd.c ****                 }   
 600:../src/lib/lpc177x_8x/Drivers/source/lpc177x_8x_lcd.c ****              }
 601:../src/lib/lpc177x_8x/Drivers/source/lpc177x_8x_lcd.c ****              else if( !lcd_config.big_endian_byte && lcd_config.big_endian_pixel)
 1984              		.loc 1 601 0
 1985 0d32 154B     		ldr	r3, .L136
 1986 0d34 1B7F     		ldrb	r3, [r3, #28]	@ zero_extendqisi2
 1987 0d36 002B     		cmp	r3, #0
 1988 0d38 2ED1     		bne	.L120
 1989              		.loc 1 601 0 is_stmt 0 discriminator 1
 1990 0d3a 134B     		ldr	r3, .L136
 1991 0d3c 5B7F     		ldrb	r3, [r3, #29]	@ zero_extendqisi2
 1992 0d3e 002B     		cmp	r3, #0
 1993 0d40 2AD0     		beq	.L120
 602:../src/lib/lpc177x_8x/Drivers/source/lpc177x_8x_lcd.c ****               {
 603:../src/lib/lpc177x_8x/Drivers/source/lpc177x_8x_lcd.c ****                 if(bit_pos >= bpp*2)
 1994              		.loc 1 603 0 is_stmt 1
 1995 0d42 97F82B20 		ldrb	r2, [r7, #43]	@ zero_extendqisi2
 1996 0d46 97F82930 		ldrb	r3, [r7, #41]	@ zero_extendqisi2
 1997 0d4a 4FEA4303 		lsl	r3, r3, #1
 1998 0d4e 9A42     		cmp	r2, r3
 1999 0d50 0EDB     		blt	.L121
 604:../src/lib/lpc177x_8x/Drivers/source/lpc177x_8x_lcd.c ****                     bit_pos -= bpp*2;
 2000              		.loc 1 604 0
 2001 0d52 97F82930 		ldrb	r3, [r7, #41]
 2002 0d56 1A46     		mov	r2, r3
 2003 0d58 4FEAC212 		lsl	r2, r2, #7
 2004 0d5c D31A     		subs	r3, r2, r3
 2005 0d5e 4FEA4303 		lsl	r3, r3, #1
 2006 0d62 DAB2     		uxtb	r2, r3
 2007 0d64 97F82B30 		ldrb	r3, [r7, #43]
 2008 0d68 D318     		adds	r3, r2, r3
 2009 0d6a 87F82B30 		strb	r3, [r7, #43]
 603:../src/lib/lpc177x_8x/Drivers/source/lpc177x_8x_lcd.c ****                 if(bit_pos >= bpp*2)
 2010              		.loc 1 603 0
 2011 0d6e 1FE0     		b	.L119
 2012              	.L121:
 605:../src/lib/lpc177x_8x/Drivers/source/lpc177x_8x_lcd.c ****                 else
 606:../src/lib/lpc177x_8x/Drivers/source/lpc177x_8x_lcd.c ****                 {
 607:../src/lib/lpc177x_8x/Drivers/source/lpc177x_8x_lcd.c ****                    bit_pos = 8-bpp;
 2013              		.loc 1 607 0
 2014 0d70 97F82930 		ldrb	r3, [r7, #41]
 2015 0d74 C3F10803 		rsb	r3, r3, #8
 2016 0d78 87F82B30 		strb	r3, [r7, #43]
 608:../src/lib/lpc177x_8x/Drivers/source/lpc177x_8x_lcd.c ****                    pByteData++;  // change to next byte
 2017              		.loc 1 608 0
 2018 0d7c 7B6B     		ldr	r3, [r7, #52]
 2019 0d7e 03F10103 		add	r3, r3, #1
 2020 0d82 7B63     		str	r3, [r7, #52]
 603:../src/lib/lpc177x_8x/Drivers/source/lpc177x_8x_lcd.c ****                 if(bit_pos >= bpp*2)
 2021              		.loc 1 603 0
 2022 0d84 14E0     		b	.L119
 2023              	.L137:
 2024 0d86 00BF     		.align	2
 2025              	.L136:
 2026 0d88 00000000 		.word	lcd_config
 2027 0d8c 04000000 		.word	bits_per_pixel
 2028 0d90 00800820 		.word	537427968
 2029 0d94 00000000 		.word	lcd_hsize
 2030              	.L120:
 609:../src/lib/lpc177x_8x/Drivers/source/lpc177x_8x_lcd.c ****                 }
 610:../src/lib/lpc177x_8x/Drivers/source/lpc177x_8x_lcd.c ****                }
 611:../src/lib/lpc177x_8x/Drivers/source/lpc177x_8x_lcd.c ****                else
 612:../src/lib/lpc177x_8x/Drivers/source/lpc177x_8x_lcd.c ****                {
 613:../src/lib/lpc177x_8x/Drivers/source/lpc177x_8x_lcd.c ****                  if(bit_pos >= 8)
 2031              		.loc 1 613 0
 2032 0d98 97F82B30 		ldrb	r3, [r7, #43]	@ zero_extendqisi2
 2033 0d9c 072B     		cmp	r3, #7
 2034 0d9e 07D9     		bls	.L119
 614:../src/lib/lpc177x_8x/Drivers/source/lpc177x_8x_lcd.c ****                  {
 615:../src/lib/lpc177x_8x/Drivers/source/lpc177x_8x_lcd.c ****                     bit_pos = 0;
 2035              		.loc 1 615 0
 2036 0da0 4FF00003 		mov	r3, #0
 2037 0da4 87F82B30 		strb	r3, [r7, #43]
 616:../src/lib/lpc177x_8x/Drivers/source/lpc177x_8x_lcd.c ****                     pByteData++; // change to next byte
 2038              		.loc 1 616 0
 2039 0da8 7B6B     		ldr	r3, [r7, #52]
 2040 0daa 03F10103 		add	r3, r3, #1
 2041 0dae 7B63     		str	r3, [r7, #52]
 2042              	.L119:
 617:../src/lib/lpc177x_8x/Drivers/source/lpc177x_8x_lcd.c ****                  }
 618:../src/lib/lpc177x_8x/Drivers/source/lpc177x_8x_lcd.c ****                    
 619:../src/lib/lpc177x_8x/Drivers/source/lpc177x_8x_lcd.c ****                }
 620:../src/lib/lpc177x_8x/Drivers/source/lpc177x_8x_lcd.c ****                X_LeftHold++;
 2043              		.loc 1 620 0
 2044 0db0 FB6A     		ldr	r3, [r7, #44]
 2045 0db2 03F10103 		add	r3, r3, #1
 2046 0db6 FB62     		str	r3, [r7, #44]
 621:../src/lib/lpc177x_8x/Drivers/source/lpc177x_8x_lcd.c ****                if((X_LeftHold  >= lcd_hsize) || 
 2047              		.loc 1 621 0
 2048 0db8 3D4B     		ldr	r3, .L138
 2049 0dba 1B68     		ldr	r3, [r3, #0]
 2050 0dbc FA6A     		ldr	r2, [r7, #44]
 2051 0dbe 9A42     		cmp	r2, r3
 2052 0dc0 0ED2     		bcs	.L123
 622:../src/lib/lpc177x_8x/Drivers/source/lpc177x_8x_lcd.c ****                    (X_LeftHold - X_Left  >= hsize))
 2053              		.loc 1 622 0 discriminator 1
 2054 0dc2 FA6A     		ldr	r2, [r7, #44]
 2055 0dc4 BB68     		ldr	r3, [r7, #8]
 2056 0dc6 D21A     		subs	r2, r2, r3
 621:../src/lib/lpc177x_8x/Drivers/source/lpc177x_8x_lcd.c ****                if((X_LeftHold  >= lcd_hsize) || 
 2057              		.loc 1 621 0 discriminator 1
 2058 0dc8 3B6A     		ldr	r3, [r7, #32]
 2059 0dca 9A42     		cmp	r2, r3
 2060 0dcc 08D2     		bcs	.L123
 581:../src/lib/lpc177x_8x/Drivers/source/lpc177x_8x_lcd.c ****           for(k = 0; k < 8; k+= bpp)
 2061              		.loc 1 581 0
 2062 0dce 97F82930 		ldrb	r3, [r7, #41]	@ zero_extendqisi2
 2063 0dd2 FA6B     		ldr	r2, [r7, #60]
 2064 0dd4 D318     		adds	r3, r2, r3
 2065 0dd6 FB63     		str	r3, [r7, #60]
 2066              	.L112:
 581:../src/lib/lpc177x_8x/Drivers/source/lpc177x_8x_lcd.c ****           for(k = 0; k < 8; k+= bpp)
 2067              		.loc 1 581 0 is_stmt 0 discriminator 1
 2068 0dd8 FB6B     		ldr	r3, [r7, #60]
 2069 0dda 072B     		cmp	r3, #7
 2070 0ddc 7FF634AF 		bls	.L124
 2071              	.L123:
 623:../src/lib/lpc177x_8x/Drivers/source/lpc177x_8x_lcd.c ****                     break;
 624:../src/lib/lpc177x_8x/Drivers/source/lpc177x_8x_lcd.c ****           } 
 625:../src/lib/lpc177x_8x/Drivers/source/lpc177x_8x_lcd.c ****           pByteSrc++;
 2072              		.loc 1 625 0 is_stmt 1
 2073 0de0 3B6B     		ldr	r3, [r7, #48]
 2074 0de2 03F10103 		add	r3, r3, #1
 2075 0de6 3B63     		str	r3, [r7, #48]
 626:../src/lib/lpc177x_8x/Drivers/source/lpc177x_8x_lcd.c ****           continue;
 2076              		.loc 1 626 0
 2077 0de8 3CE0     		b	.L125
 2078              	.L111:
 2079              	.LBE3:
 627:../src/lib/lpc177x_8x/Drivers/source/lpc177x_8x_lcd.c ****         }
 628:../src/lib/lpc177x_8x/Drivers/source/lpc177x_8x_lcd.c ****         else
 629:../src/lib/lpc177x_8x/Drivers/source/lpc177x_8x_lcd.c ****         {
 630:../src/lib/lpc177x_8x/Drivers/source/lpc177x_8x_lcd.c ****             for(k = 0; k < pBmp->BytesPP; k++)
 2080              		.loc 1 630 0
 2081 0dea 4FF00003 		mov	r3, #0
 2082 0dee FB63     		str	r3, [r7, #60]
 2083 0df0 11E0     		b	.L126
 2084              	.L127:
 631:../src/lib/lpc177x_8x/Drivers/source/lpc177x_8x_lcd.c ****             {
 632:../src/lib/lpc177x_8x/Drivers/source/lpc177x_8x_lcd.c ****                *(pByteData+ k) = *pByteSrc++ ^ Mask;
 2085              		.loc 1 632 0 discriminator 2
 2086 0df2 7A6B     		ldr	r2, [r7, #52]
 2087 0df4 FB6B     		ldr	r3, [r7, #60]
 2088 0df6 D318     		adds	r3, r2, r3
 2089 0df8 3A6B     		ldr	r2, [r7, #48]
 2090 0dfa 1178     		ldrb	r1, [r2, #0]	@ zero_extendqisi2
 2091 0dfc 3A6D     		ldr	r2, [r7, #80]
 2092 0dfe D2B2     		uxtb	r2, r2
 2093 0e00 4A40     		eors	r2, r2, r1
 2094 0e02 D2B2     		uxtb	r2, r2
 2095 0e04 1A70     		strb	r2, [r3, #0]
 2096 0e06 3B6B     		ldr	r3, [r7, #48]
 2097 0e08 03F10103 		add	r3, r3, #1
 2098 0e0c 3B63     		str	r3, [r7, #48]
 630:../src/lib/lpc177x_8x/Drivers/source/lpc177x_8x_lcd.c ****             for(k = 0; k < pBmp->BytesPP; k++)
 2099              		.loc 1 630 0 discriminator 2
 2100 0e0e FB6B     		ldr	r3, [r7, #60]
 2101 0e10 03F10103 		add	r3, r3, #1
 2102 0e14 FB63     		str	r3, [r7, #60]
 2103              	.L126:
 630:../src/lib/lpc177x_8x/Drivers/source/lpc177x_8x_lcd.c ****             for(k = 0; k < pBmp->BytesPP; k++)
 2104              		.loc 1 630 0 is_stmt 0 discriminator 1
 2105 0e16 3B68     		ldr	r3, [r7, #0]
 2106 0e18 DA68     		ldr	r2, [r3, #12]
 2107 0e1a FB6B     		ldr	r3, [r7, #60]
 2108 0e1c 9A42     		cmp	r2, r3
 2109 0e1e E8D8     		bhi	.L127
 633:../src/lib/lpc177x_8x/Drivers/source/lpc177x_8x_lcd.c ****             }
 634:../src/lib/lpc177x_8x/Drivers/source/lpc177x_8x_lcd.c ****             if(lcd_config.big_endian_byte)
 2110              		.loc 1 634 0 is_stmt 1
 2111 0e20 244B     		ldr	r3, .L138+4
 2112 0e22 1B7F     		ldrb	r3, [r3, #28]	@ zero_extendqisi2
 2113 0e24 002B     		cmp	r3, #0
 2114 0e26 14D0     		beq	.L128
 635:../src/lib/lpc177x_8x/Drivers/source/lpc177x_8x_lcd.c ****             {
 636:../src/lib/lpc177x_8x/Drivers/source/lpc177x_8x_lcd.c ****               if((uint32_t)pByteData %4 > 0)
 2115              		.loc 1 636 0
 2116 0e28 7B6B     		ldr	r3, [r7, #52]
 2117 0e2a 03F00303 		and	r3, r3, #3
 2118 0e2e 002B     		cmp	r3, #0
 2119 0e30 07D0     		beq	.L129
 637:../src/lib/lpc177x_8x/Drivers/source/lpc177x_8x_lcd.c ****                 pByteData -= bytes_per_pixel;
 2120              		.loc 1 637 0
 2121 0e32 97F82830 		ldrb	r3, [r7, #40]	@ zero_extendqisi2
 2122 0e36 C3F10003 		rsb	r3, r3, #0
 2123 0e3a 7A6B     		ldr	r2, [r7, #52]
 2124 0e3c D318     		adds	r3, r2, r3
 2125 0e3e 7B63     		str	r3, [r7, #52]
 2126 0e40 0CE0     		b	.L130
 2127              	.L129:
 638:../src/lib/lpc177x_8x/Drivers/source/lpc177x_8x_lcd.c ****               else
 639:../src/lib/lpc177x_8x/Drivers/source/lpc177x_8x_lcd.c ****                 pByteData += 8 - bytes_per_pixel;
 2128              		.loc 1 639 0
 2129 0e42 97F82830 		ldrb	r3, [r7, #40]	@ zero_extendqisi2
 2130 0e46 C3F10803 		rsb	r3, r3, #8
 2131 0e4a 7A6B     		ldr	r2, [r7, #52]
 2132 0e4c D318     		adds	r3, r2, r3
 2133 0e4e 7B63     		str	r3, [r7, #52]
 2134 0e50 04E0     		b	.L130
 2135              	.L128:
 640:../src/lib/lpc177x_8x/Drivers/source/lpc177x_8x_lcd.c ****             }
 641:../src/lib/lpc177x_8x/Drivers/source/lpc177x_8x_lcd.c ****             else
 642:../src/lib/lpc177x_8x/Drivers/source/lpc177x_8x_lcd.c ****               pByteData+= bytes_per_pixel;
 2136              		.loc 1 642 0
 2137 0e52 97F82830 		ldrb	r3, [r7, #40]	@ zero_extendqisi2
 2138 0e56 7A6B     		ldr	r2, [r7, #52]
 2139 0e58 D318     		adds	r3, r2, r3
 2140 0e5a 7B63     		str	r3, [r7, #52]
 2141              	.L130:
 643:../src/lib/lpc177x_8x/Drivers/source/lpc177x_8x_lcd.c ****             X_LeftHold++;
 2142              		.loc 1 643 0
 2143 0e5c FB6A     		ldr	r3, [r7, #44]
 2144 0e5e 03F10103 		add	r3, r3, #1
 2145 0e62 FB62     		str	r3, [r7, #44]
 2146              	.L125:
 573:../src/lib/lpc177x_8x/Drivers/source/lpc177x_8x_lcd.c ****     for(j = 0; j <= hsize; j+= inc)
 2147              		.loc 1 573 0
 2148 0e64 3A6C     		ldr	r2, [r7, #64]
 2149 0e66 BB69     		ldr	r3, [r7, #24]
 2150 0e68 D318     		adds	r3, r2, r3
 2151 0e6a 3B64     		str	r3, [r7, #64]
 2152              	.L109:
 573:../src/lib/lpc177x_8x/Drivers/source/lpc177x_8x_lcd.c ****     for(j = 0; j <= hsize; j+= inc)
 2153              		.loc 1 573 0 is_stmt 0 discriminator 1
 2154 0e6c 3A6C     		ldr	r2, [r7, #64]
 2155 0e6e 3B6A     		ldr	r3, [r7, #32]
 2156 0e70 9A42     		cmp	r2, r3
 2157 0e72 7FF6CCAE 		bls	.L131
 2158              	.L110:
 644:../src/lib/lpc177x_8x/Drivers/source/lpc177x_8x_lcd.c ****         }
 645:../src/lib/lpc177x_8x/Drivers/source/lpc177x_8x_lcd.c ****     }
 646:../src/lib/lpc177x_8x/Drivers/source/lpc177x_8x_lcd.c ****     if(Y_Up++ >= lcd_vsize)
 2159              		.loc 1 646 0 is_stmt 1
 2160 0e76 104B     		ldr	r3, .L138+8
 2161 0e78 1B68     		ldr	r3, [r3, #0]
 2162 0e7a 7A68     		ldr	r2, [r7, #4]
 2163 0e7c 9A42     		cmp	r2, r3
 2164 0e7e 34BF     		ite	cc
 2165 0e80 0023     		movcc	r3, #0
 2166 0e82 0123     		movcs	r3, #1
 2167 0e84 DBB2     		uxtb	r3, r3
 2168 0e86 7A68     		ldr	r2, [r7, #4]
 2169 0e88 02F10102 		add	r2, r2, #1
 2170 0e8c 7A60     		str	r2, [r7, #4]
 2171 0e8e 002B     		cmp	r3, #0
 2172 0e90 09D1     		bne	.L135
 2173              	.L132:
 553:../src/lib/lpc177x_8x/Drivers/source/lpc177x_8x_lcd.c ****   for(i = 0; i < vsize; i++)
 2174              		.loc 1 553 0
 2175 0e92 7B6C     		ldr	r3, [r7, #68]
 2176 0e94 03F10103 		add	r3, r3, #1
 2177 0e98 7B64     		str	r3, [r7, #68]
 2178              	.L104:
 553:../src/lib/lpc177x_8x/Drivers/source/lpc177x_8x_lcd.c ****   for(i = 0; i < vsize; i++)
 2179              		.loc 1 553 0 is_stmt 0 discriminator 1
 2180 0e9a 7A6C     		ldr	r2, [r7, #68]
 2181 0e9c FB69     		ldr	r3, [r7, #28]
 2182 0e9e 9A42     		cmp	r2, r3
 2183 0ea0 FFF463AE 		bcc	.L134
 2184 0ea4 00E0     		b	.L100
 2185              	.L135:
 647:../src/lib/lpc177x_8x/Drivers/source/lpc177x_8x_lcd.c ****     {
 648:../src/lib/lpc177x_8x/Drivers/source/lpc177x_8x_lcd.c ****     break;
 2186              		.loc 1 648 0 is_stmt 1
 2187 0ea6 00BF     		nop
 2188              	.L100:
 649:../src/lib/lpc177x_8x/Drivers/source/lpc177x_8x_lcd.c ****     }
 650:../src/lib/lpc177x_8x/Drivers/source/lpc177x_8x_lcd.c ****   }
 651:../src/lib/lpc177x_8x/Drivers/source/lpc177x_8x_lcd.c **** }
 2189              		.loc 1 651 0
 2190 0ea8 07F14807 		add	r7, r7, #72
 2191 0eac BD46     		mov	sp, r7
 2192 0eae 80BD     		pop	{r7, pc}
 2193              	.L139:
 2194              		.align	2
 2195              	.L138:
 2196 0eb0 00000000 		.word	lcd_hsize
 2197 0eb4 00000000 		.word	lcd_config
 2198 0eb8 00000000 		.word	lcd_vsize
 2199              		.cfi_endproc
 2200              	.LFE67:
 2202              		.align	2
 2203              		.global	LCD_FillRect
 2204              		.thumb
 2205              		.thumb_func
 2207              	LCD_FillRect:
 2208              	.LFB68:
 652:../src/lib/lpc177x_8x/Drivers/source/lpc177x_8x_lcd.c **** 
 653:../src/lib/lpc177x_8x/Drivers/source/lpc177x_8x_lcd.c **** /*********************************************************************//**
 654:../src/lib/lpc177x_8x/Drivers/source/lpc177x_8x_lcd.c ****  * @brief       Fill a rectangle.
 655:../src/lib/lpc177x_8x/Drivers/source/lpc177x_8x_lcd.c ****  *
 656:../src/lib/lpc177x_8x/Drivers/source/lpc177x_8x_lcd.c ****  * @param[in] panel          It can be:
 657:../src/lib/lpc177x_8x/Drivers/source/lpc177x_8x_lcd.c ****  *                                             - LCD_PANEL_UPPER
 658:../src/lib/lpc177x_8x/Drivers/source/lpc177x_8x_lcd.c ****  *                                             - LCD_PANEL_LOWER
 659:../src/lib/lpc177x_8x/Drivers/source/lpc177x_8x_lcd.c ****  * @param[in] startx            Start X position.
 660:../src/lib/lpc177x_8x/Drivers/source/lpc177x_8x_lcd.c ****  * @param[in] endy             End X position.
 661:../src/lib/lpc177x_8x/Drivers/source/lpc177x_8x_lcd.c ****  * @param[in] starty            Start Y position.
 662:../src/lib/lpc177x_8x/Drivers/source/lpc177x_8x_lcd.c ****  * @param[in] endy           End Y position.
 663:../src/lib/lpc177x_8x/Drivers/source/lpc177x_8x_lcd.c ****  *
 664:../src/lib/lpc177x_8x/Drivers/source/lpc177x_8x_lcd.c ****  * @return  None.
 665:../src/lib/lpc177x_8x/Drivers/source/lpc177x_8x_lcd.c ****  *
 666:../src/lib/lpc177x_8x/Drivers/source/lpc177x_8x_lcd.c ****  **********************************************************************/
 667:../src/lib/lpc177x_8x/Drivers/source/lpc177x_8x_lcd.c **** void LCD_FillRect (LCD_PANEL panel, uint32_t startx,uint32_t endx, 
 668:../src/lib/lpc177x_8x/Drivers/source/lpc177x_8x_lcd.c ****                                         uint32_t starty, uint32_t endy,
 669:../src/lib/lpc177x_8x/Drivers/source/lpc177x_8x_lcd.c ****                                         LcdPixel_t color)
 670:../src/lib/lpc177x_8x/Drivers/source/lpc177x_8x_lcd.c **** {
 2209              		.loc 1 670 0
 2210              		.cfi_startproc
 2211              		@ args = 8, pretend = 0, frame = 88
 2212              		@ frame_needed = 1, uses_anonymous_args = 0
 2213 0ebc 80B5     		push	{r7, lr}
 2214              	.LCFI39:
 2215              		.cfi_def_cfa_offset 8
 2216              		.cfi_offset 7, -8
 2217              		.cfi_offset 14, -4
 2218 0ebe 98B0     		sub	sp, sp, #96
 2219              	.LCFI40:
 2220              		.cfi_def_cfa_offset 104
 2221 0ec0 02AF     		add	r7, sp, #8
 2222              	.LCFI41:
 2223              		.cfi_def_cfa 7, 96
 2224 0ec2 B960     		str	r1, [r7, #8]
 2225 0ec4 7A60     		str	r2, [r7, #4]
 2226 0ec6 3B60     		str	r3, [r7, #0]
 2227 0ec8 0346     		mov	r3, r0
 2228 0eca FB73     		strb	r3, [r7, #15]
 671:../src/lib/lpc177x_8x/Drivers/source/lpc177x_8x_lcd.c ****    uint32_t x, xs, xe, ys, ye;
 672:../src/lib/lpc177x_8x/Drivers/source/lpc177x_8x_lcd.c ****    uint8_t  bpp,  pixels_per_word;
 673:../src/lib/lpc177x_8x/Drivers/source/lpc177x_8x_lcd.c ****    uint32_t word_val, mask;
 674:../src/lib/lpc177x_8x/Drivers/source/lpc177x_8x_lcd.c ****    uint32_t max_vsize = 0;
 2229              		.loc 1 674 0
 2230 0ecc 4FF00003 		mov	r3, #0
 2231 0ed0 3B64     		str	r3, [r7, #64]
 675:../src/lib/lpc177x_8x/Drivers/source/lpc177x_8x_lcd.c ****    Bmp_t  bitmap;
 676:../src/lib/lpc177x_8x/Drivers/source/lpc177x_8x_lcd.c ****    uint32_t hsize, vsize;
 677:../src/lib/lpc177x_8x/Drivers/source/lpc177x_8x_lcd.c **** 
 678:../src/lib/lpc177x_8x/Drivers/source/lpc177x_8x_lcd.c ****    bpp = bits_per_pixel[lcd_config.lcd_bpp];
 2232              		.loc 1 678 0
 2233 0ed2 5F4B     		ldr	r3, .L151
 2234 0ed4 1B7E     		ldrb	r3, [r3, #24]	@ zero_extendqisi2
 2235 0ed6 5F4A     		ldr	r2, .L151+4
 2236 0ed8 D35C     		ldrb	r3, [r2, r3]
 2237 0eda 87F83F30 		strb	r3, [r7, #63]
 679:../src/lib/lpc177x_8x/Drivers/source/lpc177x_8x_lcd.c ****    pixels_per_word = 32/bpp;
 2238              		.loc 1 679 0
 2239 0ede 97F83F30 		ldrb	r3, [r7, #63]	@ zero_extendqisi2
 2240 0ee2 4FF02002 		mov	r2, #32
 2241 0ee6 92FBF3F3 		sdiv	r3, r2, r3
 2242 0eea 87F83E30 		strb	r3, [r7, #62]
 680:../src/lib/lpc177x_8x/Drivers/source/lpc177x_8x_lcd.c **** 
 681:../src/lib/lpc177x_8x/Drivers/source/lpc177x_8x_lcd.c ****    mask = 0;
 2243              		.loc 1 681 0
 2244 0eee 4FF00003 		mov	r3, #0
 2245 0ef2 BB64     		str	r3, [r7, #72]
 682:../src/lib/lpc177x_8x/Drivers/source/lpc177x_8x_lcd.c ****    for( x = 0; x < bpp; x++)
 2246              		.loc 1 682 0
 2247 0ef4 4FF00003 		mov	r3, #0
 2248 0ef8 7B65     		str	r3, [r7, #84]
 2249 0efa 0BE0     		b	.L141
 2250              	.L142:
 683:../src/lib/lpc177x_8x/Drivers/source/lpc177x_8x_lcd.c ****      mask |= 0x01 << x;
 2251              		.loc 1 683 0 discriminator 2
 2252 0efc 7B6D     		ldr	r3, [r7, #84]
 2253 0efe 4FF00102 		mov	r2, #1
 2254 0f02 02FA03F3 		lsl	r3, r2, r3
 2255 0f06 BA6C     		ldr	r2, [r7, #72]
 2256 0f08 1343     		orrs	r3, r3, r2
 2257 0f0a BB64     		str	r3, [r7, #72]
 682:../src/lib/lpc177x_8x/Drivers/source/lpc177x_8x_lcd.c ****    for( x = 0; x < bpp; x++)
 2258              		.loc 1 682 0 discriminator 2
 2259 0f0c 7B6D     		ldr	r3, [r7, #84]
 2260 0f0e 03F10103 		add	r3, r3, #1
 2261 0f12 7B65     		str	r3, [r7, #84]
 2262              	.L141:
 682:../src/lib/lpc177x_8x/Drivers/source/lpc177x_8x_lcd.c ****    for( x = 0; x < bpp; x++)
 2263              		.loc 1 682 0 is_stmt 0 discriminator 1
 2264 0f14 97F83F20 		ldrb	r2, [r7, #63]	@ zero_extendqisi2
 2265 0f18 7B6D     		ldr	r3, [r7, #84]
 2266 0f1a 9A42     		cmp	r2, r3
 2267 0f1c EED8     		bhi	.L142
 684:../src/lib/lpc177x_8x/Drivers/source/lpc177x_8x_lcd.c ****    
 685:../src/lib/lpc177x_8x/Drivers/source/lpc177x_8x_lcd.c ****    color &= mask;
 2268              		.loc 1 685 0 is_stmt 1
 2269 0f1e 7A6E     		ldr	r2, [r7, #100]
 2270 0f20 BB6C     		ldr	r3, [r7, #72]
 2271 0f22 1340     		ands	r3, r3, r2
 2272 0f24 7B66     		str	r3, [r7, #100]
 686:../src/lib/lpc177x_8x/Drivers/source/lpc177x_8x_lcd.c **** 
 687:../src/lib/lpc177x_8x/Drivers/source/lpc177x_8x_lcd.c ****    word_val = 0;
 2273              		.loc 1 687 0
 2274 0f26 4FF00003 		mov	r3, #0
 2275 0f2a FB64     		str	r3, [r7, #76]
 688:../src/lib/lpc177x_8x/Drivers/source/lpc177x_8x_lcd.c ****    for(x = 0; x < pixels_per_word; x++)
 2276              		.loc 1 688 0
 2277 0f2c 4FF00003 		mov	r3, #0
 2278 0f30 7B65     		str	r3, [r7, #84]
 2279 0f32 0EE0     		b	.L143
 2280              	.L144:
 689:../src/lib/lpc177x_8x/Drivers/source/lpc177x_8x_lcd.c ****       word_val |= color << (x*bpp);
 2281              		.loc 1 689 0 discriminator 2
 2282 0f34 97F83F30 		ldrb	r3, [r7, #63]	@ zero_extendqisi2
 2283 0f38 7A6D     		ldr	r2, [r7, #84]
 2284 0f3a 02FB03F3 		mul	r3, r2, r3
 2285 0f3e 7A6E     		ldr	r2, [r7, #100]
 2286 0f40 02FA03F3 		lsl	r3, r2, r3
 2287 0f44 FA6C     		ldr	r2, [r7, #76]
 2288 0f46 1343     		orrs	r3, r3, r2
 2289 0f48 FB64     		str	r3, [r7, #76]
 688:../src/lib/lpc177x_8x/Drivers/source/lpc177x_8x_lcd.c ****    for(x = 0; x < pixels_per_word; x++)
 2290              		.loc 1 688 0 discriminator 2
 2291 0f4a 7B6D     		ldr	r3, [r7, #84]
 2292 0f4c 03F10103 		add	r3, r3, #1
 2293 0f50 7B65     		str	r3, [r7, #84]
 2294              	.L143:
 688:../src/lib/lpc177x_8x/Drivers/source/lpc177x_8x_lcd.c ****    for(x = 0; x < pixels_per_word; x++)
 2295              		.loc 1 688 0 is_stmt 0 discriminator 1
 2296 0f52 97F83E20 		ldrb	r2, [r7, #62]	@ zero_extendqisi2
 2297 0f56 7B6D     		ldr	r3, [r7, #84]
 2298 0f58 9A42     		cmp	r2, r3
 2299 0f5a EBD8     		bhi	.L144
 690:../src/lib/lpc177x_8x/Drivers/source/lpc177x_8x_lcd.c ****       
 691:../src/lib/lpc177x_8x/Drivers/source/lpc177x_8x_lcd.c ****    ys = (starty > endy) ? endy : starty;
 2300              		.loc 1 691 0 is_stmt 1
 2301 0f5c 3A68     		ldr	r2, [r7, #0]
 2302 0f5e 3B6E     		ldr	r3, [r7, #96]
 2303 0f60 9A42     		cmp	r2, r3
 2304 0f62 38BF     		it	cc
 2305 0f64 1346     		movcc	r3, r2
 2306 0f66 3B65     		str	r3, [r7, #80]
 692:../src/lib/lpc177x_8x/Drivers/source/lpc177x_8x_lcd.c ****    ye = (starty > endy) ? starty : endy;
 2307              		.loc 1 692 0
 2308 0f68 3A6E     		ldr	r2, [r7, #96]
 2309 0f6a 3B68     		ldr	r3, [r7, #0]
 2310 0f6c 9A42     		cmp	r2, r3
 2311 0f6e 28BF     		it	cs
 2312 0f70 1346     		movcs	r3, r2
 2313 0f72 BB63     		str	r3, [r7, #56]
 693:../src/lib/lpc177x_8x/Drivers/source/lpc177x_8x_lcd.c **** 
 694:../src/lib/lpc177x_8x/Drivers/source/lpc177x_8x_lcd.c ****    xs = (startx > endx) ? endx : startx;
 2314              		.loc 1 694 0
 2315 0f74 BA68     		ldr	r2, [r7, #8]
 2316 0f76 7B68     		ldr	r3, [r7, #4]
 2317 0f78 9A42     		cmp	r2, r3
 2318 0f7a 38BF     		it	cc
 2319 0f7c 1346     		movcc	r3, r2
 2320 0f7e 7B63     		str	r3, [r7, #52]
 695:../src/lib/lpc177x_8x/Drivers/source/lpc177x_8x_lcd.c ****    xe = (startx > endx) ? startx : endx;
 2321              		.loc 1 695 0
 2322 0f80 7A68     		ldr	r2, [r7, #4]
 2323 0f82 BB68     		ldr	r3, [r7, #8]
 2324 0f84 9A42     		cmp	r2, r3
 2325 0f86 28BF     		it	cs
 2326 0f88 1346     		movcs	r3, r2
 2327 0f8a 3B63     		str	r3, [r7, #48]
 696:../src/lib/lpc177x_8x/Drivers/source/lpc177x_8x_lcd.c **** 
 697:../src/lib/lpc177x_8x/Drivers/source/lpc177x_8x_lcd.c ****    bitmap.BitsPP = bpp;
 2328              		.loc 1 697 0
 2329 0f8c 97F83F30 		ldrb	r3, [r7, #63]	@ zero_extendqisi2
 2330 0f90 BB61     		str	r3, [r7, #24]
 698:../src/lib/lpc177x_8x/Drivers/source/lpc177x_8x_lcd.c ****    bitmap.BytesPP = bpp/8;
 2331              		.loc 1 698 0
 2332 0f92 97F83F30 		ldrb	r3, [r7, #63]	@ zero_extendqisi2
 2333 0f96 4FEAD303 		lsr	r3, r3, #3
 2334 0f9a DBB2     		uxtb	r3, r3
 2335 0f9c FB61     		str	r3, [r7, #28]
 699:../src/lib/lpc177x_8x/Drivers/source/lpc177x_8x_lcd.c ****    hsize = xe - xs + 1;
 2336              		.loc 1 699 0
 2337 0f9e 3A6B     		ldr	r2, [r7, #48]
 2338 0fa0 7B6B     		ldr	r3, [r7, #52]
 2339 0fa2 D31A     		subs	r3, r2, r3
 2340 0fa4 03F10103 		add	r3, r3, #1
 2341 0fa8 FB62     		str	r3, [r7, #44]
 700:../src/lib/lpc177x_8x/Drivers/source/lpc177x_8x_lcd.c ****    bitmap.H_Size = hsize;
 2342              		.loc 1 700 0
 2343 0faa FB6A     		ldr	r3, [r7, #44]
 2344 0fac 3B61     		str	r3, [r7, #16]
 701:../src/lib/lpc177x_8x/Drivers/source/lpc177x_8x_lcd.c ****    vsize = ye - ys + 1;
 2345              		.loc 1 701 0
 2346 0fae BA6B     		ldr	r2, [r7, #56]
 2347 0fb0 3B6D     		ldr	r3, [r7, #80]
 2348 0fb2 D31A     		subs	r3, r2, r3
 2349 0fb4 03F10103 		add	r3, r3, #1
 2350 0fb8 7B64     		str	r3, [r7, #68]
 702:../src/lib/lpc177x_8x/Drivers/source/lpc177x_8x_lcd.c ****    bitmap.pPicStream = (uint8_t*)rect;
 2351              		.loc 1 702 0
 2352 0fba 274B     		ldr	r3, .L151+8
 2353 0fbc 7B62     		str	r3, [r7, #36]
 703:../src/lib/lpc177x_8x/Drivers/source/lpc177x_8x_lcd.c **** 
 704:../src/lib/lpc177x_8x/Drivers/source/lpc177x_8x_lcd.c ****    max_vsize = ((1024 * 32)/(hsize*bpp));
 2354              		.loc 1 704 0
 2355 0fbe 97F83F30 		ldrb	r3, [r7, #63]	@ zero_extendqisi2
 2356 0fc2 FA6A     		ldr	r2, [r7, #44]
 2357 0fc4 02FB03F3 		mul	r3, r2, r3
 2358 0fc8 4FF40042 		mov	r2, #32768
 2359 0fcc B2FBF3F3 		udiv	r3, r2, r3
 2360 0fd0 3B64     		str	r3, [r7, #64]
 705:../src/lib/lpc177x_8x/Drivers/source/lpc177x_8x_lcd.c **** 
 706:../src/lib/lpc177x_8x/Drivers/source/lpc177x_8x_lcd.c ****    for( x = 0; x < 1024; x++)
 2361              		.loc 1 706 0
 2362 0fd2 4FF00003 		mov	r3, #0
 2363 0fd6 7B65     		str	r3, [r7, #84]
 2364 0fd8 08E0     		b	.L145
 2365              	.L146:
 707:../src/lib/lpc177x_8x/Drivers/source/lpc177x_8x_lcd.c ****    {
 708:../src/lib/lpc177x_8x/Drivers/source/lpc177x_8x_lcd.c ****      rect[x] = word_val;
 2366              		.loc 1 708 0 discriminator 2
 2367 0fda 1F4B     		ldr	r3, .L151+8
 2368 0fdc 7A6D     		ldr	r2, [r7, #84]
 2369 0fde F96C     		ldr	r1, [r7, #76]
 2370 0fe0 43F82210 		str	r1, [r3, r2, lsl #2]
 706:../src/lib/lpc177x_8x/Drivers/source/lpc177x_8x_lcd.c ****    for( x = 0; x < 1024; x++)
 2371              		.loc 1 706 0 discriminator 2
 2372 0fe4 7B6D     		ldr	r3, [r7, #84]
 2373 0fe6 03F10103 		add	r3, r3, #1
 2374 0fea 7B65     		str	r3, [r7, #84]
 2375              	.L145:
 706:../src/lib/lpc177x_8x/Drivers/source/lpc177x_8x_lcd.c ****    for( x = 0; x < 1024; x++)
 2376              		.loc 1 706 0 is_stmt 0 discriminator 1
 2377 0fec 7A6D     		ldr	r2, [r7, #84]
 2378 0fee 40F2FF33 		movw	r3, #1023
 2379 0ff2 9A42     		cmp	r2, r3
 2380 0ff4 F1D9     		bls	.L146
 2381              	.L149:
 709:../src/lib/lpc177x_8x/Drivers/source/lpc177x_8x_lcd.c ****    }
 710:../src/lib/lpc177x_8x/Drivers/source/lpc177x_8x_lcd.c ****    
 711:../src/lib/lpc177x_8x/Drivers/source/lpc177x_8x_lcd.c ****    while(1)
 712:../src/lib/lpc177x_8x/Drivers/source/lpc177x_8x_lcd.c ****     {
 713:../src/lib/lpc177x_8x/Drivers/source/lpc177x_8x_lcd.c ****       if(max_vsize >= vsize)
 2382              		.loc 1 713 0 is_stmt 1
 2383 0ff6 3A6C     		ldr	r2, [r7, #64]
 2384 0ff8 7B6C     		ldr	r3, [r7, #68]
 2385 0ffa 9A42     		cmp	r2, r3
 2386 0ffc 0ED3     		bcc	.L147
 714:../src/lib/lpc177x_8x/Drivers/source/lpc177x_8x_lcd.c ****       {
 715:../src/lib/lpc177x_8x/Drivers/source/lpc177x_8x_lcd.c ****          bitmap.V_Size = vsize;
 2387              		.loc 1 715 0
 2388 0ffe 7B6C     		ldr	r3, [r7, #68]
 2389 1000 7B61     		str	r3, [r7, #20]
 716:../src/lib/lpc177x_8x/Drivers/source/lpc177x_8x_lcd.c ****          LCD_LoadPic(panel,xs,ys, &bitmap, 0);
 2390              		.loc 1 716 0
 2391 1002 FA7B     		ldrb	r2, [r7, #15]	@ zero_extendqisi2
 2392 1004 07F11003 		add	r3, r7, #16
 2393 1008 4FF00001 		mov	r1, #0
 2394 100c 0091     		str	r1, [sp, #0]
 2395 100e 1046     		mov	r0, r2
 2396 1010 796B     		ldr	r1, [r7, #52]
 2397 1012 3A6D     		ldr	r2, [r7, #80]
 2398 1014 FFF7FEFF 		bl	LCD_LoadPic
 717:../src/lib/lpc177x_8x/Drivers/source/lpc177x_8x_lcd.c ****          break;
 2399              		.loc 1 717 0
 2400 1018 00BF     		nop
 2401 101a 15E0     		b	.L150
 2402              	.L147:
 718:../src/lib/lpc177x_8x/Drivers/source/lpc177x_8x_lcd.c ****       }
 719:../src/lib/lpc177x_8x/Drivers/source/lpc177x_8x_lcd.c ****       else {
 720:../src/lib/lpc177x_8x/Drivers/source/lpc177x_8x_lcd.c ****         bitmap.V_Size = max_vsize;
 2403              		.loc 1 720 0
 2404 101c 3B6C     		ldr	r3, [r7, #64]
 2405 101e 7B61     		str	r3, [r7, #20]
 721:../src/lib/lpc177x_8x/Drivers/source/lpc177x_8x_lcd.c ****         vsize -= bitmap.V_Size;
 2406              		.loc 1 721 0
 2407 1020 7B69     		ldr	r3, [r7, #20]
 2408 1022 7A6C     		ldr	r2, [r7, #68]
 2409 1024 D31A     		subs	r3, r2, r3
 2410 1026 7B64     		str	r3, [r7, #68]
 722:../src/lib/lpc177x_8x/Drivers/source/lpc177x_8x_lcd.c ****         LCD_LoadPic(panel,xs,ys, &bitmap, 0);
 2411              		.loc 1 722 0
 2412 1028 FA7B     		ldrb	r2, [r7, #15]	@ zero_extendqisi2
 2413 102a 07F11003 		add	r3, r7, #16
 2414 102e 4FF00001 		mov	r1, #0
 2415 1032 0091     		str	r1, [sp, #0]
 2416 1034 1046     		mov	r0, r2
 2417 1036 796B     		ldr	r1, [r7, #52]
 2418 1038 3A6D     		ldr	r2, [r7, #80]
 2419 103a FFF7FEFF 		bl	LCD_LoadPic
 723:../src/lib/lpc177x_8x/Drivers/source/lpc177x_8x_lcd.c ****         ys += max_vsize;
 2420              		.loc 1 723 0
 2421 103e 3A6D     		ldr	r2, [r7, #80]
 2422 1040 3B6C     		ldr	r3, [r7, #64]
 2423 1042 D318     		adds	r3, r2, r3
 2424 1044 3B65     		str	r3, [r7, #80]
 724:../src/lib/lpc177x_8x/Drivers/source/lpc177x_8x_lcd.c ****       }
 725:../src/lib/lpc177x_8x/Drivers/source/lpc177x_8x_lcd.c ****     } 
 2425              		.loc 1 725 0
 2426 1046 D6E7     		b	.L149
 2427              	.L150:
 726:../src/lib/lpc177x_8x/Drivers/source/lpc177x_8x_lcd.c **** 
 727:../src/lib/lpc177x_8x/Drivers/source/lpc177x_8x_lcd.c ****    
 728:../src/lib/lpc177x_8x/Drivers/source/lpc177x_8x_lcd.c **** }
 2428              		.loc 1 728 0
 2429 1048 07F15807 		add	r7, r7, #88
 2430 104c BD46     		mov	sp, r7
 2431 104e 80BD     		pop	{r7, pc}
 2432              	.L152:
 2433              		.align	2
 2434              	.L151:
 2435 1050 00000000 		.word	lcd_config
 2436 1054 04000000 		.word	bits_per_pixel
 2437 1058 00000000 		.word	rect
 2438              		.cfi_endproc
 2439              	.LFE68:
 2441              		.align	2
 2442              		.global	LCD_Cursor_Cfg
 2443              		.thumb
 2444              		.thumb_func
 2446              	LCD_Cursor_Cfg:
 2447              	.LFB69:
 729:../src/lib/lpc177x_8x/Drivers/source/lpc177x_8x_lcd.c **** 
 730:../src/lib/lpc177x_8x/Drivers/source/lpc177x_8x_lcd.c **** /*********************************************************************//**
 731:../src/lib/lpc177x_8x/Drivers/source/lpc177x_8x_lcd.c ****  * @brief       Configure display of cursor.
 732:../src/lib/lpc177x_8x/Drivers/source/lpc177x_8x_lcd.c ****  *
 733:../src/lib/lpc177x_8x/Drivers/source/lpc177x_8x_lcd.c ****  * @param[in] pConfig            Configuration information.
 734:../src/lib/lpc177x_8x/Drivers/source/lpc177x_8x_lcd.c ****  *
 735:../src/lib/lpc177x_8x/Drivers/source/lpc177x_8x_lcd.c ****  * @return  None.
 736:../src/lib/lpc177x_8x/Drivers/source/lpc177x_8x_lcd.c ****  *
 737:../src/lib/lpc177x_8x/Drivers/source/lpc177x_8x_lcd.c ****  **********************************************************************/
 738:../src/lib/lpc177x_8x/Drivers/source/lpc177x_8x_lcd.c **** void LCD_Cursor_Cfg(LCD_Cursor_Config_Type* pConfig)
 739:../src/lib/lpc177x_8x/Drivers/source/lpc177x_8x_lcd.c **** {
 2448              		.loc 1 739 0
 2449              		.cfi_startproc
 2450              		@ args = 0, pretend = 0, frame = 8
 2451              		@ frame_needed = 1, uses_anonymous_args = 0
 2452              		@ link register save eliminated.
 2453 105c 80B4     		push	{r7}
 2454              	.LCFI42:
 2455              		.cfi_def_cfa_offset 4
 2456              		.cfi_offset 7, -4
 2457 105e 83B0     		sub	sp, sp, #12
 2458              	.LCFI43:
 2459              		.cfi_def_cfa_offset 16
 2460 1060 00AF     		add	r7, sp, #0
 2461              	.LCFI44:
 2462              		.cfi_def_cfa_register 7
 2463 1062 7860     		str	r0, [r7, #4]
 740:../src/lib/lpc177x_8x/Drivers/source/lpc177x_8x_lcd.c ****   if(pConfig->size32) {
 2464              		.loc 1 740 0
 2465 1064 7B68     		ldr	r3, [r7, #4]
 2466 1066 1B78     		ldrb	r3, [r3, #0]	@ zero_extendqisi2
 2467 1068 002B     		cmp	r3, #0
 2468 106a 0CD0     		beq	.L154
 741:../src/lib/lpc177x_8x/Drivers/source/lpc177x_8x_lcd.c ****     LPC_LCD->CRSR_CFG &= ~(0x01 << 0);
 2469              		.loc 1 741 0
 2470 106c 2B4B     		ldr	r3, .L158
 2471 106e 2B4A     		ldr	r2, .L158
 2472 1070 D2F8042C 		ldr	r2, [r2, #3076]
 2473 1074 22F00102 		bic	r2, r2, #1
 2474 1078 C3F8042C 		str	r2, [r3, #3076]
 742:../src/lib/lpc177x_8x/Drivers/source/lpc177x_8x_lcd.c ****     lcd_cursor_size = 32;
 2475              		.loc 1 742 0
 2476 107c 284B     		ldr	r3, .L158+4
 2477 107e 4FF02002 		mov	r2, #32
 2478 1082 1A60     		str	r2, [r3, #0]
 2479 1084 0BE0     		b	.L155
 2480              	.L154:
 743:../src/lib/lpc177x_8x/Drivers/source/lpc177x_8x_lcd.c ****   }
 744:../src/lib/lpc177x_8x/Drivers/source/lpc177x_8x_lcd.c ****   else {
 745:../src/lib/lpc177x_8x/Drivers/source/lpc177x_8x_lcd.c ****     LPC_LCD->CRSR_CFG |= (0x01 << 0);
 2481              		.loc 1 745 0
 2482 1086 254B     		ldr	r3, .L158
 2483 1088 244A     		ldr	r2, .L158
 2484 108a D2F8042C 		ldr	r2, [r2, #3076]
 2485 108e 42F00102 		orr	r2, r2, #1
 2486 1092 C3F8042C 		str	r2, [r3, #3076]
 746:../src/lib/lpc177x_8x/Drivers/source/lpc177x_8x_lcd.c ****     lcd_cursor_size = 64;
 2487              		.loc 1 746 0
 2488 1096 224B     		ldr	r3, .L158+4
 2489 1098 4FF04002 		mov	r2, #64
 2490 109c 1A60     		str	r2, [r3, #0]
 2491              	.L155:
 747:../src/lib/lpc177x_8x/Drivers/source/lpc177x_8x_lcd.c ****   }
 748:../src/lib/lpc177x_8x/Drivers/source/lpc177x_8x_lcd.c **** 
 749:../src/lib/lpc177x_8x/Drivers/source/lpc177x_8x_lcd.c ****   if(pConfig->framesync)
 2492              		.loc 1 749 0
 2493 109e 7B68     		ldr	r3, [r7, #4]
 2494 10a0 5B78     		ldrb	r3, [r3, #1]	@ zero_extendqisi2
 2495 10a2 002B     		cmp	r3, #0
 2496 10a4 08D0     		beq	.L156
 750:../src/lib/lpc177x_8x/Drivers/source/lpc177x_8x_lcd.c ****     LPC_LCD->CRSR_CFG &= ~(0x01 << 1);
 2497              		.loc 1 750 0
 2498 10a6 1D4B     		ldr	r3, .L158
 2499 10a8 1C4A     		ldr	r2, .L158
 2500 10aa D2F8042C 		ldr	r2, [r2, #3076]
 2501 10ae 22F00202 		bic	r2, r2, #2
 2502 10b2 C3F8042C 		str	r2, [r3, #3076]
 2503 10b6 07E0     		b	.L157
 2504              	.L156:
 751:../src/lib/lpc177x_8x/Drivers/source/lpc177x_8x_lcd.c ****   else
 752:../src/lib/lpc177x_8x/Drivers/source/lpc177x_8x_lcd.c ****     LPC_LCD->CRSR_CFG |= (0x01 << 1);
 2505              		.loc 1 752 0
 2506 10b8 184B     		ldr	r3, .L158
 2507 10ba 184A     		ldr	r2, .L158
 2508 10bc D2F8042C 		ldr	r2, [r2, #3076]
 2509 10c0 42F00202 		orr	r2, r2, #2
 2510 10c4 C3F8042C 		str	r2, [r3, #3076]
 2511              	.L157:
 753:../src/lib/lpc177x_8x/Drivers/source/lpc177x_8x_lcd.c **** 
 754:../src/lib/lpc177x_8x/Drivers/source/lpc177x_8x_lcd.c ****   lcd_cursor_base_addr = pConfig->baseaddress;
 2512              		.loc 1 754 0
 2513 10c8 7B68     		ldr	r3, [r7, #4]
 2514 10ca 9A68     		ldr	r2, [r3, #8]
 2515 10cc 154B     		ldr	r3, .L158+8
 2516 10ce 1A60     		str	r2, [r3, #0]
 755:../src/lib/lpc177x_8x/Drivers/source/lpc177x_8x_lcd.c ****   
 756:../src/lib/lpc177x_8x/Drivers/source/lpc177x_8x_lcd.c ****   LPC_LCD->CRSR_PAL0 = pConfig->palette[0].Red |
 2517              		.loc 1 756 0
 2518 10d0 124B     		ldr	r3, .L158
 2519 10d2 7A68     		ldr	r2, [r7, #4]
 2520 10d4 9278     		ldrb	r2, [r2, #2]	@ zero_extendqisi2
 2521 10d6 1146     		mov	r1, r2
 757:../src/lib/lpc177x_8x/Drivers/source/lpc177x_8x_lcd.c ****                        pConfig->palette[0].Green << 8 |
 2522              		.loc 1 757 0
 2523 10d8 7A68     		ldr	r2, [r7, #4]
 2524 10da D278     		ldrb	r2, [r2, #3]	@ zero_extendqisi2
 2525 10dc 4FEA0222 		lsl	r2, r2, #8
 756:../src/lib/lpc177x_8x/Drivers/source/lpc177x_8x_lcd.c ****   LPC_LCD->CRSR_PAL0 = pConfig->palette[0].Red |
 2526              		.loc 1 756 0
 2527 10e0 1143     		orrs	r1, r1, r2
 758:../src/lib/lpc177x_8x/Drivers/source/lpc177x_8x_lcd.c ****                        pConfig->palette[0].Blue << 16;
 2528              		.loc 1 758 0
 2529 10e2 7A68     		ldr	r2, [r7, #4]
 2530 10e4 1279     		ldrb	r2, [r2, #4]	@ zero_extendqisi2
 2531 10e6 4FEA0242 		lsl	r2, r2, #16
 757:../src/lib/lpc177x_8x/Drivers/source/lpc177x_8x_lcd.c ****                        pConfig->palette[0].Green << 8 |
 2532              		.loc 1 757 0
 2533 10ea 0A43     		orrs	r2, r2, r1
 756:../src/lib/lpc177x_8x/Drivers/source/lpc177x_8x_lcd.c ****   LPC_LCD->CRSR_PAL0 = pConfig->palette[0].Red |
 2534              		.loc 1 756 0
 2535 10ec C3F8082C 		str	r2, [r3, #3080]
 759:../src/lib/lpc177x_8x/Drivers/source/lpc177x_8x_lcd.c ****   LPC_LCD->CRSR_PAL1 = pConfig->palette[1].Red |
 2536              		.loc 1 759 0
 2537 10f0 0A4B     		ldr	r3, .L158
 2538 10f2 7A68     		ldr	r2, [r7, #4]
 2539 10f4 5279     		ldrb	r2, [r2, #5]	@ zero_extendqisi2
 2540 10f6 1146     		mov	r1, r2
 760:../src/lib/lpc177x_8x/Drivers/source/lpc177x_8x_lcd.c ****                        pConfig->palette[1].Green << 8 |
 2541              		.loc 1 760 0
 2542 10f8 7A68     		ldr	r2, [r7, #4]
 2543 10fa 9279     		ldrb	r2, [r2, #6]	@ zero_extendqisi2
 2544 10fc 4FEA0222 		lsl	r2, r2, #8
 759:../src/lib/lpc177x_8x/Drivers/source/lpc177x_8x_lcd.c ****   LPC_LCD->CRSR_PAL1 = pConfig->palette[1].Red |
 2545              		.loc 1 759 0
 2546 1100 1143     		orrs	r1, r1, r2
 761:../src/lib/lpc177x_8x/Drivers/source/lpc177x_8x_lcd.c ****                        pConfig->palette[1].Blue << 16;
 2547              		.loc 1 761 0
 2548 1102 7A68     		ldr	r2, [r7, #4]
 2549 1104 D279     		ldrb	r2, [r2, #7]	@ zero_extendqisi2
 2550 1106 4FEA0242 		lsl	r2, r2, #16
 760:../src/lib/lpc177x_8x/Drivers/source/lpc177x_8x_lcd.c ****                        pConfig->palette[1].Green << 8 |
 2551              		.loc 1 760 0
 2552 110a 0A43     		orrs	r2, r2, r1
 759:../src/lib/lpc177x_8x/Drivers/source/lpc177x_8x_lcd.c ****   LPC_LCD->CRSR_PAL1 = pConfig->palette[1].Red |
 2553              		.loc 1 759 0
 2554 110c C3F80C2C 		str	r2, [r3, #3084]
 762:../src/lib/lpc177x_8x/Drivers/source/lpc177x_8x_lcd.c **** 
 763:../src/lib/lpc177x_8x/Drivers/source/lpc177x_8x_lcd.c **** }
 2555              		.loc 1 763 0
 2556 1110 07F10C07 		add	r7, r7, #12
 2557 1114 BD46     		mov	sp, r7
 2558 1116 80BC     		pop	{r7}
 2559 1118 7047     		bx	lr
 2560              	.L159:
 2561 111a 00BF     		.align	2
 2562              	.L158:
 2563 111c 00800820 		.word	537427968
 2564 1120 00000000 		.word	lcd_cursor_size
 2565 1124 00000000 		.word	lcd_cursor_base_addr
 2566              		.cfi_endproc
 2567              	.LFE69:
 2569              		.align	2
 2570              		.global	LCD_Cursor_Enable
 2571              		.thumb
 2572              		.thumb_func
 2574              	LCD_Cursor_Enable:
 2575              	.LFB70:
 764:../src/lib/lpc177x_8x/Drivers/source/lpc177x_8x_lcd.c **** /*********************************************************************//**
 765:../src/lib/lpc177x_8x/Drivers/source/lpc177x_8x_lcd.c ****  * @brief       Enable/disable cursor display.
 766:../src/lib/lpc177x_8x/Drivers/source/lpc177x_8x_lcd.c ****  *
 767:../src/lib/lpc177x_8x/Drivers/source/lpc177x_8x_lcd.c ****  * @param[in] enable             0: disable, 1: enable.
 768:../src/lib/lpc177x_8x/Drivers/source/lpc177x_8x_lcd.c ****  * @param[in] cursor             identify which cursor image is used.
 769:../src/lib/lpc177x_8x/Drivers/source/lpc177x_8x_lcd.c ****  *
 770:../src/lib/lpc177x_8x/Drivers/source/lpc177x_8x_lcd.c ****  * @return  None.
 771:../src/lib/lpc177x_8x/Drivers/source/lpc177x_8x_lcd.c ****  *
 772:../src/lib/lpc177x_8x/Drivers/source/lpc177x_8x_lcd.c ****  **********************************************************************/
 773:../src/lib/lpc177x_8x/Drivers/source/lpc177x_8x_lcd.c **** void LCD_Cursor_Enable(int enable, int cursor)
 774:../src/lib/lpc177x_8x/Drivers/source/lpc177x_8x_lcd.c **** {
 2576              		.loc 1 774 0
 2577              		.cfi_startproc
 2578              		@ args = 0, pretend = 0, frame = 8
 2579              		@ frame_needed = 1, uses_anonymous_args = 0
 2580              		@ link register save eliminated.
 2581 1128 80B4     		push	{r7}
 2582              	.LCFI45:
 2583              		.cfi_def_cfa_offset 4
 2584              		.cfi_offset 7, -4
 2585 112a 83B0     		sub	sp, sp, #12
 2586              	.LCFI46:
 2587              		.cfi_def_cfa_offset 16
 2588 112c 00AF     		add	r7, sp, #0
 2589              	.LCFI47:
 2590              		.cfi_def_cfa_register 7
 2591 112e 7860     		str	r0, [r7, #4]
 2592 1130 3960     		str	r1, [r7, #0]
 775:../src/lib/lpc177x_8x/Drivers/source/lpc177x_8x_lcd.c ****   if(enable) {
 2593              		.loc 1 775 0
 2594 1132 7B68     		ldr	r3, [r7, #4]
 2595 1134 002B     		cmp	r3, #0
 2596 1136 12D0     		beq	.L161
 776:../src/lib/lpc177x_8x/Drivers/source/lpc177x_8x_lcd.c ****     LPC_LCD->CRSR_CTRL |= (1<<0);
 2597              		.loc 1 776 0
 2598 1138 0F4B     		ldr	r3, .L163
 2599 113a 0F4A     		ldr	r2, .L163
 2600 113c D2F8002C 		ldr	r2, [r2, #3072]
 2601 1140 42F00102 		orr	r2, r2, #1
 2602 1144 C3F8002C 		str	r2, [r3, #3072]
 777:../src/lib/lpc177x_8x/Drivers/source/lpc177x_8x_lcd.c ****     LPC_LCD->CRSR_CTRL |= (cursor<<4);
 2603              		.loc 1 777 0
 2604 1148 0B4B     		ldr	r3, .L163
 2605 114a 0B4A     		ldr	r2, .L163
 2606 114c D2F8001C 		ldr	r1, [r2, #3072]
 2607 1150 3A68     		ldr	r2, [r7, #0]
 2608 1152 4FEA0212 		lsl	r2, r2, #4
 2609 1156 0A43     		orrs	r2, r2, r1
 2610 1158 C3F8002C 		str	r2, [r3, #3072]
 2611 115c 07E0     		b	.L160
 2612              	.L161:
 778:../src/lib/lpc177x_8x/Drivers/source/lpc177x_8x_lcd.c ****   }
 779:../src/lib/lpc177x_8x/Drivers/source/lpc177x_8x_lcd.c ****   else {
 780:../src/lib/lpc177x_8x/Drivers/source/lpc177x_8x_lcd.c ****     LPC_LCD->CRSR_CTRL &= ~(1<<0);
 2613              		.loc 1 780 0
 2614 115e 064B     		ldr	r3, .L163
 2615 1160 054A     		ldr	r2, .L163
 2616 1162 D2F8002C 		ldr	r2, [r2, #3072]
 2617 1166 22F00102 		bic	r2, r2, #1
 2618 116a C3F8002C 		str	r2, [r3, #3072]
 2619              	.L160:
 781:../src/lib/lpc177x_8x/Drivers/source/lpc177x_8x_lcd.c ****   }
 782:../src/lib/lpc177x_8x/Drivers/source/lpc177x_8x_lcd.c **** }
 2620              		.loc 1 782 0
 2621 116e 07F10C07 		add	r7, r7, #12
 2622 1172 BD46     		mov	sp, r7
 2623 1174 80BC     		pop	{r7}
 2624 1176 7047     		bx	lr
 2625              	.L164:
 2626              		.align	2
 2627              	.L163:
 2628 1178 00800820 		.word	537427968
 2629              		.cfi_endproc
 2630              	.LFE70:
 2632              		.align	2
 2633              		.global	LCD_Move_Cursor
 2634              		.thumb
 2635              		.thumb_func
 2637              	LCD_Move_Cursor:
 2638              	.LFB71:
 783:../src/lib/lpc177x_8x/Drivers/source/lpc177x_8x_lcd.c **** 
 784:../src/lib/lpc177x_8x/Drivers/source/lpc177x_8x_lcd.c **** 
 785:../src/lib/lpc177x_8x/Drivers/source/lpc177x_8x_lcd.c **** /*********************************************************************//**
 786:../src/lib/lpc177x_8x/Drivers/source/lpc177x_8x_lcd.c ****  * @brief       move the cursor to the inputted position.
 787:../src/lib/lpc177x_8x/Drivers/source/lpc177x_8x_lcd.c ****  *
 788:../src/lib/lpc177x_8x/Drivers/source/lpc177x_8x_lcd.c ****  * @param[in] x          Position in x-direction.
 789:../src/lib/lpc177x_8x/Drivers/source/lpc177x_8x_lcd.c ****  * @param[in] y          Position in y-direction.
 790:../src/lib/lpc177x_8x/Drivers/source/lpc177x_8x_lcd.c ****  *
 791:../src/lib/lpc177x_8x/Drivers/source/lpc177x_8x_lcd.c ****  * @return  None.
 792:../src/lib/lpc177x_8x/Drivers/source/lpc177x_8x_lcd.c ****  *
 793:../src/lib/lpc177x_8x/Drivers/source/lpc177x_8x_lcd.c ****  **********************************************************************/
 794:../src/lib/lpc177x_8x/Drivers/source/lpc177x_8x_lcd.c **** void LCD_Move_Cursor(int x, int y)
 795:../src/lib/lpc177x_8x/Drivers/source/lpc177x_8x_lcd.c **** {
 2639              		.loc 1 795 0
 2640              		.cfi_startproc
 2641              		@ args = 0, pretend = 0, frame = 8
 2642              		@ frame_needed = 1, uses_anonymous_args = 0
 2643              		@ link register save eliminated.
 2644 117c 80B4     		push	{r7}
 2645              	.LCFI48:
 2646              		.cfi_def_cfa_offset 4
 2647              		.cfi_offset 7, -4
 2648 117e 83B0     		sub	sp, sp, #12
 2649              	.LCFI49:
 2650              		.cfi_def_cfa_offset 16
 2651 1180 00AF     		add	r7, sp, #0
 2652              	.LCFI50:
 2653              		.cfi_def_cfa_register 7
 2654 1182 7860     		str	r0, [r7, #4]
 2655 1184 3960     		str	r1, [r7, #0]
 796:../src/lib/lpc177x_8x/Drivers/source/lpc177x_8x_lcd.c ****   LPC_LCD->CRSR_CLIP = 0;
 2656              		.loc 1 796 0
 2657 1186 214B     		ldr	r3, .L170
 2658 1188 4FF00002 		mov	r2, #0
 2659 118c C3F8142C 		str	r2, [r3, #3092]
 797:../src/lib/lpc177x_8x/Drivers/source/lpc177x_8x_lcd.c ****   LPC_LCD->CRSR_XY = 0;
 2660              		.loc 1 797 0
 2661 1190 1E4B     		ldr	r3, .L170
 2662 1192 4FF00002 		mov	r2, #0
 2663 1196 C3F8102C 		str	r2, [r3, #3088]
 798:../src/lib/lpc177x_8x/Drivers/source/lpc177x_8x_lcd.c ****   if(0 <= x)
 2664              		.loc 1 798 0
 2665 119a 7B68     		ldr	r3, [r7, #4]
 2666 119c 002B     		cmp	r3, #0
 2667 119e 0CDB     		blt	.L166
 799:../src/lib/lpc177x_8x/Drivers/source/lpc177x_8x_lcd.c ****   {//no clipping
 800:../src/lib/lpc177x_8x/Drivers/source/lpc177x_8x_lcd.c ****     LPC_LCD->CRSR_XY |= (x & 0x3FF);
 2668              		.loc 1 800 0
 2669 11a0 1A4A     		ldr	r2, .L170
 2670 11a2 1A4B     		ldr	r3, .L170
 2671 11a4 D3F8101C 		ldr	r1, [r3, #3088]
 2672 11a8 7B68     		ldr	r3, [r7, #4]
 2673 11aa 4FEA8353 		lsl	r3, r3, #22
 2674 11ae 4FEA9353 		lsr	r3, r3, #22
 2675 11b2 0B43     		orrs	r3, r3, r1
 2676 11b4 C2F8103C 		str	r3, [r2, #3088]
 2677 11b8 09E0     		b	.L167
 2678              	.L166:
 801:../src/lib/lpc177x_8x/Drivers/source/lpc177x_8x_lcd.c ****   }
 802:../src/lib/lpc177x_8x/Drivers/source/lpc177x_8x_lcd.c ****   else
 803:../src/lib/lpc177x_8x/Drivers/source/lpc177x_8x_lcd.c ****   {//clip x
 804:../src/lib/lpc177x_8x/Drivers/source/lpc177x_8x_lcd.c ****     LPC_LCD->CRSR_CLIP |= -x;
 2679              		.loc 1 804 0
 2680 11ba 144B     		ldr	r3, .L170
 2681 11bc 134A     		ldr	r2, .L170
 2682 11be D2F8141C 		ldr	r1, [r2, #3092]
 2683 11c2 7A68     		ldr	r2, [r7, #4]
 2684 11c4 C2F10002 		rsb	r2, r2, #0
 2685 11c8 0A43     		orrs	r2, r2, r1
 2686 11ca C3F8142C 		str	r2, [r3, #3092]
 2687              	.L167:
 805:../src/lib/lpc177x_8x/Drivers/source/lpc177x_8x_lcd.c ****   }
 806:../src/lib/lpc177x_8x/Drivers/source/lpc177x_8x_lcd.c **** 
 807:../src/lib/lpc177x_8x/Drivers/source/lpc177x_8x_lcd.c ****   if(0 <= y)
 2688              		.loc 1 807 0
 2689 11ce 3B68     		ldr	r3, [r7, #0]
 2690 11d0 002B     		cmp	r3, #0
 2691 11d2 0ADB     		blt	.L168
 808:../src/lib/lpc177x_8x/Drivers/source/lpc177x_8x_lcd.c ****   {//no clipping
 809:../src/lib/lpc177x_8x/Drivers/source/lpc177x_8x_lcd.c **** 
 810:../src/lib/lpc177x_8x/Drivers/source/lpc177x_8x_lcd.c ****     LPC_LCD->CRSR_XY |= (y << 16);
 2692              		.loc 1 810 0
 2693 11d4 0D4B     		ldr	r3, .L170
 2694 11d6 0D4A     		ldr	r2, .L170
 2695 11d8 D2F8101C 		ldr	r1, [r2, #3088]
 2696 11dc 3A68     		ldr	r2, [r7, #0]
 2697 11de 4FEA0242 		lsl	r2, r2, #16
 2698 11e2 0A43     		orrs	r2, r2, r1
 2699 11e4 C3F8102C 		str	r2, [r3, #3088]
 2700 11e8 0BE0     		b	.L165
 2701              	.L168:
 811:../src/lib/lpc177x_8x/Drivers/source/lpc177x_8x_lcd.c ****   }
 812:../src/lib/lpc177x_8x/Drivers/source/lpc177x_8x_lcd.c ****   else
 813:../src/lib/lpc177x_8x/Drivers/source/lpc177x_8x_lcd.c ****   {//clip y
 814:../src/lib/lpc177x_8x/Drivers/source/lpc177x_8x_lcd.c ****     LPC_LCD->CRSR_CLIP |= (-y << 8);
 2702              		.loc 1 814 0
 2703 11ea 084B     		ldr	r3, .L170
 2704 11ec 074A     		ldr	r2, .L170
 2705 11ee D2F8141C 		ldr	r1, [r2, #3092]
 2706 11f2 3A68     		ldr	r2, [r7, #0]
 2707 11f4 C2F10002 		rsb	r2, r2, #0
 2708 11f8 4FEA0222 		lsl	r2, r2, #8
 2709 11fc 0A43     		orrs	r2, r2, r1
 2710 11fe C3F8142C 		str	r2, [r3, #3092]
 2711              	.L165:
 815:../src/lib/lpc177x_8x/Drivers/source/lpc177x_8x_lcd.c ****   }
 816:../src/lib/lpc177x_8x/Drivers/source/lpc177x_8x_lcd.c **** }
 2712              		.loc 1 816 0
 2713 1202 07F10C07 		add	r7, r7, #12
 2714 1206 BD46     		mov	sp, r7
 2715 1208 80BC     		pop	{r7}
 2716 120a 7047     		bx	lr
 2717              	.L171:
 2718              		.align	2
 2719              	.L170:
 2720 120c 00800820 		.word	537427968
 2721              		.cfi_endproc
 2722              	.LFE71:
 2724              		.align	2
 2725              		.global	LCD_Cursor_SetImage
 2726              		.thumb
 2727              		.thumb_func
 2729              	LCD_Cursor_SetImage:
 2730              	.LFB72:
 817:../src/lib/lpc177x_8x/Drivers/source/lpc177x_8x_lcd.c **** 
 818:../src/lib/lpc177x_8x/Drivers/source/lpc177x_8x_lcd.c **** /*********************************************************************//**
 819:../src/lib/lpc177x_8x/Drivers/source/lpc177x_8x_lcd.c ****  * @brief       Set the cursor image.
 820:../src/lib/lpc177x_8x/Drivers/source/lpc177x_8x_lcd.c ****  *
 821:../src/lib/lpc177x_8x/Drivers/source/lpc177x_8x_lcd.c ****  * @param[in] pCursor      point to cursor image.
 822:../src/lib/lpc177x_8x/Drivers/source/lpc177x_8x_lcd.c ****  * @param[in] cursor       cursor image number. It has no meaning when cursor size is 64x64
 823:../src/lib/lpc177x_8x/Drivers/source/lpc177x_8x_lcd.c ****  * @param[in] cursor       cursor size in words.
 824:../src/lib/lpc177x_8x/Drivers/source/lpc177x_8x_lcd.c ****  *
 825:../src/lib/lpc177x_8x/Drivers/source/lpc177x_8x_lcd.c ****  * @return  None.
 826:../src/lib/lpc177x_8x/Drivers/source/lpc177x_8x_lcd.c ****  *
 827:../src/lib/lpc177x_8x/Drivers/source/lpc177x_8x_lcd.c ****  **********************************************************************/
 828:../src/lib/lpc177x_8x/Drivers/source/lpc177x_8x_lcd.c **** void LCD_Cursor_SetImage (const uint32_t *pCursor, int cursor, int size)
 829:../src/lib/lpc177x_8x/Drivers/source/lpc177x_8x_lcd.c **** {
 2731              		.loc 1 829 0
 2732              		.cfi_startproc
 2733              		@ args = 0, pretend = 0, frame = 24
 2734              		@ frame_needed = 1, uses_anonymous_args = 0
 2735              		@ link register save eliminated.
 2736 1210 80B4     		push	{r7}
 2737              	.LCFI51:
 2738              		.cfi_def_cfa_offset 4
 2739              		.cfi_offset 7, -4
 2740 1212 87B0     		sub	sp, sp, #28
 2741              	.LCFI52:
 2742              		.cfi_def_cfa_offset 32
 2743 1214 00AF     		add	r7, sp, #0
 2744              	.LCFI53:
 2745              		.cfi_def_cfa_register 7
 2746 1216 F860     		str	r0, [r7, #12]
 2747 1218 B960     		str	r1, [r7, #8]
 2748 121a 7A60     		str	r2, [r7, #4]
 830:../src/lib/lpc177x_8x/Drivers/source/lpc177x_8x_lcd.c ****     uint32_t i ;
 831:../src/lib/lpc177x_8x/Drivers/source/lpc177x_8x_lcd.c ****     uint32_t * pDst = (uint32_t *)lcd_cursor_base_addr;
 2749              		.loc 1 831 0
 2750 121c 1A4B     		ldr	r3, .L178
 2751 121e 1B68     		ldr	r3, [r3, #0]
 2752 1220 3B61     		str	r3, [r7, #16]
 832:../src/lib/lpc177x_8x/Drivers/source/lpc177x_8x_lcd.c **** 
 833:../src/lib/lpc177x_8x/Drivers/source/lpc177x_8x_lcd.c ****     if(lcd_cursor_size == 32) 
 2753              		.loc 1 833 0
 2754 1222 1A4B     		ldr	r3, .L178+4
 2755 1224 1B68     		ldr	r3, [r3, #0]
 2756 1226 202B     		cmp	r3, #32
 2757 1228 10D1     		bne	.L173
 834:../src/lib/lpc177x_8x/Drivers/source/lpc177x_8x_lcd.c ****         pDst += cursor*GET_CURSOR_IMG_SIZE(lcd_cursor_size);
 2758              		.loc 1 834 0
 2759 122a 184B     		ldr	r3, .L178+4
 2760 122c 1B68     		ldr	r3, [r3, #0]
 2761 122e 202B     		cmp	r3, #32
 2762 1230 02D1     		bne	.L174
 2763              		.loc 1 834 0 is_stmt 0 discriminator 1
 2764 1232 4FF04003 		mov	r3, #64
 2765 1236 01E0     		b	.L175
 2766              	.L174:
 2767              		.loc 1 834 0 discriminator 2
 2768 1238 4FF48073 		mov	r3, #256
 2769              	.L175:
 2770              		.loc 1 834 0 discriminator 3
 2771 123c BA68     		ldr	r2, [r7, #8]
 2772 123e 02FB03F3 		mul	r3, r2, r3
 2773 1242 4FEA8303 		lsl	r3, r3, #2
 2774 1246 3A69     		ldr	r2, [r7, #16]
 2775 1248 D318     		adds	r3, r2, r3
 2776 124a 3B61     		str	r3, [r7, #16]
 2777              	.L173:
 835:../src/lib/lpc177x_8x/Drivers/source/lpc177x_8x_lcd.c ****         
 836:../src/lib/lpc177x_8x/Drivers/source/lpc177x_8x_lcd.c **** 
 837:../src/lib/lpc177x_8x/Drivers/source/lpc177x_8x_lcd.c ****     for(i = 0; i < size ; i++) 
 2778              		.loc 1 837 0 is_stmt 1
 2779 124c 4FF00003 		mov	r3, #0
 2780 1250 7B61     		str	r3, [r7, #20]
 2781 1252 0FE0     		b	.L176
 2782              	.L177:
 838:../src/lib/lpc177x_8x/Drivers/source/lpc177x_8x_lcd.c ****     {
 839:../src/lib/lpc177x_8x/Drivers/source/lpc177x_8x_lcd.c ****     *pDst = *pCursor;
 2783              		.loc 1 839 0 discriminator 2
 2784 1254 FB68     		ldr	r3, [r7, #12]
 2785 1256 1A68     		ldr	r2, [r3, #0]
 2786 1258 3B69     		ldr	r3, [r7, #16]
 2787 125a 1A60     		str	r2, [r3, #0]
 840:../src/lib/lpc177x_8x/Drivers/source/lpc177x_8x_lcd.c ****     pDst++;
 2788              		.loc 1 840 0 discriminator 2
 2789 125c 3B69     		ldr	r3, [r7, #16]
 2790 125e 03F10403 		add	r3, r3, #4
 2791 1262 3B61     		str	r3, [r7, #16]
 841:../src/lib/lpc177x_8x/Drivers/source/lpc177x_8x_lcd.c ****     pCursor++;
 2792              		.loc 1 841 0 discriminator 2
 2793 1264 FB68     		ldr	r3, [r7, #12]
 2794 1266 03F10403 		add	r3, r3, #4
 2795 126a FB60     		str	r3, [r7, #12]
 837:../src/lib/lpc177x_8x/Drivers/source/lpc177x_8x_lcd.c ****     for(i = 0; i < size ; i++) 
 2796              		.loc 1 837 0 discriminator 2
 2797 126c 7B69     		ldr	r3, [r7, #20]
 2798 126e 03F10103 		add	r3, r3, #1
 2799 1272 7B61     		str	r3, [r7, #20]
 2800              	.L176:
 837:../src/lib/lpc177x_8x/Drivers/source/lpc177x_8x_lcd.c ****     for(i = 0; i < size ; i++) 
 2801              		.loc 1 837 0 is_stmt 0 discriminator 1
 2802 1274 7A68     		ldr	r2, [r7, #4]
 2803 1276 7B69     		ldr	r3, [r7, #20]
 2804 1278 9A42     		cmp	r2, r3
 2805 127a EBD8     		bhi	.L177
 842:../src/lib/lpc177x_8x/Drivers/source/lpc177x_8x_lcd.c ****     }
 843:../src/lib/lpc177x_8x/Drivers/source/lpc177x_8x_lcd.c **** }
 2806              		.loc 1 843 0 is_stmt 1
 2807 127c 07F11C07 		add	r7, r7, #28
 2808 1280 BD46     		mov	sp, r7
 2809 1282 80BC     		pop	{r7}
 2810 1284 7047     		bx	lr
 2811              	.L179:
 2812 1286 00BF     		.align	2
 2813              	.L178:
 2814 1288 00000000 		.word	lcd_cursor_base_addr
 2815 128c 00000000 		.word	lcd_cursor_size
 2816              		.cfi_endproc
 2817              	.LFE72:
 2819              	.Letext0:
 2820              		.file 2 "g:\\program files\\codesourcery\\sourcery_codebench_lite_for_arm_eabi\\bin\\../lib/gcc/ar
 2821              		.file 3 "D:\\workspace_gnu\\RTT_Demo0\\src\\lib\\lpc177x_8x\\Drivers\\include/lpc_types.h"
 2822              		.file 4 "D:\\workspace_gnu\\RTT_Demo0\\src\\lib\\lpc177x_8x\\Core\\Device\\NXP\\LPC177x_8x\\Includ
 2823              		.file 5 "D:\\workspace_gnu\\RTT_Demo0\\src\\lib\\lpc177x_8x\\Drivers\\include/lpc177x_8x_lcd.h"
 2824              		.file 6 "D:\\workspace_gnu\\RTT_Demo0\\src\\lib\\lpc177x_8x\\Core\\CMSIS\\Include/core_cm3.h"