   1              		.syntax unified
   2              		.cpu cortex-m4
   3              		.fpu softvfp
   4              		.eabi_attribute 20, 1
   5              		.eabi_attribute 21, 1
   6              		.eabi_attribute 23, 3
   7              		.eabi_attribute 24, 1
   8              		.eabi_attribute 25, 1
   9              		.eabi_attribute 26, 1
  10              		.eabi_attribute 30, 6
  11              		.eabi_attribute 34, 1
  12              		.eabi_attribute 18, 4
  13              		.thumb
  14              		.file	"lpc177x_8x_i2s.c"
  15              		.text
  16              	.Ltext0:
  17              		.cfi_sections	.debug_frame
  18              		.align	2
  19              		.thumb
  20              		.thumb_func
  22              	i2s_GetWordWidth:
  23              	.LFB55:
  24              		.file 1 "../src/lib/lpc177x_8x/Drivers/source/lpc177x_8x_i2s.c"
   1:../src/lib/lpc177x_8x/Drivers/source/lpc177x_8x_i2s.c **** /**********************************************************************
   2:../src/lib/lpc177x_8x/Drivers/source/lpc177x_8x_i2s.c **** * $Id$      lpc177x_8x_i2s.c            2011-06-02
   3:../src/lib/lpc177x_8x/Drivers/source/lpc177x_8x_i2s.c **** *//**
   4:../src/lib/lpc177x_8x/Drivers/source/lpc177x_8x_i2s.c **** * @file     lpc177x_8x_i2s.c
   5:../src/lib/lpc177x_8x/Drivers/source/lpc177x_8x_i2s.c **** * @brief    Contains all functions support for I2S firmware library
   6:../src/lib/lpc177x_8x/Drivers/source/lpc177x_8x_i2s.c **** *           on LPC177x_8x
   7:../src/lib/lpc177x_8x/Drivers/source/lpc177x_8x_i2s.c **** * @version  1.0
   8:../src/lib/lpc177x_8x/Drivers/source/lpc177x_8x_i2s.c **** * @date     02. June. 2011
   9:../src/lib/lpc177x_8x/Drivers/source/lpc177x_8x_i2s.c **** * @author   NXP MCU SW Application Team
  10:../src/lib/lpc177x_8x/Drivers/source/lpc177x_8x_i2s.c **** * 
  11:../src/lib/lpc177x_8x/Drivers/source/lpc177x_8x_i2s.c **** * Copyright(C) 2011, NXP Semiconductor
  12:../src/lib/lpc177x_8x/Drivers/source/lpc177x_8x_i2s.c **** * All rights reserved.
  13:../src/lib/lpc177x_8x/Drivers/source/lpc177x_8x_i2s.c **** *
  14:../src/lib/lpc177x_8x/Drivers/source/lpc177x_8x_i2s.c **** ***********************************************************************
  15:../src/lib/lpc177x_8x/Drivers/source/lpc177x_8x_i2s.c **** * Software that is described herein is for illustrative purposes only
  16:../src/lib/lpc177x_8x/Drivers/source/lpc177x_8x_i2s.c **** * which provides customers with programming information regarding the
  17:../src/lib/lpc177x_8x/Drivers/source/lpc177x_8x_i2s.c **** * products. This software is supplied "AS IS" without any warranties.
  18:../src/lib/lpc177x_8x/Drivers/source/lpc177x_8x_i2s.c **** * NXP Semiconductors assumes no responsibility or liability for the
  19:../src/lib/lpc177x_8x/Drivers/source/lpc177x_8x_i2s.c **** * use of the software, conveys no license or title under any patent,
  20:../src/lib/lpc177x_8x/Drivers/source/lpc177x_8x_i2s.c **** * copyright, or mask work right to the product. NXP Semiconductors
  21:../src/lib/lpc177x_8x/Drivers/source/lpc177x_8x_i2s.c **** * reserves the right to make changes in the software without
  22:../src/lib/lpc177x_8x/Drivers/source/lpc177x_8x_i2s.c **** * notification. NXP Semiconductors also make no representation or
  23:../src/lib/lpc177x_8x/Drivers/source/lpc177x_8x_i2s.c **** * warranty that such application will be suitable for the specified
  24:../src/lib/lpc177x_8x/Drivers/source/lpc177x_8x_i2s.c **** * use without further testing or modification.
  25:../src/lib/lpc177x_8x/Drivers/source/lpc177x_8x_i2s.c **** * Permission to use, copy, modify, and distribute this software and its
  26:../src/lib/lpc177x_8x/Drivers/source/lpc177x_8x_i2s.c **** * documentation is hereby granted, under NXP Semiconductors'
  27:../src/lib/lpc177x_8x/Drivers/source/lpc177x_8x_i2s.c **** * relevant copyright in the software, without fee, provided that it
  28:../src/lib/lpc177x_8x/Drivers/source/lpc177x_8x_i2s.c **** * is used in conjunction with NXP Semiconductors microcontrollers.  This
  29:../src/lib/lpc177x_8x/Drivers/source/lpc177x_8x_i2s.c **** * copyright, permission, and disclaimer notice must appear in all copies of
  30:../src/lib/lpc177x_8x/Drivers/source/lpc177x_8x_i2s.c **** * this code.
  31:../src/lib/lpc177x_8x/Drivers/source/lpc177x_8x_i2s.c **** **********************************************************************/
  32:../src/lib/lpc177x_8x/Drivers/source/lpc177x_8x_i2s.c **** 
  33:../src/lib/lpc177x_8x/Drivers/source/lpc177x_8x_i2s.c **** /* Peripheral group ----------------------------------------------------------- */
  34:../src/lib/lpc177x_8x/Drivers/source/lpc177x_8x_i2s.c **** /** @addtogroup I2S
  35:../src/lib/lpc177x_8x/Drivers/source/lpc177x_8x_i2s.c ****  * @{
  36:../src/lib/lpc177x_8x/Drivers/source/lpc177x_8x_i2s.c ****  */
  37:../src/lib/lpc177x_8x/Drivers/source/lpc177x_8x_i2s.c **** #ifdef __BUILD_WITH_EXAMPLE__
  38:../src/lib/lpc177x_8x/Drivers/source/lpc177x_8x_i2s.c **** #include "lpc177x_8x_libcfg.h"
  39:../src/lib/lpc177x_8x/Drivers/source/lpc177x_8x_i2s.c **** #else
  40:../src/lib/lpc177x_8x/Drivers/source/lpc177x_8x_i2s.c **** #include "lpc177x_8x_libcfg_default.h"
  41:../src/lib/lpc177x_8x/Drivers/source/lpc177x_8x_i2s.c **** #endif /* __BUILD_WITH_EXAMPLE__ */
  42:../src/lib/lpc177x_8x/Drivers/source/lpc177x_8x_i2s.c **** #ifdef _I2S
  43:../src/lib/lpc177x_8x/Drivers/source/lpc177x_8x_i2s.c **** 
  44:../src/lib/lpc177x_8x/Drivers/source/lpc177x_8x_i2s.c **** /* Includes ------------------------------------------------------------------- */
  45:../src/lib/lpc177x_8x/Drivers/source/lpc177x_8x_i2s.c **** #include "lpc177x_8x_i2s.h"
  46:../src/lib/lpc177x_8x/Drivers/source/lpc177x_8x_i2s.c **** #include "lpc177x_8x_clkpwr.h"
  47:../src/lib/lpc177x_8x/Drivers/source/lpc177x_8x_i2s.c **** 
  48:../src/lib/lpc177x_8x/Drivers/source/lpc177x_8x_i2s.c **** /* definitions ---------------------------------------------------------- */
  49:../src/lib/lpc177x_8x/Drivers/source/lpc177x_8x_i2s.c **** #define    I2S_IS_ENABLED(x)   ((x)? ENABLE:DISABLE)
  50:../src/lib/lpc177x_8x/Drivers/source/lpc177x_8x_i2s.c **** /* Private Functions ---------------------------------------------------------- */
  51:../src/lib/lpc177x_8x/Drivers/source/lpc177x_8x_i2s.c **** 
  52:../src/lib/lpc177x_8x/Drivers/source/lpc177x_8x_i2s.c **** static uint8_t i2s_GetWordWidth(LPC_I2S_TypeDef *I2Sx, uint8_t TRMode);
  53:../src/lib/lpc177x_8x/Drivers/source/lpc177x_8x_i2s.c **** static uint8_t i2s_GetChannel(LPC_I2S_TypeDef *I2Sx, uint8_t TRMode);
  54:../src/lib/lpc177x_8x/Drivers/source/lpc177x_8x_i2s.c **** 
  55:../src/lib/lpc177x_8x/Drivers/source/lpc177x_8x_i2s.c **** /********************************************************************//**
  56:../src/lib/lpc177x_8x/Drivers/source/lpc177x_8x_i2s.c ****  * @brief       Get I2S wordwidth value
  57:../src/lib/lpc177x_8x/Drivers/source/lpc177x_8x_i2s.c ****  * @param[in]   I2Sx I2S peripheral selected, should be: LPC_I2S
  58:../src/lib/lpc177x_8x/Drivers/source/lpc177x_8x_i2s.c ****  * @param[in]   TRMode is the I2S mode, should be:
  59:../src/lib/lpc177x_8x/Drivers/source/lpc177x_8x_i2s.c ****  *              - I2S_TX_MODE = 0: transmit mode
  60:../src/lib/lpc177x_8x/Drivers/source/lpc177x_8x_i2s.c ****  *              - I2S_RX_MODE = 1: receive mode
  61:../src/lib/lpc177x_8x/Drivers/source/lpc177x_8x_i2s.c ****  * @return      The wordwidth value, should be: 8,16 or 32
  62:../src/lib/lpc177x_8x/Drivers/source/lpc177x_8x_i2s.c ****  *********************************************************************/
  63:../src/lib/lpc177x_8x/Drivers/source/lpc177x_8x_i2s.c **** static uint8_t i2s_GetWordWidth(LPC_I2S_TypeDef *I2Sx, uint8_t TRMode) {
  25              		.loc 1 63 0
  26              		.cfi_startproc
  27              		@ args = 0, pretend = 0, frame = 16
  28              		@ frame_needed = 1, uses_anonymous_args = 0
  29              		@ link register save eliminated.
  30 0000 80B4     		push	{r7}
  31              	.LCFI0:
  32              		.cfi_def_cfa_offset 4
  33              		.cfi_offset 7, -4
  34 0002 85B0     		sub	sp, sp, #20
  35              	.LCFI1:
  36              		.cfi_def_cfa_offset 24
  37 0004 00AF     		add	r7, sp, #0
  38              	.LCFI2:
  39              		.cfi_def_cfa_register 7
  40 0006 7860     		str	r0, [r7, #4]
  41 0008 0B46     		mov	r3, r1
  42 000a FB70     		strb	r3, [r7, #3]
  64:../src/lib/lpc177x_8x/Drivers/source/lpc177x_8x_i2s.c ****     uint8_t value;
  65:../src/lib/lpc177x_8x/Drivers/source/lpc177x_8x_i2s.c **** 
  66:../src/lib/lpc177x_8x/Drivers/source/lpc177x_8x_i2s.c ****     if (TRMode == I2S_TX_MODE) {
  43              		.loc 1 66 0
  44 000c FB78     		ldrb	r3, [r7, #3]	@ zero_extendqisi2
  45 000e 002B     		cmp	r3, #0
  46 0010 06D1     		bne	.L2
  67:../src/lib/lpc177x_8x/Drivers/source/lpc177x_8x_i2s.c ****         value = (I2Sx->DAO) & 0x03; /* get wordwidth bit */
  47              		.loc 1 67 0
  48 0012 7B68     		ldr	r3, [r7, #4]
  49 0014 1B68     		ldr	r3, [r3, #0]
  50 0016 DBB2     		uxtb	r3, r3
  51 0018 03F00303 		and	r3, r3, #3
  52 001c FB73     		strb	r3, [r7, #15]
  53 001e 05E0     		b	.L3
  54              	.L2:
  68:../src/lib/lpc177x_8x/Drivers/source/lpc177x_8x_i2s.c ****     } else {
  69:../src/lib/lpc177x_8x/Drivers/source/lpc177x_8x_i2s.c ****         value = (I2Sx->DAI) & 0x03; /* get wordwidth bit */
  55              		.loc 1 69 0
  56 0020 7B68     		ldr	r3, [r7, #4]
  57 0022 5B68     		ldr	r3, [r3, #4]
  58 0024 DBB2     		uxtb	r3, r3
  59 0026 03F00303 		and	r3, r3, #3
  60 002a FB73     		strb	r3, [r7, #15]
  61              	.L3:
  70:../src/lib/lpc177x_8x/Drivers/source/lpc177x_8x_i2s.c ****     }
  71:../src/lib/lpc177x_8x/Drivers/source/lpc177x_8x_i2s.c ****     switch (value) {
  62              		.loc 1 71 0
  63 002c FB7B     		ldrb	r3, [r7, #15]	@ zero_extendqisi2
  64 002e 002B     		cmp	r3, #0
  65 0030 02D0     		beq	.L5
  66 0032 012B     		cmp	r3, #1
  67 0034 03D0     		beq	.L6
  68 0036 05E0     		b	.L8
  69              	.L5:
  72:../src/lib/lpc177x_8x/Drivers/source/lpc177x_8x_i2s.c ****     case I2S_WORDWIDTH_8:
  73:../src/lib/lpc177x_8x/Drivers/source/lpc177x_8x_i2s.c ****         return 8;
  70              		.loc 1 73 0
  71 0038 4FF00803 		mov	r3, #8
  72 003c 04E0     		b	.L7
  73              	.L6:
  74:../src/lib/lpc177x_8x/Drivers/source/lpc177x_8x_i2s.c ****     case I2S_WORDWIDTH_16:
  75:../src/lib/lpc177x_8x/Drivers/source/lpc177x_8x_i2s.c ****         return 16;
  74              		.loc 1 75 0
  75 003e 4FF01003 		mov	r3, #16
  76 0042 01E0     		b	.L7
  77              	.L8:
  76:../src/lib/lpc177x_8x/Drivers/source/lpc177x_8x_i2s.c ****     default:
  77:../src/lib/lpc177x_8x/Drivers/source/lpc177x_8x_i2s.c ****         return 32;
  78              		.loc 1 77 0
  79 0044 4FF02003 		mov	r3, #32
  80              	.L7:
  78:../src/lib/lpc177x_8x/Drivers/source/lpc177x_8x_i2s.c ****     }
  79:../src/lib/lpc177x_8x/Drivers/source/lpc177x_8x_i2s.c **** }
  81              		.loc 1 79 0
  82 0048 1846     		mov	r0, r3
  83 004a 07F11407 		add	r7, r7, #20
  84 004e BD46     		mov	sp, r7
  85 0050 80BC     		pop	{r7}
  86 0052 7047     		bx	lr
  87              		.cfi_endproc
  88              	.LFE55:
  90              		.align	2
  91              		.thumb
  92              		.thumb_func
  94              	i2s_GetChannel:
  95              	.LFB56:
  80:../src/lib/lpc177x_8x/Drivers/source/lpc177x_8x_i2s.c **** 
  81:../src/lib/lpc177x_8x/Drivers/source/lpc177x_8x_i2s.c **** /********************************************************************//**
  82:../src/lib/lpc177x_8x/Drivers/source/lpc177x_8x_i2s.c ****  * @brief       Get I2S channel value
  83:../src/lib/lpc177x_8x/Drivers/source/lpc177x_8x_i2s.c ****  * @param[in]   I2Sx I2S peripheral selected, should be: LPC_I2S
  84:../src/lib/lpc177x_8x/Drivers/source/lpc177x_8x_i2s.c ****  * @param[in]   TRMode is the I2S mode, should be:
  85:../src/lib/lpc177x_8x/Drivers/source/lpc177x_8x_i2s.c ****  *              - I2S_TX_MODE = 0: transmit mode
  86:../src/lib/lpc177x_8x/Drivers/source/lpc177x_8x_i2s.c ****  *              - I2S_RX_MODE = 1: receive mode
  87:../src/lib/lpc177x_8x/Drivers/source/lpc177x_8x_i2s.c ****  * @return      The channel value, should be: 1(mono) or 2(stereo)
  88:../src/lib/lpc177x_8x/Drivers/source/lpc177x_8x_i2s.c ****  *********************************************************************/
  89:../src/lib/lpc177x_8x/Drivers/source/lpc177x_8x_i2s.c **** static uint8_t i2s_GetChannel(LPC_I2S_TypeDef *I2Sx, uint8_t TRMode) {
  96              		.loc 1 89 0
  97              		.cfi_startproc
  98              		@ args = 0, pretend = 0, frame = 16
  99              		@ frame_needed = 1, uses_anonymous_args = 0
 100              		@ link register save eliminated.
 101 0054 80B4     		push	{r7}
 102              	.LCFI3:
 103              		.cfi_def_cfa_offset 4
 104              		.cfi_offset 7, -4
 105 0056 85B0     		sub	sp, sp, #20
 106              	.LCFI4:
 107              		.cfi_def_cfa_offset 24
 108 0058 00AF     		add	r7, sp, #0
 109              	.LCFI5:
 110              		.cfi_def_cfa_register 7
 111 005a 7860     		str	r0, [r7, #4]
 112 005c 0B46     		mov	r3, r1
 113 005e FB70     		strb	r3, [r7, #3]
  90:../src/lib/lpc177x_8x/Drivers/source/lpc177x_8x_i2s.c ****     uint8_t value;
  91:../src/lib/lpc177x_8x/Drivers/source/lpc177x_8x_i2s.c **** 
  92:../src/lib/lpc177x_8x/Drivers/source/lpc177x_8x_i2s.c ****     if (TRMode == I2S_TX_MODE) {
 114              		.loc 1 92 0
 115 0060 FB78     		ldrb	r3, [r7, #3]	@ zero_extendqisi2
 116 0062 002B     		cmp	r3, #0
 117 0064 07D1     		bne	.L10
  93:../src/lib/lpc177x_8x/Drivers/source/lpc177x_8x_i2s.c ****         value = ((I2Sx->DAO) & 0x04)>>2; /* get bit[2] */
 118              		.loc 1 93 0
 119 0066 7B68     		ldr	r3, [r7, #4]
 120 0068 1B68     		ldr	r3, [r3, #0]
 121 006a 03F00403 		and	r3, r3, #4
 122 006e 4FEA9303 		lsr	r3, r3, #2
 123 0072 FB73     		strb	r3, [r7, #15]
 124 0074 06E0     		b	.L11
 125              	.L10:
  94:../src/lib/lpc177x_8x/Drivers/source/lpc177x_8x_i2s.c ****     } else {
  95:../src/lib/lpc177x_8x/Drivers/source/lpc177x_8x_i2s.c ****         value = ((I2Sx->DAI) & 0x04)>>2; /* get bit[2] */
 126              		.loc 1 95 0
 127 0076 7B68     		ldr	r3, [r7, #4]
 128 0078 5B68     		ldr	r3, [r3, #4]
 129 007a 03F00403 		and	r3, r3, #4
 130 007e 4FEA9303 		lsr	r3, r3, #2
 131 0082 FB73     		strb	r3, [r7, #15]
 132              	.L11:
  96:../src/lib/lpc177x_8x/Drivers/source/lpc177x_8x_i2s.c ****     }
  97:../src/lib/lpc177x_8x/Drivers/source/lpc177x_8x_i2s.c ****         if(value == I2S_MONO) return 1;
 133              		.loc 1 97 0
 134 0084 FB7B     		ldrb	r3, [r7, #15]	@ zero_extendqisi2
 135 0086 012B     		cmp	r3, #1
 136 0088 02D1     		bne	.L12
 137              		.loc 1 97 0 is_stmt 0 discriminator 1
 138 008a 4FF00103 		mov	r3, #1
 139 008e 01E0     		b	.L13
 140              	.L12:
  98:../src/lib/lpc177x_8x/Drivers/source/lpc177x_8x_i2s.c ****           return 2;
 141              		.loc 1 98 0 is_stmt 1
 142 0090 4FF00203 		mov	r3, #2
 143              	.L13:
  99:../src/lib/lpc177x_8x/Drivers/source/lpc177x_8x_i2s.c **** }
 144              		.loc 1 99 0
 145 0094 1846     		mov	r0, r3
 146 0096 07F11407 		add	r7, r7, #20
 147 009a BD46     		mov	sp, r7
 148 009c 80BC     		pop	{r7}
 149 009e 7047     		bx	lr
 150              		.cfi_endproc
 151              	.LFE56:
 153              		.align	2
 154              		.global	I2S_Init
 155              		.thumb
 156              		.thumb_func
 158              	I2S_Init:
 159              	.LFB57:
 100:../src/lib/lpc177x_8x/Drivers/source/lpc177x_8x_i2s.c **** 
 101:../src/lib/lpc177x_8x/Drivers/source/lpc177x_8x_i2s.c **** /* End of Private Functions --------------------------------------------------- */
 102:../src/lib/lpc177x_8x/Drivers/source/lpc177x_8x_i2s.c **** 
 103:../src/lib/lpc177x_8x/Drivers/source/lpc177x_8x_i2s.c **** 
 104:../src/lib/lpc177x_8x/Drivers/source/lpc177x_8x_i2s.c **** /* Public Functions ----------------------------------------------------------- */
 105:../src/lib/lpc177x_8x/Drivers/source/lpc177x_8x_i2s.c **** /** @addtogroup I2S_Public_Functions
 106:../src/lib/lpc177x_8x/Drivers/source/lpc177x_8x_i2s.c ****  * @{
 107:../src/lib/lpc177x_8x/Drivers/source/lpc177x_8x_i2s.c ****  */
 108:../src/lib/lpc177x_8x/Drivers/source/lpc177x_8x_i2s.c **** 
 109:../src/lib/lpc177x_8x/Drivers/source/lpc177x_8x_i2s.c **** /********************************************************************//**
 110:../src/lib/lpc177x_8x/Drivers/source/lpc177x_8x_i2s.c ****  * @brief       Initialize I2S
 111:../src/lib/lpc177x_8x/Drivers/source/lpc177x_8x_i2s.c ****  *                  - Turn on power and clock
 112:../src/lib/lpc177x_8x/Drivers/source/lpc177x_8x_i2s.c ****  * @param[in]   I2Sx I2S peripheral selected, should be: LPC_I2S
 113:../src/lib/lpc177x_8x/Drivers/source/lpc177x_8x_i2s.c ****  * @return      none
 114:../src/lib/lpc177x_8x/Drivers/source/lpc177x_8x_i2s.c ****  *********************************************************************/
 115:../src/lib/lpc177x_8x/Drivers/source/lpc177x_8x_i2s.c **** void I2S_Init(LPC_I2S_TypeDef *I2Sx) {
 160              		.loc 1 115 0
 161              		.cfi_startproc
 162              		@ args = 0, pretend = 0, frame = 8
 163              		@ frame_needed = 1, uses_anonymous_args = 0
 164 00a0 80B5     		push	{r7, lr}
 165              	.LCFI6:
 166              		.cfi_def_cfa_offset 8
 167              		.cfi_offset 7, -8
 168              		.cfi_offset 14, -4
 169 00a2 82B0     		sub	sp, sp, #8
 170              	.LCFI7:
 171              		.cfi_def_cfa_offset 16
 172 00a4 00AF     		add	r7, sp, #0
 173              	.LCFI8:
 174              		.cfi_def_cfa_register 7
 175 00a6 7860     		str	r0, [r7, #4]
 116:../src/lib/lpc177x_8x/Drivers/source/lpc177x_8x_i2s.c ****     // Turn on power and clock
 117:../src/lib/lpc177x_8x/Drivers/source/lpc177x_8x_i2s.c ****     CLKPWR_ConfigPPWR(CLKPWR_PCONP_PCI2S, ENABLE);
 176              		.loc 1 117 0
 177 00a8 4FF00060 		mov	r0, #134217728
 178 00ac 4FF00101 		mov	r1, #1
 179 00b0 FFF7FEFF 		bl	CLKPWR_ConfigPPWR
 118:../src/lib/lpc177x_8x/Drivers/source/lpc177x_8x_i2s.c ****     LPC_I2S->DAI = LPC_I2S->DAO = 0x00;
 180              		.loc 1 118 0
 181 00b4 044A     		ldr	r2, .L15
 182 00b6 0449     		ldr	r1, .L15
 183 00b8 4FF00003 		mov	r3, #0
 184 00bc 0B60     		str	r3, [r1, #0]
 185 00be 5360     		str	r3, [r2, #4]
 119:../src/lib/lpc177x_8x/Drivers/source/lpc177x_8x_i2s.c **** }
 186              		.loc 1 119 0
 187 00c0 07F10807 		add	r7, r7, #8
 188 00c4 BD46     		mov	sp, r7
 189 00c6 80BD     		pop	{r7, pc}
 190              	.L16:
 191              		.align	2
 192              	.L15:
 193 00c8 00800A40 		.word	1074429952
 194              		.cfi_endproc
 195              	.LFE57:
 197              		.align	2
 198              		.global	I2S_Config
 199              		.thumb
 200              		.thumb_func
 202              	I2S_Config:
 203              	.LFB58:
 120:../src/lib/lpc177x_8x/Drivers/source/lpc177x_8x_i2s.c **** 
 121:../src/lib/lpc177x_8x/Drivers/source/lpc177x_8x_i2s.c **** /********************************************************************//**
 122:../src/lib/lpc177x_8x/Drivers/source/lpc177x_8x_i2s.c ****  * @brief       Configuration I2S, setting:
 123:../src/lib/lpc177x_8x/Drivers/source/lpc177x_8x_i2s.c ****  *                  - master/slave mode
 124:../src/lib/lpc177x_8x/Drivers/source/lpc177x_8x_i2s.c ****  *                  - wordwidth value
 125:../src/lib/lpc177x_8x/Drivers/source/lpc177x_8x_i2s.c ****  *                  - channel mode
 126:../src/lib/lpc177x_8x/Drivers/source/lpc177x_8x_i2s.c ****  * @param[in]   I2Sx I2S peripheral selected, should be: LPC_I2S
 127:../src/lib/lpc177x_8x/Drivers/source/lpc177x_8x_i2s.c ****  * @param[in]   TRMode transmit/receive mode, should be:
 128:../src/lib/lpc177x_8x/Drivers/source/lpc177x_8x_i2s.c ****  *                  - I2S_TX_MODE = 0: transmit mode
 129:../src/lib/lpc177x_8x/Drivers/source/lpc177x_8x_i2s.c ****  *                  - I2S_RX_MODE = 1: receive mode
 130:../src/lib/lpc177x_8x/Drivers/source/lpc177x_8x_i2s.c ****  * @param[in]   ConfigStruct pointer to I2S_CFG_Type structure
 131:../src/lib/lpc177x_8x/Drivers/source/lpc177x_8x_i2s.c ****  *              which will be initialized.
 132:../src/lib/lpc177x_8x/Drivers/source/lpc177x_8x_i2s.c ****  * @return      none
 133:../src/lib/lpc177x_8x/Drivers/source/lpc177x_8x_i2s.c ****  *********************************************************************/
 134:../src/lib/lpc177x_8x/Drivers/source/lpc177x_8x_i2s.c **** void I2S_Config(LPC_I2S_TypeDef *I2Sx, uint8_t TRMode, I2S_CFG_Type* ConfigStruct)
 135:../src/lib/lpc177x_8x/Drivers/source/lpc177x_8x_i2s.c **** {
 204              		.loc 1 135 0
 205              		.cfi_startproc
 206              		@ args = 0, pretend = 0, frame = 24
 207              		@ frame_needed = 1, uses_anonymous_args = 0
 208              		@ link register save eliminated.
 209 00cc 80B4     		push	{r7}
 210              	.LCFI9:
 211              		.cfi_def_cfa_offset 4
 212              		.cfi_offset 7, -4
 213 00ce 87B0     		sub	sp, sp, #28
 214              	.LCFI10:
 215              		.cfi_def_cfa_offset 32
 216 00d0 00AF     		add	r7, sp, #0
 217              	.LCFI11:
 218              		.cfi_def_cfa_register 7
 219 00d2 F860     		str	r0, [r7, #12]
 220 00d4 0B46     		mov	r3, r1
 221 00d6 7A60     		str	r2, [r7, #4]
 222 00d8 FB72     		strb	r3, [r7, #11]
 136:../src/lib/lpc177x_8x/Drivers/source/lpc177x_8x_i2s.c ****     uint32_t bps, config;
 137:../src/lib/lpc177x_8x/Drivers/source/lpc177x_8x_i2s.c ****     /* Setup clock */
 138:../src/lib/lpc177x_8x/Drivers/source/lpc177x_8x_i2s.c ****     bps = (ConfigStruct->wordwidth +1)*8;
 223              		.loc 1 138 0
 224 00da 7B68     		ldr	r3, [r7, #4]
 225 00dc 1B78     		ldrb	r3, [r3, #0]	@ zero_extendqisi2
 226 00de 03F10103 		add	r3, r3, #1
 227 00e2 4FEAC303 		lsl	r3, r3, #3
 228 00e6 7B61     		str	r3, [r7, #20]
 139:../src/lib/lpc177x_8x/Drivers/source/lpc177x_8x_i2s.c **** 
 140:../src/lib/lpc177x_8x/Drivers/source/lpc177x_8x_i2s.c ****     /* Calculate audio config */
 141:../src/lib/lpc177x_8x/Drivers/source/lpc177x_8x_i2s.c ****     config = (bps - 1)<<6 | (ConfigStruct->ws_sel)<<5 | (ConfigStruct->reset)<<4 |
 229              		.loc 1 141 0
 230 00e8 7B69     		ldr	r3, [r7, #20]
 231 00ea 03F1FF33 		add	r3, r3, #-1
 232 00ee 4FEA8312 		lsl	r2, r3, #6
 233 00f2 7B68     		ldr	r3, [r7, #4]
 234 00f4 1B79     		ldrb	r3, [r3, #4]	@ zero_extendqisi2
 235 00f6 4FEA4313 		lsl	r3, r3, #5
 236 00fa 1A43     		orrs	r2, r2, r3
 237 00fc 7B68     		ldr	r3, [r7, #4]
 238 00fe DB78     		ldrb	r3, [r3, #3]	@ zero_extendqisi2
 239 0100 4FEA0313 		lsl	r3, r3, #4
 240 0104 1A43     		orrs	r2, r2, r3
 142:../src/lib/lpc177x_8x/Drivers/source/lpc177x_8x_i2s.c ****         (ConfigStruct->stop)<<3 | (ConfigStruct->mono)<<2 | (ConfigStruct->wordwidth);
 241              		.loc 1 142 0
 242 0106 7B68     		ldr	r3, [r7, #4]
 243 0108 9B78     		ldrb	r3, [r3, #2]	@ zero_extendqisi2
 244 010a 4FEAC303 		lsl	r3, r3, #3
 141:../src/lib/lpc177x_8x/Drivers/source/lpc177x_8x_i2s.c ****     config = (bps - 1)<<6 | (ConfigStruct->ws_sel)<<5 | (ConfigStruct->reset)<<4 |
 245              		.loc 1 141 0
 246 010e 1A43     		orrs	r2, r2, r3
 247              		.loc 1 142 0
 248 0110 7B68     		ldr	r3, [r7, #4]
 249 0112 5B78     		ldrb	r3, [r3, #1]	@ zero_extendqisi2
 250 0114 4FEA8303 		lsl	r3, r3, #2
 251 0118 1A43     		orrs	r2, r2, r3
 252 011a 7B68     		ldr	r3, [r7, #4]
 253 011c 1B78     		ldrb	r3, [r3, #0]	@ zero_extendqisi2
 141:../src/lib/lpc177x_8x/Drivers/source/lpc177x_8x_i2s.c ****     config = (bps - 1)<<6 | (ConfigStruct->ws_sel)<<5 | (ConfigStruct->reset)<<4 |
 254              		.loc 1 141 0
 255 011e 1343     		orrs	r3, r3, r2
 256 0120 3B61     		str	r3, [r7, #16]
 143:../src/lib/lpc177x_8x/Drivers/source/lpc177x_8x_i2s.c **** 
 144:../src/lib/lpc177x_8x/Drivers/source/lpc177x_8x_i2s.c ****     if(TRMode == I2S_RX_MODE){
 257              		.loc 1 144 0
 258 0122 FB7A     		ldrb	r3, [r7, #11]	@ zero_extendqisi2
 259 0124 012B     		cmp	r3, #1
 260 0126 03D1     		bne	.L18
 145:../src/lib/lpc177x_8x/Drivers/source/lpc177x_8x_i2s.c ****         LPC_I2S->DAI = config;
 261              		.loc 1 145 0
 262 0128 054B     		ldr	r3, .L20
 263 012a 3A69     		ldr	r2, [r7, #16]
 264 012c 5A60     		str	r2, [r3, #4]
 265 012e 02E0     		b	.L17
 266              	.L18:
 146:../src/lib/lpc177x_8x/Drivers/source/lpc177x_8x_i2s.c ****     }else{
 147:../src/lib/lpc177x_8x/Drivers/source/lpc177x_8x_i2s.c ****         LPC_I2S->DAO = config;
 267              		.loc 1 147 0
 268 0130 034B     		ldr	r3, .L20
 269 0132 3A69     		ldr	r2, [r7, #16]
 270 0134 1A60     		str	r2, [r3, #0]
 271              	.L17:
 148:../src/lib/lpc177x_8x/Drivers/source/lpc177x_8x_i2s.c ****     }
 149:../src/lib/lpc177x_8x/Drivers/source/lpc177x_8x_i2s.c **** }
 272              		.loc 1 149 0
 273 0136 07F11C07 		add	r7, r7, #28
 274 013a BD46     		mov	sp, r7
 275 013c 80BC     		pop	{r7}
 276 013e 7047     		bx	lr
 277              	.L21:
 278              		.align	2
 279              	.L20:
 280 0140 00800A40 		.word	1074429952
 281              		.cfi_endproc
 282              	.LFE58:
 284              		.align	2
 285              		.global	I2S_DeInit
 286              		.thumb
 287              		.thumb_func
 289              	I2S_DeInit:
 290              	.LFB59:
 150:../src/lib/lpc177x_8x/Drivers/source/lpc177x_8x_i2s.c **** 
 151:../src/lib/lpc177x_8x/Drivers/source/lpc177x_8x_i2s.c **** /********************************************************************//**
 152:../src/lib/lpc177x_8x/Drivers/source/lpc177x_8x_i2s.c ****  * @brief       DeInitial both I2S transmit or receive
 153:../src/lib/lpc177x_8x/Drivers/source/lpc177x_8x_i2s.c ****  * @param[in]   I2Sx I2S peripheral selected, should be: LPC_I2S
 154:../src/lib/lpc177x_8x/Drivers/source/lpc177x_8x_i2s.c ****  * @return      none
 155:../src/lib/lpc177x_8x/Drivers/source/lpc177x_8x_i2s.c ****  *********************************************************************/
 156:../src/lib/lpc177x_8x/Drivers/source/lpc177x_8x_i2s.c **** void I2S_DeInit(LPC_I2S_TypeDef *I2Sx) {
 291              		.loc 1 156 0
 292              		.cfi_startproc
 293              		@ args = 0, pretend = 0, frame = 8
 294              		@ frame_needed = 1, uses_anonymous_args = 0
 295 0144 80B5     		push	{r7, lr}
 296              	.LCFI12:
 297              		.cfi_def_cfa_offset 8
 298              		.cfi_offset 7, -8
 299              		.cfi_offset 14, -4
 300 0146 82B0     		sub	sp, sp, #8
 301              	.LCFI13:
 302              		.cfi_def_cfa_offset 16
 303 0148 00AF     		add	r7, sp, #0
 304              	.LCFI14:
 305              		.cfi_def_cfa_register 7
 306 014a 7860     		str	r0, [r7, #4]
 157:../src/lib/lpc177x_8x/Drivers/source/lpc177x_8x_i2s.c ****     // Turn off power and clock
 158:../src/lib/lpc177x_8x/Drivers/source/lpc177x_8x_i2s.c ****     CLKPWR_ConfigPPWR(CLKPWR_PCONP_PCI2S, DISABLE);
 307              		.loc 1 158 0
 308 014c 4FF00060 		mov	r0, #134217728
 309 0150 4FF00001 		mov	r1, #0
 310 0154 FFF7FEFF 		bl	CLKPWR_ConfigPPWR
 159:../src/lib/lpc177x_8x/Drivers/source/lpc177x_8x_i2s.c **** }
 311              		.loc 1 159 0
 312 0158 07F10807 		add	r7, r7, #8
 313 015c BD46     		mov	sp, r7
 314 015e 80BD     		pop	{r7, pc}
 315              		.cfi_endproc
 316              	.LFE59:
 318              		.align	2
 319              		.global	I2S_GetLevel
 320              		.thumb
 321              		.thumb_func
 323              	I2S_GetLevel:
 324              	.LFB60:
 160:../src/lib/lpc177x_8x/Drivers/source/lpc177x_8x_i2s.c **** 
 161:../src/lib/lpc177x_8x/Drivers/source/lpc177x_8x_i2s.c **** /********************************************************************//**
 162:../src/lib/lpc177x_8x/Drivers/source/lpc177x_8x_i2s.c ****  * @brief       Get I2S Buffer Level
 163:../src/lib/lpc177x_8x/Drivers/source/lpc177x_8x_i2s.c ****  * @param[in]   I2Sx I2S peripheral selected, should be: LPC_I2S
 164:../src/lib/lpc177x_8x/Drivers/source/lpc177x_8x_i2s.c ****  * @param[in]   TRMode Transmit/receive mode, should be:
 165:../src/lib/lpc177x_8x/Drivers/source/lpc177x_8x_i2s.c ****  *                  - I2S_TX_MODE = 0: transmit mode
 166:../src/lib/lpc177x_8x/Drivers/source/lpc177x_8x_i2s.c ****  *                  - I2S_RX_MODE = 1: receive mode
 167:../src/lib/lpc177x_8x/Drivers/source/lpc177x_8x_i2s.c ****  * @return      current level of Transmit/Receive Buffer
 168:../src/lib/lpc177x_8x/Drivers/source/lpc177x_8x_i2s.c ****  *********************************************************************/
 169:../src/lib/lpc177x_8x/Drivers/source/lpc177x_8x_i2s.c **** uint8_t I2S_GetLevel(LPC_I2S_TypeDef *I2Sx, uint8_t TRMode)
 170:../src/lib/lpc177x_8x/Drivers/source/lpc177x_8x_i2s.c **** {
 325              		.loc 1 170 0
 326              		.cfi_startproc
 327              		@ args = 0, pretend = 0, frame = 8
 328              		@ frame_needed = 1, uses_anonymous_args = 0
 329              		@ link register save eliminated.
 330 0160 80B4     		push	{r7}
 331              	.LCFI15:
 332              		.cfi_def_cfa_offset 4
 333              		.cfi_offset 7, -4
 334 0162 83B0     		sub	sp, sp, #12
 335              	.LCFI16:
 336              		.cfi_def_cfa_offset 16
 337 0164 00AF     		add	r7, sp, #0
 338              	.LCFI17:
 339              		.cfi_def_cfa_register 7
 340 0166 7860     		str	r0, [r7, #4]
 341 0168 0B46     		mov	r3, r1
 342 016a FB70     		strb	r3, [r7, #3]
 171:../src/lib/lpc177x_8x/Drivers/source/lpc177x_8x_i2s.c **** 
 172:../src/lib/lpc177x_8x/Drivers/source/lpc177x_8x_i2s.c ****     if(TRMode == I2S_TX_MODE)
 343              		.loc 1 172 0
 344 016c FB78     		ldrb	r3, [r7, #3]	@ zero_extendqisi2
 345 016e 002B     		cmp	r3, #0
 346 0170 05D1     		bne	.L24
 173:../src/lib/lpc177x_8x/Drivers/source/lpc177x_8x_i2s.c ****     {
 174:../src/lib/lpc177x_8x/Drivers/source/lpc177x_8x_i2s.c ****         return ((I2Sx->STATE >> 16) & 0xFF);
 347              		.loc 1 174 0
 348 0172 7B68     		ldr	r3, [r7, #4]
 349 0174 1B69     		ldr	r3, [r3, #16]
 350 0176 4FEA1343 		lsr	r3, r3, #16
 351 017a DBB2     		uxtb	r3, r3
 352 017c 04E0     		b	.L25
 353              	.L24:
 175:../src/lib/lpc177x_8x/Drivers/source/lpc177x_8x_i2s.c ****     }
 176:../src/lib/lpc177x_8x/Drivers/source/lpc177x_8x_i2s.c ****     else
 177:../src/lib/lpc177x_8x/Drivers/source/lpc177x_8x_i2s.c ****     {
 178:../src/lib/lpc177x_8x/Drivers/source/lpc177x_8x_i2s.c ****         return ((I2Sx->STATE >> 8) & 0xFF);
 354              		.loc 1 178 0
 355 017e 7B68     		ldr	r3, [r7, #4]
 356 0180 1B69     		ldr	r3, [r3, #16]
 357 0182 4FEA1323 		lsr	r3, r3, #8
 358 0186 DBB2     		uxtb	r3, r3
 359              	.L25:
 179:../src/lib/lpc177x_8x/Drivers/source/lpc177x_8x_i2s.c ****     }
 180:../src/lib/lpc177x_8x/Drivers/source/lpc177x_8x_i2s.c **** }
 360              		.loc 1 180 0
 361 0188 1846     		mov	r0, r3
 362 018a 07F10C07 		add	r7, r7, #12
 363 018e BD46     		mov	sp, r7
 364 0190 80BC     		pop	{r7}
 365 0192 7047     		bx	lr
 366              		.cfi_endproc
 367              	.LFE60:
 369              		.align	2
 370              		.global	I2S_Start
 371              		.thumb
 372              		.thumb_func
 374              	I2S_Start:
 375              	.LFB61:
 181:../src/lib/lpc177x_8x/Drivers/source/lpc177x_8x_i2s.c **** 
 182:../src/lib/lpc177x_8x/Drivers/source/lpc177x_8x_i2s.c **** /********************************************************************//**
 183:../src/lib/lpc177x_8x/Drivers/source/lpc177x_8x_i2s.c ****  * @brief       I2S Start: clear all STOP,RESET and MUTE bit, ready to operate
 184:../src/lib/lpc177x_8x/Drivers/source/lpc177x_8x_i2s.c ****  * @param[in]   I2Sx I2S peripheral selected, should be: LPC_I2S
 185:../src/lib/lpc177x_8x/Drivers/source/lpc177x_8x_i2s.c ****  * @return      none
 186:../src/lib/lpc177x_8x/Drivers/source/lpc177x_8x_i2s.c ****  *********************************************************************/
 187:../src/lib/lpc177x_8x/Drivers/source/lpc177x_8x_i2s.c **** void I2S_Start(LPC_I2S_TypeDef *I2Sx)
 188:../src/lib/lpc177x_8x/Drivers/source/lpc177x_8x_i2s.c **** {
 376              		.loc 1 188 0
 377              		.cfi_startproc
 378              		@ args = 0, pretend = 0, frame = 8
 379              		@ frame_needed = 1, uses_anonymous_args = 0
 380              		@ link register save eliminated.
 381 0194 80B4     		push	{r7}
 382              	.LCFI18:
 383              		.cfi_def_cfa_offset 4
 384              		.cfi_offset 7, -4
 385 0196 83B0     		sub	sp, sp, #12
 386              	.LCFI19:
 387              		.cfi_def_cfa_offset 16
 388 0198 00AF     		add	r7, sp, #0
 389              	.LCFI20:
 390              		.cfi_def_cfa_register 7
 391 019a 7860     		str	r0, [r7, #4]
 189:../src/lib/lpc177x_8x/Drivers/source/lpc177x_8x_i2s.c ****     //Clear STOP,RESET and MUTE bit
 190:../src/lib/lpc177x_8x/Drivers/source/lpc177x_8x_i2s.c ****     I2Sx->DAO &= ~I2S_DAI_RESET;
 392              		.loc 1 190 0
 393 019c 7B68     		ldr	r3, [r7, #4]
 394 019e 1B68     		ldr	r3, [r3, #0]
 395 01a0 23F01002 		bic	r2, r3, #16
 396 01a4 7B68     		ldr	r3, [r7, #4]
 397 01a6 1A60     		str	r2, [r3, #0]
 191:../src/lib/lpc177x_8x/Drivers/source/lpc177x_8x_i2s.c ****     I2Sx->DAI &= ~I2S_DAI_RESET;
 398              		.loc 1 191 0
 399 01a8 7B68     		ldr	r3, [r7, #4]
 400 01aa 5B68     		ldr	r3, [r3, #4]
 401 01ac 23F01002 		bic	r2, r3, #16
 402 01b0 7B68     		ldr	r3, [r7, #4]
 403 01b2 5A60     		str	r2, [r3, #4]
 192:../src/lib/lpc177x_8x/Drivers/source/lpc177x_8x_i2s.c ****     I2Sx->DAO &= ~I2S_DAI_STOP;
 404              		.loc 1 192 0
 405 01b4 7B68     		ldr	r3, [r7, #4]
 406 01b6 1B68     		ldr	r3, [r3, #0]
 407 01b8 23F00802 		bic	r2, r3, #8
 408 01bc 7B68     		ldr	r3, [r7, #4]
 409 01be 1A60     		str	r2, [r3, #0]
 193:../src/lib/lpc177x_8x/Drivers/source/lpc177x_8x_i2s.c ****     I2Sx->DAI &= ~I2S_DAI_STOP;
 410              		.loc 1 193 0
 411 01c0 7B68     		ldr	r3, [r7, #4]
 412 01c2 5B68     		ldr	r3, [r3, #4]
 413 01c4 23F00802 		bic	r2, r3, #8
 414 01c8 7B68     		ldr	r3, [r7, #4]
 415 01ca 5A60     		str	r2, [r3, #4]
 194:../src/lib/lpc177x_8x/Drivers/source/lpc177x_8x_i2s.c ****     I2Sx->DAO &= ~I2S_DAI_MUTE;
 416              		.loc 1 194 0
 417 01cc 7B68     		ldr	r3, [r7, #4]
 418 01ce 1B68     		ldr	r3, [r3, #0]
 419 01d0 23F40042 		bic	r2, r3, #32768
 420 01d4 7B68     		ldr	r3, [r7, #4]
 421 01d6 1A60     		str	r2, [r3, #0]
 195:../src/lib/lpc177x_8x/Drivers/source/lpc177x_8x_i2s.c **** }
 422              		.loc 1 195 0
 423 01d8 07F10C07 		add	r7, r7, #12
 424 01dc BD46     		mov	sp, r7
 425 01de 80BC     		pop	{r7}
 426 01e0 7047     		bx	lr
 427              		.cfi_endproc
 428              	.LFE61:
 430 01e2 00BF     		.align	2
 431              		.global	I2S_Send
 432              		.thumb
 433              		.thumb_func
 435              	I2S_Send:
 436              	.LFB62:
 196:../src/lib/lpc177x_8x/Drivers/source/lpc177x_8x_i2s.c **** 
 197:../src/lib/lpc177x_8x/Drivers/source/lpc177x_8x_i2s.c **** /********************************************************************//**
 198:../src/lib/lpc177x_8x/Drivers/source/lpc177x_8x_i2s.c ****  * @brief       I2S Send data
 199:../src/lib/lpc177x_8x/Drivers/source/lpc177x_8x_i2s.c ****  * @param[in]   I2Sx I2S peripheral selected, should be: LPC_I2S
 200:../src/lib/lpc177x_8x/Drivers/source/lpc177x_8x_i2s.c ****  * @param[in]   BufferData pointer to uint32_t is the data will be send
 201:../src/lib/lpc177x_8x/Drivers/source/lpc177x_8x_i2s.c ****  * @return      none
 202:../src/lib/lpc177x_8x/Drivers/source/lpc177x_8x_i2s.c ****  *********************************************************************/
 203:../src/lib/lpc177x_8x/Drivers/source/lpc177x_8x_i2s.c **** void I2S_Send(LPC_I2S_TypeDef *I2Sx, uint32_t BufferData)
 204:../src/lib/lpc177x_8x/Drivers/source/lpc177x_8x_i2s.c **** {
 437              		.loc 1 204 0
 438              		.cfi_startproc
 439              		@ args = 0, pretend = 0, frame = 8
 440              		@ frame_needed = 1, uses_anonymous_args = 0
 441              		@ link register save eliminated.
 442 01e4 80B4     		push	{r7}
 443              	.LCFI21:
 444              		.cfi_def_cfa_offset 4
 445              		.cfi_offset 7, -4
 446 01e6 83B0     		sub	sp, sp, #12
 447              	.LCFI22:
 448              		.cfi_def_cfa_offset 16
 449 01e8 00AF     		add	r7, sp, #0
 450              	.LCFI23:
 451              		.cfi_def_cfa_register 7
 452 01ea 7860     		str	r0, [r7, #4]
 453 01ec 3960     		str	r1, [r7, #0]
 205:../src/lib/lpc177x_8x/Drivers/source/lpc177x_8x_i2s.c ****     I2Sx->TXFIFO = BufferData;
 454              		.loc 1 205 0
 455 01ee 7B68     		ldr	r3, [r7, #4]
 456 01f0 3A68     		ldr	r2, [r7, #0]
 457 01f2 9A60     		str	r2, [r3, #8]
 206:../src/lib/lpc177x_8x/Drivers/source/lpc177x_8x_i2s.c **** }
 458              		.loc 1 206 0
 459 01f4 07F10C07 		add	r7, r7, #12
 460 01f8 BD46     		mov	sp, r7
 461 01fa 80BC     		pop	{r7}
 462 01fc 7047     		bx	lr
 463              		.cfi_endproc
 464              	.LFE62:
 466 01fe 00BF     		.align	2
 467              		.global	I2S_Receive
 468              		.thumb
 469              		.thumb_func
 471              	I2S_Receive:
 472              	.LFB63:
 207:../src/lib/lpc177x_8x/Drivers/source/lpc177x_8x_i2s.c **** 
 208:../src/lib/lpc177x_8x/Drivers/source/lpc177x_8x_i2s.c **** /********************************************************************//**
 209:../src/lib/lpc177x_8x/Drivers/source/lpc177x_8x_i2s.c ****  * @brief       I2S Receive Data
 210:../src/lib/lpc177x_8x/Drivers/source/lpc177x_8x_i2s.c ****  * @param[in]   I2Sx pointer to LPC_I2S_TypeDef
 211:../src/lib/lpc177x_8x/Drivers/source/lpc177x_8x_i2s.c ****  * @return      received value
 212:../src/lib/lpc177x_8x/Drivers/source/lpc177x_8x_i2s.c ****  *********************************************************************/
 213:../src/lib/lpc177x_8x/Drivers/source/lpc177x_8x_i2s.c **** uint32_t I2S_Receive(LPC_I2S_TypeDef* I2Sx)
 214:../src/lib/lpc177x_8x/Drivers/source/lpc177x_8x_i2s.c **** {
 473              		.loc 1 214 0
 474              		.cfi_startproc
 475              		@ args = 0, pretend = 0, frame = 8
 476              		@ frame_needed = 1, uses_anonymous_args = 0
 477              		@ link register save eliminated.
 478 0200 80B4     		push	{r7}
 479              	.LCFI24:
 480              		.cfi_def_cfa_offset 4
 481              		.cfi_offset 7, -4
 482 0202 83B0     		sub	sp, sp, #12
 483              	.LCFI25:
 484              		.cfi_def_cfa_offset 16
 485 0204 00AF     		add	r7, sp, #0
 486              	.LCFI26:
 487              		.cfi_def_cfa_register 7
 488 0206 7860     		str	r0, [r7, #4]
 215:../src/lib/lpc177x_8x/Drivers/source/lpc177x_8x_i2s.c ****     return (I2Sx->RXFIFO);
 489              		.loc 1 215 0
 490 0208 7B68     		ldr	r3, [r7, #4]
 491 020a DB68     		ldr	r3, [r3, #12]
 216:../src/lib/lpc177x_8x/Drivers/source/lpc177x_8x_i2s.c **** }
 492              		.loc 1 216 0
 493 020c 1846     		mov	r0, r3
 494 020e 07F10C07 		add	r7, r7, #12
 495 0212 BD46     		mov	sp, r7
 496 0214 80BC     		pop	{r7}
 497 0216 7047     		bx	lr
 498              		.cfi_endproc
 499              	.LFE63:
 501              		.align	2
 502              		.global	I2S_Pause
 503              		.thumb
 504              		.thumb_func
 506              	I2S_Pause:
 507              	.LFB64:
 217:../src/lib/lpc177x_8x/Drivers/source/lpc177x_8x_i2s.c **** 
 218:../src/lib/lpc177x_8x/Drivers/source/lpc177x_8x_i2s.c **** /********************************************************************//**
 219:../src/lib/lpc177x_8x/Drivers/source/lpc177x_8x_i2s.c ****  * @brief       I2S Pause
 220:../src/lib/lpc177x_8x/Drivers/source/lpc177x_8x_i2s.c ****  * @param[in]   I2Sx I2S peripheral selected, should be: LPC_I2S
 221:../src/lib/lpc177x_8x/Drivers/source/lpc177x_8x_i2s.c ****  * @param[in]   TRMode is transmit/receive mode, should be:
 222:../src/lib/lpc177x_8x/Drivers/source/lpc177x_8x_i2s.c ****  *              - I2S_TX_MODE = 0: transmit mode
 223:../src/lib/lpc177x_8x/Drivers/source/lpc177x_8x_i2s.c ****  *              - I2S_RX_MODE = 1: receive mode
 224:../src/lib/lpc177x_8x/Drivers/source/lpc177x_8x_i2s.c ****  * @return      none
 225:../src/lib/lpc177x_8x/Drivers/source/lpc177x_8x_i2s.c ****  *********************************************************************/
 226:../src/lib/lpc177x_8x/Drivers/source/lpc177x_8x_i2s.c **** void I2S_Pause(LPC_I2S_TypeDef *I2Sx, uint8_t TRMode) {
 508              		.loc 1 226 0
 509              		.cfi_startproc
 510              		@ args = 0, pretend = 0, frame = 8
 511              		@ frame_needed = 1, uses_anonymous_args = 0
 512              		@ link register save eliminated.
 513 0218 80B4     		push	{r7}
 514              	.LCFI27:
 515              		.cfi_def_cfa_offset 4
 516              		.cfi_offset 7, -4
 517 021a 83B0     		sub	sp, sp, #12
 518              	.LCFI28:
 519              		.cfi_def_cfa_offset 16
 520 021c 00AF     		add	r7, sp, #0
 521              	.LCFI29:
 522              		.cfi_def_cfa_register 7
 523 021e 7860     		str	r0, [r7, #4]
 524 0220 0B46     		mov	r3, r1
 525 0222 FB70     		strb	r3, [r7, #3]
 227:../src/lib/lpc177x_8x/Drivers/source/lpc177x_8x_i2s.c ****     if (TRMode == I2S_TX_MODE) //Transmit mode
 526              		.loc 1 227 0
 527 0224 FB78     		ldrb	r3, [r7, #3]	@ zero_extendqisi2
 528 0226 002B     		cmp	r3, #0
 529 0228 06D1     		bne	.L31
 228:../src/lib/lpc177x_8x/Drivers/source/lpc177x_8x_i2s.c ****     {
 229:../src/lib/lpc177x_8x/Drivers/source/lpc177x_8x_i2s.c ****         I2Sx->DAO |= I2S_DAO_STOP;
 530              		.loc 1 229 0
 531 022a 7B68     		ldr	r3, [r7, #4]
 532 022c 1B68     		ldr	r3, [r3, #0]
 533 022e 43F00802 		orr	r2, r3, #8
 534 0232 7B68     		ldr	r3, [r7, #4]
 535 0234 1A60     		str	r2, [r3, #0]
 536 0236 05E0     		b	.L30
 537              	.L31:
 230:../src/lib/lpc177x_8x/Drivers/source/lpc177x_8x_i2s.c ****     } else //Receive mode
 231:../src/lib/lpc177x_8x/Drivers/source/lpc177x_8x_i2s.c ****     {
 232:../src/lib/lpc177x_8x/Drivers/source/lpc177x_8x_i2s.c ****         I2Sx->DAI |= I2S_DAI_STOP;
 538              		.loc 1 232 0
 539 0238 7B68     		ldr	r3, [r7, #4]
 540 023a 5B68     		ldr	r3, [r3, #4]
 541 023c 43F00802 		orr	r2, r3, #8
 542 0240 7B68     		ldr	r3, [r7, #4]
 543 0242 5A60     		str	r2, [r3, #4]
 544              	.L30:
 233:../src/lib/lpc177x_8x/Drivers/source/lpc177x_8x_i2s.c ****     }
 234:../src/lib/lpc177x_8x/Drivers/source/lpc177x_8x_i2s.c **** }
 545              		.loc 1 234 0
 546 0244 07F10C07 		add	r7, r7, #12
 547 0248 BD46     		mov	sp, r7
 548 024a 80BC     		pop	{r7}
 549 024c 7047     		bx	lr
 550              		.cfi_endproc
 551              	.LFE64:
 553 024e 00BF     		.align	2
 554              		.global	I2S_Mute
 555              		.thumb
 556              		.thumb_func
 558              	I2S_Mute:
 559              	.LFB65:
 235:../src/lib/lpc177x_8x/Drivers/source/lpc177x_8x_i2s.c **** 
 236:../src/lib/lpc177x_8x/Drivers/source/lpc177x_8x_i2s.c **** /********************************************************************//**
 237:../src/lib/lpc177x_8x/Drivers/source/lpc177x_8x_i2s.c ****  * @brief       I2S Mute
 238:../src/lib/lpc177x_8x/Drivers/source/lpc177x_8x_i2s.c ****  * @param[in]   I2Sx I2S peripheral selected, should be: LPC_I2S
 239:../src/lib/lpc177x_8x/Drivers/source/lpc177x_8x_i2s.c ****  * @param[in]   TRMode is transmit/receive mode, should be:
 240:../src/lib/lpc177x_8x/Drivers/source/lpc177x_8x_i2s.c ****  *              - I2S_TX_MODE = 0: transmit mode
 241:../src/lib/lpc177x_8x/Drivers/source/lpc177x_8x_i2s.c ****  *              - I2S_RX_MODE = 1: receive mode
 242:../src/lib/lpc177x_8x/Drivers/source/lpc177x_8x_i2s.c ****  * @return      none
 243:../src/lib/lpc177x_8x/Drivers/source/lpc177x_8x_i2s.c ****  *********************************************************************/
 244:../src/lib/lpc177x_8x/Drivers/source/lpc177x_8x_i2s.c **** void I2S_Mute(LPC_I2S_TypeDef *I2Sx, uint8_t TRMode) {
 560              		.loc 1 244 0
 561              		.cfi_startproc
 562              		@ args = 0, pretend = 0, frame = 8
 563              		@ frame_needed = 1, uses_anonymous_args = 0
 564              		@ link register save eliminated.
 565 0250 80B4     		push	{r7}
 566              	.LCFI30:
 567              		.cfi_def_cfa_offset 4
 568              		.cfi_offset 7, -4
 569 0252 83B0     		sub	sp, sp, #12
 570              	.LCFI31:
 571              		.cfi_def_cfa_offset 16
 572 0254 00AF     		add	r7, sp, #0
 573              	.LCFI32:
 574              		.cfi_def_cfa_register 7
 575 0256 7860     		str	r0, [r7, #4]
 576 0258 0B46     		mov	r3, r1
 577 025a FB70     		strb	r3, [r7, #3]
 245:../src/lib/lpc177x_8x/Drivers/source/lpc177x_8x_i2s.c ****     if (TRMode == I2S_TX_MODE) //Transmit mode
 578              		.loc 1 245 0
 579 025c FB78     		ldrb	r3, [r7, #3]	@ zero_extendqisi2
 580 025e 002B     		cmp	r3, #0
 581 0260 06D1     		bne	.L34
 246:../src/lib/lpc177x_8x/Drivers/source/lpc177x_8x_i2s.c ****     {
 247:../src/lib/lpc177x_8x/Drivers/source/lpc177x_8x_i2s.c ****         I2Sx->DAO |= I2S_DAO_MUTE;
 582              		.loc 1 247 0
 583 0262 7B68     		ldr	r3, [r7, #4]
 584 0264 1B68     		ldr	r3, [r3, #0]
 585 0266 43F40042 		orr	r2, r3, #32768
 586 026a 7B68     		ldr	r3, [r7, #4]
 587 026c 1A60     		str	r2, [r3, #0]
 588 026e 05E0     		b	.L33
 589              	.L34:
 248:../src/lib/lpc177x_8x/Drivers/source/lpc177x_8x_i2s.c ****     } else //Receive mode
 249:../src/lib/lpc177x_8x/Drivers/source/lpc177x_8x_i2s.c ****     {
 250:../src/lib/lpc177x_8x/Drivers/source/lpc177x_8x_i2s.c ****         I2Sx->DAI |= I2S_DAI_MUTE;
 590              		.loc 1 250 0
 591 0270 7B68     		ldr	r3, [r7, #4]
 592 0272 5B68     		ldr	r3, [r3, #4]
 593 0274 43F40042 		orr	r2, r3, #32768
 594 0278 7B68     		ldr	r3, [r7, #4]
 595 027a 5A60     		str	r2, [r3, #4]
 596              	.L33:
 251:../src/lib/lpc177x_8x/Drivers/source/lpc177x_8x_i2s.c ****     }
 252:../src/lib/lpc177x_8x/Drivers/source/lpc177x_8x_i2s.c **** }
 597              		.loc 1 252 0
 598 027c 07F10C07 		add	r7, r7, #12
 599 0280 BD46     		mov	sp, r7
 600 0282 80BC     		pop	{r7}
 601 0284 7047     		bx	lr
 602              		.cfi_endproc
 603              	.LFE65:
 605 0286 00BF     		.align	2
 606              		.global	I2S_Stop
 607              		.thumb
 608              		.thumb_func
 610              	I2S_Stop:
 611              	.LFB66:
 253:../src/lib/lpc177x_8x/Drivers/source/lpc177x_8x_i2s.c **** 
 254:../src/lib/lpc177x_8x/Drivers/source/lpc177x_8x_i2s.c **** /********************************************************************//**
 255:../src/lib/lpc177x_8x/Drivers/source/lpc177x_8x_i2s.c ****  * @brief       I2S Stop
 256:../src/lib/lpc177x_8x/Drivers/source/lpc177x_8x_i2s.c ****  * @param[in]   I2Sx I2S peripheral selected, should be: LPC_I2S
 257:../src/lib/lpc177x_8x/Drivers/source/lpc177x_8x_i2s.c ****  * @param[in]   TRMode is transmit/receive mode, should be:
 258:../src/lib/lpc177x_8x/Drivers/source/lpc177x_8x_i2s.c ****  *              - I2S_TX_MODE = 0: transmit mode
 259:../src/lib/lpc177x_8x/Drivers/source/lpc177x_8x_i2s.c ****  *              - I2S_RX_MODE = 1: receive mode
 260:../src/lib/lpc177x_8x/Drivers/source/lpc177x_8x_i2s.c ****  * @return      none
 261:../src/lib/lpc177x_8x/Drivers/source/lpc177x_8x_i2s.c ****  *********************************************************************/
 262:../src/lib/lpc177x_8x/Drivers/source/lpc177x_8x_i2s.c **** void I2S_Stop(LPC_I2S_TypeDef *I2Sx, uint8_t TRMode) {
 612              		.loc 1 262 0
 613              		.cfi_startproc
 614              		@ args = 0, pretend = 0, frame = 8
 615              		@ frame_needed = 1, uses_anonymous_args = 0
 616              		@ link register save eliminated.
 617 0288 80B4     		push	{r7}
 618              	.LCFI33:
 619              		.cfi_def_cfa_offset 4
 620              		.cfi_offset 7, -4
 621 028a 83B0     		sub	sp, sp, #12
 622              	.LCFI34:
 623              		.cfi_def_cfa_offset 16
 624 028c 00AF     		add	r7, sp, #0
 625              	.LCFI35:
 626              		.cfi_def_cfa_register 7
 627 028e 7860     		str	r0, [r7, #4]
 628 0290 0B46     		mov	r3, r1
 629 0292 FB70     		strb	r3, [r7, #3]
 263:../src/lib/lpc177x_8x/Drivers/source/lpc177x_8x_i2s.c ****     if (TRMode == I2S_TX_MODE) //Transmit mode
 630              		.loc 1 263 0
 631 0294 FB78     		ldrb	r3, [r7, #3]	@ zero_extendqisi2
 632 0296 002B     		cmp	r3, #0
 633 0298 12D1     		bne	.L37
 264:../src/lib/lpc177x_8x/Drivers/source/lpc177x_8x_i2s.c ****     {
 265:../src/lib/lpc177x_8x/Drivers/source/lpc177x_8x_i2s.c ****         I2Sx->DAO &= ~I2S_DAO_MUTE;
 634              		.loc 1 265 0
 635 029a 7B68     		ldr	r3, [r7, #4]
 636 029c 1B68     		ldr	r3, [r3, #0]
 637 029e 23F40042 		bic	r2, r3, #32768
 638 02a2 7B68     		ldr	r3, [r7, #4]
 639 02a4 1A60     		str	r2, [r3, #0]
 266:../src/lib/lpc177x_8x/Drivers/source/lpc177x_8x_i2s.c ****         I2Sx->DAO |= I2S_DAO_STOP;
 640              		.loc 1 266 0
 641 02a6 7B68     		ldr	r3, [r7, #4]
 642 02a8 1B68     		ldr	r3, [r3, #0]
 643 02aa 43F00802 		orr	r2, r3, #8
 644 02ae 7B68     		ldr	r3, [r7, #4]
 645 02b0 1A60     		str	r2, [r3, #0]
 267:../src/lib/lpc177x_8x/Drivers/source/lpc177x_8x_i2s.c ****         I2Sx->DAO |= I2S_DAO_RESET;
 646              		.loc 1 267 0
 647 02b2 7B68     		ldr	r3, [r7, #4]
 648 02b4 1B68     		ldr	r3, [r3, #0]
 649 02b6 43F01002 		orr	r2, r3, #16
 650 02ba 7B68     		ldr	r3, [r7, #4]
 651 02bc 1A60     		str	r2, [r3, #0]
 652 02be 0BE0     		b	.L36
 653              	.L37:
 268:../src/lib/lpc177x_8x/Drivers/source/lpc177x_8x_i2s.c ****     } else //Receive mode
 269:../src/lib/lpc177x_8x/Drivers/source/lpc177x_8x_i2s.c ****     {
 270:../src/lib/lpc177x_8x/Drivers/source/lpc177x_8x_i2s.c ****         I2Sx->DAI |= I2S_DAI_STOP;
 654              		.loc 1 270 0
 655 02c0 7B68     		ldr	r3, [r7, #4]
 656 02c2 5B68     		ldr	r3, [r3, #4]
 657 02c4 43F00802 		orr	r2, r3, #8
 658 02c8 7B68     		ldr	r3, [r7, #4]
 659 02ca 5A60     		str	r2, [r3, #4]
 271:../src/lib/lpc177x_8x/Drivers/source/lpc177x_8x_i2s.c ****         I2Sx->DAI |= I2S_DAI_RESET;
 660              		.loc 1 271 0
 661 02cc 7B68     		ldr	r3, [r7, #4]
 662 02ce 5B68     		ldr	r3, [r3, #4]
 663 02d0 43F01002 		orr	r2, r3, #16
 664 02d4 7B68     		ldr	r3, [r7, #4]
 665 02d6 5A60     		str	r2, [r3, #4]
 666              	.L36:
 272:../src/lib/lpc177x_8x/Drivers/source/lpc177x_8x_i2s.c ****     }
 273:../src/lib/lpc177x_8x/Drivers/source/lpc177x_8x_i2s.c **** }
 667              		.loc 1 273 0
 668 02d8 07F10C07 		add	r7, r7, #12
 669 02dc BD46     		mov	sp, r7
 670 02de 80BC     		pop	{r7}
 671 02e0 7047     		bx	lr
 672              		.cfi_endproc
 673              	.LFE66:
 675 02e2 00BF     		.align	2
 676              		.global	I2S_FreqConfig
 677              		.thumb
 678              		.thumb_func
 680              	I2S_FreqConfig:
 681              	.LFB67:
 274:../src/lib/lpc177x_8x/Drivers/source/lpc177x_8x_i2s.c **** /********************************************************************//**
 275:../src/lib/lpc177x_8x/Drivers/source/lpc177x_8x_i2s.c ****  * @brief       Set frequency for I2S
 276:../src/lib/lpc177x_8x/Drivers/source/lpc177x_8x_i2s.c ****  * @param[in]   I2Sx I2S peripheral selected, should be: LPC_I2S
 277:../src/lib/lpc177x_8x/Drivers/source/lpc177x_8x_i2s.c ****  * @param[in]   Freq is the frequency for I2S will be set. It can range
 278:../src/lib/lpc177x_8x/Drivers/source/lpc177x_8x_i2s.c ****  *              from 16-96 kHz(16, 22.05, 32, 44.1, 48, 96kHz)
 279:../src/lib/lpc177x_8x/Drivers/source/lpc177x_8x_i2s.c ****  * @param[in]   TRMode is transmit/receive mode, should be:
 280:../src/lib/lpc177x_8x/Drivers/source/lpc177x_8x_i2s.c ****  *              - I2S_TX_MODE = 0: transmit mode
 281:../src/lib/lpc177x_8x/Drivers/source/lpc177x_8x_i2s.c ****  *              - I2S_RX_MODE = 1: receive mode
 282:../src/lib/lpc177x_8x/Drivers/source/lpc177x_8x_i2s.c ****  * @return      Status: ERROR or SUCCESS
 283:../src/lib/lpc177x_8x/Drivers/source/lpc177x_8x_i2s.c ****  *********************************************************************/
 284:../src/lib/lpc177x_8x/Drivers/source/lpc177x_8x_i2s.c **** Status I2S_FreqConfig(LPC_I2S_TypeDef *I2Sx, uint32_t Freq, uint8_t TRMode) {
 682              		.loc 1 284 0
 683              		.cfi_startproc
 684              		@ args = 0, pretend = 0, frame = 64
 685              		@ frame_needed = 1, uses_anonymous_args = 0
 686 02e4 80B5     		push	{r7, lr}
 687              	.LCFI36:
 688              		.cfi_def_cfa_offset 8
 689              		.cfi_offset 7, -8
 690              		.cfi_offset 14, -4
 691 02e6 90B0     		sub	sp, sp, #64
 692              	.LCFI37:
 693              		.cfi_def_cfa_offset 72
 694 02e8 00AF     		add	r7, sp, #0
 695              	.LCFI38:
 696              		.cfi_def_cfa_register 7
 697 02ea F860     		str	r0, [r7, #12]
 698 02ec B960     		str	r1, [r7, #8]
 699 02ee 1346     		mov	r3, r2
 700 02f0 FB71     		strb	r3, [r7, #7]
 285:../src/lib/lpc177x_8x/Drivers/source/lpc177x_8x_i2s.c ****     uint32_t cclk;
 286:../src/lib/lpc177x_8x/Drivers/source/lpc177x_8x_i2s.c ****     uint8_t channel, wordwidth;
 287:../src/lib/lpc177x_8x/Drivers/source/lpc177x_8x_i2s.c ****     uint32_t x, y;
 288:../src/lib/lpc177x_8x/Drivers/source/lpc177x_8x_i2s.c ****     uint32_t fr;
 289:../src/lib/lpc177x_8x/Drivers/source/lpc177x_8x_i2s.c ****     uint16_t xOptimal, yOptimal;
 290:../src/lib/lpc177x_8x/Drivers/source/lpc177x_8x_i2s.c ****     uint16_t err, errOptimal = 0xFFFF;
 701              		.loc 1 290 0
 702 02f2 4FF6FF73 		movw	r3, #65535
 703 02f6 3B86     		strh	r3, [r7, #48]	@ movhi
 291:../src/lib/lpc177x_8x/Drivers/source/lpc177x_8x_i2s.c ****     uint16_t sampleBytes = 0;
 704              		.loc 1 291 0
 705 02f8 4FF00003 		mov	r3, #0
 706 02fc FB84     		strh	r3, [r7, #38]	@ movhi
 292:../src/lib/lpc177x_8x/Drivers/source/lpc177x_8x_i2s.c ****     uint32_t refClk = 0;
 707              		.loc 1 292 0
 708 02fe 4FF00003 		mov	r3, #0
 709 0302 3B62     		str	r3, [r7, #32]
 293:../src/lib/lpc177x_8x/Drivers/source/lpc177x_8x_i2s.c ****     uint32_t N1, NOptimal = 0;
 710              		.loc 1 293 0
 711 0304 4FF00003 		mov	r3, #0
 712 0308 BB62     		str	r3, [r7, #40]
 294:../src/lib/lpc177x_8x/Drivers/source/lpc177x_8x_i2s.c **** 
 295:../src/lib/lpc177x_8x/Drivers/source/lpc177x_8x_i2s.c ****     //get cclk 
 296:../src/lib/lpc177x_8x/Drivers/source/lpc177x_8x_i2s.c ****     cclk = CLKPWR_GetCLK(CLKPWR_CLKTYPE_CPU);
 713              		.loc 1 296 0
 714 030a 4FF00000 		mov	r0, #0
 715 030e FFF7FEFF 		bl	CLKPWR_GetCLK
 716 0312 F861     		str	r0, [r7, #28]
 297:../src/lib/lpc177x_8x/Drivers/source/lpc177x_8x_i2s.c **** 
 298:../src/lib/lpc177x_8x/Drivers/source/lpc177x_8x_i2s.c ****     if(TRMode == I2S_TX_MODE)
 717              		.loc 1 298 0
 718 0314 FB79     		ldrb	r3, [r7, #7]	@ zero_extendqisi2
 719 0316 002B     		cmp	r3, #0
 720 0318 10D1     		bne	.L40
 299:../src/lib/lpc177x_8x/Drivers/source/lpc177x_8x_i2s.c ****     {
 300:../src/lib/lpc177x_8x/Drivers/source/lpc177x_8x_i2s.c ****         channel = i2s_GetChannel(I2Sx,I2S_TX_MODE);
 721              		.loc 1 300 0
 722 031a F868     		ldr	r0, [r7, #12]
 723 031c 4FF00001 		mov	r1, #0
 724 0320 FFF798FE 		bl	i2s_GetChannel
 725 0324 0346     		mov	r3, r0
 726 0326 87F83F30 		strb	r3, [r7, #63]
 301:../src/lib/lpc177x_8x/Drivers/source/lpc177x_8x_i2s.c ****         wordwidth = i2s_GetWordWidth(I2Sx,I2S_TX_MODE);
 727              		.loc 1 301 0
 728 032a F868     		ldr	r0, [r7, #12]
 729 032c 4FF00001 		mov	r1, #0
 730 0330 FFF766FE 		bl	i2s_GetWordWidth
 731 0334 0346     		mov	r3, r0
 732 0336 87F83E30 		strb	r3, [r7, #62]
 733 033a 0FE0     		b	.L41
 734              	.L40:
 302:../src/lib/lpc177x_8x/Drivers/source/lpc177x_8x_i2s.c ****     }
 303:../src/lib/lpc177x_8x/Drivers/source/lpc177x_8x_i2s.c ****     else
 304:../src/lib/lpc177x_8x/Drivers/source/lpc177x_8x_i2s.c ****     {
 305:../src/lib/lpc177x_8x/Drivers/source/lpc177x_8x_i2s.c ****         channel = i2s_GetChannel(I2Sx,I2S_RX_MODE);
 735              		.loc 1 305 0
 736 033c F868     		ldr	r0, [r7, #12]
 737 033e 4FF00101 		mov	r1, #1
 738 0342 FFF787FE 		bl	i2s_GetChannel
 739 0346 0346     		mov	r3, r0
 740 0348 87F83F30 		strb	r3, [r7, #63]
 306:../src/lib/lpc177x_8x/Drivers/source/lpc177x_8x_i2s.c ****         wordwidth = i2s_GetWordWidth(I2Sx,I2S_RX_MODE);
 741              		.loc 1 306 0
 742 034c F868     		ldr	r0, [r7, #12]
 743 034e 4FF00101 		mov	r1, #1
 744 0352 FFF755FE 		bl	i2s_GetWordWidth
 745 0356 0346     		mov	r3, r0
 746 0358 87F83E30 		strb	r3, [r7, #62]
 747              	.L41:
 307:../src/lib/lpc177x_8x/Drivers/source/lpc177x_8x_i2s.c ****     }
 308:../src/lib/lpc177x_8x/Drivers/source/lpc177x_8x_i2s.c **** 
 309:../src/lib/lpc177x_8x/Drivers/source/lpc177x_8x_i2s.c ****     /* Calculate X and Y divider
 310:../src/lib/lpc177x_8x/Drivers/source/lpc177x_8x_i2s.c ****      * The MCLK rate for the I2S transmitter is determined by the value
 311:../src/lib/lpc177x_8x/Drivers/source/lpc177x_8x_i2s.c ****      * in the I2STXRATE/I2SRXRATE register. The required I2STXRATE/I2SRXRATE
 312:../src/lib/lpc177x_8x/Drivers/source/lpc177x_8x_i2s.c ****      * setting depends on the desired audio sample rate desired, the format
 313:../src/lib/lpc177x_8x/Drivers/source/lpc177x_8x_i2s.c ****      * (stereo/mono) used, and the data size.
 314:../src/lib/lpc177x_8x/Drivers/source/lpc177x_8x_i2s.c ****      * The formula is:
 315:../src/lib/lpc177x_8x/Drivers/source/lpc177x_8x_i2s.c ****      *      I2S_MCLK = CCLK * (X/Y) / 2
 316:../src/lib/lpc177x_8x/Drivers/source/lpc177x_8x_i2s.c ****      * We have:
 317:../src/lib/lpc177x_8x/Drivers/source/lpc177x_8x_i2s.c ****      *      I2S_MCLK = Freq * channel*wordwidth * (I2Sx->TXBITRATE+1);
 318:../src/lib/lpc177x_8x/Drivers/source/lpc177x_8x_i2s.c ****      * So: (X/Y) = (Freq * channel*wordwidth * (I2Sx->TXBITRATE+1))/CCLK*2
 319:../src/lib/lpc177x_8x/Drivers/source/lpc177x_8x_i2s.c ****      * We use a loop function to chose the most suitable X,Y value
 320:../src/lib/lpc177x_8x/Drivers/source/lpc177x_8x_i2s.c ****      */
 321:../src/lib/lpc177x_8x/Drivers/source/lpc177x_8x_i2s.c **** 
 322:../src/lib/lpc177x_8x/Drivers/source/lpc177x_8x_i2s.c ****     sampleBytes = channel*wordwidth ;
 748              		.loc 1 322 0
 749 035c 97F83F30 		ldrb	r3, [r7, #63]	@ zero_extendqisi2
 750 0360 9BB2     		uxth	r3, r3
 751 0362 97F83E20 		ldrb	r2, [r7, #62]	@ zero_extendqisi2
 752 0366 92B2     		uxth	r2, r2
 753 0368 02FB03F3 		mul	r3, r2, r3
 754 036c FB84     		strh	r3, [r7, #38]	@ movhi
 323:../src/lib/lpc177x_8x/Drivers/source/lpc177x_8x_i2s.c ****     refClk = cclk/(2*sampleBytes); 
 755              		.loc 1 323 0
 756 036e FB8C     		ldrh	r3, [r7, #38]
 757 0370 4FEA4303 		lsl	r3, r3, #1
 758 0374 FA69     		ldr	r2, [r7, #28]
 759 0376 B2FBF3F3 		udiv	r3, r2, r3
 760 037a 3B62     		str	r3, [r7, #32]
 324:../src/lib/lpc177x_8x/Drivers/source/lpc177x_8x_i2s.c ****     // Freq = refClk*x/(N*y)
 325:../src/lib/lpc177x_8x/Drivers/source/lpc177x_8x_i2s.c ****     // x = Freq*N*y/refClk
 326:../src/lib/lpc177x_8x/Drivers/source/lpc177x_8x_i2s.c **** 
 327:../src/lib/lpc177x_8x/Drivers/source/lpc177x_8x_i2s.c ****     /* find N that make x/y <= 1 -> divider <= 2^16 */
 328:../src/lib/lpc177x_8x/Drivers/source/lpc177x_8x_i2s.c ****     for(N1=64;N1>0;N1--){
 761              		.loc 1 328 0
 762 037c 4FF04003 		mov	r3, #64
 763 0380 FB62     		str	r3, [r7, #44]
 764 0382 64E0     		b	.L42
 765              	.L52:
 329:../src/lib/lpc177x_8x/Drivers/source/lpc177x_8x_i2s.c ****         for (y = 255; y > 0; y--) {
 766              		.loc 1 329 0
 767 0384 4FF0FF03 		mov	r3, #255
 768 0388 BB63     		str	r3, [r7, #56]
 769 038a 57E0     		b	.L43
 770              	.L51:
 771              	.LBB2:
 330:../src/lib/lpc177x_8x/Drivers/source/lpc177x_8x_i2s.c ****             uint16_t tmp = N1*y;
 772              		.loc 1 330 0
 773 038c FB6A     		ldr	r3, [r7, #44]
 774 038e 9BB2     		uxth	r3, r3
 775 0390 BA6B     		ldr	r2, [r7, #56]
 776 0392 92B2     		uxth	r2, r2
 777 0394 02FB03F3 		mul	r3, r2, r3
 778 0398 7B83     		strh	r3, [r7, #26]	@ movhi
 331:../src/lib/lpc177x_8x/Drivers/source/lpc177x_8x_i2s.c ****             x = Freq*tmp/refClk;
 779              		.loc 1 331 0
 780 039a 7B8B     		ldrh	r3, [r7, #26]
 781 039c BA68     		ldr	r2, [r7, #8]
 782 039e 02FB03F2 		mul	r2, r2, r3
 783 03a2 3B6A     		ldr	r3, [r7, #32]
 784 03a4 B2FBF3F3 		udiv	r3, r2, r3
 785 03a8 7B61     		str	r3, [r7, #20]
 332:../src/lib/lpc177x_8x/Drivers/source/lpc177x_8x_i2s.c ****             if((x > 255) || (x == 0) || (x > y)) continue;
 786              		.loc 1 332 0
 787 03aa 7B69     		ldr	r3, [r7, #20]
 788 03ac FF2B     		cmp	r3, #255
 789 03ae 40D8     		bhi	.L57
 790              		.loc 1 332 0 is_stmt 0 discriminator 2
 791 03b0 7B69     		ldr	r3, [r7, #20]
 792 03b2 002B     		cmp	r3, #0
 793 03b4 3DD0     		beq	.L57
 794              		.loc 1 332 0 discriminator 1
 795 03b6 7A69     		ldr	r2, [r7, #20]
 796 03b8 BB6B     		ldr	r3, [r7, #56]
 797 03ba 9A42     		cmp	r2, r3
 798 03bc 39D8     		bhi	.L57
 799              	.L45:
 333:../src/lib/lpc177x_8x/Drivers/source/lpc177x_8x_i2s.c ****             fr = refClk*x/tmp;
 800              		.loc 1 333 0 is_stmt 1
 801 03be 3B6A     		ldr	r3, [r7, #32]
 802 03c0 7A69     		ldr	r2, [r7, #20]
 803 03c2 02FB03F2 		mul	r2, r2, r3
 804 03c6 7B8B     		ldrh	r3, [r7, #26]
 805 03c8 B2FBF3F3 		udiv	r3, r2, r3
 806 03cc 3B61     		str	r3, [r7, #16]
 334:../src/lib/lpc177x_8x/Drivers/source/lpc177x_8x_i2s.c ****             if(fr>Freq) 
 807              		.loc 1 334 0
 808 03ce 3A69     		ldr	r2, [r7, #16]
 809 03d0 BB68     		ldr	r3, [r7, #8]
 810 03d2 9A42     		cmp	r2, r3
 811 03d4 06D9     		bls	.L47
 335:../src/lib/lpc177x_8x/Drivers/source/lpc177x_8x_i2s.c ****             err = fr-Freq;
 812              		.loc 1 335 0
 813 03d6 3B69     		ldr	r3, [r7, #16]
 814 03d8 9AB2     		uxth	r2, r3
 815 03da BB68     		ldr	r3, [r7, #8]
 816 03dc 9BB2     		uxth	r3, r3
 817 03de D31A     		subs	r3, r2, r3
 818 03e0 7B86     		strh	r3, [r7, #50]	@ movhi
 819 03e2 05E0     		b	.L48
 820              	.L47:
 336:../src/lib/lpc177x_8x/Drivers/source/lpc177x_8x_i2s.c ****             else 
 337:../src/lib/lpc177x_8x/Drivers/source/lpc177x_8x_i2s.c ****             err = Freq-fr;
 821              		.loc 1 337 0
 822 03e4 BB68     		ldr	r3, [r7, #8]
 823 03e6 9AB2     		uxth	r2, r3
 824 03e8 3B69     		ldr	r3, [r7, #16]
 825 03ea 9BB2     		uxth	r3, r3
 826 03ec D31A     		subs	r3, r2, r3
 827 03ee 7B86     		strh	r3, [r7, #50]	@ movhi
 828              	.L48:
 338:../src/lib/lpc177x_8x/Drivers/source/lpc177x_8x_i2s.c ****             if ((err == 0) ||
 829              		.loc 1 338 0
 830 03f0 7B8E     		ldrh	r3, [r7, #50]
 831 03f2 002B     		cmp	r3, #0
 832 03f4 11D0     		beq	.L49
 833              		.loc 1 338 0 is_stmt 0 discriminator 1
 834 03f6 7A8E     		ldrh	r2, [r7, #50]
 835 03f8 3B8E     		ldrh	r3, [r7, #48]
 836 03fa 9A42     		cmp	r2, r3
 837 03fc 0DD3     		bcc	.L49
 339:../src/lib/lpc177x_8x/Drivers/source/lpc177x_8x_i2s.c ****                 (err < errOptimal) ||
 838              		.loc 1 339 0 is_stmt 1
 839 03fe 7A8E     		ldrh	r2, [r7, #50]
 840 0400 3B8E     		ldrh	r3, [r7, #48]
 841 0402 9A42     		cmp	r2, r3
 842 0404 16D1     		bne	.L46
 340:../src/lib/lpc177x_8x/Drivers/source/lpc177x_8x_i2s.c ****                 ((err == errOptimal) && (y%x == 0)))
 843              		.loc 1 340 0
 844 0406 BB6B     		ldr	r3, [r7, #56]
 845 0408 7A69     		ldr	r2, [r7, #20]
 846 040a B3FBF2F2 		udiv	r2, r3, r2
 847 040e 7969     		ldr	r1, [r7, #20]
 848 0410 01FB02F2 		mul	r2, r1, r2
 849 0414 9B1A     		subs	r3, r3, r2
 850 0416 002B     		cmp	r3, #0
 851 0418 0CD1     		bne	.L46
 852              	.L49:
 341:../src/lib/lpc177x_8x/Drivers/source/lpc177x_8x_i2s.c ****             {
 342:../src/lib/lpc177x_8x/Drivers/source/lpc177x_8x_i2s.c ****                 errOptimal = err;
 853              		.loc 1 342 0
 854 041a 7B8E     		ldrh	r3, [r7, #50]	@ movhi
 855 041c 3B86     		strh	r3, [r7, #48]	@ movhi
 343:../src/lib/lpc177x_8x/Drivers/source/lpc177x_8x_i2s.c ****                 yOptimal = y;
 856              		.loc 1 343 0
 857 041e BB6B     		ldr	r3, [r7, #56]
 858 0420 BB86     		strh	r3, [r7, #52]	@ movhi
 344:../src/lib/lpc177x_8x/Drivers/source/lpc177x_8x_i2s.c ****                 xOptimal = x;
 859              		.loc 1 344 0
 860 0422 7B69     		ldr	r3, [r7, #20]
 861 0424 FB86     		strh	r3, [r7, #54]	@ movhi
 345:../src/lib/lpc177x_8x/Drivers/source/lpc177x_8x_i2s.c ****                 NOptimal = N1;
 862              		.loc 1 345 0
 863 0426 FB6A     		ldr	r3, [r7, #44]
 864 0428 BB62     		str	r3, [r7, #40]
 346:../src/lib/lpc177x_8x/Drivers/source/lpc177x_8x_i2s.c ****                 if(err == 0)
 865              		.loc 1 346 0
 866 042a 7B8E     		ldrh	r3, [r7, #50]
 867 042c 002B     		cmp	r3, #0
 868 042e 09D0     		beq	.L58
 869 0430 00E0     		b	.L46
 870              	.L57:
 332:../src/lib/lpc177x_8x/Drivers/source/lpc177x_8x_i2s.c ****             if((x > 255) || (x == 0) || (x > y)) continue;
 871              		.loc 1 332 0
 872 0432 00BF     		nop
 873              	.L46:
 874              	.LBE2:
 329:../src/lib/lpc177x_8x/Drivers/source/lpc177x_8x_i2s.c ****         for (y = 255; y > 0; y--) {
 875              		.loc 1 329 0
 876 0434 BB6B     		ldr	r3, [r7, #56]
 877 0436 03F1FF33 		add	r3, r3, #-1
 878 043a BB63     		str	r3, [r7, #56]
 879              	.L43:
 329:../src/lib/lpc177x_8x/Drivers/source/lpc177x_8x_i2s.c ****         for (y = 255; y > 0; y--) {
 880              		.loc 1 329 0 is_stmt 0 discriminator 1
 881 043c BB6B     		ldr	r3, [r7, #56]
 882 043e 002B     		cmp	r3, #0
 883 0440 A4D1     		bne	.L51
 884 0442 00E0     		b	.L50
 885              	.L58:
 886              	.LBB3:
 347:../src/lib/lpc177x_8x/Drivers/source/lpc177x_8x_i2s.c ****                   break;
 887              		.loc 1 347 0 is_stmt 1
 888 0444 00BF     		nop
 889              	.L50:
 890              	.LBE3:
 328:../src/lib/lpc177x_8x/Drivers/source/lpc177x_8x_i2s.c ****     for(N1=64;N1>0;N1--){
 891              		.loc 1 328 0
 892 0446 FB6A     		ldr	r3, [r7, #44]
 893 0448 03F1FF33 		add	r3, r3, #-1
 894 044c FB62     		str	r3, [r7, #44]
 895              	.L42:
 328:../src/lib/lpc177x_8x/Drivers/source/lpc177x_8x_i2s.c ****     for(N1=64;N1>0;N1--){
 896              		.loc 1 328 0 is_stmt 0 discriminator 1
 897 044e FB6A     		ldr	r3, [r7, #44]
 898 0450 002B     		cmp	r3, #0
 899 0452 97D1     		bne	.L52
 348:../src/lib/lpc177x_8x/Drivers/source/lpc177x_8x_i2s.c ****             }
 349:../src/lib/lpc177x_8x/Drivers/source/lpc177x_8x_i2s.c ****         }
 350:../src/lib/lpc177x_8x/Drivers/source/lpc177x_8x_i2s.c ****         
 351:../src/lib/lpc177x_8x/Drivers/source/lpc177x_8x_i2s.c ****     }
 352:../src/lib/lpc177x_8x/Drivers/source/lpc177x_8x_i2s.c ****     if(NOptimal == 0)
 900              		.loc 1 352 0 is_stmt 1
 901 0454 BB6A     		ldr	r3, [r7, #40]
 902 0456 002B     		cmp	r3, #0
 903 0458 02D1     		bne	.L53
 353:../src/lib/lpc177x_8x/Drivers/source/lpc177x_8x_i2s.c ****       return ERROR;
 904              		.loc 1 353 0
 905 045a 4FF00003 		mov	r3, #0
 906 045e 1FE0     		b	.L54
 907              	.L53:
 354:../src/lib/lpc177x_8x/Drivers/source/lpc177x_8x_i2s.c ****     
 355:../src/lib/lpc177x_8x/Drivers/source/lpc177x_8x_i2s.c ****     
 356:../src/lib/lpc177x_8x/Drivers/source/lpc177x_8x_i2s.c ****     if (TRMode == I2S_TX_MODE)// Transmitter
 908              		.loc 1 356 0
 909 0460 FB79     		ldrb	r3, [r7, #7]	@ zero_extendqisi2
 910 0462 002B     		cmp	r3, #0
 911 0464 0DD1     		bne	.L55
 357:../src/lib/lpc177x_8x/Drivers/source/lpc177x_8x_i2s.c ****     {
 358:../src/lib/lpc177x_8x/Drivers/source/lpc177x_8x_i2s.c ****         I2Sx->TXBITRATE = NOptimal-1;
 912              		.loc 1 358 0
 913 0466 BB6A     		ldr	r3, [r7, #40]
 914 0468 03F1FF32 		add	r2, r3, #-1
 915 046c FB68     		ldr	r3, [r7, #12]
 916 046e 9A62     		str	r2, [r3, #40]
 359:../src/lib/lpc177x_8x/Drivers/source/lpc177x_8x_i2s.c ****         I2Sx->TXRATE = yOptimal | (xOptimal << 8);
 917              		.loc 1 359 0
 918 0470 BA8E     		ldrh	r2, [r7, #52]
 919 0472 FB8E     		ldrh	r3, [r7, #54]
 920 0474 4FEA0323 		lsl	r3, r3, #8
 921 0478 1343     		orrs	r3, r3, r2
 922 047a 1A46     		mov	r2, r3
 923 047c FB68     		ldr	r3, [r7, #12]
 924 047e 1A62     		str	r2, [r3, #32]
 925 0480 0CE0     		b	.L56
 926              	.L55:
 360:../src/lib/lpc177x_8x/Drivers/source/lpc177x_8x_i2s.c ****     } else //Receiver
 361:../src/lib/lpc177x_8x/Drivers/source/lpc177x_8x_i2s.c ****     {
 362:../src/lib/lpc177x_8x/Drivers/source/lpc177x_8x_i2s.c ****         I2Sx->RXBITRATE = NOptimal-1;
 927              		.loc 1 362 0
 928 0482 BB6A     		ldr	r3, [r7, #40]
 929 0484 03F1FF32 		add	r2, r3, #-1
 930 0488 FB68     		ldr	r3, [r7, #12]
 931 048a DA62     		str	r2, [r3, #44]
 363:../src/lib/lpc177x_8x/Drivers/source/lpc177x_8x_i2s.c ****         I2Sx->TXRATE = yOptimal | (xOptimal << 8);
 932              		.loc 1 363 0
 933 048c BA8E     		ldrh	r2, [r7, #52]
 934 048e FB8E     		ldrh	r3, [r7, #54]
 935 0490 4FEA0323 		lsl	r3, r3, #8
 936 0494 1343     		orrs	r3, r3, r2
 937 0496 1A46     		mov	r2, r3
 938 0498 FB68     		ldr	r3, [r7, #12]
 939 049a 1A62     		str	r2, [r3, #32]
 940              	.L56:
 364:../src/lib/lpc177x_8x/Drivers/source/lpc177x_8x_i2s.c ****     }
 365:../src/lib/lpc177x_8x/Drivers/source/lpc177x_8x_i2s.c ****     return SUCCESS;
 941              		.loc 1 365 0
 942 049c 4FF00103 		mov	r3, #1
 943              	.L54:
 366:../src/lib/lpc177x_8x/Drivers/source/lpc177x_8x_i2s.c **** }
 944              		.loc 1 366 0
 945 04a0 1846     		mov	r0, r3
 946 04a2 07F14007 		add	r7, r7, #64
 947 04a6 BD46     		mov	sp, r7
 948 04a8 80BD     		pop	{r7, pc}
 949              		.cfi_endproc
 950              	.LFE67:
 952 04aa 00BF     		.align	2
 953              		.global	I2S_SetBitRate
 954              		.thumb
 955              		.thumb_func
 957              	I2S_SetBitRate:
 958              	.LFB68:
 367:../src/lib/lpc177x_8x/Drivers/source/lpc177x_8x_i2s.c **** 
 368:../src/lib/lpc177x_8x/Drivers/source/lpc177x_8x_i2s.c **** /********************************************************************//**
 369:../src/lib/lpc177x_8x/Drivers/source/lpc177x_8x_i2s.c ****  * @brief       I2S set bitrate
 370:../src/lib/lpc177x_8x/Drivers/source/lpc177x_8x_i2s.c ****  * @param[in]   I2Sx I2S peripheral selected, should be: LPC_I2S
 371:../src/lib/lpc177x_8x/Drivers/source/lpc177x_8x_i2s.c ****  * @param[in]   bitrate value will be set
 372:../src/lib/lpc177x_8x/Drivers/source/lpc177x_8x_i2s.c ****  *              bitrate value should be in range: 0 .. 63
 373:../src/lib/lpc177x_8x/Drivers/source/lpc177x_8x_i2s.c ****  * @param[in]   TRMode is transmit/receive mode, should be:
 374:../src/lib/lpc177x_8x/Drivers/source/lpc177x_8x_i2s.c ****  *              - I2S_TX_MODE = 0: transmit mode
 375:../src/lib/lpc177x_8x/Drivers/source/lpc177x_8x_i2s.c ****  *              - I2S_RX_MODE = 1: receive mode
 376:../src/lib/lpc177x_8x/Drivers/source/lpc177x_8x_i2s.c ****  * @return      none
 377:../src/lib/lpc177x_8x/Drivers/source/lpc177x_8x_i2s.c ****  *********************************************************************/
 378:../src/lib/lpc177x_8x/Drivers/source/lpc177x_8x_i2s.c **** void I2S_SetBitRate(LPC_I2S_TypeDef *I2Sx, uint8_t bitrate, uint8_t TRMode)
 379:../src/lib/lpc177x_8x/Drivers/source/lpc177x_8x_i2s.c **** {
 959              		.loc 1 379 0
 960              		.cfi_startproc
 961              		@ args = 0, pretend = 0, frame = 8
 962              		@ frame_needed = 1, uses_anonymous_args = 0
 963              		@ link register save eliminated.
 964 04ac 80B4     		push	{r7}
 965              	.LCFI39:
 966              		.cfi_def_cfa_offset 4
 967              		.cfi_offset 7, -4
 968 04ae 83B0     		sub	sp, sp, #12
 969              	.LCFI40:
 970              		.cfi_def_cfa_offset 16
 971 04b0 00AF     		add	r7, sp, #0
 972              	.LCFI41:
 973              		.cfi_def_cfa_register 7
 974 04b2 7860     		str	r0, [r7, #4]
 975 04b4 1346     		mov	r3, r2
 976 04b6 0A46     		mov	r2, r1
 977 04b8 FA70     		strb	r2, [r7, #3]
 978 04ba BB70     		strb	r3, [r7, #2]
 380:../src/lib/lpc177x_8x/Drivers/source/lpc177x_8x_i2s.c ****     if(TRMode == I2S_TX_MODE)
 979              		.loc 1 380 0
 980 04bc BB78     		ldrb	r3, [r7, #2]	@ zero_extendqisi2
 981 04be 002B     		cmp	r3, #0
 982 04c0 03D1     		bne	.L60
 381:../src/lib/lpc177x_8x/Drivers/source/lpc177x_8x_i2s.c ****     {
 382:../src/lib/lpc177x_8x/Drivers/source/lpc177x_8x_i2s.c ****         I2Sx->TXBITRATE = bitrate;
 983              		.loc 1 382 0
 984 04c2 FA78     		ldrb	r2, [r7, #3]	@ zero_extendqisi2
 985 04c4 7B68     		ldr	r3, [r7, #4]
 986 04c6 9A62     		str	r2, [r3, #40]
 987 04c8 02E0     		b	.L59
 988              	.L60:
 383:../src/lib/lpc177x_8x/Drivers/source/lpc177x_8x_i2s.c ****     }
 384:../src/lib/lpc177x_8x/Drivers/source/lpc177x_8x_i2s.c ****     else
 385:../src/lib/lpc177x_8x/Drivers/source/lpc177x_8x_i2s.c ****     {
 386:../src/lib/lpc177x_8x/Drivers/source/lpc177x_8x_i2s.c ****         I2Sx->RXBITRATE = bitrate;
 989              		.loc 1 386 0
 990 04ca FA78     		ldrb	r2, [r7, #3]	@ zero_extendqisi2
 991 04cc 7B68     		ldr	r3, [r7, #4]
 992 04ce DA62     		str	r2, [r3, #44]
 993              	.L59:
 387:../src/lib/lpc177x_8x/Drivers/source/lpc177x_8x_i2s.c ****     }
 388:../src/lib/lpc177x_8x/Drivers/source/lpc177x_8x_i2s.c **** }
 994              		.loc 1 388 0
 995 04d0 07F10C07 		add	r7, r7, #12
 996 04d4 BD46     		mov	sp, r7
 997 04d6 80BC     		pop	{r7}
 998 04d8 7047     		bx	lr
 999              		.cfi_endproc
 1000              	.LFE68:
 1002 04da 00BF     		.align	2
 1003              		.global	I2S_ModeConfig
 1004              		.thumb
 1005              		.thumb_func
 1007              	I2S_ModeConfig:
 1008              	.LFB69:
 389:../src/lib/lpc177x_8x/Drivers/source/lpc177x_8x_i2s.c **** 
 390:../src/lib/lpc177x_8x/Drivers/source/lpc177x_8x_i2s.c **** /********************************************************************//**
 391:../src/lib/lpc177x_8x/Drivers/source/lpc177x_8x_i2s.c ****  * @brief       Configuration operating mode for I2S
 392:../src/lib/lpc177x_8x/Drivers/source/lpc177x_8x_i2s.c ****  * @param[in]   I2Sx I2S peripheral selected, should be: LPC_I2S
 393:../src/lib/lpc177x_8x/Drivers/source/lpc177x_8x_i2s.c ****  * @param[in]   ModeConfig pointer to I2S_MODEConf_Type will be used to
 394:../src/lib/lpc177x_8x/Drivers/source/lpc177x_8x_i2s.c ****  *              configure
 395:../src/lib/lpc177x_8x/Drivers/source/lpc177x_8x_i2s.c ****  * @param[in]   TRMode is transmit/receive mode, should be:
 396:../src/lib/lpc177x_8x/Drivers/source/lpc177x_8x_i2s.c ****  *              - I2S_TX_MODE = 0: transmit mode
 397:../src/lib/lpc177x_8x/Drivers/source/lpc177x_8x_i2s.c ****  *              - I2S_RX_MODE = 1: receive mode
 398:../src/lib/lpc177x_8x/Drivers/source/lpc177x_8x_i2s.c ****  * @return      none
 399:../src/lib/lpc177x_8x/Drivers/source/lpc177x_8x_i2s.c ****  *********************************************************************/
 400:../src/lib/lpc177x_8x/Drivers/source/lpc177x_8x_i2s.c **** void I2S_ModeConfig(LPC_I2S_TypeDef *I2Sx, I2S_MODEConf_Type* ModeConfig,
 401:../src/lib/lpc177x_8x/Drivers/source/lpc177x_8x_i2s.c ****         uint8_t TRMode)
 402:../src/lib/lpc177x_8x/Drivers/source/lpc177x_8x_i2s.c **** {
 1009              		.loc 1 402 0
 1010              		.cfi_startproc
 1011              		@ args = 0, pretend = 0, frame = 16
 1012              		@ frame_needed = 1, uses_anonymous_args = 0
 1013              		@ link register save eliminated.
 1014 04dc 80B4     		push	{r7}
 1015              	.LCFI42:
 1016              		.cfi_def_cfa_offset 4
 1017              		.cfi_offset 7, -4
 1018 04de 85B0     		sub	sp, sp, #20
 1019              	.LCFI43:
 1020              		.cfi_def_cfa_offset 24
 1021 04e0 00AF     		add	r7, sp, #0
 1022              	.LCFI44:
 1023              		.cfi_def_cfa_register 7
 1024 04e2 F860     		str	r0, [r7, #12]
 1025 04e4 B960     		str	r1, [r7, #8]
 1026 04e6 1346     		mov	r3, r2
 1027 04e8 FB71     		strb	r3, [r7, #7]
 403:../src/lib/lpc177x_8x/Drivers/source/lpc177x_8x_i2s.c ****     if (TRMode == I2S_TX_MODE) {
 1028              		.loc 1 403 0
 1029 04ea FB79     		ldrb	r3, [r7, #7]	@ zero_extendqisi2
 1030 04ec 002B     		cmp	r3, #0
 1031 04ee 24D1     		bne	.L63
 404:../src/lib/lpc177x_8x/Drivers/source/lpc177x_8x_i2s.c ****         I2Sx->TXMODE &= ~0x0F; //clear bit 3:0 in I2STXMODE register
 1032              		.loc 1 404 0
 1033 04f0 FB68     		ldr	r3, [r7, #12]
 1034 04f2 1B6B     		ldr	r3, [r3, #48]
 1035 04f4 23F00F02 		bic	r2, r3, #15
 1036 04f8 FB68     		ldr	r3, [r7, #12]
 1037 04fa 1A63     		str	r2, [r3, #48]
 405:../src/lib/lpc177x_8x/Drivers/source/lpc177x_8x_i2s.c ****         if (ModeConfig->clksel == I2S_CLKSEL_MCLK) {
 1038              		.loc 1 405 0
 1039 04fc BB68     		ldr	r3, [r7, #8]
 1040 04fe 1B78     		ldrb	r3, [r3, #0]	@ zero_extendqisi2
 1041 0500 022B     		cmp	r3, #2
 1042 0502 05D1     		bne	.L64
 406:../src/lib/lpc177x_8x/Drivers/source/lpc177x_8x_i2s.c ****             I2Sx->TXMODE |= 0x02;
 1043              		.loc 1 406 0
 1044 0504 FB68     		ldr	r3, [r7, #12]
 1045 0506 1B6B     		ldr	r3, [r3, #48]
 1046 0508 43F00202 		orr	r2, r3, #2
 1047 050c FB68     		ldr	r3, [r7, #12]
 1048 050e 1A63     		str	r2, [r3, #48]
 1049              	.L64:
 407:../src/lib/lpc177x_8x/Drivers/source/lpc177x_8x_i2s.c ****         }
 408:../src/lib/lpc177x_8x/Drivers/source/lpc177x_8x_i2s.c ****         if (ModeConfig->fpin == I2S_4PIN_ENABLE) {
 1050              		.loc 1 408 0
 1051 0510 BB68     		ldr	r3, [r7, #8]
 1052 0512 5B78     		ldrb	r3, [r3, #1]	@ zero_extendqisi2
 1053 0514 012B     		cmp	r3, #1
 1054 0516 05D1     		bne	.L65
 409:../src/lib/lpc177x_8x/Drivers/source/lpc177x_8x_i2s.c ****             I2Sx->TXMODE |= (1 << 2);
 1055              		.loc 1 409 0
 1056 0518 FB68     		ldr	r3, [r7, #12]
 1057 051a 1B6B     		ldr	r3, [r3, #48]
 1058 051c 43F00402 		orr	r2, r3, #4
 1059 0520 FB68     		ldr	r3, [r7, #12]
 1060 0522 1A63     		str	r2, [r3, #48]
 1061              	.L65:
 410:../src/lib/lpc177x_8x/Drivers/source/lpc177x_8x_i2s.c ****         }
 411:../src/lib/lpc177x_8x/Drivers/source/lpc177x_8x_i2s.c ****         if (ModeConfig->mcena == I2S_MCLK_ENABLE) {
 1062              		.loc 1 411 0
 1063 0524 BB68     		ldr	r3, [r7, #8]
 1064 0526 9B78     		ldrb	r3, [r3, #2]	@ zero_extendqisi2
 1065 0528 012B     		cmp	r3, #1
 1066 052a 2AD1     		bne	.L62
 412:../src/lib/lpc177x_8x/Drivers/source/lpc177x_8x_i2s.c ****             I2Sx->TXMODE |= (1 << 3);
 1067              		.loc 1 412 0
 1068 052c FB68     		ldr	r3, [r7, #12]
 1069 052e 1B6B     		ldr	r3, [r3, #48]
 1070 0530 43F00802 		orr	r2, r3, #8
 1071 0534 FB68     		ldr	r3, [r7, #12]
 1072 0536 1A63     		str	r2, [r3, #48]
 1073 0538 23E0     		b	.L62
 1074              	.L63:
 413:../src/lib/lpc177x_8x/Drivers/source/lpc177x_8x_i2s.c ****         }
 414:../src/lib/lpc177x_8x/Drivers/source/lpc177x_8x_i2s.c ****     } else {
 415:../src/lib/lpc177x_8x/Drivers/source/lpc177x_8x_i2s.c ****         I2Sx->RXMODE &= ~0x0F; //clear bit 3:0 in I2STXMODE register
 1075              		.loc 1 415 0
 1076 053a FB68     		ldr	r3, [r7, #12]
 1077 053c 5B6B     		ldr	r3, [r3, #52]
 1078 053e 23F00F02 		bic	r2, r3, #15
 1079 0542 FB68     		ldr	r3, [r7, #12]
 1080 0544 5A63     		str	r2, [r3, #52]
 416:../src/lib/lpc177x_8x/Drivers/source/lpc177x_8x_i2s.c ****         if (ModeConfig->clksel == I2S_CLKSEL_MCLK) {
 1081              		.loc 1 416 0
 1082 0546 BB68     		ldr	r3, [r7, #8]
 1083 0548 1B78     		ldrb	r3, [r3, #0]	@ zero_extendqisi2
 1084 054a 022B     		cmp	r3, #2
 1085 054c 05D1     		bne	.L67
 417:../src/lib/lpc177x_8x/Drivers/source/lpc177x_8x_i2s.c ****             I2Sx->RXMODE |= 0x02;
 1086              		.loc 1 417 0
 1087 054e FB68     		ldr	r3, [r7, #12]
 1088 0550 5B6B     		ldr	r3, [r3, #52]
 1089 0552 43F00202 		orr	r2, r3, #2
 1090 0556 FB68     		ldr	r3, [r7, #12]
 1091 0558 5A63     		str	r2, [r3, #52]
 1092              	.L67:
 418:../src/lib/lpc177x_8x/Drivers/source/lpc177x_8x_i2s.c ****         }
 419:../src/lib/lpc177x_8x/Drivers/source/lpc177x_8x_i2s.c ****         if (ModeConfig->fpin == I2S_4PIN_ENABLE) {
 1093              		.loc 1 419 0
 1094 055a BB68     		ldr	r3, [r7, #8]
 1095 055c 5B78     		ldrb	r3, [r3, #1]	@ zero_extendqisi2
 1096 055e 012B     		cmp	r3, #1
 1097 0560 05D1     		bne	.L68
 420:../src/lib/lpc177x_8x/Drivers/source/lpc177x_8x_i2s.c ****             I2Sx->RXMODE |= (1 << 2);
 1098              		.loc 1 420 0
 1099 0562 FB68     		ldr	r3, [r7, #12]
 1100 0564 5B6B     		ldr	r3, [r3, #52]
 1101 0566 43F00402 		orr	r2, r3, #4
 1102 056a FB68     		ldr	r3, [r7, #12]
 1103 056c 5A63     		str	r2, [r3, #52]
 1104              	.L68:
 421:../src/lib/lpc177x_8x/Drivers/source/lpc177x_8x_i2s.c ****         }
 422:../src/lib/lpc177x_8x/Drivers/source/lpc177x_8x_i2s.c ****         if (ModeConfig->mcena == I2S_MCLK_ENABLE) {
 1105              		.loc 1 422 0
 1106 056e BB68     		ldr	r3, [r7, #8]
 1107 0570 9B78     		ldrb	r3, [r3, #2]	@ zero_extendqisi2
 1108 0572 012B     		cmp	r3, #1
 1109 0574 05D1     		bne	.L62
 423:../src/lib/lpc177x_8x/Drivers/source/lpc177x_8x_i2s.c ****             I2Sx->RXMODE |= (1 << 3);
 1110              		.loc 1 423 0
 1111 0576 FB68     		ldr	r3, [r7, #12]
 1112 0578 5B6B     		ldr	r3, [r3, #52]
 1113 057a 43F00802 		orr	r2, r3, #8
 1114 057e FB68     		ldr	r3, [r7, #12]
 1115 0580 5A63     		str	r2, [r3, #52]
 1116              	.L62:
 424:../src/lib/lpc177x_8x/Drivers/source/lpc177x_8x_i2s.c ****         }
 425:../src/lib/lpc177x_8x/Drivers/source/lpc177x_8x_i2s.c ****     }
 426:../src/lib/lpc177x_8x/Drivers/source/lpc177x_8x_i2s.c **** }
 1117              		.loc 1 426 0
 1118 0582 07F11407 		add	r7, r7, #20
 1119 0586 BD46     		mov	sp, r7
 1120 0588 80BC     		pop	{r7}
 1121 058a 7047     		bx	lr
 1122              		.cfi_endproc
 1123              	.LFE69:
 1125              		.align	2
 1126              		.global	I2S_DMAConfig
 1127              		.thumb
 1128              		.thumb_func
 1130              	I2S_DMAConfig:
 1131              	.LFB70:
 427:../src/lib/lpc177x_8x/Drivers/source/lpc177x_8x_i2s.c **** 
 428:../src/lib/lpc177x_8x/Drivers/source/lpc177x_8x_i2s.c **** /********************************************************************//**
 429:../src/lib/lpc177x_8x/Drivers/source/lpc177x_8x_i2s.c ****  * @brief       Configure DMA operation for I2S
 430:../src/lib/lpc177x_8x/Drivers/source/lpc177x_8x_i2s.c ****  * @param[in]   I2Sx I2S peripheral selected, should be: LPC_I2S
 431:../src/lib/lpc177x_8x/Drivers/source/lpc177x_8x_i2s.c ****  * @param[in]   DMAConfig pointer to I2S_DMAConf_Type will be used to configure
 432:../src/lib/lpc177x_8x/Drivers/source/lpc177x_8x_i2s.c ****  * @param[in]   TRMode is transmit/receive mode, should be:
 433:../src/lib/lpc177x_8x/Drivers/source/lpc177x_8x_i2s.c ****  *              - I2S_TX_MODE = 0: transmit mode
 434:../src/lib/lpc177x_8x/Drivers/source/lpc177x_8x_i2s.c ****  *              - I2S_RX_MODE = 1: receive mode
 435:../src/lib/lpc177x_8x/Drivers/source/lpc177x_8x_i2s.c ****  * @return      none
 436:../src/lib/lpc177x_8x/Drivers/source/lpc177x_8x_i2s.c ****  *********************************************************************/
 437:../src/lib/lpc177x_8x/Drivers/source/lpc177x_8x_i2s.c **** void I2S_DMAConfig(LPC_I2S_TypeDef *I2Sx, I2S_DMAConf_Type* DMAConfig,
 438:../src/lib/lpc177x_8x/Drivers/source/lpc177x_8x_i2s.c ****         uint8_t TRMode)
 439:../src/lib/lpc177x_8x/Drivers/source/lpc177x_8x_i2s.c **** {
 1132              		.loc 1 439 0
 1133              		.cfi_startproc
 1134              		@ args = 0, pretend = 0, frame = 16
 1135              		@ frame_needed = 1, uses_anonymous_args = 0
 1136              		@ link register save eliminated.
 1137 058c 80B4     		push	{r7}
 1138              	.LCFI45:
 1139              		.cfi_def_cfa_offset 4
 1140              		.cfi_offset 7, -4
 1141 058e 85B0     		sub	sp, sp, #20
 1142              	.LCFI46:
 1143              		.cfi_def_cfa_offset 24
 1144 0590 00AF     		add	r7, sp, #0
 1145              	.LCFI47:
 1146              		.cfi_def_cfa_register 7
 1147 0592 F860     		str	r0, [r7, #12]
 1148 0594 B960     		str	r1, [r7, #8]
 1149 0596 1346     		mov	r3, r2
 1150 0598 FB71     		strb	r3, [r7, #7]
 440:../src/lib/lpc177x_8x/Drivers/source/lpc177x_8x_i2s.c ****     if (TRMode == I2S_RX_MODE) {
 1151              		.loc 1 440 0
 1152 059a FB79     		ldrb	r3, [r7, #7]	@ zero_extendqisi2
 1153 059c 012B     		cmp	r3, #1
 1154 059e 11D1     		bne	.L70
 441:../src/lib/lpc177x_8x/Drivers/source/lpc177x_8x_i2s.c ****         if (DMAConfig->DMAIndex == I2S_DMA_1) {
 1155              		.loc 1 441 0
 1156 05a0 BB68     		ldr	r3, [r7, #8]
 1157 05a2 1B78     		ldrb	r3, [r3, #0]	@ zero_extendqisi2
 1158 05a4 002B     		cmp	r3, #0
 1159 05a6 06D1     		bne	.L71
 442:../src/lib/lpc177x_8x/Drivers/source/lpc177x_8x_i2s.c ****             LPC_I2S->DMA1 = (DMAConfig->depth) << 8;
 1160              		.loc 1 442 0
 1161 05a8 114B     		ldr	r3, .L74
 1162 05aa BA68     		ldr	r2, [r7, #8]
 1163 05ac 5278     		ldrb	r2, [r2, #1]	@ zero_extendqisi2
 1164 05ae 4FEA0222 		lsl	r2, r2, #8
 1165 05b2 5A61     		str	r2, [r3, #20]
 1166 05b4 17E0     		b	.L69
 1167              	.L71:
 443:../src/lib/lpc177x_8x/Drivers/source/lpc177x_8x_i2s.c ****         } else {
 444:../src/lib/lpc177x_8x/Drivers/source/lpc177x_8x_i2s.c ****             LPC_I2S->DMA2 = (DMAConfig->depth) << 8;
 1168              		.loc 1 444 0
 1169 05b6 0E4B     		ldr	r3, .L74
 1170 05b8 BA68     		ldr	r2, [r7, #8]
 1171 05ba 5278     		ldrb	r2, [r2, #1]	@ zero_extendqisi2
 1172 05bc 4FEA0222 		lsl	r2, r2, #8
 1173 05c0 9A61     		str	r2, [r3, #24]
 1174 05c2 10E0     		b	.L69
 1175              	.L70:
 445:../src/lib/lpc177x_8x/Drivers/source/lpc177x_8x_i2s.c ****         }
 446:../src/lib/lpc177x_8x/Drivers/source/lpc177x_8x_i2s.c ****     } else {
 447:../src/lib/lpc177x_8x/Drivers/source/lpc177x_8x_i2s.c ****         if (DMAConfig->DMAIndex == I2S_DMA_1) {
 1176              		.loc 1 447 0
 1177 05c4 BB68     		ldr	r3, [r7, #8]
 1178 05c6 1B78     		ldrb	r3, [r3, #0]	@ zero_extendqisi2
 1179 05c8 002B     		cmp	r3, #0
 1180 05ca 06D1     		bne	.L73
 448:../src/lib/lpc177x_8x/Drivers/source/lpc177x_8x_i2s.c ****             LPC_I2S->DMA1 = (DMAConfig->depth) << 16;
 1181              		.loc 1 448 0
 1182 05cc 084B     		ldr	r3, .L74
 1183 05ce BA68     		ldr	r2, [r7, #8]
 1184 05d0 5278     		ldrb	r2, [r2, #1]	@ zero_extendqisi2
 1185 05d2 4FEA0242 		lsl	r2, r2, #16
 1186 05d6 5A61     		str	r2, [r3, #20]
 1187 05d8 05E0     		b	.L69
 1188              	.L73:
 449:../src/lib/lpc177x_8x/Drivers/source/lpc177x_8x_i2s.c ****         } else {
 450:../src/lib/lpc177x_8x/Drivers/source/lpc177x_8x_i2s.c ****             LPC_I2S->DMA2 = (DMAConfig->depth) << 16;
 1189              		.loc 1 450 0
 1190 05da 054B     		ldr	r3, .L74
 1191 05dc BA68     		ldr	r2, [r7, #8]
 1192 05de 5278     		ldrb	r2, [r2, #1]	@ zero_extendqisi2
 1193 05e0 4FEA0242 		lsl	r2, r2, #16
 1194 05e4 9A61     		str	r2, [r3, #24]
 1195              	.L69:
 451:../src/lib/lpc177x_8x/Drivers/source/lpc177x_8x_i2s.c ****         }
 452:../src/lib/lpc177x_8x/Drivers/source/lpc177x_8x_i2s.c ****     }
 453:../src/lib/lpc177x_8x/Drivers/source/lpc177x_8x_i2s.c **** }
 1196              		.loc 1 453 0
 1197 05e6 07F11407 		add	r7, r7, #20
 1198 05ea BD46     		mov	sp, r7
 1199 05ec 80BC     		pop	{r7}
 1200 05ee 7047     		bx	lr
 1201              	.L75:
 1202              		.align	2
 1203              	.L74:
 1204 05f0 00800A40 		.word	1074429952
 1205              		.cfi_endproc
 1206              	.LFE70:
 1208              		.align	2
 1209              		.global	I2S_DMACmd
 1210              		.thumb
 1211              		.thumb_func
 1213              	I2S_DMACmd:
 1214              	.LFB71:
 454:../src/lib/lpc177x_8x/Drivers/source/lpc177x_8x_i2s.c **** 
 455:../src/lib/lpc177x_8x/Drivers/source/lpc177x_8x_i2s.c **** /********************************************************************//**
 456:../src/lib/lpc177x_8x/Drivers/source/lpc177x_8x_i2s.c ****  * @brief       Enable/Disable DMA operation for I2S
 457:../src/lib/lpc177x_8x/Drivers/source/lpc177x_8x_i2s.c ****  * @param[in]   I2Sx: I2S peripheral selected, should be: LPC_I2S
 458:../src/lib/lpc177x_8x/Drivers/source/lpc177x_8x_i2s.c ****  * @param[in]   DMAIndex chose what DMA is used, should be:
 459:../src/lib/lpc177x_8x/Drivers/source/lpc177x_8x_i2s.c ****  *              - I2S_DMA_1 = 0: DMA1
 460:../src/lib/lpc177x_8x/Drivers/source/lpc177x_8x_i2s.c ****  *              - I2S_DMA_2 = 1: DMA2
 461:../src/lib/lpc177x_8x/Drivers/source/lpc177x_8x_i2s.c ****  * @param[in]   TRMode is transmit/receive mode, should be:
 462:../src/lib/lpc177x_8x/Drivers/source/lpc177x_8x_i2s.c ****  *              - I2S_TX_MODE = 0: transmit mode
 463:../src/lib/lpc177x_8x/Drivers/source/lpc177x_8x_i2s.c ****  *              - I2S_RX_MODE = 1: receive mode
 464:../src/lib/lpc177x_8x/Drivers/source/lpc177x_8x_i2s.c ****  * @param[in]   NewState is new state of DMA operation, should be:
 465:../src/lib/lpc177x_8x/Drivers/source/lpc177x_8x_i2s.c ****  *              - ENABLE
 466:../src/lib/lpc177x_8x/Drivers/source/lpc177x_8x_i2s.c ****  *              - DISABLE
 467:../src/lib/lpc177x_8x/Drivers/source/lpc177x_8x_i2s.c ****  * @return      none
 468:../src/lib/lpc177x_8x/Drivers/source/lpc177x_8x_i2s.c ****  *********************************************************************/
 469:../src/lib/lpc177x_8x/Drivers/source/lpc177x_8x_i2s.c **** void I2S_DMACmd(LPC_I2S_TypeDef *I2Sx, uint8_t DMAIndex, uint8_t TRMode,
 470:../src/lib/lpc177x_8x/Drivers/source/lpc177x_8x_i2s.c ****         FunctionalState NewState)
 471:../src/lib/lpc177x_8x/Drivers/source/lpc177x_8x_i2s.c **** {
 1215              		.loc 1 471 0
 1216              		.cfi_startproc
 1217              		@ args = 0, pretend = 0, frame = 8
 1218              		@ frame_needed = 1, uses_anonymous_args = 0
 1219              		@ link register save eliminated.
 1220 05f4 80B4     		push	{r7}
 1221              	.LCFI48:
 1222              		.cfi_def_cfa_offset 4
 1223              		.cfi_offset 7, -4
 1224 05f6 83B0     		sub	sp, sp, #12
 1225              	.LCFI49:
 1226              		.cfi_def_cfa_offset 16
 1227 05f8 00AF     		add	r7, sp, #0
 1228              	.LCFI50:
 1229              		.cfi_def_cfa_register 7
 1230 05fa 7860     		str	r0, [r7, #4]
 1231 05fc F970     		strb	r1, [r7, #3]
 1232 05fe BA70     		strb	r2, [r7, #2]
 1233 0600 7B70     		strb	r3, [r7, #1]
 472:../src/lib/lpc177x_8x/Drivers/source/lpc177x_8x_i2s.c ****     if (TRMode == I2S_RX_MODE) {
 1234              		.loc 1 472 0
 1235 0602 BB78     		ldrb	r3, [r7, #2]	@ zero_extendqisi2
 1236 0604 012B     		cmp	r3, #1
 1237 0606 24D1     		bne	.L77
 473:../src/lib/lpc177x_8x/Drivers/source/lpc177x_8x_i2s.c ****         if (DMAIndex == I2S_DMA_1) {
 1238              		.loc 1 473 0
 1239 0608 FB78     		ldrb	r3, [r7, #3]	@ zero_extendqisi2
 1240 060a 002B     		cmp	r3, #0
 1241 060c 10D1     		bne	.L78
 474:../src/lib/lpc177x_8x/Drivers/source/lpc177x_8x_i2s.c ****             if (NewState == ENABLE)
 1242              		.loc 1 474 0
 1243 060e 7B78     		ldrb	r3, [r7, #1]	@ zero_extendqisi2
 1244 0610 012B     		cmp	r3, #1
 1245 0612 06D1     		bne	.L79
 475:../src/lib/lpc177x_8x/Drivers/source/lpc177x_8x_i2s.c ****                 I2Sx->DMA1 |= 0x01;
 1246              		.loc 1 475 0
 1247 0614 7B68     		ldr	r3, [r7, #4]
 1248 0616 5B69     		ldr	r3, [r3, #20]
 1249 0618 43F00102 		orr	r2, r3, #1
 1250 061c 7B68     		ldr	r3, [r7, #4]
 1251 061e 5A61     		str	r2, [r3, #20]
 1252 0620 3BE0     		b	.L76
 1253              	.L79:
 476:../src/lib/lpc177x_8x/Drivers/source/lpc177x_8x_i2s.c ****             else
 477:../src/lib/lpc177x_8x/Drivers/source/lpc177x_8x_i2s.c ****                 I2Sx->DMA1 &= ~0x01;
 1254              		.loc 1 477 0
 1255 0622 7B68     		ldr	r3, [r7, #4]
 1256 0624 5B69     		ldr	r3, [r3, #20]
 1257 0626 23F00102 		bic	r2, r3, #1
 1258 062a 7B68     		ldr	r3, [r7, #4]
 1259 062c 5A61     		str	r2, [r3, #20]
 1260 062e 34E0     		b	.L76
 1261              	.L78:
 478:../src/lib/lpc177x_8x/Drivers/source/lpc177x_8x_i2s.c ****         } else {
 479:../src/lib/lpc177x_8x/Drivers/source/lpc177x_8x_i2s.c ****             if (NewState == ENABLE)
 1262              		.loc 1 479 0
 1263 0630 7B78     		ldrb	r3, [r7, #1]	@ zero_extendqisi2
 1264 0632 012B     		cmp	r3, #1
 1265 0634 06D1     		bne	.L81
 480:../src/lib/lpc177x_8x/Drivers/source/lpc177x_8x_i2s.c ****                 I2Sx->DMA2 |= 0x01;
 1266              		.loc 1 480 0
 1267 0636 7B68     		ldr	r3, [r7, #4]
 1268 0638 9B69     		ldr	r3, [r3, #24]
 1269 063a 43F00102 		orr	r2, r3, #1
 1270 063e 7B68     		ldr	r3, [r7, #4]
 1271 0640 9A61     		str	r2, [r3, #24]
 1272 0642 2AE0     		b	.L76
 1273              	.L81:
 481:../src/lib/lpc177x_8x/Drivers/source/lpc177x_8x_i2s.c ****             else
 482:../src/lib/lpc177x_8x/Drivers/source/lpc177x_8x_i2s.c ****                 I2Sx->DMA2 &= ~0x01;
 1274              		.loc 1 482 0
 1275 0644 7B68     		ldr	r3, [r7, #4]
 1276 0646 9B69     		ldr	r3, [r3, #24]
 1277 0648 23F00102 		bic	r2, r3, #1
 1278 064c 7B68     		ldr	r3, [r7, #4]
 1279 064e 9A61     		str	r2, [r3, #24]
 1280 0650 23E0     		b	.L76
 1281              	.L77:
 483:../src/lib/lpc177x_8x/Drivers/source/lpc177x_8x_i2s.c ****         }
 484:../src/lib/lpc177x_8x/Drivers/source/lpc177x_8x_i2s.c ****     } else {
 485:../src/lib/lpc177x_8x/Drivers/source/lpc177x_8x_i2s.c ****         if (DMAIndex == I2S_DMA_1) {
 1282              		.loc 1 485 0
 1283 0652 FB78     		ldrb	r3, [r7, #3]	@ zero_extendqisi2
 1284 0654 002B     		cmp	r3, #0
 1285 0656 10D1     		bne	.L82
 486:../src/lib/lpc177x_8x/Drivers/source/lpc177x_8x_i2s.c ****             if (NewState == ENABLE)
 1286              		.loc 1 486 0
 1287 0658 7B78     		ldrb	r3, [r7, #1]	@ zero_extendqisi2
 1288 065a 012B     		cmp	r3, #1
 1289 065c 06D1     		bne	.L83
 487:../src/lib/lpc177x_8x/Drivers/source/lpc177x_8x_i2s.c ****                 I2Sx->DMA1 |= 0x02;
 1290              		.loc 1 487 0
 1291 065e 7B68     		ldr	r3, [r7, #4]
 1292 0660 5B69     		ldr	r3, [r3, #20]
 1293 0662 43F00202 		orr	r2, r3, #2
 1294 0666 7B68     		ldr	r3, [r7, #4]
 1295 0668 5A61     		str	r2, [r3, #20]
 1296 066a 16E0     		b	.L76
 1297              	.L83:
 488:../src/lib/lpc177x_8x/Drivers/source/lpc177x_8x_i2s.c ****             else
 489:../src/lib/lpc177x_8x/Drivers/source/lpc177x_8x_i2s.c ****                 I2Sx->DMA1 &= ~0x02;
 1298              		.loc 1 489 0
 1299 066c 7B68     		ldr	r3, [r7, #4]
 1300 066e 5B69     		ldr	r3, [r3, #20]
 1301 0670 23F00202 		bic	r2, r3, #2
 1302 0674 7B68     		ldr	r3, [r7, #4]
 1303 0676 5A61     		str	r2, [r3, #20]
 1304 0678 0FE0     		b	.L76
 1305              	.L82:
 490:../src/lib/lpc177x_8x/Drivers/source/lpc177x_8x_i2s.c ****         } else {
 491:../src/lib/lpc177x_8x/Drivers/source/lpc177x_8x_i2s.c ****             if (NewState == ENABLE)
 1306              		.loc 1 491 0
 1307 067a 7B78     		ldrb	r3, [r7, #1]	@ zero_extendqisi2
 1308 067c 012B     		cmp	r3, #1
 1309 067e 06D1     		bne	.L84
 492:../src/lib/lpc177x_8x/Drivers/source/lpc177x_8x_i2s.c ****                 I2Sx->DMA2 |= 0x02;
 1310              		.loc 1 492 0
 1311 0680 7B68     		ldr	r3, [r7, #4]
 1312 0682 9B69     		ldr	r3, [r3, #24]
 1313 0684 43F00202 		orr	r2, r3, #2
 1314 0688 7B68     		ldr	r3, [r7, #4]
 1315 068a 9A61     		str	r2, [r3, #24]
 1316 068c 05E0     		b	.L76
 1317              	.L84:
 493:../src/lib/lpc177x_8x/Drivers/source/lpc177x_8x_i2s.c ****             else
 494:../src/lib/lpc177x_8x/Drivers/source/lpc177x_8x_i2s.c ****                 I2Sx->DMA2 &= ~0x02;
 1318              		.loc 1 494 0
 1319 068e 7B68     		ldr	r3, [r7, #4]
 1320 0690 9B69     		ldr	r3, [r3, #24]
 1321 0692 23F00202 		bic	r2, r3, #2
 1322 0696 7B68     		ldr	r3, [r7, #4]
 1323 0698 9A61     		str	r2, [r3, #24]
 1324              	.L76:
 495:../src/lib/lpc177x_8x/Drivers/source/lpc177x_8x_i2s.c ****         }
 496:../src/lib/lpc177x_8x/Drivers/source/lpc177x_8x_i2s.c ****     }
 497:../src/lib/lpc177x_8x/Drivers/source/lpc177x_8x_i2s.c **** }
 1325              		.loc 1 497 0
 1326 069a 07F10C07 		add	r7, r7, #12
 1327 069e BD46     		mov	sp, r7
 1328 06a0 80BC     		pop	{r7}
 1329 06a2 7047     		bx	lr
 1330              		.cfi_endproc
 1331              	.LFE71:
 1333              		.align	2
 1334              		.global	I2S_IRQConfig
 1335              		.thumb
 1336              		.thumb_func
 1338              	I2S_IRQConfig:
 1339              	.LFB72:
 498:../src/lib/lpc177x_8x/Drivers/source/lpc177x_8x_i2s.c **** 
 499:../src/lib/lpc177x_8x/Drivers/source/lpc177x_8x_i2s.c **** /********************************************************************//**
 500:../src/lib/lpc177x_8x/Drivers/source/lpc177x_8x_i2s.c ****  * @brief       Configure IRQ for I2S
 501:../src/lib/lpc177x_8x/Drivers/source/lpc177x_8x_i2s.c ****  * @param[in]   I2Sx I2S peripheral selected, should be: LPC_I2S
 502:../src/lib/lpc177x_8x/Drivers/source/lpc177x_8x_i2s.c ****  * @param[in]   TRMode is transmit/receive mode, should be:
 503:../src/lib/lpc177x_8x/Drivers/source/lpc177x_8x_i2s.c ****  *              - I2S_TX_MODE = 0: transmit mode
 504:../src/lib/lpc177x_8x/Drivers/source/lpc177x_8x_i2s.c ****  *              - I2S_RX_MODE = 1: receive mode
 505:../src/lib/lpc177x_8x/Drivers/source/lpc177x_8x_i2s.c ****  * @param[in]   level is the FIFO level that triggers IRQ request
 506:../src/lib/lpc177x_8x/Drivers/source/lpc177x_8x_i2s.c ****  * @return      none
 507:../src/lib/lpc177x_8x/Drivers/source/lpc177x_8x_i2s.c ****  *********************************************************************/
 508:../src/lib/lpc177x_8x/Drivers/source/lpc177x_8x_i2s.c **** void I2S_IRQConfig(LPC_I2S_TypeDef *I2Sx, uint8_t TRMode, uint8_t level) {
 1340              		.loc 1 508 0
 1341              		.cfi_startproc
 1342              		@ args = 0, pretend = 0, frame = 8
 1343              		@ frame_needed = 1, uses_anonymous_args = 0
 1344              		@ link register save eliminated.
 1345 06a4 80B4     		push	{r7}
 1346              	.LCFI51:
 1347              		.cfi_def_cfa_offset 4
 1348              		.cfi_offset 7, -4
 1349 06a6 83B0     		sub	sp, sp, #12
 1350              	.LCFI52:
 1351              		.cfi_def_cfa_offset 16
 1352 06a8 00AF     		add	r7, sp, #0
 1353              	.LCFI53:
 1354              		.cfi_def_cfa_register 7
 1355 06aa 7860     		str	r0, [r7, #4]
 1356 06ac 1346     		mov	r3, r2
 1357 06ae 0A46     		mov	r2, r1
 1358 06b0 FA70     		strb	r2, [r7, #3]
 1359 06b2 BB70     		strb	r3, [r7, #2]
 509:../src/lib/lpc177x_8x/Drivers/source/lpc177x_8x_i2s.c ****     if (TRMode == I2S_RX_MODE) {
 1360              		.loc 1 509 0
 1361 06b4 FB78     		ldrb	r3, [r7, #3]	@ zero_extendqisi2
 1362 06b6 012B     		cmp	r3, #1
 1363 06b8 08D1     		bne	.L86
 510:../src/lib/lpc177x_8x/Drivers/source/lpc177x_8x_i2s.c ****         I2Sx->IRQ |= (level << 8);
 1364              		.loc 1 510 0
 1365 06ba 7B68     		ldr	r3, [r7, #4]
 1366 06bc DA69     		ldr	r2, [r3, #28]
 1367 06be BB78     		ldrb	r3, [r7, #2]	@ zero_extendqisi2
 1368 06c0 4FEA0323 		lsl	r3, r3, #8
 1369 06c4 1A43     		orrs	r2, r2, r3
 1370 06c6 7B68     		ldr	r3, [r7, #4]
 1371 06c8 DA61     		str	r2, [r3, #28]
 1372 06ca 07E0     		b	.L85
 1373              	.L86:
 511:../src/lib/lpc177x_8x/Drivers/source/lpc177x_8x_i2s.c ****     } else {
 512:../src/lib/lpc177x_8x/Drivers/source/lpc177x_8x_i2s.c ****         I2Sx->IRQ |= (level << 16);
 1374              		.loc 1 512 0
 1375 06cc 7B68     		ldr	r3, [r7, #4]
 1376 06ce DA69     		ldr	r2, [r3, #28]
 1377 06d0 BB78     		ldrb	r3, [r7, #2]	@ zero_extendqisi2
 1378 06d2 4FEA0343 		lsl	r3, r3, #16
 1379 06d6 1A43     		orrs	r2, r2, r3
 1380 06d8 7B68     		ldr	r3, [r7, #4]
 1381 06da DA61     		str	r2, [r3, #28]
 1382              	.L85:
 513:../src/lib/lpc177x_8x/Drivers/source/lpc177x_8x_i2s.c ****     }
 514:../src/lib/lpc177x_8x/Drivers/source/lpc177x_8x_i2s.c **** }
 1383              		.loc 1 514 0
 1384 06dc 07F10C07 		add	r7, r7, #12
 1385 06e0 BD46     		mov	sp, r7
 1386 06e2 80BC     		pop	{r7}
 1387 06e4 7047     		bx	lr
 1388              		.cfi_endproc
 1389              	.LFE72:
 1391 06e6 00BF     		.align	2
 1392              		.global	I2S_IRQCmd
 1393              		.thumb
 1394              		.thumb_func
 1396              	I2S_IRQCmd:
 1397              	.LFB73:
 515:../src/lib/lpc177x_8x/Drivers/source/lpc177x_8x_i2s.c **** 
 516:../src/lib/lpc177x_8x/Drivers/source/lpc177x_8x_i2s.c **** /********************************************************************//**
 517:../src/lib/lpc177x_8x/Drivers/source/lpc177x_8x_i2s.c ****  * @brief       Enable/Disable IRQ for I2S
 518:../src/lib/lpc177x_8x/Drivers/source/lpc177x_8x_i2s.c ****  * @param[in]   I2Sx I2S peripheral selected, should be: LPC_I2S
 519:../src/lib/lpc177x_8x/Drivers/source/lpc177x_8x_i2s.c ****  * @param[in]   TRMode is transmit/receive mode, should be:
 520:../src/lib/lpc177x_8x/Drivers/source/lpc177x_8x_i2s.c ****  *              - I2S_TX_MODE = 0: transmit mode
 521:../src/lib/lpc177x_8x/Drivers/source/lpc177x_8x_i2s.c ****  *              - I2S_RX_MODE = 1: receive mode
 522:../src/lib/lpc177x_8x/Drivers/source/lpc177x_8x_i2s.c ****  * @param[in]   NewState is new state of DMA operation, should be:
 523:../src/lib/lpc177x_8x/Drivers/source/lpc177x_8x_i2s.c ****  *              - ENABLE
 524:../src/lib/lpc177x_8x/Drivers/source/lpc177x_8x_i2s.c ****  *              - DISABLE
 525:../src/lib/lpc177x_8x/Drivers/source/lpc177x_8x_i2s.c ****  * @return      none
 526:../src/lib/lpc177x_8x/Drivers/source/lpc177x_8x_i2s.c ****  *********************************************************************/
 527:../src/lib/lpc177x_8x/Drivers/source/lpc177x_8x_i2s.c **** void I2S_IRQCmd(LPC_I2S_TypeDef *I2Sx, uint8_t TRMode, FunctionalState NewState) {
 1398              		.loc 1 527 0
 1399              		.cfi_startproc
 1400              		@ args = 0, pretend = 0, frame = 8
 1401              		@ frame_needed = 1, uses_anonymous_args = 0
 1402              		@ link register save eliminated.
 1403 06e8 80B4     		push	{r7}
 1404              	.LCFI54:
 1405              		.cfi_def_cfa_offset 4
 1406              		.cfi_offset 7, -4
 1407 06ea 83B0     		sub	sp, sp, #12
 1408              	.LCFI55:
 1409              		.cfi_def_cfa_offset 16
 1410 06ec 00AF     		add	r7, sp, #0
 1411              	.LCFI56:
 1412              		.cfi_def_cfa_register 7
 1413 06ee 7860     		str	r0, [r7, #4]
 1414 06f0 1346     		mov	r3, r2
 1415 06f2 0A46     		mov	r2, r1
 1416 06f4 FA70     		strb	r2, [r7, #3]
 1417 06f6 BB70     		strb	r3, [r7, #2]
 528:../src/lib/lpc177x_8x/Drivers/source/lpc177x_8x_i2s.c **** 
 529:../src/lib/lpc177x_8x/Drivers/source/lpc177x_8x_i2s.c ****     if (TRMode == I2S_RX_MODE) {
 1418              		.loc 1 529 0
 1419 06f8 FB78     		ldrb	r3, [r7, #3]	@ zero_extendqisi2
 1420 06fa 012B     		cmp	r3, #1
 1421 06fc 10D1     		bne	.L89
 530:../src/lib/lpc177x_8x/Drivers/source/lpc177x_8x_i2s.c ****         if (NewState == ENABLE)
 1422              		.loc 1 530 0
 1423 06fe BB78     		ldrb	r3, [r7, #2]	@ zero_extendqisi2
 1424 0700 012B     		cmp	r3, #1
 1425 0702 06D1     		bne	.L90
 531:../src/lib/lpc177x_8x/Drivers/source/lpc177x_8x_i2s.c ****             I2Sx->IRQ |= 0x01;
 1426              		.loc 1 531 0
 1427 0704 7B68     		ldr	r3, [r7, #4]
 1428 0706 DB69     		ldr	r3, [r3, #28]
 1429 0708 43F00102 		orr	r2, r3, #1
 1430 070c 7B68     		ldr	r3, [r7, #4]
 1431 070e DA61     		str	r2, [r3, #28]
 1432 0710 16E0     		b	.L88
 1433              	.L90:
 532:../src/lib/lpc177x_8x/Drivers/source/lpc177x_8x_i2s.c ****         else
 533:../src/lib/lpc177x_8x/Drivers/source/lpc177x_8x_i2s.c ****             I2Sx->IRQ &= ~0x01;
 1434              		.loc 1 533 0
 1435 0712 7B68     		ldr	r3, [r7, #4]
 1436 0714 DB69     		ldr	r3, [r3, #28]
 1437 0716 23F00102 		bic	r2, r3, #1
 1438 071a 7B68     		ldr	r3, [r7, #4]
 1439 071c DA61     		str	r2, [r3, #28]
 1440 071e 0FE0     		b	.L88
 1441              	.L89:
 534:../src/lib/lpc177x_8x/Drivers/source/lpc177x_8x_i2s.c ****         //Enable DMA
 535:../src/lib/lpc177x_8x/Drivers/source/lpc177x_8x_i2s.c **** 
 536:../src/lib/lpc177x_8x/Drivers/source/lpc177x_8x_i2s.c ****     } else {
 537:../src/lib/lpc177x_8x/Drivers/source/lpc177x_8x_i2s.c ****         if (NewState == ENABLE)
 1442              		.loc 1 537 0
 1443 0720 BB78     		ldrb	r3, [r7, #2]	@ zero_extendqisi2
 1444 0722 012B     		cmp	r3, #1
 1445 0724 06D1     		bne	.L92
 538:../src/lib/lpc177x_8x/Drivers/source/lpc177x_8x_i2s.c ****             I2Sx->IRQ |= 0x02;
 1446              		.loc 1 538 0
 1447 0726 7B68     		ldr	r3, [r7, #4]
 1448 0728 DB69     		ldr	r3, [r3, #28]
 1449 072a 43F00202 		orr	r2, r3, #2
 1450 072e 7B68     		ldr	r3, [r7, #4]
 1451 0730 DA61     		str	r2, [r3, #28]
 1452 0732 05E0     		b	.L88
 1453              	.L92:
 539:../src/lib/lpc177x_8x/Drivers/source/lpc177x_8x_i2s.c ****         else
 540:../src/lib/lpc177x_8x/Drivers/source/lpc177x_8x_i2s.c ****             I2Sx->IRQ &= ~0x02;
 1454              		.loc 1 540 0
 1455 0734 7B68     		ldr	r3, [r7, #4]
 1456 0736 DB69     		ldr	r3, [r3, #28]
 1457 0738 23F00202 		bic	r2, r3, #2
 1458 073c 7B68     		ldr	r3, [r7, #4]
 1459 073e DA61     		str	r2, [r3, #28]
 1460              	.L88:
 541:../src/lib/lpc177x_8x/Drivers/source/lpc177x_8x_i2s.c ****     }
 542:../src/lib/lpc177x_8x/Drivers/source/lpc177x_8x_i2s.c **** }
 1461              		.loc 1 542 0
 1462 0740 07F10C07 		add	r7, r7, #12
 1463 0744 BD46     		mov	sp, r7
 1464 0746 80BC     		pop	{r7}
 1465 0748 7047     		bx	lr
 1466              		.cfi_endproc
 1467              	.LFE73:
 1469 074a 00BF     		.align	2
 1470              		.global	I2S_GetIRQStatus
 1471              		.thumb
 1472              		.thumb_func
 1474              	I2S_GetIRQStatus:
 1475              	.LFB74:
 543:../src/lib/lpc177x_8x/Drivers/source/lpc177x_8x_i2s.c **** 
 544:../src/lib/lpc177x_8x/Drivers/source/lpc177x_8x_i2s.c **** /********************************************************************//**
 545:../src/lib/lpc177x_8x/Drivers/source/lpc177x_8x_i2s.c ****  * @brief       Get I2S interrupt status
 546:../src/lib/lpc177x_8x/Drivers/source/lpc177x_8x_i2s.c ****  * @param[in]   I2Sx I2S peripheral selected, should be: LPC_I2S
 547:../src/lib/lpc177x_8x/Drivers/source/lpc177x_8x_i2s.c ****  * @param[in]   TRMode is transmit/receive mode, should be:
 548:../src/lib/lpc177x_8x/Drivers/source/lpc177x_8x_i2s.c ****  *              - I2S_TX_MODE = 0: transmit mode
 549:../src/lib/lpc177x_8x/Drivers/source/lpc177x_8x_i2s.c ****  *              - I2S_RX_MODE = 1: receive mode
 550:../src/lib/lpc177x_8x/Drivers/source/lpc177x_8x_i2s.c ****  * @return      FunctionState   should be:
 551:../src/lib/lpc177x_8x/Drivers/source/lpc177x_8x_i2s.c ****  *              - ENABLE: interrupt is enable
 552:../src/lib/lpc177x_8x/Drivers/source/lpc177x_8x_i2s.c ****  *              - DISABLE: interrupt is disable
 553:../src/lib/lpc177x_8x/Drivers/source/lpc177x_8x_i2s.c ****  *********************************************************************/
 554:../src/lib/lpc177x_8x/Drivers/source/lpc177x_8x_i2s.c **** FunctionalState I2S_GetIRQStatus(LPC_I2S_TypeDef *I2Sx,uint8_t TRMode)
 555:../src/lib/lpc177x_8x/Drivers/source/lpc177x_8x_i2s.c **** {
 1476              		.loc 1 555 0
 1477              		.cfi_startproc
 1478              		@ args = 0, pretend = 0, frame = 8
 1479              		@ frame_needed = 1, uses_anonymous_args = 0
 1480              		@ link register save eliminated.
 1481 074c 80B4     		push	{r7}
 1482              	.LCFI57:
 1483              		.cfi_def_cfa_offset 4
 1484              		.cfi_offset 7, -4
 1485 074e 83B0     		sub	sp, sp, #12
 1486              	.LCFI58:
 1487              		.cfi_def_cfa_offset 16
 1488 0750 00AF     		add	r7, sp, #0
 1489              	.LCFI59:
 1490              		.cfi_def_cfa_register 7
 1491 0752 7860     		str	r0, [r7, #4]
 1492 0754 0B46     		mov	r3, r1
 1493 0756 FB70     		strb	r3, [r7, #3]
 556:../src/lib/lpc177x_8x/Drivers/source/lpc177x_8x_i2s.c **** 
 557:../src/lib/lpc177x_8x/Drivers/source/lpc177x_8x_i2s.c ****     if(TRMode == I2S_TX_MODE)
 1494              		.loc 1 557 0
 1495 0758 FB78     		ldrb	r3, [r7, #3]	@ zero_extendqisi2
 1496 075a 002B     		cmp	r3, #0
 1497 075c 0BD1     		bne	.L94
 558:../src/lib/lpc177x_8x/Drivers/source/lpc177x_8x_i2s.c ****         return I2S_IS_ENABLED((I2Sx->IRQ >> 1)&0x01);
 1498              		.loc 1 558 0
 1499 075e 7B68     		ldr	r3, [r7, #4]
 1500 0760 DB69     		ldr	r3, [r3, #28]
 1501 0762 4FEA5303 		lsr	r3, r3, #1
 1502 0766 03F00103 		and	r3, r3, #1
 1503 076a 002B     		cmp	r3, #0
 1504 076c 0CBF     		ite	eq
 1505 076e 0023     		moveq	r3, #0
 1506 0770 0123     		movne	r3, #1
 1507 0772 DBB2     		uxtb	r3, r3
 1508 0774 08E0     		b	.L95
 1509              	.L94:
 559:../src/lib/lpc177x_8x/Drivers/source/lpc177x_8x_i2s.c ****     else
 560:../src/lib/lpc177x_8x/Drivers/source/lpc177x_8x_i2s.c ****         return I2S_IS_ENABLED((I2Sx->IRQ)&0x01);
 1510              		.loc 1 560 0
 1511 0776 7B68     		ldr	r3, [r7, #4]
 1512 0778 DB69     		ldr	r3, [r3, #28]
 1513 077a 03F00103 		and	r3, r3, #1
 1514 077e 002B     		cmp	r3, #0
 1515 0780 0CBF     		ite	eq
 1516 0782 0023     		moveq	r3, #0
 1517 0784 0123     		movne	r3, #1
 1518 0786 DBB2     		uxtb	r3, r3
 1519              	.L95:
 561:../src/lib/lpc177x_8x/Drivers/source/lpc177x_8x_i2s.c **** }
 1520              		.loc 1 561 0
 1521 0788 1846     		mov	r0, r3
 1522 078a 07F10C07 		add	r7, r7, #12
 1523 078e BD46     		mov	sp, r7
 1524 0790 80BC     		pop	{r7}
 1525 0792 7047     		bx	lr
 1526              		.cfi_endproc
 1527              	.LFE74:
 1529              		.align	2
 1530              		.global	I2S_GetIRQDepth
 1531              		.thumb
 1532              		.thumb_func
 1534              	I2S_GetIRQDepth:
 1535              	.LFB75:
 562:../src/lib/lpc177x_8x/Drivers/source/lpc177x_8x_i2s.c **** 
 563:../src/lib/lpc177x_8x/Drivers/source/lpc177x_8x_i2s.c **** /********************************************************************//**
 564:../src/lib/lpc177x_8x/Drivers/source/lpc177x_8x_i2s.c ****  * @brief       Get I2S interrupt depth
 565:../src/lib/lpc177x_8x/Drivers/source/lpc177x_8x_i2s.c ****  * @param[in]   I2Sx I2S peripheral selected, should be: LPC_I2S
 566:../src/lib/lpc177x_8x/Drivers/source/lpc177x_8x_i2s.c ****  * @param[in]   TRMode is transmit/receive mode, should be:
 567:../src/lib/lpc177x_8x/Drivers/source/lpc177x_8x_i2s.c ****  *              - I2S_TX_MODE = 0: transmit mode
 568:../src/lib/lpc177x_8x/Drivers/source/lpc177x_8x_i2s.c ****  *              - I2S_RX_MODE = 1: receive mode
 569:../src/lib/lpc177x_8x/Drivers/source/lpc177x_8x_i2s.c ****  * @return      depth of FIFO level on which to create an irq request
 570:../src/lib/lpc177x_8x/Drivers/source/lpc177x_8x_i2s.c ****  *********************************************************************/
 571:../src/lib/lpc177x_8x/Drivers/source/lpc177x_8x_i2s.c **** uint8_t I2S_GetIRQDepth(LPC_I2S_TypeDef *I2Sx,uint8_t TRMode)
 572:../src/lib/lpc177x_8x/Drivers/source/lpc177x_8x_i2s.c **** {
 1536              		.loc 1 572 0
 1537              		.cfi_startproc
 1538              		@ args = 0, pretend = 0, frame = 8
 1539              		@ frame_needed = 1, uses_anonymous_args = 0
 1540              		@ link register save eliminated.
 1541 0794 80B4     		push	{r7}
 1542              	.LCFI60:
 1543              		.cfi_def_cfa_offset 4
 1544              		.cfi_offset 7, -4
 1545 0796 83B0     		sub	sp, sp, #12
 1546              	.LCFI61:
 1547              		.cfi_def_cfa_offset 16
 1548 0798 00AF     		add	r7, sp, #0
 1549              	.LCFI62:
 1550              		.cfi_def_cfa_register 7
 1551 079a 7860     		str	r0, [r7, #4]
 1552 079c 0B46     		mov	r3, r1
 1553 079e FB70     		strb	r3, [r7, #3]
 573:../src/lib/lpc177x_8x/Drivers/source/lpc177x_8x_i2s.c **** 
 574:../src/lib/lpc177x_8x/Drivers/source/lpc177x_8x_i2s.c ****     if(TRMode == I2S_TX_MODE)
 1554              		.loc 1 574 0
 1555 07a0 FB78     		ldrb	r3, [r7, #3]	@ zero_extendqisi2
 1556 07a2 002B     		cmp	r3, #0
 1557 07a4 05D1     		bne	.L97
 575:../src/lib/lpc177x_8x/Drivers/source/lpc177x_8x_i2s.c ****         return (((I2Sx->IRQ)>>16)&0xFF);
 1558              		.loc 1 575 0
 1559 07a6 7B68     		ldr	r3, [r7, #4]
 1560 07a8 DB69     		ldr	r3, [r3, #28]
 1561 07aa 4FEA1343 		lsr	r3, r3, #16
 1562 07ae DBB2     		uxtb	r3, r3
 1563 07b0 04E0     		b	.L98
 1564              	.L97:
 576:../src/lib/lpc177x_8x/Drivers/source/lpc177x_8x_i2s.c ****     else
 577:../src/lib/lpc177x_8x/Drivers/source/lpc177x_8x_i2s.c ****         return (((I2Sx->IRQ)>>8)&0xFF);
 1565              		.loc 1 577 0
 1566 07b2 7B68     		ldr	r3, [r7, #4]
 1567 07b4 DB69     		ldr	r3, [r3, #28]
 1568 07b6 4FEA1323 		lsr	r3, r3, #8
 1569 07ba DBB2     		uxtb	r3, r3
 1570              	.L98:
 578:../src/lib/lpc177x_8x/Drivers/source/lpc177x_8x_i2s.c **** }
 1571              		.loc 1 578 0
 1572 07bc 1846     		mov	r0, r3
 1573 07be 07F10C07 		add	r7, r7, #12
 1574 07c2 BD46     		mov	sp, r7
 1575 07c4 80BC     		pop	{r7}
 1576 07c6 7047     		bx	lr
 1577              		.cfi_endproc
 1578              	.LFE75:
 1580              	.Letext0:
 1581              		.file 2 "g:\\program files\\codesourcery\\sourcery_codebench_lite_for_arm_eabi\\bin\\../lib/gcc/ar
 1582              		.file 3 "D:\\workspace_gnu\\RTT_Demo0\\src\\lib\\lpc177x_8x\\Drivers\\include/lpc_types.h"
 1583              		.file 4 "D:\\workspace_gnu\\RTT_Demo0\\src\\lib\\lpc177x_8x\\Core\\Device\\NXP\\LPC177x_8x\\Includ
 1584              		.file 5 "D:\\workspace_gnu\\RTT_Demo0\\src\\lib\\lpc177x_8x\\Drivers\\include/lpc177x_8x_i2s.h"
 1585              		.file 6 "D:\\workspace_gnu\\RTT_Demo0\\src\\lib\\lpc177x_8x\\Core\\CMSIS\\Include/core_cm3.h"