   1              		.syntax unified
   2              		.cpu cortex-m4
   3              		.fpu softvfp
   4              		.eabi_attribute 20, 1
   5              		.eabi_attribute 21, 1
   6              		.eabi_attribute 23, 3
   7              		.eabi_attribute 24, 1
   8              		.eabi_attribute 25, 1
   9              		.eabi_attribute 26, 1
  10              		.eabi_attribute 30, 6
  11              		.eabi_attribute 34, 1
  12              		.eabi_attribute 18, 4
  13              		.thumb
  14              		.file	"lpc177x_8x_eeprom.c"
  15              		.text
  16              	.Ltext0:
  17              		.cfi_sections	.debug_frame
  18              		.align	2
  19              		.global	EEPROM_Init
  20              		.thumb
  21              		.thumb_func
  23              	EEPROM_Init:
  24              	.LFB55:
  25              		.file 1 "../src/lib/lpc177x_8x/Drivers/source/lpc177x_8x_eeprom.c"
   1:../src/lib/lpc177x_8x/Drivers/source/lpc177x_8x_eeprom.c **** /**********************************************************************
   2:../src/lib/lpc177x_8x/Drivers/source/lpc177x_8x_eeprom.c **** * $Id$      lpc177x_8x_eeprom.c         2011-06-02
   3:../src/lib/lpc177x_8x/Drivers/source/lpc177x_8x_eeprom.c **** *//**
   4:../src/lib/lpc177x_8x/Drivers/source/lpc177x_8x_eeprom.c **** * @file     lpc177x_8x_eeprom.c
   5:../src/lib/lpc177x_8x/Drivers/source/lpc177x_8x_eeprom.c **** * @brief    Contains all functions support for EEPROM firmware library on
   6:../src/lib/lpc177x_8x/Drivers/source/lpc177x_8x_eeprom.c **** *           LPC177x_8x
   7:../src/lib/lpc177x_8x/Drivers/source/lpc177x_8x_eeprom.c **** * @version  1.0
   8:../src/lib/lpc177x_8x/Drivers/source/lpc177x_8x_eeprom.c **** * @date     02. June. 2011
   9:../src/lib/lpc177x_8x/Drivers/source/lpc177x_8x_eeprom.c **** * @author   NXP MCU SW Application Team
  10:../src/lib/lpc177x_8x/Drivers/source/lpc177x_8x_eeprom.c **** * 
  11:../src/lib/lpc177x_8x/Drivers/source/lpc177x_8x_eeprom.c **** * Copyright(C) 2011, NXP Semiconductor
  12:../src/lib/lpc177x_8x/Drivers/source/lpc177x_8x_eeprom.c **** * All rights reserved.
  13:../src/lib/lpc177x_8x/Drivers/source/lpc177x_8x_eeprom.c **** *
  14:../src/lib/lpc177x_8x/Drivers/source/lpc177x_8x_eeprom.c **** ***********************************************************************
  15:../src/lib/lpc177x_8x/Drivers/source/lpc177x_8x_eeprom.c **** * Software that is described herein is for illustrative purposes only
  16:../src/lib/lpc177x_8x/Drivers/source/lpc177x_8x_eeprom.c **** * which provides customers with programming information regarding the
  17:../src/lib/lpc177x_8x/Drivers/source/lpc177x_8x_eeprom.c **** * products. This software is supplied "AS IS" without any warranties.
  18:../src/lib/lpc177x_8x/Drivers/source/lpc177x_8x_eeprom.c **** * NXP Semiconductors assumes no responsibility or liability for the
  19:../src/lib/lpc177x_8x/Drivers/source/lpc177x_8x_eeprom.c **** * use of the software, conveys no license or title under any patent,
  20:../src/lib/lpc177x_8x/Drivers/source/lpc177x_8x_eeprom.c **** * copyright, or mask work right to the product. NXP Semiconductors
  21:../src/lib/lpc177x_8x/Drivers/source/lpc177x_8x_eeprom.c **** * reserves the right to make changes in the software without
  22:../src/lib/lpc177x_8x/Drivers/source/lpc177x_8x_eeprom.c **** * notification. NXP Semiconductors also make no representation or
  23:../src/lib/lpc177x_8x/Drivers/source/lpc177x_8x_eeprom.c **** * warranty that such application will be suitable for the specified
  24:../src/lib/lpc177x_8x/Drivers/source/lpc177x_8x_eeprom.c **** * use without further testing or modification.
  25:../src/lib/lpc177x_8x/Drivers/source/lpc177x_8x_eeprom.c **** * Permission to use, copy, modify, and distribute this software and its
  26:../src/lib/lpc177x_8x/Drivers/source/lpc177x_8x_eeprom.c **** * documentation is hereby granted, under NXP Semiconductors'
  27:../src/lib/lpc177x_8x/Drivers/source/lpc177x_8x_eeprom.c **** * relevant copyright in the software, without fee, provided that it
  28:../src/lib/lpc177x_8x/Drivers/source/lpc177x_8x_eeprom.c **** * is used in conjunction with NXP Semiconductors microcontrollers.  This
  29:../src/lib/lpc177x_8x/Drivers/source/lpc177x_8x_eeprom.c **** * copyright, permission, and disclaimer notice must appear in all copies of
  30:../src/lib/lpc177x_8x/Drivers/source/lpc177x_8x_eeprom.c **** * this code.
  31:../src/lib/lpc177x_8x/Drivers/source/lpc177x_8x_eeprom.c **** **********************************************************************/
  32:../src/lib/lpc177x_8x/Drivers/source/lpc177x_8x_eeprom.c **** 
  33:../src/lib/lpc177x_8x/Drivers/source/lpc177x_8x_eeprom.c **** /* Peripheral group ----------------------------------------------------------- */
  34:../src/lib/lpc177x_8x/Drivers/source/lpc177x_8x_eeprom.c **** /** @addtogroup EEPROM
  35:../src/lib/lpc177x_8x/Drivers/source/lpc177x_8x_eeprom.c ****  * @{
  36:../src/lib/lpc177x_8x/Drivers/source/lpc177x_8x_eeprom.c ****  */
  37:../src/lib/lpc177x_8x/Drivers/source/lpc177x_8x_eeprom.c **** #ifdef __BUILD_WITH_EXAMPLE__
  38:../src/lib/lpc177x_8x/Drivers/source/lpc177x_8x_eeprom.c **** #include "lpc177x_8x_libcfg.h"
  39:../src/lib/lpc177x_8x/Drivers/source/lpc177x_8x_eeprom.c **** #else
  40:../src/lib/lpc177x_8x/Drivers/source/lpc177x_8x_eeprom.c **** #include "lpc177x_8x_libcfg_default.h"
  41:../src/lib/lpc177x_8x/Drivers/source/lpc177x_8x_eeprom.c **** #endif /* __BUILD_WITH_EXAMPLE__ */
  42:../src/lib/lpc177x_8x/Drivers/source/lpc177x_8x_eeprom.c **** #ifdef _EEPROM
  43:../src/lib/lpc177x_8x/Drivers/source/lpc177x_8x_eeprom.c ****  
  44:../src/lib/lpc177x_8x/Drivers/source/lpc177x_8x_eeprom.c **** /* Includes ------------------------------------------------------------------- */
  45:../src/lib/lpc177x_8x/Drivers/source/lpc177x_8x_eeprom.c **** #include "lpc177x_8x_eeprom.h"
  46:../src/lib/lpc177x_8x/Drivers/source/lpc177x_8x_eeprom.c **** #include "lpc177x_8x_clkpwr.h"
  47:../src/lib/lpc177x_8x/Drivers/source/lpc177x_8x_eeprom.c **** 
  48:../src/lib/lpc177x_8x/Drivers/source/lpc177x_8x_eeprom.c **** /* Public Functions ----------------------------------------------------------- */
  49:../src/lib/lpc177x_8x/Drivers/source/lpc177x_8x_eeprom.c **** 
  50:../src/lib/lpc177x_8x/Drivers/source/lpc177x_8x_eeprom.c **** /*********************************************************************//**
  51:../src/lib/lpc177x_8x/Drivers/source/lpc177x_8x_eeprom.c ****  * @brief       Initial EEPROM
  52:../src/lib/lpc177x_8x/Drivers/source/lpc177x_8x_eeprom.c ****  * @param[in]   None
  53:../src/lib/lpc177x_8x/Drivers/source/lpc177x_8x_eeprom.c ****  * @return      None
  54:../src/lib/lpc177x_8x/Drivers/source/lpc177x_8x_eeprom.c ****  **********************************************************************/
  55:../src/lib/lpc177x_8x/Drivers/source/lpc177x_8x_eeprom.c **** void EEPROM_Init(void)
  56:../src/lib/lpc177x_8x/Drivers/source/lpc177x_8x_eeprom.c **** {
  26              		.loc 1 56 0
  27              		.cfi_startproc
  28              		@ args = 0, pretend = 0, frame = 8
  29              		@ frame_needed = 1, uses_anonymous_args = 0
  30 0000 80B5     		push	{r7, lr}
  31              	.LCFI0:
  32              		.cfi_def_cfa_offset 8
  33              		.cfi_offset 7, -8
  34              		.cfi_offset 14, -4
  35 0002 82B0     		sub	sp, sp, #8
  36              	.LCFI1:
  37              		.cfi_def_cfa_offset 16
  38 0004 00AF     		add	r7, sp, #0
  39              	.LCFI2:
  40              		.cfi_def_cfa_register 7
  57:../src/lib/lpc177x_8x/Drivers/source/lpc177x_8x_eeprom.c ****     uint32_t val, cclk;
  58:../src/lib/lpc177x_8x/Drivers/source/lpc177x_8x_eeprom.c ****     LPC_EEPROM->PWRDWN = 0x0;
  41              		.loc 1 58 0
  42 0006 304B     		ldr	r3, .L2
  43 0008 4FF00002 		mov	r2, #0
  44 000c 9A61     		str	r2, [r3, #24]
  59:../src/lib/lpc177x_8x/Drivers/source/lpc177x_8x_eeprom.c ****     /* EEPROM is automate turn on after reset */
  60:../src/lib/lpc177x_8x/Drivers/source/lpc177x_8x_eeprom.c ****     /* Setting clock:
  61:../src/lib/lpc177x_8x/Drivers/source/lpc177x_8x_eeprom.c ****      * EEPROM required a 375kHz. This clock is generated by dividing the
  62:../src/lib/lpc177x_8x/Drivers/source/lpc177x_8x_eeprom.c ****      * system bus clock.
  63:../src/lib/lpc177x_8x/Drivers/source/lpc177x_8x_eeprom.c ****      */
  64:../src/lib/lpc177x_8x/Drivers/source/lpc177x_8x_eeprom.c ****     cclk = CLKPWR_GetCLK(CLKPWR_CLKTYPE_CPU);
  45              		.loc 1 64 0
  46 000e 4FF00000 		mov	r0, #0
  47 0012 FFF7FEFF 		bl	CLKPWR_GetCLK
  48 0016 7860     		str	r0, [r7, #4]
  65:../src/lib/lpc177x_8x/Drivers/source/lpc177x_8x_eeprom.c ****     val = (cclk/375000)-1;
  49              		.loc 1 65 0
  50 0018 7A68     		ldr	r2, [r7, #4]
  51 001a 2C4B     		ldr	r3, .L2+4
  52 001c A3FB0213 		umull	r1, r3, r3, r2
  53 0020 4FEAD333 		lsr	r3, r3, #15
  54 0024 03F1FF33 		add	r3, r3, #-1
  55 0028 3B60     		str	r3, [r7, #0]
  66:../src/lib/lpc177x_8x/Drivers/source/lpc177x_8x_eeprom.c ****     LPC_EEPROM->CLKDIV = val;
  56              		.loc 1 66 0
  57 002a 274B     		ldr	r3, .L2
  58 002c 3A68     		ldr	r2, [r7, #0]
  59 002e 5A61     		str	r2, [r3, #20]
  67:../src/lib/lpc177x_8x/Drivers/source/lpc177x_8x_eeprom.c **** 
  68:../src/lib/lpc177x_8x/Drivers/source/lpc177x_8x_eeprom.c ****     /* Setting wait state */
  69:../src/lib/lpc177x_8x/Drivers/source/lpc177x_8x_eeprom.c ****     val  = ((((cclk / 1000000) * 15) / 1000) + 1);
  60              		.loc 1 69 0
  61 0030 7A68     		ldr	r2, [r7, #4]
  62 0032 274B     		ldr	r3, .L2+8
  63 0034 A3FB0213 		umull	r1, r3, r3, r2
  64 0038 4FEA9342 		lsr	r2, r3, #18
  65 003c 1346     		mov	r3, r2
  66 003e 4FEA0313 		lsl	r3, r3, #4
  67 0042 9A1A     		subs	r2, r3, r2
  68 0044 234B     		ldr	r3, .L2+12
  69 0046 A3FB0213 		umull	r1, r3, r3, r2
  70 004a 4FEA9313 		lsr	r3, r3, #6
  71 004e 03F10103 		add	r3, r3, #1
  72 0052 3B60     		str	r3, [r7, #0]
  70:../src/lib/lpc177x_8x/Drivers/source/lpc177x_8x_eeprom.c ****     val |= (((((cclk / 1000000) * 55) / 1000) + 1) << 8);
  73              		.loc 1 70 0
  74 0054 7A68     		ldr	r2, [r7, #4]
  75 0056 1E4B     		ldr	r3, .L2+8
  76 0058 A3FB0213 		umull	r1, r3, r3, r2
  77 005c 4FEA9342 		lsr	r2, r3, #18
  78 0060 1346     		mov	r3, r2
  79 0062 4FEAC303 		lsl	r3, r3, #3
  80 0066 9B1A     		subs	r3, r3, r2
  81 0068 4FEAC303 		lsl	r3, r3, #3
  82 006c 9A1A     		subs	r2, r3, r2
  83 006e 194B     		ldr	r3, .L2+12
  84 0070 A3FB0213 		umull	r1, r3, r3, r2
  85 0074 4FEA9313 		lsr	r3, r3, #6
  86 0078 03F10103 		add	r3, r3, #1
  87 007c 4FEA0323 		lsl	r3, r3, #8
  88 0080 3A68     		ldr	r2, [r7, #0]
  89 0082 1343     		orrs	r3, r3, r2
  90 0084 3B60     		str	r3, [r7, #0]
  71:../src/lib/lpc177x_8x/Drivers/source/lpc177x_8x_eeprom.c ****     val |= (((((cclk / 1000000) * 35) / 1000) + 1) << 16);
  91              		.loc 1 71 0
  92 0086 7A68     		ldr	r2, [r7, #4]
  93 0088 114B     		ldr	r3, .L2+8
  94 008a A3FB0213 		umull	r1, r3, r3, r2
  95 008e 4FEA9342 		lsr	r2, r3, #18
  96 0092 1346     		mov	r3, r2
  97 0094 4FEA8303 		lsl	r3, r3, #2
  98 0098 9B18     		adds	r3, r3, r2
  99 009a 4FEAC302 		lsl	r2, r3, #3
 100 009e D21A     		subs	r2, r2, r3
 101 00a0 0C4B     		ldr	r3, .L2+12
 102 00a2 A3FB0213 		umull	r1, r3, r3, r2
 103 00a6 4FEA9313 		lsr	r3, r3, #6
 104 00aa 03F10103 		add	r3, r3, #1
 105 00ae 4FEA0343 		lsl	r3, r3, #16
 106 00b2 3A68     		ldr	r2, [r7, #0]
 107 00b4 1343     		orrs	r3, r3, r2
 108 00b6 3B60     		str	r3, [r7, #0]
  72:../src/lib/lpc177x_8x/Drivers/source/lpc177x_8x_eeprom.c ****     LPC_EEPROM->WSTATE = val;
 109              		.loc 1 72 0
 110 00b8 034B     		ldr	r3, .L2
 111 00ba 3A68     		ldr	r2, [r7, #0]
 112 00bc 1A61     		str	r2, [r3, #16]
  73:../src/lib/lpc177x_8x/Drivers/source/lpc177x_8x_eeprom.c **** }
 113              		.loc 1 73 0
 114 00be 07F10807 		add	r7, r7, #8
 115 00c2 BD46     		mov	sp, r7
 116 00c4 80BD     		pop	{r7, pc}
 117              	.L3:
 118 00c6 00BF     		.align	2
 119              	.L2:
 120 00c8 80002000 		.word	2097280
 121 00cc 819F5E16 		.word	375299969
 122 00d0 83DE1B43 		.word	1125899907
 123 00d4 D34D6210 		.word	274877907
 124              		.cfi_endproc
 125              	.LFE55:
 127              		.align	2
 128              		.global	EEPROM_Write
 129              		.thumb
 130              		.thumb_func
 132              	EEPROM_Write:
 133              	.LFB56:
  74:../src/lib/lpc177x_8x/Drivers/source/lpc177x_8x_eeprom.c **** 
  75:../src/lib/lpc177x_8x/Drivers/source/lpc177x_8x_eeprom.c **** /*********************************************************************//**
  76:../src/lib/lpc177x_8x/Drivers/source/lpc177x_8x_eeprom.c ****  * @brief       Write data to EEPROM at specific address
  77:../src/lib/lpc177x_8x/Drivers/source/lpc177x_8x_eeprom.c ****  * @param[in]   page_offset offset of data in page register(0 - 63)
  78:../src/lib/lpc177x_8x/Drivers/source/lpc177x_8x_eeprom.c ****  *              page_address page address (0-62)                    
  79:../src/lib/lpc177x_8x/Drivers/source/lpc177x_8x_eeprom.c ****  *              mode    Write mode, should be:
  80:../src/lib/lpc177x_8x/Drivers/source/lpc177x_8x_eeprom.c ****  *                  - MODE_8_BIT    : write 8 bit mode
  81:../src/lib/lpc177x_8x/Drivers/source/lpc177x_8x_eeprom.c ****  *                  - MODE_16_BIT   : write 16 bit mode
  82:../src/lib/lpc177x_8x/Drivers/source/lpc177x_8x_eeprom.c ****  *                  - MODE_32_BIT   : write 32 bit mode
  83:../src/lib/lpc177x_8x/Drivers/source/lpc177x_8x_eeprom.c ****  *              data    buffer that contain data that will be written to buffer
  84:../src/lib/lpc177x_8x/Drivers/source/lpc177x_8x_eeprom.c ****  *              count   number written data
  85:../src/lib/lpc177x_8x/Drivers/source/lpc177x_8x_eeprom.c ****  * @return      None
  86:../src/lib/lpc177x_8x/Drivers/source/lpc177x_8x_eeprom.c ****  * @note        This function actually write data into EEPROM memory and automatically
  87:../src/lib/lpc177x_8x/Drivers/source/lpc177x_8x_eeprom.c ****  *              write into next page if current page is overflowed
  88:../src/lib/lpc177x_8x/Drivers/source/lpc177x_8x_eeprom.c ****  **********************************************************************/
  89:../src/lib/lpc177x_8x/Drivers/source/lpc177x_8x_eeprom.c **** void EEPROM_Write(uint16_t page_offset, uint16_t page_address, void* data, EEPROM_Mode_Type mode, u
  90:../src/lib/lpc177x_8x/Drivers/source/lpc177x_8x_eeprom.c **** {
 134              		.loc 1 90 0
 135              		.cfi_startproc
 136              		@ args = 4, pretend = 0, frame = 32
 137              		@ frame_needed = 1, uses_anonymous_args = 0
 138              		@ link register save eliminated.
 139 00d8 80B4     		push	{r7}
 140              	.LCFI3:
 141              		.cfi_def_cfa_offset 4
 142              		.cfi_offset 7, -4
 143 00da 89B0     		sub	sp, sp, #36
 144              	.LCFI4:
 145              		.cfi_def_cfa_offset 40
 146 00dc 00AF     		add	r7, sp, #0
 147              	.LCFI5:
 148              		.cfi_def_cfa_register 7
 149 00de BA60     		str	r2, [r7, #8]
 150 00e0 0246     		mov	r2, r0	@ movhi
 151 00e2 FA81     		strh	r2, [r7, #14]	@ movhi
 152 00e4 0A46     		mov	r2, r1	@ movhi
 153 00e6 BA81     		strh	r2, [r7, #12]	@ movhi
 154 00e8 FB71     		strb	r3, [r7, #7]
  91:../src/lib/lpc177x_8x/Drivers/source/lpc177x_8x_eeprom.c ****     uint32_t i;
  92:../src/lib/lpc177x_8x/Drivers/source/lpc177x_8x_eeprom.c ****     uint8_t *tmp8 = (uint8_t *)data;
 155              		.loc 1 92 0
 156 00ea BB68     		ldr	r3, [r7, #8]
 157 00ec BB61     		str	r3, [r7, #24]
  93:../src/lib/lpc177x_8x/Drivers/source/lpc177x_8x_eeprom.c ****     uint16_t *tmp16 = (uint16_t *)data;
 158              		.loc 1 93 0
 159 00ee BB68     		ldr	r3, [r7, #8]
 160 00f0 7B61     		str	r3, [r7, #20]
  94:../src/lib/lpc177x_8x/Drivers/source/lpc177x_8x_eeprom.c ****     uint32_t *tmp32 = (uint32_t *)data;
 161              		.loc 1 94 0
 162 00f2 BB68     		ldr	r3, [r7, #8]
 163 00f4 3B61     		str	r3, [r7, #16]
  95:../src/lib/lpc177x_8x/Drivers/source/lpc177x_8x_eeprom.c **** 
  96:../src/lib/lpc177x_8x/Drivers/source/lpc177x_8x_eeprom.c ****     LPC_EEPROM->INT_CLR_STATUS = ((1 << EEPROM_ENDOF_RW)|(1 << EEPROM_ENDOF_PROG));
 164              		.loc 1 96 0
 165 00f6 5D4B     		ldr	r3, .L19
 166 00f8 4FF0A052 		mov	r2, #335544320
 167 00fc C3F8682F 		str	r2, [r3, #3944]
  97:../src/lib/lpc177x_8x/Drivers/source/lpc177x_8x_eeprom.c ****     //check page_offset
  98:../src/lib/lpc177x_8x/Drivers/source/lpc177x_8x_eeprom.c ****     if(mode == MODE_16_BIT){
 168              		.loc 1 98 0
 169 0100 FB79     		ldrb	r3, [r7, #7]	@ zero_extendqisi2
 170 0102 012B     		cmp	r3, #1
 171 0104 05D1     		bne	.L5
  99:../src/lib/lpc177x_8x/Drivers/source/lpc177x_8x_eeprom.c ****         if((page_offset & 0x01)!=0) while(1);
 172              		.loc 1 99 0
 173 0106 FB89     		ldrh	r3, [r7, #14]
 174 0108 03F00103 		and	r3, r3, #1
 175 010c 002B     		cmp	r3, #0
 176 010e 09D0     		beq	.L6
 177              	.L7:
 178              		.loc 1 99 0 is_stmt 0 discriminator 1
 179 0110 FEE7     		b	.L7
 180              	.L5:
 100:../src/lib/lpc177x_8x/Drivers/source/lpc177x_8x_eeprom.c ****     }
 101:../src/lib/lpc177x_8x/Drivers/source/lpc177x_8x_eeprom.c ****     else if(mode == MODE_32_BIT){
 181              		.loc 1 101 0 is_stmt 1
 182 0112 FB79     		ldrb	r3, [r7, #7]	@ zero_extendqisi2
 183 0114 022B     		cmp	r3, #2
 184 0116 05D1     		bne	.L6
 102:../src/lib/lpc177x_8x/Drivers/source/lpc177x_8x_eeprom.c ****         if((page_offset & 0x03)!=0) while(1);
 185              		.loc 1 102 0
 186 0118 FB89     		ldrh	r3, [r7, #14]
 187 011a 03F00303 		and	r3, r3, #3
 188 011e 002B     		cmp	r3, #0
 189 0120 00D0     		beq	.L6
 190              	.L8:
 191              		.loc 1 102 0 is_stmt 0 discriminator 1
 192 0122 FEE7     		b	.L8
 193              	.L6:
 103:../src/lib/lpc177x_8x/Drivers/source/lpc177x_8x_eeprom.c ****     }
 104:../src/lib/lpc177x_8x/Drivers/source/lpc177x_8x_eeprom.c ****     LPC_EEPROM->ADDR = EEPROM_PAGE_OFFSET(page_offset);
 194              		.loc 1 104 0 is_stmt 1
 195 0124 514B     		ldr	r3, .L19
 196 0126 FA89     		ldrh	r2, [r7, #14]
 197 0128 02F03F02 		and	r2, r2, #63
 198 012c 5A60     		str	r2, [r3, #4]
 105:../src/lib/lpc177x_8x/Drivers/source/lpc177x_8x_eeprom.c ****     for(i=0;i<count;i++)
 199              		.loc 1 105 0
 200 012e 4FF00003 		mov	r3, #0
 201 0132 FB61     		str	r3, [r7, #28]
 202 0134 90E0     		b	.L9
 203              	.L17:
 106:../src/lib/lpc177x_8x/Drivers/source/lpc177x_8x_eeprom.c ****     {
 107:../src/lib/lpc177x_8x/Drivers/source/lpc177x_8x_eeprom.c ****         //update data to page register
 108:../src/lib/lpc177x_8x/Drivers/source/lpc177x_8x_eeprom.c ****         if(mode == MODE_8_BIT){
 204              		.loc 1 108 0
 205 0136 FB79     		ldrb	r3, [r7, #7]	@ zero_extendqisi2
 206 0138 002B     		cmp	r3, #0
 207 013a 10D1     		bne	.L10
 109:../src/lib/lpc177x_8x/Drivers/source/lpc177x_8x_eeprom.c ****             LPC_EEPROM->CMD = EEPROM_CMD_8_BIT_WRITE;
 208              		.loc 1 109 0
 209 013c 4B4B     		ldr	r3, .L19
 210 013e 4FF00302 		mov	r2, #3
 211 0142 1A60     		str	r2, [r3, #0]
 110:../src/lib/lpc177x_8x/Drivers/source/lpc177x_8x_eeprom.c ****             LPC_EEPROM -> WDATA = *tmp8;
 212              		.loc 1 110 0
 213 0144 494B     		ldr	r3, .L19
 214 0146 BA69     		ldr	r2, [r7, #24]
 215 0148 1278     		ldrb	r2, [r2, #0]	@ zero_extendqisi2
 216 014a 9A60     		str	r2, [r3, #8]
 111:../src/lib/lpc177x_8x/Drivers/source/lpc177x_8x_eeprom.c ****             tmp8++;
 217              		.loc 1 111 0
 218 014c BB69     		ldr	r3, [r7, #24]
 219 014e 03F10103 		add	r3, r3, #1
 220 0152 BB61     		str	r3, [r7, #24]
 112:../src/lib/lpc177x_8x/Drivers/source/lpc177x_8x_eeprom.c ****             page_offset +=1;
 221              		.loc 1 112 0
 222 0154 FB89     		ldrh	r3, [r7, #14]	@ movhi
 223 0156 03F10103 		add	r3, r3, #1
 224 015a FB81     		strh	r3, [r7, #14]	@ movhi
 113:../src/lib/lpc177x_8x/Drivers/source/lpc177x_8x_eeprom.c ****         }
 114:../src/lib/lpc177x_8x/Drivers/source/lpc177x_8x_eeprom.c ****         else if(mode == MODE_16_BIT){
 115:../src/lib/lpc177x_8x/Drivers/source/lpc177x_8x_eeprom.c ****             LPC_EEPROM->CMD = EEPROM_CMD_16_BIT_WRITE;
 116:../src/lib/lpc177x_8x/Drivers/source/lpc177x_8x_eeprom.c ****             LPC_EEPROM -> WDATA = *tmp16;
 117:../src/lib/lpc177x_8x/Drivers/source/lpc177x_8x_eeprom.c ****             tmp16++;
 118:../src/lib/lpc177x_8x/Drivers/source/lpc177x_8x_eeprom.c ****             page_offset +=2;
 119:../src/lib/lpc177x_8x/Drivers/source/lpc177x_8x_eeprom.c ****         }
 120:../src/lib/lpc177x_8x/Drivers/source/lpc177x_8x_eeprom.c ****         else{
 121:../src/lib/lpc177x_8x/Drivers/source/lpc177x_8x_eeprom.c ****             LPC_EEPROM->CMD = EEPROM_CMD_32_BIT_WRITE;
 122:../src/lib/lpc177x_8x/Drivers/source/lpc177x_8x_eeprom.c ****             LPC_EEPROM -> WDATA = *tmp32;
 123:../src/lib/lpc177x_8x/Drivers/source/lpc177x_8x_eeprom.c ****             tmp32++;
 124:../src/lib/lpc177x_8x/Drivers/source/lpc177x_8x_eeprom.c ****             page_offset +=4;
 125:../src/lib/lpc177x_8x/Drivers/source/lpc177x_8x_eeprom.c ****         }
 126:../src/lib/lpc177x_8x/Drivers/source/lpc177x_8x_eeprom.c ****         while(!((LPC_EEPROM->INT_STATUS >> EEPROM_ENDOF_RW)&0x01));
 225              		.loc 1 126 0
 226 015c 23E0     		b	.L18
 227              	.L10:
 114:../src/lib/lpc177x_8x/Drivers/source/lpc177x_8x_eeprom.c ****         else if(mode == MODE_16_BIT){
 228              		.loc 1 114 0
 229 015e FB79     		ldrb	r3, [r7, #7]	@ zero_extendqisi2
 230 0160 012B     		cmp	r3, #1
 231 0162 10D1     		bne	.L12
 115:../src/lib/lpc177x_8x/Drivers/source/lpc177x_8x_eeprom.c ****             LPC_EEPROM->CMD = EEPROM_CMD_16_BIT_WRITE;
 232              		.loc 1 115 0
 233 0164 414B     		ldr	r3, .L19
 234 0166 4FF00402 		mov	r2, #4
 235 016a 1A60     		str	r2, [r3, #0]
 116:../src/lib/lpc177x_8x/Drivers/source/lpc177x_8x_eeprom.c ****             LPC_EEPROM -> WDATA = *tmp16;
 236              		.loc 1 116 0
 237 016c 3F4B     		ldr	r3, .L19
 238 016e 7A69     		ldr	r2, [r7, #20]
 239 0170 1288     		ldrh	r2, [r2, #0]
 240 0172 9A60     		str	r2, [r3, #8]
 117:../src/lib/lpc177x_8x/Drivers/source/lpc177x_8x_eeprom.c ****             tmp16++;
 241              		.loc 1 117 0
 242 0174 7B69     		ldr	r3, [r7, #20]
 243 0176 03F10203 		add	r3, r3, #2
 244 017a 7B61     		str	r3, [r7, #20]
 118:../src/lib/lpc177x_8x/Drivers/source/lpc177x_8x_eeprom.c ****             page_offset +=2;
 245              		.loc 1 118 0
 246 017c FB89     		ldrh	r3, [r7, #14]	@ movhi
 247 017e 03F10203 		add	r3, r3, #2
 248 0182 FB81     		strh	r3, [r7, #14]	@ movhi
 249              		.loc 1 126 0
 250 0184 0FE0     		b	.L18
 251              	.L12:
 121:../src/lib/lpc177x_8x/Drivers/source/lpc177x_8x_eeprom.c ****             LPC_EEPROM->CMD = EEPROM_CMD_32_BIT_WRITE;
 252              		.loc 1 121 0
 253 0186 394B     		ldr	r3, .L19
 254 0188 4FF00502 		mov	r2, #5
 255 018c 1A60     		str	r2, [r3, #0]
 122:../src/lib/lpc177x_8x/Drivers/source/lpc177x_8x_eeprom.c ****             LPC_EEPROM -> WDATA = *tmp32;
 256              		.loc 1 122 0
 257 018e 374B     		ldr	r3, .L19
 258 0190 3A69     		ldr	r2, [r7, #16]
 259 0192 1268     		ldr	r2, [r2, #0]
 260 0194 9A60     		str	r2, [r3, #8]
 123:../src/lib/lpc177x_8x/Drivers/source/lpc177x_8x_eeprom.c ****             tmp32++;
 261              		.loc 1 123 0
 262 0196 3B69     		ldr	r3, [r7, #16]
 263 0198 03F10403 		add	r3, r3, #4
 264 019c 3B61     		str	r3, [r7, #16]
 124:../src/lib/lpc177x_8x/Drivers/source/lpc177x_8x_eeprom.c ****             page_offset +=4;
 265              		.loc 1 124 0
 266 019e FB89     		ldrh	r3, [r7, #14]	@ movhi
 267 01a0 03F10403 		add	r3, r3, #4
 268 01a4 FB81     		strh	r3, [r7, #14]	@ movhi
 269              	.L18:
 270              		.loc 1 126 0
 271 01a6 00BF     		nop
 272              	.L13:
 273              		.loc 1 126 0 is_stmt 0 discriminator 1
 274 01a8 304B     		ldr	r3, .L19
 275 01aa D3F8603F 		ldr	r3, [r3, #3936]
 276 01ae 4FEA9363 		lsr	r3, r3, #26
 277 01b2 03F00103 		and	r3, r3, #1
 278 01b6 002B     		cmp	r3, #0
 279 01b8 F6D0     		beq	.L13
 127:../src/lib/lpc177x_8x/Drivers/source/lpc177x_8x_eeprom.c ****         LPC_EEPROM->INT_CLR_STATUS = (1 << EEPROM_ENDOF_RW);
 280              		.loc 1 127 0 is_stmt 1
 281 01ba 2C4B     		ldr	r3, .L19
 282 01bc 4FF08062 		mov	r2, #67108864
 283 01c0 C3F8682F 		str	r2, [r3, #3944]
 128:../src/lib/lpc177x_8x/Drivers/source/lpc177x_8x_eeprom.c ****         if((page_offset >= EEPROM_PAGE_SIZE)|(i==count-1)){
 284              		.loc 1 128 0
 285 01c4 FB89     		ldrh	r3, [r7, #14]
 286 01c6 3F2B     		cmp	r3, #63
 287 01c8 94BF     		ite	ls
 288 01ca 0023     		movls	r3, #0
 289 01cc 0123     		movhi	r3, #1
 290 01ce DAB2     		uxtb	r2, r3
 291 01d0 BB6A     		ldr	r3, [r7, #40]
 292 01d2 03F1FF31 		add	r1, r3, #-1
 293 01d6 FB69     		ldr	r3, [r7, #28]
 294 01d8 9942     		cmp	r1, r3
 295 01da 14BF     		ite	ne
 296 01dc 0023     		movne	r3, #0
 297 01de 0123     		moveq	r3, #1
 298 01e0 DBB2     		uxtb	r3, r3
 299 01e2 1343     		orrs	r3, r3, r2
 300 01e4 DBB2     		uxtb	r3, r3
 301 01e6 002B     		cmp	r3, #0
 302 01e8 1ED0     		beq	.L14
 129:../src/lib/lpc177x_8x/Drivers/source/lpc177x_8x_eeprom.c ****             //update to EEPROM memory
 130:../src/lib/lpc177x_8x/Drivers/source/lpc177x_8x_eeprom.c ****             LPC_EEPROM->INT_CLR_STATUS = (0x1 << EEPROM_ENDOF_PROG);
 303              		.loc 1 130 0
 304 01ea 204B     		ldr	r3, .L19
 305 01ec 4FF08052 		mov	r2, #268435456
 306 01f0 C3F8682F 		str	r2, [r3, #3944]
 131:../src/lib/lpc177x_8x/Drivers/source/lpc177x_8x_eeprom.c ****             LPC_EEPROM->ADDR = EEPROM_PAGE_ADRESS(page_address);
 307              		.loc 1 131 0
 308 01f4 1D4B     		ldr	r3, .L19
 309 01f6 BA89     		ldrh	r2, [r7, #12]
 310 01f8 02F03F02 		and	r2, r2, #63
 311 01fc 4FEA8212 		lsl	r2, r2, #6
 312 0200 5A60     		str	r2, [r3, #4]
 132:../src/lib/lpc177x_8x/Drivers/source/lpc177x_8x_eeprom.c ****             LPC_EEPROM->CMD = EEPROM_CMD_ERASE_PRG_PAGE;
 313              		.loc 1 132 0
 314 0202 1A4B     		ldr	r3, .L19
 315 0204 4FF00602 		mov	r2, #6
 316 0208 1A60     		str	r2, [r3, #0]
 133:../src/lib/lpc177x_8x/Drivers/source/lpc177x_8x_eeprom.c ****             while(!((LPC_EEPROM->INT_STATUS >> EEPROM_ENDOF_PROG)&0x01));
 317              		.loc 1 133 0
 318 020a 00BF     		nop
 319              	.L15:
 320              		.loc 1 133 0 is_stmt 0 discriminator 1
 321 020c 174B     		ldr	r3, .L19
 322 020e D3F8603F 		ldr	r3, [r3, #3936]
 323 0212 4FEA1373 		lsr	r3, r3, #28
 324 0216 03F00103 		and	r3, r3, #1
 325 021a 002B     		cmp	r3, #0
 326 021c F6D0     		beq	.L15
 134:../src/lib/lpc177x_8x/Drivers/source/lpc177x_8x_eeprom.c ****             LPC_EEPROM->INT_CLR_STATUS = (1 << EEPROM_ENDOF_PROG);
 327              		.loc 1 134 0 is_stmt 1
 328 021e 134B     		ldr	r3, .L19
 329 0220 4FF08052 		mov	r2, #268435456
 330 0224 C3F8682F 		str	r2, [r3, #3944]
 331              	.L14:
 135:../src/lib/lpc177x_8x/Drivers/source/lpc177x_8x_eeprom.c ****         }
 136:../src/lib/lpc177x_8x/Drivers/source/lpc177x_8x_eeprom.c ****         if(page_offset >= EEPROM_PAGE_SIZE)
 332              		.loc 1 136 0
 333 0228 FB89     		ldrh	r3, [r7, #14]
 334 022a 3F2B     		cmp	r3, #63
 335 022c 10D9     		bls	.L16
 137:../src/lib/lpc177x_8x/Drivers/source/lpc177x_8x_eeprom.c ****         {
 138:../src/lib/lpc177x_8x/Drivers/source/lpc177x_8x_eeprom.c ****             page_offset = 0;
 336              		.loc 1 138 0
 337 022e 4FF00003 		mov	r3, #0
 338 0232 FB81     		strh	r3, [r7, #14]	@ movhi
 139:../src/lib/lpc177x_8x/Drivers/source/lpc177x_8x_eeprom.c ****             page_address +=1;
 339              		.loc 1 139 0
 340 0234 BB89     		ldrh	r3, [r7, #12]	@ movhi
 341 0236 03F10103 		add	r3, r3, #1
 342 023a BB81     		strh	r3, [r7, #12]	@ movhi
 140:../src/lib/lpc177x_8x/Drivers/source/lpc177x_8x_eeprom.c ****             LPC_EEPROM->ADDR =0;
 343              		.loc 1 140 0
 344 023c 0B4B     		ldr	r3, .L19
 345 023e 4FF00002 		mov	r2, #0
 346 0242 5A60     		str	r2, [r3, #4]
 141:../src/lib/lpc177x_8x/Drivers/source/lpc177x_8x_eeprom.c ****             if(page_address > EEPROM_PAGE_NUM - 1) page_address = 0;
 347              		.loc 1 141 0
 348 0244 BB89     		ldrh	r3, [r7, #12]
 349 0246 3E2B     		cmp	r3, #62
 350 0248 02D9     		bls	.L16
 351              		.loc 1 141 0 is_stmt 0 discriminator 1
 352 024a 4FF00003 		mov	r3, #0
 353 024e BB81     		strh	r3, [r7, #12]	@ movhi
 354              	.L16:
 105:../src/lib/lpc177x_8x/Drivers/source/lpc177x_8x_eeprom.c ****     for(i=0;i<count;i++)
 355              		.loc 1 105 0 is_stmt 1
 356 0250 FB69     		ldr	r3, [r7, #28]
 357 0252 03F10103 		add	r3, r3, #1
 358 0256 FB61     		str	r3, [r7, #28]
 359              	.L9:
 105:../src/lib/lpc177x_8x/Drivers/source/lpc177x_8x_eeprom.c ****     for(i=0;i<count;i++)
 360              		.loc 1 105 0 is_stmt 0 discriminator 1
 361 0258 FA69     		ldr	r2, [r7, #28]
 362 025a BB6A     		ldr	r3, [r7, #40]
 363 025c 9A42     		cmp	r2, r3
 364 025e FFF46AAF 		bcc	.L17
 142:../src/lib/lpc177x_8x/Drivers/source/lpc177x_8x_eeprom.c ****         }
 143:../src/lib/lpc177x_8x/Drivers/source/lpc177x_8x_eeprom.c ****     }
 144:../src/lib/lpc177x_8x/Drivers/source/lpc177x_8x_eeprom.c **** }
 365              		.loc 1 144 0 is_stmt 1
 366 0262 07F12407 		add	r7, r7, #36
 367 0266 BD46     		mov	sp, r7
 368 0268 80BC     		pop	{r7}
 369 026a 7047     		bx	lr
 370              	.L20:
 371              		.align	2
 372              	.L19:
 373 026c 80002000 		.word	2097280
 374              		.cfi_endproc
 375              	.LFE56:
 377              		.align	2
 378              		.global	EEPROM_Read
 379              		.thumb
 380              		.thumb_func
 382              	EEPROM_Read:
 383              	.LFB57:
 145:../src/lib/lpc177x_8x/Drivers/source/lpc177x_8x_eeprom.c **** 
 146:../src/lib/lpc177x_8x/Drivers/source/lpc177x_8x_eeprom.c **** /*********************************************************************//**
 147:../src/lib/lpc177x_8x/Drivers/source/lpc177x_8x_eeprom.c ****  * @brief       Read data to EEPROM at specific address
 148:../src/lib/lpc177x_8x/Drivers/source/lpc177x_8x_eeprom.c ****  * @param[in]
 149:../src/lib/lpc177x_8x/Drivers/source/lpc177x_8x_eeprom.c ****  *              data    buffer that contain data that will be written to buffer
 150:../src/lib/lpc177x_8x/Drivers/source/lpc177x_8x_eeprom.c ****  *              mode    Read mode, should be:
 151:../src/lib/lpc177x_8x/Drivers/source/lpc177x_8x_eeprom.c ****  *                  - MODE_8_BIT    : read 8 bit mode
 152:../src/lib/lpc177x_8x/Drivers/source/lpc177x_8x_eeprom.c ****  *                  - MODE_16_BIT   : read 16 bit mode
 153:../src/lib/lpc177x_8x/Drivers/source/lpc177x_8x_eeprom.c ****  *                  - MODE_32_BIT   : read 32 bit mode
 154:../src/lib/lpc177x_8x/Drivers/source/lpc177x_8x_eeprom.c ****  *              count   number read data (bytes)
 155:../src/lib/lpc177x_8x/Drivers/source/lpc177x_8x_eeprom.c ****  * @return      data    buffer that contain data that will be read to buffer
 156:../src/lib/lpc177x_8x/Drivers/source/lpc177x_8x_eeprom.c ****  **********************************************************************/
 157:../src/lib/lpc177x_8x/Drivers/source/lpc177x_8x_eeprom.c **** void EEPROM_Read(uint16_t page_offset, uint16_t page_address, void* data, EEPROM_Mode_Type mode, ui
 158:../src/lib/lpc177x_8x/Drivers/source/lpc177x_8x_eeprom.c **** {
 384              		.loc 1 158 0
 385              		.cfi_startproc
 386              		@ args = 4, pretend = 0, frame = 32
 387              		@ frame_needed = 1, uses_anonymous_args = 0
 388              		@ link register save eliminated.
 389 0270 80B4     		push	{r7}
 390              	.LCFI6:
 391              		.cfi_def_cfa_offset 4
 392              		.cfi_offset 7, -4
 393 0272 89B0     		sub	sp, sp, #36
 394              	.LCFI7:
 395              		.cfi_def_cfa_offset 40
 396 0274 00AF     		add	r7, sp, #0
 397              	.LCFI8:
 398              		.cfi_def_cfa_register 7
 399 0276 BA60     		str	r2, [r7, #8]
 400 0278 0246     		mov	r2, r0	@ movhi
 401 027a FA81     		strh	r2, [r7, #14]	@ movhi
 402 027c 0A46     		mov	r2, r1	@ movhi
 403 027e BA81     		strh	r2, [r7, #12]	@ movhi
 404 0280 FB71     		strb	r3, [r7, #7]
 159:../src/lib/lpc177x_8x/Drivers/source/lpc177x_8x_eeprom.c ****         uint32_t i;
 160:../src/lib/lpc177x_8x/Drivers/source/lpc177x_8x_eeprom.c ****     uint8_t *tmp8 = (uint8_t *)data;
 405              		.loc 1 160 0
 406 0282 BB68     		ldr	r3, [r7, #8]
 407 0284 BB61     		str	r3, [r7, #24]
 161:../src/lib/lpc177x_8x/Drivers/source/lpc177x_8x_eeprom.c ****     uint16_t *tmp16 = (uint16_t *)data;
 408              		.loc 1 161 0
 409 0286 BB68     		ldr	r3, [r7, #8]
 410 0288 7B61     		str	r3, [r7, #20]
 162:../src/lib/lpc177x_8x/Drivers/source/lpc177x_8x_eeprom.c ****     uint32_t *tmp32 = (uint32_t *)data;
 411              		.loc 1 162 0
 412 028a BB68     		ldr	r3, [r7, #8]
 413 028c 3B61     		str	r3, [r7, #16]
 163:../src/lib/lpc177x_8x/Drivers/source/lpc177x_8x_eeprom.c **** 
 164:../src/lib/lpc177x_8x/Drivers/source/lpc177x_8x_eeprom.c ****     LPC_EEPROM->INT_CLR_STATUS = ((1 << EEPROM_ENDOF_RW)|(1 << EEPROM_ENDOF_PROG));
 414              		.loc 1 164 0
 415 028e 564B     		ldr	r3, .L37
 416 0290 4FF0A052 		mov	r2, #335544320
 417 0294 C3F8682F 		str	r2, [r3, #3944]
 165:../src/lib/lpc177x_8x/Drivers/source/lpc177x_8x_eeprom.c ****     LPC_EEPROM->ADDR = EEPROM_PAGE_ADRESS(page_address)|EEPROM_PAGE_OFFSET(page_offset);
 418              		.loc 1 165 0
 419 0298 534B     		ldr	r3, .L37
 420 029a BA89     		ldrh	r2, [r7, #12]
 421 029c 02F03F02 		and	r2, r2, #63
 422 02a0 4FEA8211 		lsl	r1, r2, #6
 423 02a4 FA89     		ldrh	r2, [r7, #14]
 424 02a6 02F03F02 		and	r2, r2, #63
 425 02aa 0A43     		orrs	r2, r2, r1
 426 02ac 5A60     		str	r2, [r3, #4]
 166:../src/lib/lpc177x_8x/Drivers/source/lpc177x_8x_eeprom.c ****     if(mode == MODE_8_BIT)
 427              		.loc 1 166 0
 428 02ae FB79     		ldrb	r3, [r7, #7]	@ zero_extendqisi2
 429 02b0 002B     		cmp	r3, #0
 430 02b2 04D1     		bne	.L22
 167:../src/lib/lpc177x_8x/Drivers/source/lpc177x_8x_eeprom.c ****         LPC_EEPROM->CMD = EEPROM_CMD_8_BIT_READ|EEPROM_CMD_RDPREFETCH;
 431              		.loc 1 167 0
 432 02b4 4C4B     		ldr	r3, .L37
 433 02b6 4FF00802 		mov	r2, #8
 434 02ba 1A60     		str	r2, [r3, #0]
 435 02bc 15E0     		b	.L23
 436              	.L22:
 168:../src/lib/lpc177x_8x/Drivers/source/lpc177x_8x_eeprom.c ****     else if(mode == MODE_16_BIT){
 437              		.loc 1 168 0
 438 02be FB79     		ldrb	r3, [r7, #7]	@ zero_extendqisi2
 439 02c0 012B     		cmp	r3, #1
 440 02c2 09D1     		bne	.L24
 169:../src/lib/lpc177x_8x/Drivers/source/lpc177x_8x_eeprom.c ****         LPC_EEPROM->CMD = EEPROM_CMD_16_BIT_READ|EEPROM_CMD_RDPREFETCH;
 441              		.loc 1 169 0
 442 02c4 484B     		ldr	r3, .L37
 443 02c6 4FF00902 		mov	r2, #9
 444 02ca 1A60     		str	r2, [r3, #0]
 170:../src/lib/lpc177x_8x/Drivers/source/lpc177x_8x_eeprom.c ****         //check page_offset
 171:../src/lib/lpc177x_8x/Drivers/source/lpc177x_8x_eeprom.c ****         if((page_offset &0x01)!=0)
 445              		.loc 1 171 0
 446 02cc FB89     		ldrh	r3, [r7, #14]
 447 02ce 03F00103 		and	r3, r3, #1
 448 02d2 002B     		cmp	r3, #0
 449 02d4 09D0     		beq	.L23
 172:../src/lib/lpc177x_8x/Drivers/source/lpc177x_8x_eeprom.c ****             return;
 450              		.loc 1 172 0
 451 02d6 82E0     		b	.L21
 452              	.L24:
 173:../src/lib/lpc177x_8x/Drivers/source/lpc177x_8x_eeprom.c ****     }
 174:../src/lib/lpc177x_8x/Drivers/source/lpc177x_8x_eeprom.c ****     else{
 175:../src/lib/lpc177x_8x/Drivers/source/lpc177x_8x_eeprom.c ****         LPC_EEPROM->CMD = EEPROM_CMD_32_BIT_READ|EEPROM_CMD_RDPREFETCH;
 453              		.loc 1 175 0
 454 02d8 434B     		ldr	r3, .L37
 455 02da 4FF00A02 		mov	r2, #10
 456 02de 1A60     		str	r2, [r3, #0]
 176:../src/lib/lpc177x_8x/Drivers/source/lpc177x_8x_eeprom.c ****         //page_offset must be a multiple of 0x04
 177:../src/lib/lpc177x_8x/Drivers/source/lpc177x_8x_eeprom.c ****         if((page_offset & 0x03)!=0)
 457              		.loc 1 177 0
 458 02e0 FB89     		ldrh	r3, [r7, #14]
 459 02e2 03F00303 		and	r3, r3, #3
 460 02e6 002B     		cmp	r3, #0
 461 02e8 78D1     		bne	.L35
 462              	.L23:
 178:../src/lib/lpc177x_8x/Drivers/source/lpc177x_8x_eeprom.c ****             return;
 179:../src/lib/lpc177x_8x/Drivers/source/lpc177x_8x_eeprom.c ****     }
 180:../src/lib/lpc177x_8x/Drivers/source/lpc177x_8x_eeprom.c **** 
 181:../src/lib/lpc177x_8x/Drivers/source/lpc177x_8x_eeprom.c ****     //read and store data in buffer
 182:../src/lib/lpc177x_8x/Drivers/source/lpc177x_8x_eeprom.c ****     for(i=0;i<count;i++){
 463              		.loc 1 182 0
 464 02ea 4FF00003 		mov	r3, #0
 465 02ee FB61     		str	r3, [r7, #28]
 466 02f0 6FE0     		b	.L26
 467              	.L34:
 183:../src/lib/lpc177x_8x/Drivers/source/lpc177x_8x_eeprom.c ****          
 184:../src/lib/lpc177x_8x/Drivers/source/lpc177x_8x_eeprom.c ****          if(mode == MODE_8_BIT){
 468              		.loc 1 184 0
 469 02f2 FB79     		ldrb	r3, [r7, #7]	@ zero_extendqisi2
 470 02f4 002B     		cmp	r3, #0
 471 02f6 0DD1     		bne	.L27
 185:../src/lib/lpc177x_8x/Drivers/source/lpc177x_8x_eeprom.c ****              *tmp8 = (uint8_t)(LPC_EEPROM -> RDATA);
 472              		.loc 1 185 0
 473 02f8 3B4B     		ldr	r3, .L37
 474 02fa DB68     		ldr	r3, [r3, #12]
 475 02fc DAB2     		uxtb	r2, r3
 476 02fe BB69     		ldr	r3, [r7, #24]
 477 0300 1A70     		strb	r2, [r3, #0]
 186:../src/lib/lpc177x_8x/Drivers/source/lpc177x_8x_eeprom.c ****              tmp8++;
 478              		.loc 1 186 0
 479 0302 BB69     		ldr	r3, [r7, #24]
 480 0304 03F10103 		add	r3, r3, #1
 481 0308 BB61     		str	r3, [r7, #24]
 187:../src/lib/lpc177x_8x/Drivers/source/lpc177x_8x_eeprom.c ****              page_offset +=1;
 482              		.loc 1 187 0
 483 030a FB89     		ldrh	r3, [r7, #14]	@ movhi
 484 030c 03F10103 		add	r3, r3, #1
 485 0310 FB81     		strh	r3, [r7, #14]	@ movhi
 188:../src/lib/lpc177x_8x/Drivers/source/lpc177x_8x_eeprom.c ****          }
 189:../src/lib/lpc177x_8x/Drivers/source/lpc177x_8x_eeprom.c ****          else if (mode == MODE_16_BIT)
 190:../src/lib/lpc177x_8x/Drivers/source/lpc177x_8x_eeprom.c ****          {
 191:../src/lib/lpc177x_8x/Drivers/source/lpc177x_8x_eeprom.c ****              *tmp16 =  (uint16_t)(LPC_EEPROM -> RDATA);
 192:../src/lib/lpc177x_8x/Drivers/source/lpc177x_8x_eeprom.c ****              tmp16++;
 193:../src/lib/lpc177x_8x/Drivers/source/lpc177x_8x_eeprom.c ****              page_offset +=2;
 194:../src/lib/lpc177x_8x/Drivers/source/lpc177x_8x_eeprom.c ****          }
 195:../src/lib/lpc177x_8x/Drivers/source/lpc177x_8x_eeprom.c ****          else{
 196:../src/lib/lpc177x_8x/Drivers/source/lpc177x_8x_eeprom.c ****              *tmp32 = (uint32_t)(LPC_EEPROM ->RDATA);
 197:../src/lib/lpc177x_8x/Drivers/source/lpc177x_8x_eeprom.c ****              tmp32++;
 198:../src/lib/lpc177x_8x/Drivers/source/lpc177x_8x_eeprom.c ****              page_offset +=4;
 199:../src/lib/lpc177x_8x/Drivers/source/lpc177x_8x_eeprom.c ****          }
 200:../src/lib/lpc177x_8x/Drivers/source/lpc177x_8x_eeprom.c ****          while(!((LPC_EEPROM->INT_STATUS >> EEPROM_ENDOF_RW)&0x01));
 486              		.loc 1 200 0
 487 0312 1CE0     		b	.L36
 488              	.L27:
 189:../src/lib/lpc177x_8x/Drivers/source/lpc177x_8x_eeprom.c ****          else if (mode == MODE_16_BIT)
 489              		.loc 1 189 0
 490 0314 FB79     		ldrb	r3, [r7, #7]	@ zero_extendqisi2
 491 0316 012B     		cmp	r3, #1
 492 0318 0DD1     		bne	.L29
 191:../src/lib/lpc177x_8x/Drivers/source/lpc177x_8x_eeprom.c ****              *tmp16 =  (uint16_t)(LPC_EEPROM -> RDATA);
 493              		.loc 1 191 0
 494 031a 334B     		ldr	r3, .L37
 495 031c DB68     		ldr	r3, [r3, #12]
 496 031e 9AB2     		uxth	r2, r3
 497 0320 7B69     		ldr	r3, [r7, #20]
 498 0322 1A80     		strh	r2, [r3, #0]	@ movhi
 192:../src/lib/lpc177x_8x/Drivers/source/lpc177x_8x_eeprom.c ****              tmp16++;
 499              		.loc 1 192 0
 500 0324 7B69     		ldr	r3, [r7, #20]
 501 0326 03F10203 		add	r3, r3, #2
 502 032a 7B61     		str	r3, [r7, #20]
 193:../src/lib/lpc177x_8x/Drivers/source/lpc177x_8x_eeprom.c ****              page_offset +=2;
 503              		.loc 1 193 0
 504 032c FB89     		ldrh	r3, [r7, #14]	@ movhi
 505 032e 03F10203 		add	r3, r3, #2
 506 0332 FB81     		strh	r3, [r7, #14]	@ movhi
 507              		.loc 1 200 0
 508 0334 0BE0     		b	.L36
 509              	.L29:
 196:../src/lib/lpc177x_8x/Drivers/source/lpc177x_8x_eeprom.c ****              *tmp32 = (uint32_t)(LPC_EEPROM ->RDATA);
 510              		.loc 1 196 0
 511 0336 2C4B     		ldr	r3, .L37
 512 0338 DA68     		ldr	r2, [r3, #12]
 513 033a 3B69     		ldr	r3, [r7, #16]
 514 033c 1A60     		str	r2, [r3, #0]
 197:../src/lib/lpc177x_8x/Drivers/source/lpc177x_8x_eeprom.c ****              tmp32++;
 515              		.loc 1 197 0
 516 033e 3B69     		ldr	r3, [r7, #16]
 517 0340 03F10403 		add	r3, r3, #4
 518 0344 3B61     		str	r3, [r7, #16]
 198:../src/lib/lpc177x_8x/Drivers/source/lpc177x_8x_eeprom.c ****              page_offset +=4;
 519              		.loc 1 198 0
 520 0346 FB89     		ldrh	r3, [r7, #14]	@ movhi
 521 0348 03F10403 		add	r3, r3, #4
 522 034c FB81     		strh	r3, [r7, #14]	@ movhi
 523              	.L36:
 524              		.loc 1 200 0
 525 034e 00BF     		nop
 526              	.L30:
 527              		.loc 1 200 0 is_stmt 0 discriminator 1
 528 0350 254B     		ldr	r3, .L37
 529 0352 D3F8603F 		ldr	r3, [r3, #3936]
 530 0356 4FEA9363 		lsr	r3, r3, #26
 531 035a 03F00103 		and	r3, r3, #1
 532 035e 002B     		cmp	r3, #0
 533 0360 F6D0     		beq	.L30
 201:../src/lib/lpc177x_8x/Drivers/source/lpc177x_8x_eeprom.c ****                  LPC_EEPROM->INT_CLR_STATUS = (1 << EEPROM_ENDOF_RW);
 534              		.loc 1 201 0 is_stmt 1
 535 0362 214B     		ldr	r3, .L37
 536 0364 4FF08062 		mov	r2, #67108864
 537 0368 C3F8682F 		str	r2, [r3, #3944]
 202:../src/lib/lpc177x_8x/Drivers/source/lpc177x_8x_eeprom.c ****          if((page_offset >= EEPROM_PAGE_SIZE) && (i < count - 1)) {
 538              		.loc 1 202 0
 539 036c FB89     		ldrh	r3, [r7, #14]
 540 036e 3F2B     		cmp	r3, #63
 541 0370 2BD9     		bls	.L31
 542              		.loc 1 202 0 is_stmt 0 discriminator 1
 543 0372 BB6A     		ldr	r3, [r7, #40]
 544 0374 03F1FF32 		add	r2, r3, #-1
 545 0378 FB69     		ldr	r3, [r7, #28]
 546 037a 9A42     		cmp	r2, r3
 547 037c 25D9     		bls	.L31
 203:../src/lib/lpc177x_8x/Drivers/source/lpc177x_8x_eeprom.c ****              page_offset = 0;
 548              		.loc 1 203 0 is_stmt 1
 549 037e 4FF00003 		mov	r3, #0
 550 0382 FB81     		strh	r3, [r7, #14]	@ movhi
 204:../src/lib/lpc177x_8x/Drivers/source/lpc177x_8x_eeprom.c ****              page_address++;
 551              		.loc 1 204 0
 552 0384 BB89     		ldrh	r3, [r7, #12]	@ movhi
 553 0386 03F10103 		add	r3, r3, #1
 554 038a BB81     		strh	r3, [r7, #12]	@ movhi
 205:../src/lib/lpc177x_8x/Drivers/source/lpc177x_8x_eeprom.c ****              LPC_EEPROM->ADDR = EEPROM_PAGE_ADRESS(page_address)|EEPROM_PAGE_OFFSET(page_offset);
 555              		.loc 1 205 0
 556 038c 164B     		ldr	r3, .L37
 557 038e BA89     		ldrh	r2, [r7, #12]
 558 0390 02F03F02 		and	r2, r2, #63
 559 0394 4FEA8211 		lsl	r1, r2, #6
 560 0398 FA89     		ldrh	r2, [r7, #14]
 561 039a 02F03F02 		and	r2, r2, #63
 562 039e 0A43     		orrs	r2, r2, r1
 563 03a0 5A60     		str	r2, [r3, #4]
 206:../src/lib/lpc177x_8x/Drivers/source/lpc177x_8x_eeprom.c ****              if(mode == MODE_8_BIT)
 564              		.loc 1 206 0
 565 03a2 FB79     		ldrb	r3, [r7, #7]	@ zero_extendqisi2
 566 03a4 002B     		cmp	r3, #0
 567 03a6 04D1     		bne	.L32
 207:../src/lib/lpc177x_8x/Drivers/source/lpc177x_8x_eeprom.c ****                 LPC_EEPROM->CMD = EEPROM_CMD_8_BIT_READ|EEPROM_CMD_RDPREFETCH;
 568              		.loc 1 207 0
 569 03a8 0F4B     		ldr	r3, .L37
 570 03aa 4FF00802 		mov	r2, #8
 571 03ae 1A60     		str	r2, [r3, #0]
 572 03b0 0BE0     		b	.L31
 573              	.L32:
 208:../src/lib/lpc177x_8x/Drivers/source/lpc177x_8x_eeprom.c ****              else if(mode == MODE_16_BIT)
 574              		.loc 1 208 0
 575 03b2 FB79     		ldrb	r3, [r7, #7]	@ zero_extendqisi2
 576 03b4 012B     		cmp	r3, #1
 577 03b6 04D1     		bne	.L33
 209:../src/lib/lpc177x_8x/Drivers/source/lpc177x_8x_eeprom.c ****                 LPC_EEPROM->CMD = EEPROM_CMD_16_BIT_READ|EEPROM_CMD_RDPREFETCH;
 578              		.loc 1 209 0
 579 03b8 0B4B     		ldr	r3, .L37
 580 03ba 4FF00902 		mov	r2, #9
 581 03be 1A60     		str	r2, [r3, #0]
 582 03c0 03E0     		b	.L31
 583              	.L33:
 210:../src/lib/lpc177x_8x/Drivers/source/lpc177x_8x_eeprom.c ****              else
 211:../src/lib/lpc177x_8x/Drivers/source/lpc177x_8x_eeprom.c ****                 LPC_EEPROM->CMD = EEPROM_CMD_32_BIT_READ|EEPROM_CMD_RDPREFETCH;
 584              		.loc 1 211 0
 585 03c2 094B     		ldr	r3, .L37
 586 03c4 4FF00A02 		mov	r2, #10
 587 03c8 1A60     		str	r2, [r3, #0]
 588              	.L31:
 182:../src/lib/lpc177x_8x/Drivers/source/lpc177x_8x_eeprom.c ****     for(i=0;i<count;i++){
 589              		.loc 1 182 0
 590 03ca FB69     		ldr	r3, [r7, #28]
 591 03cc 03F10103 		add	r3, r3, #1
 592 03d0 FB61     		str	r3, [r7, #28]
 593              	.L26:
 182:../src/lib/lpc177x_8x/Drivers/source/lpc177x_8x_eeprom.c ****     for(i=0;i<count;i++){
 594              		.loc 1 182 0 is_stmt 0 discriminator 1
 595 03d2 FA69     		ldr	r2, [r7, #28]
 596 03d4 BB6A     		ldr	r3, [r7, #40]
 597 03d6 9A42     		cmp	r2, r3
 598 03d8 8BD3     		bcc	.L34
 599 03da 00E0     		b	.L21
 600              	.L35:
 178:../src/lib/lpc177x_8x/Drivers/source/lpc177x_8x_eeprom.c ****             return;
 601              		.loc 1 178 0 is_stmt 1
 602 03dc 00BF     		nop
 603              	.L21:
 212:../src/lib/lpc177x_8x/Drivers/source/lpc177x_8x_eeprom.c ****          }
 213:../src/lib/lpc177x_8x/Drivers/source/lpc177x_8x_eeprom.c ****     }
 214:../src/lib/lpc177x_8x/Drivers/source/lpc177x_8x_eeprom.c **** }
 604              		.loc 1 214 0
 605 03de 07F12407 		add	r7, r7, #36
 606 03e2 BD46     		mov	sp, r7
 607 03e4 80BC     		pop	{r7}
 608 03e6 7047     		bx	lr
 609              	.L38:
 610              		.align	2
 611              	.L37:
 612 03e8 80002000 		.word	2097280
 613              		.cfi_endproc
 614              	.LFE57:
 616              		.align	2
 617              		.global	EEPROM_Erase
 618              		.thumb
 619              		.thumb_func
 621              	EEPROM_Erase:
 622              	.LFB58:
 215:../src/lib/lpc177x_8x/Drivers/source/lpc177x_8x_eeprom.c **** 
 216:../src/lib/lpc177x_8x/Drivers/source/lpc177x_8x_eeprom.c **** /*********************************************************************//**
 217:../src/lib/lpc177x_8x/Drivers/source/lpc177x_8x_eeprom.c ****  * @brief       Erase a page at the specific address
 218:../src/lib/lpc177x_8x/Drivers/source/lpc177x_8x_eeprom.c ****  * @param[in]   address EEPROM page address (0-62)
 219:../src/lib/lpc177x_8x/Drivers/source/lpc177x_8x_eeprom.c ****  * @return      data    buffer that contain data that will be read to buffer
 220:../src/lib/lpc177x_8x/Drivers/source/lpc177x_8x_eeprom.c ****  **********************************************************************/
 221:../src/lib/lpc177x_8x/Drivers/source/lpc177x_8x_eeprom.c **** void EEPROM_Erase(uint16_t page_address)
 222:../src/lib/lpc177x_8x/Drivers/source/lpc177x_8x_eeprom.c **** {
 623              		.loc 1 222 0
 624              		.cfi_startproc
 625              		@ args = 0, pretend = 0, frame = 16
 626              		@ frame_needed = 1, uses_anonymous_args = 0
 627              		@ link register save eliminated.
 628 03ec 80B4     		push	{r7}
 629              	.LCFI9:
 630              		.cfi_def_cfa_offset 4
 631              		.cfi_offset 7, -4
 632 03ee 85B0     		sub	sp, sp, #20
 633              	.LCFI10:
 634              		.cfi_def_cfa_offset 24
 635 03f0 00AF     		add	r7, sp, #0
 636              	.LCFI11:
 637              		.cfi_def_cfa_register 7
 638 03f2 0346     		mov	r3, r0
 639 03f4 FB80     		strh	r3, [r7, #6]	@ movhi
 223:../src/lib/lpc177x_8x/Drivers/source/lpc177x_8x_eeprom.c ****     uint32_t i;
 224:../src/lib/lpc177x_8x/Drivers/source/lpc177x_8x_eeprom.c ****     uint32_t count = EEPROM_PAGE_SIZE/4;
 640              		.loc 1 224 0
 641 03f6 4FF01003 		mov	r3, #16
 642 03fa BB60     		str	r3, [r7, #8]
 225:../src/lib/lpc177x_8x/Drivers/source/lpc177x_8x_eeprom.c **** 
 226:../src/lib/lpc177x_8x/Drivers/source/lpc177x_8x_eeprom.c ****     LPC_EEPROM->INT_CLR_STATUS = ((1 << EEPROM_ENDOF_RW)|(1 << EEPROM_ENDOF_PROG));  
 643              		.loc 1 226 0
 644 03fc 274B     		ldr	r3, .L44
 645 03fe 4FF0A052 		mov	r2, #335544320
 646 0402 C3F8682F 		str	r2, [r3, #3944]
 227:../src/lib/lpc177x_8x/Drivers/source/lpc177x_8x_eeprom.c **** 
 228:../src/lib/lpc177x_8x/Drivers/source/lpc177x_8x_eeprom.c ****     //clear page register
 229:../src/lib/lpc177x_8x/Drivers/source/lpc177x_8x_eeprom.c ****     LPC_EEPROM->ADDR = EEPROM_PAGE_OFFSET(0);
 647              		.loc 1 229 0
 648 0406 254B     		ldr	r3, .L44
 649 0408 4FF00002 		mov	r2, #0
 650 040c 5A60     		str	r2, [r3, #4]
 230:../src/lib/lpc177x_8x/Drivers/source/lpc177x_8x_eeprom.c ****     LPC_EEPROM->CMD = EEPROM_CMD_32_BIT_WRITE;
 651              		.loc 1 230 0
 652 040e 234B     		ldr	r3, .L44
 653 0410 4FF00502 		mov	r2, #5
 654 0414 1A60     		str	r2, [r3, #0]
 231:../src/lib/lpc177x_8x/Drivers/source/lpc177x_8x_eeprom.c ****     for(i=0;i<count;i++)
 655              		.loc 1 231 0
 656 0416 4FF00003 		mov	r3, #0
 657 041a FB60     		str	r3, [r7, #12]
 658 041c 16E0     		b	.L40
 659              	.L42:
 232:../src/lib/lpc177x_8x/Drivers/source/lpc177x_8x_eeprom.c ****     {
 233:../src/lib/lpc177x_8x/Drivers/source/lpc177x_8x_eeprom.c ****         LPC_EEPROM->WDATA = 0;
 660              		.loc 1 233 0
 661 041e 1F4B     		ldr	r3, .L44
 662 0420 4FF00002 		mov	r2, #0
 663 0424 9A60     		str	r2, [r3, #8]
 234:../src/lib/lpc177x_8x/Drivers/source/lpc177x_8x_eeprom.c ****         while(!((LPC_EEPROM->INT_STATUS >> EEPROM_ENDOF_RW)&0x01));
 664              		.loc 1 234 0
 665 0426 00BF     		nop
 666              	.L41:
 667              		.loc 1 234 0 is_stmt 0 discriminator 1
 668 0428 1C4B     		ldr	r3, .L44
 669 042a D3F8603F 		ldr	r3, [r3, #3936]
 670 042e 4FEA9363 		lsr	r3, r3, #26
 671 0432 03F00103 		and	r3, r3, #1
 672 0436 002B     		cmp	r3, #0
 673 0438 F6D0     		beq	.L41
 235:../src/lib/lpc177x_8x/Drivers/source/lpc177x_8x_eeprom.c ****         LPC_EEPROM->INT_CLR_STATUS = (1 << EEPROM_ENDOF_RW);
 674              		.loc 1 235 0 is_stmt 1
 675 043a 184B     		ldr	r3, .L44
 676 043c 4FF08062 		mov	r2, #67108864
 677 0440 C3F8682F 		str	r2, [r3, #3944]
 231:../src/lib/lpc177x_8x/Drivers/source/lpc177x_8x_eeprom.c ****     for(i=0;i<count;i++)
 678              		.loc 1 231 0
 679 0444 FB68     		ldr	r3, [r7, #12]
 680 0446 03F10103 		add	r3, r3, #1
 681 044a FB60     		str	r3, [r7, #12]
 682              	.L40:
 231:../src/lib/lpc177x_8x/Drivers/source/lpc177x_8x_eeprom.c ****     for(i=0;i<count;i++)
 683              		.loc 1 231 0 is_stmt 0 discriminator 1
 684 044c FA68     		ldr	r2, [r7, #12]
 685 044e BB68     		ldr	r3, [r7, #8]
 686 0450 9A42     		cmp	r2, r3
 687 0452 E4D3     		bcc	.L42
 236:../src/lib/lpc177x_8x/Drivers/source/lpc177x_8x_eeprom.c ****     }
 237:../src/lib/lpc177x_8x/Drivers/source/lpc177x_8x_eeprom.c **** 
 238:../src/lib/lpc177x_8x/Drivers/source/lpc177x_8x_eeprom.c ****     LPC_EEPROM->INT_CLR_STATUS = (0x1 << EEPROM_ENDOF_PROG);
 688              		.loc 1 238 0 is_stmt 1
 689 0454 114B     		ldr	r3, .L44
 690 0456 4FF08052 		mov	r2, #268435456
 691 045a C3F8682F 		str	r2, [r3, #3944]
 239:../src/lib/lpc177x_8x/Drivers/source/lpc177x_8x_eeprom.c ****     LPC_EEPROM->ADDR = EEPROM_PAGE_ADRESS(page_address);
 692              		.loc 1 239 0
 693 045e 0F4B     		ldr	r3, .L44
 694 0460 FA88     		ldrh	r2, [r7, #6]
 695 0462 02F03F02 		and	r2, r2, #63
 696 0466 4FEA8212 		lsl	r2, r2, #6
 697 046a 5A60     		str	r2, [r3, #4]
 240:../src/lib/lpc177x_8x/Drivers/source/lpc177x_8x_eeprom.c ****     LPC_EEPROM->CMD = EEPROM_CMD_ERASE_PRG_PAGE;
 698              		.loc 1 240 0
 699 046c 0B4B     		ldr	r3, .L44
 700 046e 4FF00602 		mov	r2, #6
 701 0472 1A60     		str	r2, [r3, #0]
 241:../src/lib/lpc177x_8x/Drivers/source/lpc177x_8x_eeprom.c ****     while(!((LPC_EEPROM->INT_STATUS >> EEPROM_ENDOF_PROG)&0x01));
 702              		.loc 1 241 0
 703 0474 00BF     		nop
 704              	.L43:
 705              		.loc 1 241 0 is_stmt 0 discriminator 1
 706 0476 094B     		ldr	r3, .L44
 707 0478 D3F8603F 		ldr	r3, [r3, #3936]
 708 047c 4FEA1373 		lsr	r3, r3, #28
 709 0480 03F00103 		and	r3, r3, #1
 710 0484 002B     		cmp	r3, #0
 711 0486 F6D0     		beq	.L43
 242:../src/lib/lpc177x_8x/Drivers/source/lpc177x_8x_eeprom.c ****     LPC_EEPROM->INT_CLR_STATUS = (1 << EEPROM_ENDOF_PROG);
 712              		.loc 1 242 0 is_stmt 1
 713 0488 044B     		ldr	r3, .L44
 714 048a 4FF08052 		mov	r2, #268435456
 715 048e C3F8682F 		str	r2, [r3, #3944]
 243:../src/lib/lpc177x_8x/Drivers/source/lpc177x_8x_eeprom.c **** }
 716              		.loc 1 243 0
 717 0492 07F11407 		add	r7, r7, #20
 718 0496 BD46     		mov	sp, r7
 719 0498 80BC     		pop	{r7}
 720 049a 7047     		bx	lr
 721              	.L45:
 722              		.align	2
 723              	.L44:
 724 049c 80002000 		.word	2097280
 725              		.cfi_endproc
 726              	.LFE58:
 728              		.align	2
 729              		.global	EEPROM_PowerDown
 730              		.thumb
 731              		.thumb_func
 733              	EEPROM_PowerDown:
 734              	.LFB59:
 244:../src/lib/lpc177x_8x/Drivers/source/lpc177x_8x_eeprom.c **** 
 245:../src/lib/lpc177x_8x/Drivers/source/lpc177x_8x_eeprom.c **** /*********************************************************************//**
 246:../src/lib/lpc177x_8x/Drivers/source/lpc177x_8x_eeprom.c ****  * @brief       Enable/Disable EEPROM power down mdoe
 247:../src/lib/lpc177x_8x/Drivers/source/lpc177x_8x_eeprom.c ****  * @param[in]   NewState    PowerDown mode state, should be:
 248:../src/lib/lpc177x_8x/Drivers/source/lpc177x_8x_eeprom.c ****  *                  - ENABLE: Enable power down mode
 249:../src/lib/lpc177x_8x/Drivers/source/lpc177x_8x_eeprom.c ****  *                  - DISABLE: Disable power down mode
 250:../src/lib/lpc177x_8x/Drivers/source/lpc177x_8x_eeprom.c ****  * @return      None
 251:../src/lib/lpc177x_8x/Drivers/source/lpc177x_8x_eeprom.c ****  **********************************************************************/
 252:../src/lib/lpc177x_8x/Drivers/source/lpc177x_8x_eeprom.c **** void EEPROM_PowerDown(FunctionalState NewState)
 253:../src/lib/lpc177x_8x/Drivers/source/lpc177x_8x_eeprom.c **** {
 735              		.loc 1 253 0
 736              		.cfi_startproc
 737              		@ args = 0, pretend = 0, frame = 8
 738              		@ frame_needed = 1, uses_anonymous_args = 0
 739              		@ link register save eliminated.
 740 04a0 80B4     		push	{r7}
 741              	.LCFI12:
 742              		.cfi_def_cfa_offset 4
 743              		.cfi_offset 7, -4
 744 04a2 83B0     		sub	sp, sp, #12
 745              	.LCFI13:
 746              		.cfi_def_cfa_offset 16
 747 04a4 00AF     		add	r7, sp, #0
 748              	.LCFI14:
 749              		.cfi_def_cfa_register 7
 750 04a6 0346     		mov	r3, r0
 751 04a8 FB71     		strb	r3, [r7, #7]
 254:../src/lib/lpc177x_8x/Drivers/source/lpc177x_8x_eeprom.c ****     if(NewState == ENABLE)
 752              		.loc 1 254 0
 753 04aa FB79     		ldrb	r3, [r7, #7]	@ zero_extendqisi2
 754 04ac 012B     		cmp	r3, #1
 755 04ae 04D1     		bne	.L47
 255:../src/lib/lpc177x_8x/Drivers/source/lpc177x_8x_eeprom.c ****         LPC_EEPROM->PWRDWN = 0x1;
 756              		.loc 1 255 0
 757 04b0 064B     		ldr	r3, .L49
 758 04b2 4FF00102 		mov	r2, #1
 759 04b6 9A61     		str	r2, [r3, #24]
 760 04b8 03E0     		b	.L46
 761              	.L47:
 256:../src/lib/lpc177x_8x/Drivers/source/lpc177x_8x_eeprom.c ****     else
 257:../src/lib/lpc177x_8x/Drivers/source/lpc177x_8x_eeprom.c ****         LPC_EEPROM->PWRDWN = 0x0;
 762              		.loc 1 257 0
 763 04ba 044B     		ldr	r3, .L49
 764 04bc 4FF00002 		mov	r2, #0
 765 04c0 9A61     		str	r2, [r3, #24]
 766              	.L46:
 258:../src/lib/lpc177x_8x/Drivers/source/lpc177x_8x_eeprom.c **** }
 767              		.loc 1 258 0
 768 04c2 07F10C07 		add	r7, r7, #12
 769 04c6 BD46     		mov	sp, r7
 770 04c8 80BC     		pop	{r7}
 771 04ca 7047     		bx	lr
 772              	.L50:
 773              		.align	2
 774              	.L49:
 775 04cc 80002000 		.word	2097280
 776              		.cfi_endproc
 777              	.LFE59:
 779              	.Letext0:
 780              		.file 2 "g:\\program files\\codesourcery\\sourcery_codebench_lite_for_arm_eabi\\bin\\../lib/gcc/ar
 781              		.file 3 "D:\\workspace_gnu\\RTT_Demo0\\src\\lib\\lpc177x_8x\\Drivers\\include/lpc_types.h"
 782              		.file 4 "D:\\workspace_gnu\\RTT_Demo0\\src\\lib\\lpc177x_8x\\Core\\Device\\NXP\\LPC177x_8x\\Includ
 783              		.file 5 "D:\\workspace_gnu\\RTT_Demo0\\src\\lib\\lpc177x_8x\\Drivers\\include/lpc177x_8x_eeprom.h"
 784              		.file 6 "D:\\workspace_gnu\\RTT_Demo0\\src\\lib\\lpc177x_8x\\Core\\CMSIS\\Include/core_cm3.h"