   1              		.syntax unified
   2              		.cpu cortex-m4
   3              		.fpu softvfp
   4              		.eabi_attribute 20, 1
   5              		.eabi_attribute 21, 1
   6              		.eabi_attribute 23, 3
   7              		.eabi_attribute 24, 1
   8              		.eabi_attribute 25, 1
   9              		.eabi_attribute 26, 1
  10              		.eabi_attribute 30, 6
  11              		.eabi_attribute 34, 1
  12              		.eabi_attribute 18, 4
  13              		.thumb
  14              		.file	"lpc177x_8x_gpio.c"
  15              		.text
  16              	.Ltext0:
  17              		.cfi_sections	.debug_frame
  18              		.align	2
  19              		.thumb
  20              		.thumb_func
  22              	GPIO_GetPointer:
  23              	.LFB55:
  24              		.file 1 "../src/lib/lpc177x_8x/Drivers/source/lpc177x_8x_gpio.c"
   1:../src/lib/lpc177x_8x/Drivers/source/lpc177x_8x_gpio.c **** /**********************************************************************
   2:../src/lib/lpc177x_8x/Drivers/source/lpc177x_8x_gpio.c **** * $Id$      lpc177x_8x_gpio.c           2011-06-02
   3:../src/lib/lpc177x_8x/Drivers/source/lpc177x_8x_gpio.c **** *//**
   4:../src/lib/lpc177x_8x/Drivers/source/lpc177x_8x_gpio.c **** * @file     lpc177x_8x_gpio.c
   5:../src/lib/lpc177x_8x/Drivers/source/lpc177x_8x_gpio.c **** * @brief    Contains all functions support for GPIO firmware library
   6:../src/lib/lpc177x_8x/Drivers/source/lpc177x_8x_gpio.c **** *           on LPC177x_8x
   7:../src/lib/lpc177x_8x/Drivers/source/lpc177x_8x_gpio.c **** * @version  1.0
   8:../src/lib/lpc177x_8x/Drivers/source/lpc177x_8x_gpio.c **** * @date     02. June. 2011
   9:../src/lib/lpc177x_8x/Drivers/source/lpc177x_8x_gpio.c **** * @author   NXP MCU SW Application Team
  10:../src/lib/lpc177x_8x/Drivers/source/lpc177x_8x_gpio.c **** * 
  11:../src/lib/lpc177x_8x/Drivers/source/lpc177x_8x_gpio.c **** * Copyright(C) 2011, NXP Semiconductor
  12:../src/lib/lpc177x_8x/Drivers/source/lpc177x_8x_gpio.c **** * All rights reserved.
  13:../src/lib/lpc177x_8x/Drivers/source/lpc177x_8x_gpio.c **** *
  14:../src/lib/lpc177x_8x/Drivers/source/lpc177x_8x_gpio.c **** ***********************************************************************
  15:../src/lib/lpc177x_8x/Drivers/source/lpc177x_8x_gpio.c **** * Software that is described herein is for illustrative purposes only
  16:../src/lib/lpc177x_8x/Drivers/source/lpc177x_8x_gpio.c **** * which provides customers with programming information regarding the
  17:../src/lib/lpc177x_8x/Drivers/source/lpc177x_8x_gpio.c **** * products. This software is supplied "AS IS" without any warranties.
  18:../src/lib/lpc177x_8x/Drivers/source/lpc177x_8x_gpio.c **** * NXP Semiconductors assumes no responsibility or liability for the
  19:../src/lib/lpc177x_8x/Drivers/source/lpc177x_8x_gpio.c **** * use of the software, conveys no license or title under any patent,
  20:../src/lib/lpc177x_8x/Drivers/source/lpc177x_8x_gpio.c **** * copyright, or mask work right to the product. NXP Semiconductors
  21:../src/lib/lpc177x_8x/Drivers/source/lpc177x_8x_gpio.c **** * reserves the right to make changes in the software without
  22:../src/lib/lpc177x_8x/Drivers/source/lpc177x_8x_gpio.c **** * notification. NXP Semiconductors also make no representation or
  23:../src/lib/lpc177x_8x/Drivers/source/lpc177x_8x_gpio.c **** * warranty that such application will be suitable for the specified
  24:../src/lib/lpc177x_8x/Drivers/source/lpc177x_8x_gpio.c **** * use without further testing or modification.
  25:../src/lib/lpc177x_8x/Drivers/source/lpc177x_8x_gpio.c **** * Permission to use, copy, modify, and distribute this software and its
  26:../src/lib/lpc177x_8x/Drivers/source/lpc177x_8x_gpio.c **** * documentation is hereby granted, under NXP Semiconductors'
  27:../src/lib/lpc177x_8x/Drivers/source/lpc177x_8x_gpio.c **** * relevant copyright in the software, without fee, provided that it
  28:../src/lib/lpc177x_8x/Drivers/source/lpc177x_8x_gpio.c **** * is used in conjunction with NXP Semiconductors microcontrollers.  This
  29:../src/lib/lpc177x_8x/Drivers/source/lpc177x_8x_gpio.c **** * copyright, permission, and disclaimer notice must appear in all copies of
  30:../src/lib/lpc177x_8x/Drivers/source/lpc177x_8x_gpio.c **** * this code.
  31:../src/lib/lpc177x_8x/Drivers/source/lpc177x_8x_gpio.c **** **********************************************************************/
  32:../src/lib/lpc177x_8x/Drivers/source/lpc177x_8x_gpio.c **** 
  33:../src/lib/lpc177x_8x/Drivers/source/lpc177x_8x_gpio.c **** /* Peripheral group ----------------------------------------------------------- */
  34:../src/lib/lpc177x_8x/Drivers/source/lpc177x_8x_gpio.c **** /** @addtogroup GPIO
  35:../src/lib/lpc177x_8x/Drivers/source/lpc177x_8x_gpio.c ****  * @{
  36:../src/lib/lpc177x_8x/Drivers/source/lpc177x_8x_gpio.c ****  */
  37:../src/lib/lpc177x_8x/Drivers/source/lpc177x_8x_gpio.c **** #ifdef __BUILD_WITH_EXAMPLE__
  38:../src/lib/lpc177x_8x/Drivers/source/lpc177x_8x_gpio.c **** #include "lpc177x_8x_libcfg.h"
  39:../src/lib/lpc177x_8x/Drivers/source/lpc177x_8x_gpio.c **** #else
  40:../src/lib/lpc177x_8x/Drivers/source/lpc177x_8x_gpio.c **** #include "lpc177x_8x_libcfg_default.h"
  41:../src/lib/lpc177x_8x/Drivers/source/lpc177x_8x_gpio.c **** #endif /* __BUILD_WITH_EXAMPLE__ */
  42:../src/lib/lpc177x_8x/Drivers/source/lpc177x_8x_gpio.c **** #ifdef _GPIO
  43:../src/lib/lpc177x_8x/Drivers/source/lpc177x_8x_gpio.c **** 
  44:../src/lib/lpc177x_8x/Drivers/source/lpc177x_8x_gpio.c **** /* Includes ------------------------------------------------------------------- */
  45:../src/lib/lpc177x_8x/Drivers/source/lpc177x_8x_gpio.c **** #include "lpc177x_8x_gpio.h"
  46:../src/lib/lpc177x_8x/Drivers/source/lpc177x_8x_gpio.c **** #include "lpc177x_8x_clkpwr.h"
  47:../src/lib/lpc177x_8x/Drivers/source/lpc177x_8x_gpio.c **** 
  48:../src/lib/lpc177x_8x/Drivers/source/lpc177x_8x_gpio.c **** /* definitions ------------------------------------------------------------------- */
  49:../src/lib/lpc177x_8x/Drivers/source/lpc177x_8x_gpio.c **** #define  GPIO_IS_ENABLED(x)    (((x) != 0)? ENABLE:DISABLE)
  50:../src/lib/lpc177x_8x/Drivers/source/lpc177x_8x_gpio.c **** 
  51:../src/lib/lpc177x_8x/Drivers/source/lpc177x_8x_gpio.c **** /* Private Functions ---------------------------------------------------------- */
  52:../src/lib/lpc177x_8x/Drivers/source/lpc177x_8x_gpio.c **** 
  53:../src/lib/lpc177x_8x/Drivers/source/lpc177x_8x_gpio.c **** static LPC_GPIO_TypeDef *GPIO_GetPointer(uint8_t portNum);
  54:../src/lib/lpc177x_8x/Drivers/source/lpc177x_8x_gpio.c **** static GPIO_HalfWord_TypeDef *FIO_HalfWordGetPointer(uint8_t portNum);
  55:../src/lib/lpc177x_8x/Drivers/source/lpc177x_8x_gpio.c **** static GPIO_Byte_TypeDef *FIO_ByteGetPointer(uint8_t portNum);
  56:../src/lib/lpc177x_8x/Drivers/source/lpc177x_8x_gpio.c **** 
  57:../src/lib/lpc177x_8x/Drivers/source/lpc177x_8x_gpio.c **** /*********************************************************************//**
  58:../src/lib/lpc177x_8x/Drivers/source/lpc177x_8x_gpio.c ****  * @brief       Get pointer to GPIO peripheral due to GPIO port
  59:../src/lib/lpc177x_8x/Drivers/source/lpc177x_8x_gpio.c ****  * @param[in]   portNum     Port Number value, should be in range from 0 to 4.
  60:../src/lib/lpc177x_8x/Drivers/source/lpc177x_8x_gpio.c ****  * @return      Pointer to GPIO peripheral
  61:../src/lib/lpc177x_8x/Drivers/source/lpc177x_8x_gpio.c ****  **********************************************************************/
  62:../src/lib/lpc177x_8x/Drivers/source/lpc177x_8x_gpio.c **** static LPC_GPIO_TypeDef *GPIO_GetPointer(uint8_t portNum)
  63:../src/lib/lpc177x_8x/Drivers/source/lpc177x_8x_gpio.c **** {
  25              		.loc 1 63 0
  26              		.cfi_startproc
  27              		@ args = 0, pretend = 0, frame = 16
  28              		@ frame_needed = 1, uses_anonymous_args = 0
  29              		@ link register save eliminated.
  30 0000 80B4     		push	{r7}
  31              	.LCFI0:
  32              		.cfi_def_cfa_offset 4
  33              		.cfi_offset 7, -4
  34 0002 85B0     		sub	sp, sp, #20
  35              	.LCFI1:
  36              		.cfi_def_cfa_offset 24
  37 0004 00AF     		add	r7, sp, #0
  38              	.LCFI2:
  39              		.cfi_def_cfa_register 7
  40 0006 0346     		mov	r3, r0
  41 0008 FB71     		strb	r3, [r7, #7]
  64:../src/lib/lpc177x_8x/Drivers/source/lpc177x_8x_gpio.c ****     LPC_GPIO_TypeDef *pGPIO = NULL;
  42              		.loc 1 64 0
  43 000a 4FF00003 		mov	r3, #0
  44 000e FB60     		str	r3, [r7, #12]
  65:../src/lib/lpc177x_8x/Drivers/source/lpc177x_8x_gpio.c **** 
  66:../src/lib/lpc177x_8x/Drivers/source/lpc177x_8x_gpio.c ****     switch (portNum)
  45              		.loc 1 66 0
  46 0010 FB79     		ldrb	r3, [r7, #7]	@ zero_extendqisi2
  47 0012 052B     		cmp	r3, #5
  48 0014 20D8     		bhi	.L12
  49 0016 01A2     		adr	r2, .L9
  50 0018 52F823F0 		ldr	pc, [r2, r3, lsl #2]
  51              		.align	2
  52              	.L9:
  53 001c 35000000 		.word	.L3+1
  54 0020 3B000000 		.word	.L4+1
  55 0024 41000000 		.word	.L5+1
  56 0028 47000000 		.word	.L6+1
  57 002c 4D000000 		.word	.L7+1
  58 0030 53000000 		.word	.L8+1
  59              	.L3:
  67:../src/lib/lpc177x_8x/Drivers/source/lpc177x_8x_gpio.c ****     {
  68:../src/lib/lpc177x_8x/Drivers/source/lpc177x_8x_gpio.c ****         case 0:
  69:../src/lib/lpc177x_8x/Drivers/source/lpc177x_8x_gpio.c ****             pGPIO = LPC_GPIO0;
  60              		.loc 1 69 0
  61 0034 0C4B     		ldr	r3, .L13
  62 0036 FB60     		str	r3, [r7, #12]
  70:../src/lib/lpc177x_8x/Drivers/source/lpc177x_8x_gpio.c ****             break;
  63              		.loc 1 70 0
  64 0038 0FE0     		b	.L10
  65              	.L4:
  71:../src/lib/lpc177x_8x/Drivers/source/lpc177x_8x_gpio.c **** 
  72:../src/lib/lpc177x_8x/Drivers/source/lpc177x_8x_gpio.c ****         case 1:
  73:../src/lib/lpc177x_8x/Drivers/source/lpc177x_8x_gpio.c ****             pGPIO = LPC_GPIO1;
  66              		.loc 1 73 0
  67 003a 0C4B     		ldr	r3, .L13+4
  68 003c FB60     		str	r3, [r7, #12]
  74:../src/lib/lpc177x_8x/Drivers/source/lpc177x_8x_gpio.c ****             break;
  69              		.loc 1 74 0
  70 003e 0CE0     		b	.L10
  71              	.L5:
  75:../src/lib/lpc177x_8x/Drivers/source/lpc177x_8x_gpio.c **** 
  76:../src/lib/lpc177x_8x/Drivers/source/lpc177x_8x_gpio.c ****         case 2:
  77:../src/lib/lpc177x_8x/Drivers/source/lpc177x_8x_gpio.c ****             pGPIO = LPC_GPIO2;
  72              		.loc 1 77 0
  73 0040 0B4B     		ldr	r3, .L13+8
  74 0042 FB60     		str	r3, [r7, #12]
  78:../src/lib/lpc177x_8x/Drivers/source/lpc177x_8x_gpio.c ****             break;
  75              		.loc 1 78 0
  76 0044 09E0     		b	.L10
  77              	.L6:
  79:../src/lib/lpc177x_8x/Drivers/source/lpc177x_8x_gpio.c **** 
  80:../src/lib/lpc177x_8x/Drivers/source/lpc177x_8x_gpio.c ****         case 3:
  81:../src/lib/lpc177x_8x/Drivers/source/lpc177x_8x_gpio.c ****             pGPIO = LPC_GPIO3;
  78              		.loc 1 81 0
  79 0046 0B4B     		ldr	r3, .L13+12
  80 0048 FB60     		str	r3, [r7, #12]
  82:../src/lib/lpc177x_8x/Drivers/source/lpc177x_8x_gpio.c ****             break;
  81              		.loc 1 82 0
  82 004a 06E0     		b	.L10
  83              	.L7:
  83:../src/lib/lpc177x_8x/Drivers/source/lpc177x_8x_gpio.c **** 
  84:../src/lib/lpc177x_8x/Drivers/source/lpc177x_8x_gpio.c ****         case 4:
  85:../src/lib/lpc177x_8x/Drivers/source/lpc177x_8x_gpio.c ****             pGPIO = LPC_GPIO4;
  84              		.loc 1 85 0
  85 004c 0A4B     		ldr	r3, .L13+16
  86 004e FB60     		str	r3, [r7, #12]
  86:../src/lib/lpc177x_8x/Drivers/source/lpc177x_8x_gpio.c ****             break;
  87              		.loc 1 86 0
  88 0050 03E0     		b	.L10
  89              	.L8:
  87:../src/lib/lpc177x_8x/Drivers/source/lpc177x_8x_gpio.c **** 
  88:../src/lib/lpc177x_8x/Drivers/source/lpc177x_8x_gpio.c ****         case 5:
  89:../src/lib/lpc177x_8x/Drivers/source/lpc177x_8x_gpio.c ****             pGPIO = LPC_GPIO5;
  90              		.loc 1 89 0
  91 0052 0A4B     		ldr	r3, .L13+20
  92 0054 FB60     		str	r3, [r7, #12]
  90:../src/lib/lpc177x_8x/Drivers/source/lpc177x_8x_gpio.c ****             break;
  93              		.loc 1 90 0
  94 0056 00E0     		b	.L10
  95              	.L12:
  91:../src/lib/lpc177x_8x/Drivers/source/lpc177x_8x_gpio.c **** 
  92:../src/lib/lpc177x_8x/Drivers/source/lpc177x_8x_gpio.c ****         default:
  93:../src/lib/lpc177x_8x/Drivers/source/lpc177x_8x_gpio.c ****             break;
  96              		.loc 1 93 0
  97 0058 00BF     		nop
  98              	.L10:
  94:../src/lib/lpc177x_8x/Drivers/source/lpc177x_8x_gpio.c ****     }
  95:../src/lib/lpc177x_8x/Drivers/source/lpc177x_8x_gpio.c **** 
  96:../src/lib/lpc177x_8x/Drivers/source/lpc177x_8x_gpio.c ****     return pGPIO;
  99              		.loc 1 96 0
 100 005a FB68     		ldr	r3, [r7, #12]
  97:../src/lib/lpc177x_8x/Drivers/source/lpc177x_8x_gpio.c **** }
 101              		.loc 1 97 0
 102 005c 1846     		mov	r0, r3
 103 005e 07F11407 		add	r7, r7, #20
 104 0062 BD46     		mov	sp, r7
 105 0064 80BC     		pop	{r7}
 106 0066 7047     		bx	lr
 107              	.L14:
 108              		.align	2
 109              	.L13:
 110 0068 00800920 		.word	537493504
 111 006c 20800920 		.word	537493536
 112 0070 40800920 		.word	537493568
 113 0074 60800920 		.word	537493600
 114 0078 80800920 		.word	537493632
 115 007c A0800920 		.word	537493664
 116              		.cfi_endproc
 117              	.LFE55:
 119              		.align	2
 120              		.thumb
 121              		.thumb_func
 123              	FIO_HalfWordGetPointer:
 124              	.LFB56:
  98:../src/lib/lpc177x_8x/Drivers/source/lpc177x_8x_gpio.c **** 
  99:../src/lib/lpc177x_8x/Drivers/source/lpc177x_8x_gpio.c **** /*********************************************************************//**
 100:../src/lib/lpc177x_8x/Drivers/source/lpc177x_8x_gpio.c ****  * @brief       Get pointer to FIO peripheral in halfword accessible style
 101:../src/lib/lpc177x_8x/Drivers/source/lpc177x_8x_gpio.c ****  *              due to FIO port
 102:../src/lib/lpc177x_8x/Drivers/source/lpc177x_8x_gpio.c ****  * @param[in]   portNum     Port Number value, should be in range from 0 to 4.
 103:../src/lib/lpc177x_8x/Drivers/source/lpc177x_8x_gpio.c ****  * @return      Pointer to FIO peripheral
 104:../src/lib/lpc177x_8x/Drivers/source/lpc177x_8x_gpio.c ****  **********************************************************************/
 105:../src/lib/lpc177x_8x/Drivers/source/lpc177x_8x_gpio.c **** static GPIO_HalfWord_TypeDef *FIO_HalfWordGetPointer(uint8_t portNum)
 106:../src/lib/lpc177x_8x/Drivers/source/lpc177x_8x_gpio.c **** {
 125              		.loc 1 106 0
 126              		.cfi_startproc
 127              		@ args = 0, pretend = 0, frame = 16
 128              		@ frame_needed = 1, uses_anonymous_args = 0
 129              		@ link register save eliminated.
 130 0080 80B4     		push	{r7}
 131              	.LCFI3:
 132              		.cfi_def_cfa_offset 4
 133              		.cfi_offset 7, -4
 134 0082 85B0     		sub	sp, sp, #20
 135              	.LCFI4:
 136              		.cfi_def_cfa_offset 24
 137 0084 00AF     		add	r7, sp, #0
 138              	.LCFI5:
 139              		.cfi_def_cfa_register 7
 140 0086 0346     		mov	r3, r0
 141 0088 FB71     		strb	r3, [r7, #7]
 107:../src/lib/lpc177x_8x/Drivers/source/lpc177x_8x_gpio.c ****     GPIO_HalfWord_TypeDef *pFIO = NULL;
 142              		.loc 1 107 0
 143 008a 4FF00003 		mov	r3, #0
 144 008e FB60     		str	r3, [r7, #12]
 108:../src/lib/lpc177x_8x/Drivers/source/lpc177x_8x_gpio.c **** 
 109:../src/lib/lpc177x_8x/Drivers/source/lpc177x_8x_gpio.c ****     switch (portNum)
 145              		.loc 1 109 0
 146 0090 FB79     		ldrb	r3, [r7, #7]	@ zero_extendqisi2
 147 0092 052B     		cmp	r3, #5
 148 0094 20D8     		bhi	.L26
 149 0096 01A2     		adr	r2, .L23
 150 0098 52F823F0 		ldr	pc, [r2, r3, lsl #2]
 151              		.align	2
 152              	.L23:
 153 009c B5000000 		.word	.L17+1
 154 00a0 BB000000 		.word	.L18+1
 155 00a4 C1000000 		.word	.L19+1
 156 00a8 C7000000 		.word	.L20+1
 157 00ac CD000000 		.word	.L21+1
 158 00b0 D3000000 		.word	.L22+1
 159              	.L17:
 110:../src/lib/lpc177x_8x/Drivers/source/lpc177x_8x_gpio.c ****     {
 111:../src/lib/lpc177x_8x/Drivers/source/lpc177x_8x_gpio.c ****         case 0:
 112:../src/lib/lpc177x_8x/Drivers/source/lpc177x_8x_gpio.c ****             pFIO = GPIO0_HalfWord;
 160              		.loc 1 112 0
 161 00b4 0C4B     		ldr	r3, .L27
 162 00b6 FB60     		str	r3, [r7, #12]
 113:../src/lib/lpc177x_8x/Drivers/source/lpc177x_8x_gpio.c ****             break;
 163              		.loc 1 113 0
 164 00b8 0FE0     		b	.L24
 165              	.L18:
 114:../src/lib/lpc177x_8x/Drivers/source/lpc177x_8x_gpio.c **** 
 115:../src/lib/lpc177x_8x/Drivers/source/lpc177x_8x_gpio.c ****         case 1:
 116:../src/lib/lpc177x_8x/Drivers/source/lpc177x_8x_gpio.c ****             pFIO = GPIO1_HalfWord;
 166              		.loc 1 116 0
 167 00ba 0C4B     		ldr	r3, .L27+4
 168 00bc FB60     		str	r3, [r7, #12]
 117:../src/lib/lpc177x_8x/Drivers/source/lpc177x_8x_gpio.c ****             break;
 169              		.loc 1 117 0
 170 00be 0CE0     		b	.L24
 171              	.L19:
 118:../src/lib/lpc177x_8x/Drivers/source/lpc177x_8x_gpio.c **** 
 119:../src/lib/lpc177x_8x/Drivers/source/lpc177x_8x_gpio.c ****         case 2:
 120:../src/lib/lpc177x_8x/Drivers/source/lpc177x_8x_gpio.c ****             pFIO = GPIO2_HalfWord;
 172              		.loc 1 120 0
 173 00c0 0B4B     		ldr	r3, .L27+8
 174 00c2 FB60     		str	r3, [r7, #12]
 121:../src/lib/lpc177x_8x/Drivers/source/lpc177x_8x_gpio.c ****             break;
 175              		.loc 1 121 0
 176 00c4 09E0     		b	.L24
 177              	.L20:
 122:../src/lib/lpc177x_8x/Drivers/source/lpc177x_8x_gpio.c **** 
 123:../src/lib/lpc177x_8x/Drivers/source/lpc177x_8x_gpio.c ****         case 3:
 124:../src/lib/lpc177x_8x/Drivers/source/lpc177x_8x_gpio.c ****             pFIO = GPIO3_HalfWord;
 178              		.loc 1 124 0
 179 00c6 0B4B     		ldr	r3, .L27+12
 180 00c8 FB60     		str	r3, [r7, #12]
 125:../src/lib/lpc177x_8x/Drivers/source/lpc177x_8x_gpio.c ****             break;
 181              		.loc 1 125 0
 182 00ca 06E0     		b	.L24
 183              	.L21:
 126:../src/lib/lpc177x_8x/Drivers/source/lpc177x_8x_gpio.c **** 
 127:../src/lib/lpc177x_8x/Drivers/source/lpc177x_8x_gpio.c ****         case 4:
 128:../src/lib/lpc177x_8x/Drivers/source/lpc177x_8x_gpio.c ****             pFIO = GPIO4_HalfWord;
 184              		.loc 1 128 0
 185 00cc 0A4B     		ldr	r3, .L27+16
 186 00ce FB60     		str	r3, [r7, #12]
 129:../src/lib/lpc177x_8x/Drivers/source/lpc177x_8x_gpio.c ****             break;
 187              		.loc 1 129 0
 188 00d0 03E0     		b	.L24
 189              	.L22:
 130:../src/lib/lpc177x_8x/Drivers/source/lpc177x_8x_gpio.c **** 
 131:../src/lib/lpc177x_8x/Drivers/source/lpc177x_8x_gpio.c ****         case 5:
 132:../src/lib/lpc177x_8x/Drivers/source/lpc177x_8x_gpio.c ****             pFIO = GPIO5_HalfWord;
 190              		.loc 1 132 0
 191 00d2 0A4B     		ldr	r3, .L27+20
 192 00d4 FB60     		str	r3, [r7, #12]
 133:../src/lib/lpc177x_8x/Drivers/source/lpc177x_8x_gpio.c ****             break;
 193              		.loc 1 133 0
 194 00d6 00E0     		b	.L24
 195              	.L26:
 134:../src/lib/lpc177x_8x/Drivers/source/lpc177x_8x_gpio.c **** 
 135:../src/lib/lpc177x_8x/Drivers/source/lpc177x_8x_gpio.c ****         default:
 136:../src/lib/lpc177x_8x/Drivers/source/lpc177x_8x_gpio.c ****             break;
 196              		.loc 1 136 0
 197 00d8 00BF     		nop
 198              	.L24:
 137:../src/lib/lpc177x_8x/Drivers/source/lpc177x_8x_gpio.c ****     }
 138:../src/lib/lpc177x_8x/Drivers/source/lpc177x_8x_gpio.c **** 
 139:../src/lib/lpc177x_8x/Drivers/source/lpc177x_8x_gpio.c ****     return pFIO;
 199              		.loc 1 139 0
 200 00da FB68     		ldr	r3, [r7, #12]
 140:../src/lib/lpc177x_8x/Drivers/source/lpc177x_8x_gpio.c **** }
 201              		.loc 1 140 0
 202 00dc 1846     		mov	r0, r3
 203 00de 07F11407 		add	r7, r7, #20
 204 00e2 BD46     		mov	sp, r7
 205 00e4 80BC     		pop	{r7}
 206 00e6 7047     		bx	lr
 207              	.L28:
 208              		.align	2
 209              	.L27:
 210 00e8 00800920 		.word	537493504
 211 00ec 20800920 		.word	537493536
 212 00f0 40800920 		.word	537493568
 213 00f4 60800920 		.word	537493600
 214 00f8 80800920 		.word	537493632
 215 00fc A0800920 		.word	537493664
 216              		.cfi_endproc
 217              	.LFE56:
 219              		.align	2
 220              		.thumb
 221              		.thumb_func
 223              	FIO_ByteGetPointer:
 224              	.LFB57:
 141:../src/lib/lpc177x_8x/Drivers/source/lpc177x_8x_gpio.c **** 
 142:../src/lib/lpc177x_8x/Drivers/source/lpc177x_8x_gpio.c **** /*********************************************************************//**
 143:../src/lib/lpc177x_8x/Drivers/source/lpc177x_8x_gpio.c ****  * @brief       Get pointer to FIO peripheral in byte accessible style
 144:../src/lib/lpc177x_8x/Drivers/source/lpc177x_8x_gpio.c ****  *              due to FIO port
 145:../src/lib/lpc177x_8x/Drivers/source/lpc177x_8x_gpio.c ****  * @param[in]   portNum     Port Number value, should be in range from 0 to 4.
 146:../src/lib/lpc177x_8x/Drivers/source/lpc177x_8x_gpio.c ****  * @return      Pointer to FIO peripheral
 147:../src/lib/lpc177x_8x/Drivers/source/lpc177x_8x_gpio.c ****  **********************************************************************/
 148:../src/lib/lpc177x_8x/Drivers/source/lpc177x_8x_gpio.c **** static GPIO_Byte_TypeDef *FIO_ByteGetPointer(uint8_t portNum)
 149:../src/lib/lpc177x_8x/Drivers/source/lpc177x_8x_gpio.c **** {
 225              		.loc 1 149 0
 226              		.cfi_startproc
 227              		@ args = 0, pretend = 0, frame = 16
 228              		@ frame_needed = 1, uses_anonymous_args = 0
 229              		@ link register save eliminated.
 230 0100 80B4     		push	{r7}
 231              	.LCFI6:
 232              		.cfi_def_cfa_offset 4
 233              		.cfi_offset 7, -4
 234 0102 85B0     		sub	sp, sp, #20
 235              	.LCFI7:
 236              		.cfi_def_cfa_offset 24
 237 0104 00AF     		add	r7, sp, #0
 238              	.LCFI8:
 239              		.cfi_def_cfa_register 7
 240 0106 0346     		mov	r3, r0
 241 0108 FB71     		strb	r3, [r7, #7]
 150:../src/lib/lpc177x_8x/Drivers/source/lpc177x_8x_gpio.c ****     GPIO_Byte_TypeDef *pFIO = NULL;
 242              		.loc 1 150 0
 243 010a 4FF00003 		mov	r3, #0
 244 010e FB60     		str	r3, [r7, #12]
 151:../src/lib/lpc177x_8x/Drivers/source/lpc177x_8x_gpio.c **** 
 152:../src/lib/lpc177x_8x/Drivers/source/lpc177x_8x_gpio.c ****     switch (portNum)
 245              		.loc 1 152 0
 246 0110 FB79     		ldrb	r3, [r7, #7]	@ zero_extendqisi2
 247 0112 052B     		cmp	r3, #5
 248 0114 20D8     		bhi	.L40
 249 0116 01A2     		adr	r2, .L37
 250 0118 52F823F0 		ldr	pc, [r2, r3, lsl #2]
 251              		.align	2
 252              	.L37:
 253 011c 35010000 		.word	.L31+1
 254 0120 3B010000 		.word	.L32+1
 255 0124 41010000 		.word	.L33+1
 256 0128 47010000 		.word	.L34+1
 257 012c 4D010000 		.word	.L35+1
 258 0130 53010000 		.word	.L36+1
 259              	.L31:
 153:../src/lib/lpc177x_8x/Drivers/source/lpc177x_8x_gpio.c ****     {
 154:../src/lib/lpc177x_8x/Drivers/source/lpc177x_8x_gpio.c ****         case 0:
 155:../src/lib/lpc177x_8x/Drivers/source/lpc177x_8x_gpio.c ****             pFIO = GPIO0_Byte;
 260              		.loc 1 155 0
 261 0134 0C4B     		ldr	r3, .L41
 262 0136 FB60     		str	r3, [r7, #12]
 156:../src/lib/lpc177x_8x/Drivers/source/lpc177x_8x_gpio.c ****             break;
 263              		.loc 1 156 0
 264 0138 0FE0     		b	.L38
 265              	.L32:
 157:../src/lib/lpc177x_8x/Drivers/source/lpc177x_8x_gpio.c **** 
 158:../src/lib/lpc177x_8x/Drivers/source/lpc177x_8x_gpio.c ****         case 1:
 159:../src/lib/lpc177x_8x/Drivers/source/lpc177x_8x_gpio.c ****             pFIO = GPIO1_Byte;
 266              		.loc 1 159 0
 267 013a 0C4B     		ldr	r3, .L41+4
 268 013c FB60     		str	r3, [r7, #12]
 160:../src/lib/lpc177x_8x/Drivers/source/lpc177x_8x_gpio.c ****             break;
 269              		.loc 1 160 0
 270 013e 0CE0     		b	.L38
 271              	.L33:
 161:../src/lib/lpc177x_8x/Drivers/source/lpc177x_8x_gpio.c **** 
 162:../src/lib/lpc177x_8x/Drivers/source/lpc177x_8x_gpio.c ****         case 2:
 163:../src/lib/lpc177x_8x/Drivers/source/lpc177x_8x_gpio.c ****             pFIO = GPIO2_Byte;
 272              		.loc 1 163 0
 273 0140 0B4B     		ldr	r3, .L41+8
 274 0142 FB60     		str	r3, [r7, #12]
 164:../src/lib/lpc177x_8x/Drivers/source/lpc177x_8x_gpio.c ****             break;
 275              		.loc 1 164 0
 276 0144 09E0     		b	.L38
 277              	.L34:
 165:../src/lib/lpc177x_8x/Drivers/source/lpc177x_8x_gpio.c **** 
 166:../src/lib/lpc177x_8x/Drivers/source/lpc177x_8x_gpio.c ****         case 3:
 167:../src/lib/lpc177x_8x/Drivers/source/lpc177x_8x_gpio.c ****             pFIO = GPIO3_Byte;
 278              		.loc 1 167 0
 279 0146 0B4B     		ldr	r3, .L41+12
 280 0148 FB60     		str	r3, [r7, #12]
 168:../src/lib/lpc177x_8x/Drivers/source/lpc177x_8x_gpio.c ****             break;
 281              		.loc 1 168 0
 282 014a 06E0     		b	.L38
 283              	.L35:
 169:../src/lib/lpc177x_8x/Drivers/source/lpc177x_8x_gpio.c **** 
 170:../src/lib/lpc177x_8x/Drivers/source/lpc177x_8x_gpio.c ****         case 4:
 171:../src/lib/lpc177x_8x/Drivers/source/lpc177x_8x_gpio.c ****             pFIO = GPIO4_Byte;
 284              		.loc 1 171 0
 285 014c 0A4B     		ldr	r3, .L41+16
 286 014e FB60     		str	r3, [r7, #12]
 172:../src/lib/lpc177x_8x/Drivers/source/lpc177x_8x_gpio.c ****             break;
 287              		.loc 1 172 0
 288 0150 03E0     		b	.L38
 289              	.L36:
 173:../src/lib/lpc177x_8x/Drivers/source/lpc177x_8x_gpio.c **** 
 174:../src/lib/lpc177x_8x/Drivers/source/lpc177x_8x_gpio.c ****         case 5:
 175:../src/lib/lpc177x_8x/Drivers/source/lpc177x_8x_gpio.c ****             pFIO = GPIO5_Byte;
 290              		.loc 1 175 0
 291 0152 0A4B     		ldr	r3, .L41+20
 292 0154 FB60     		str	r3, [r7, #12]
 176:../src/lib/lpc177x_8x/Drivers/source/lpc177x_8x_gpio.c ****             break;
 293              		.loc 1 176 0
 294 0156 00E0     		b	.L38
 295              	.L40:
 177:../src/lib/lpc177x_8x/Drivers/source/lpc177x_8x_gpio.c **** 
 178:../src/lib/lpc177x_8x/Drivers/source/lpc177x_8x_gpio.c ****         default:
 179:../src/lib/lpc177x_8x/Drivers/source/lpc177x_8x_gpio.c ****             break;
 296              		.loc 1 179 0
 297 0158 00BF     		nop
 298              	.L38:
 180:../src/lib/lpc177x_8x/Drivers/source/lpc177x_8x_gpio.c ****     }
 181:../src/lib/lpc177x_8x/Drivers/source/lpc177x_8x_gpio.c **** 
 182:../src/lib/lpc177x_8x/Drivers/source/lpc177x_8x_gpio.c ****     return pFIO;
 299              		.loc 1 182 0
 300 015a FB68     		ldr	r3, [r7, #12]
 183:../src/lib/lpc177x_8x/Drivers/source/lpc177x_8x_gpio.c **** }
 301              		.loc 1 183 0
 302 015c 1846     		mov	r0, r3
 303 015e 07F11407 		add	r7, r7, #20
 304 0162 BD46     		mov	sp, r7
 305 0164 80BC     		pop	{r7}
 306 0166 7047     		bx	lr
 307              	.L42:
 308              		.align	2
 309              	.L41:
 310 0168 00800920 		.word	537493504
 311 016c 20800920 		.word	537493536
 312 0170 40800920 		.word	537493568
 313 0174 60800920 		.word	537493600
 314 0178 80800920 		.word	537493632
 315 017c A0800920 		.word	537493664
 316              		.cfi_endproc
 317              	.LFE57:
 319              		.align	2
 320              		.global	GPIO_Init
 321              		.thumb
 322              		.thumb_func
 324              	GPIO_Init:
 325              	.LFB58:
 184:../src/lib/lpc177x_8x/Drivers/source/lpc177x_8x_gpio.c **** 
 185:../src/lib/lpc177x_8x/Drivers/source/lpc177x_8x_gpio.c **** /* End of Private Functions --------------------------------------------------- */
 186:../src/lib/lpc177x_8x/Drivers/source/lpc177x_8x_gpio.c **** 
 187:../src/lib/lpc177x_8x/Drivers/source/lpc177x_8x_gpio.c **** 
 188:../src/lib/lpc177x_8x/Drivers/source/lpc177x_8x_gpio.c **** /* Public Functions ----------------------------------------------------------- */
 189:../src/lib/lpc177x_8x/Drivers/source/lpc177x_8x_gpio.c **** /** @addtogroup GPIO_Public_Functions
 190:../src/lib/lpc177x_8x/Drivers/source/lpc177x_8x_gpio.c ****  * @{
 191:../src/lib/lpc177x_8x/Drivers/source/lpc177x_8x_gpio.c ****  */
 192:../src/lib/lpc177x_8x/Drivers/source/lpc177x_8x_gpio.c **** 
 193:../src/lib/lpc177x_8x/Drivers/source/lpc177x_8x_gpio.c **** 
 194:../src/lib/lpc177x_8x/Drivers/source/lpc177x_8x_gpio.c **** /* GPIO ------------------------------------------------------------------------------ */
 195:../src/lib/lpc177x_8x/Drivers/source/lpc177x_8x_gpio.c **** 
 196:../src/lib/lpc177x_8x/Drivers/source/lpc177x_8x_gpio.c **** /*********************************************************************//**
 197:../src/lib/lpc177x_8x/Drivers/source/lpc177x_8x_gpio.c ****  * @brief       Initialize the GPIO component by power on the clock 
 198:../src/lib/lpc177x_8x/Drivers/source/lpc177x_8x_gpio.c ****  *              supplied to it.
 199:../src/lib/lpc177x_8x/Drivers/source/lpc177x_8x_gpio.c ****  * @return      None
 200:../src/lib/lpc177x_8x/Drivers/source/lpc177x_8x_gpio.c ****  *
 201:../src/lib/lpc177x_8x/Drivers/source/lpc177x_8x_gpio.c ****  * Note: 
 202:../src/lib/lpc177x_8x/Drivers/source/lpc177x_8x_gpio.c ****  **********************************************************************/
 203:../src/lib/lpc177x_8x/Drivers/source/lpc177x_8x_gpio.c **** void GPIO_Init(void)
 204:../src/lib/lpc177x_8x/Drivers/source/lpc177x_8x_gpio.c **** {
 326              		.loc 1 204 0
 327              		.cfi_startproc
 328              		@ args = 0, pretend = 0, frame = 0
 329              		@ frame_needed = 1, uses_anonymous_args = 0
 330 0180 80B5     		push	{r7, lr}
 331              	.LCFI9:
 332              		.cfi_def_cfa_offset 8
 333              		.cfi_offset 7, -8
 334              		.cfi_offset 14, -4
 335 0182 00AF     		add	r7, sp, #0
 336              	.LCFI10:
 337              		.cfi_def_cfa_register 7
 205:../src/lib/lpc177x_8x/Drivers/source/lpc177x_8x_gpio.c ****     CLKPWR_ConfigPPWR(CLKPWR_PCONP_PCGPIO, ENABLE);
 338              		.loc 1 205 0
 339 0184 4FF40040 		mov	r0, #32768
 340 0188 4FF00101 		mov	r1, #1
 341 018c FFF7FEFF 		bl	CLKPWR_ConfigPPWR
 206:../src/lib/lpc177x_8x/Drivers/source/lpc177x_8x_gpio.c **** 
 207:../src/lib/lpc177x_8x/Drivers/source/lpc177x_8x_gpio.c ****     return;
 342              		.loc 1 207 0
 343 0190 00BF     		nop
 208:../src/lib/lpc177x_8x/Drivers/source/lpc177x_8x_gpio.c **** }
 344              		.loc 1 208 0
 345 0192 80BD     		pop	{r7, pc}
 346              		.cfi_endproc
 347              	.LFE58:
 349              		.align	2
 350              		.global	GPIO_Deinit
 351              		.thumb
 352              		.thumb_func
 354              	GPIO_Deinit:
 355              	.LFB59:
 209:../src/lib/lpc177x_8x/Drivers/source/lpc177x_8x_gpio.c **** 
 210:../src/lib/lpc177x_8x/Drivers/source/lpc177x_8x_gpio.c **** 
 211:../src/lib/lpc177x_8x/Drivers/source/lpc177x_8x_gpio.c **** /*********************************************************************//**
 212:../src/lib/lpc177x_8x/Drivers/source/lpc177x_8x_gpio.c ****  * @brief       De-initialize the GPIO component by power off the clock 
 213:../src/lib/lpc177x_8x/Drivers/source/lpc177x_8x_gpio.c ****  *              supplied to it.
 214:../src/lib/lpc177x_8x/Drivers/source/lpc177x_8x_gpio.c ****  * @return      None
 215:../src/lib/lpc177x_8x/Drivers/source/lpc177x_8x_gpio.c ****  *
 216:../src/lib/lpc177x_8x/Drivers/source/lpc177x_8x_gpio.c ****  * Note: 
 217:../src/lib/lpc177x_8x/Drivers/source/lpc177x_8x_gpio.c ****  **********************************************************************/
 218:../src/lib/lpc177x_8x/Drivers/source/lpc177x_8x_gpio.c **** void GPIO_Deinit(void)
 219:../src/lib/lpc177x_8x/Drivers/source/lpc177x_8x_gpio.c **** {
 356              		.loc 1 219 0
 357              		.cfi_startproc
 358              		@ args = 0, pretend = 0, frame = 0
 359              		@ frame_needed = 1, uses_anonymous_args = 0
 360 0194 80B5     		push	{r7, lr}
 361              	.LCFI11:
 362              		.cfi_def_cfa_offset 8
 363              		.cfi_offset 7, -8
 364              		.cfi_offset 14, -4
 365 0196 00AF     		add	r7, sp, #0
 366              	.LCFI12:
 367              		.cfi_def_cfa_register 7
 220:../src/lib/lpc177x_8x/Drivers/source/lpc177x_8x_gpio.c ****     CLKPWR_ConfigPPWR(CLKPWR_PCONP_PCGPIO, DISABLE);
 368              		.loc 1 220 0
 369 0198 4FF40040 		mov	r0, #32768
 370 019c 4FF00001 		mov	r1, #0
 371 01a0 FFF7FEFF 		bl	CLKPWR_ConfigPPWR
 221:../src/lib/lpc177x_8x/Drivers/source/lpc177x_8x_gpio.c **** 
 222:../src/lib/lpc177x_8x/Drivers/source/lpc177x_8x_gpio.c ****     return;
 372              		.loc 1 222 0
 373 01a4 00BF     		nop
 223:../src/lib/lpc177x_8x/Drivers/source/lpc177x_8x_gpio.c **** }
 374              		.loc 1 223 0
 375 01a6 80BD     		pop	{r7, pc}
 376              		.cfi_endproc
 377              	.LFE59:
 379              		.align	2
 380              		.global	GPIO_SetDir
 381              		.thumb
 382              		.thumb_func
 384              	GPIO_SetDir:
 385              	.LFB60:
 224:../src/lib/lpc177x_8x/Drivers/source/lpc177x_8x_gpio.c **** 
 225:../src/lib/lpc177x_8x/Drivers/source/lpc177x_8x_gpio.c **** 
 226:../src/lib/lpc177x_8x/Drivers/source/lpc177x_8x_gpio.c **** /*********************************************************************//**
 227:../src/lib/lpc177x_8x/Drivers/source/lpc177x_8x_gpio.c ****  * @brief       Set Direction for GPIO port.
 228:../src/lib/lpc177x_8x/Drivers/source/lpc177x_8x_gpio.c ****  * @param[in]   portNum     Port Number value, should be in range from 0 to 4
 229:../src/lib/lpc177x_8x/Drivers/source/lpc177x_8x_gpio.c ****  * @param[in]   bitValue    Value that contains all bits to set direction,
 230:../src/lib/lpc177x_8x/Drivers/source/lpc177x_8x_gpio.c ****  *                          in range from 0 to 0xFFFFFFFF.
 231:../src/lib/lpc177x_8x/Drivers/source/lpc177x_8x_gpio.c ****  *                          example: value 0x5 to set direction for bit 0 and bit 1.
 232:../src/lib/lpc177x_8x/Drivers/source/lpc177x_8x_gpio.c ****  * @param[in]   dir         Direction value, should be:
 233:../src/lib/lpc177x_8x/Drivers/source/lpc177x_8x_gpio.c ****  *                          - 0: Input.
 234:../src/lib/lpc177x_8x/Drivers/source/lpc177x_8x_gpio.c ****  *                          - 1: Output.
 235:../src/lib/lpc177x_8x/Drivers/source/lpc177x_8x_gpio.c ****  * @return      None
 236:../src/lib/lpc177x_8x/Drivers/source/lpc177x_8x_gpio.c ****  *
 237:../src/lib/lpc177x_8x/Drivers/source/lpc177x_8x_gpio.c ****  * Note: All remaining bits that are not activated in bitValue (value '0')
 238:../src/lib/lpc177x_8x/Drivers/source/lpc177x_8x_gpio.c ****  * will not be effected by this function.
 239:../src/lib/lpc177x_8x/Drivers/source/lpc177x_8x_gpio.c ****  **********************************************************************/
 240:../src/lib/lpc177x_8x/Drivers/source/lpc177x_8x_gpio.c **** void GPIO_SetDir(uint8_t portNum, uint32_t bitValue, uint8_t dir)
 241:../src/lib/lpc177x_8x/Drivers/source/lpc177x_8x_gpio.c **** {
 386              		.loc 1 241 0
 387              		.cfi_startproc
 388              		@ args = 0, pretend = 0, frame = 16
 389              		@ frame_needed = 1, uses_anonymous_args = 0
 390 01a8 80B5     		push	{r7, lr}
 391              	.LCFI13:
 392              		.cfi_def_cfa_offset 8
 393              		.cfi_offset 7, -8
 394              		.cfi_offset 14, -4
 395 01aa 84B0     		sub	sp, sp, #16
 396              	.LCFI14:
 397              		.cfi_def_cfa_offset 24
 398 01ac 00AF     		add	r7, sp, #0
 399              	.LCFI15:
 400              		.cfi_def_cfa_register 7
 401 01ae 3960     		str	r1, [r7, #0]
 402 01b0 1346     		mov	r3, r2
 403 01b2 0246     		mov	r2, r0
 404 01b4 FA71     		strb	r2, [r7, #7]
 405 01b6 BB71     		strb	r3, [r7, #6]
 242:../src/lib/lpc177x_8x/Drivers/source/lpc177x_8x_gpio.c ****     LPC_GPIO_TypeDef *pGPIO = GPIO_GetPointer(portNum);
 406              		.loc 1 242 0
 407 01b8 FB79     		ldrb	r3, [r7, #7]	@ zero_extendqisi2
 408 01ba 1846     		mov	r0, r3
 409 01bc FFF720FF 		bl	GPIO_GetPointer
 410 01c0 F860     		str	r0, [r7, #12]
 243:../src/lib/lpc177x_8x/Drivers/source/lpc177x_8x_gpio.c **** 
 244:../src/lib/lpc177x_8x/Drivers/source/lpc177x_8x_gpio.c ****     if (pGPIO != NULL)
 411              		.loc 1 244 0
 412 01c2 FB68     		ldr	r3, [r7, #12]
 413 01c4 002B     		cmp	r3, #0
 414 01c6 11D0     		beq	.L47
 245:../src/lib/lpc177x_8x/Drivers/source/lpc177x_8x_gpio.c ****     {
 246:../src/lib/lpc177x_8x/Drivers/source/lpc177x_8x_gpio.c ****         // Enable Output
 247:../src/lib/lpc177x_8x/Drivers/source/lpc177x_8x_gpio.c ****         if (dir)
 415              		.loc 1 247 0
 416 01c8 BB79     		ldrb	r3, [r7, #6]	@ zero_extendqisi2
 417 01ca 002B     		cmp	r3, #0
 418 01cc 06D0     		beq	.L49
 248:../src/lib/lpc177x_8x/Drivers/source/lpc177x_8x_gpio.c ****         {
 249:../src/lib/lpc177x_8x/Drivers/source/lpc177x_8x_gpio.c ****             pGPIO->DIR |= bitValue;
 419              		.loc 1 249 0
 420 01ce FB68     		ldr	r3, [r7, #12]
 421 01d0 1A68     		ldr	r2, [r3, #0]
 422 01d2 3B68     		ldr	r3, [r7, #0]
 423 01d4 1A43     		orrs	r2, r2, r3
 424 01d6 FB68     		ldr	r3, [r7, #12]
 425 01d8 1A60     		str	r2, [r3, #0]
 426 01da 07E0     		b	.L47
 427              	.L49:
 250:../src/lib/lpc177x_8x/Drivers/source/lpc177x_8x_gpio.c ****         }
 251:../src/lib/lpc177x_8x/Drivers/source/lpc177x_8x_gpio.c ****         // Enable Input
 252:../src/lib/lpc177x_8x/Drivers/source/lpc177x_8x_gpio.c ****         else
 253:../src/lib/lpc177x_8x/Drivers/source/lpc177x_8x_gpio.c ****         {
 254:../src/lib/lpc177x_8x/Drivers/source/lpc177x_8x_gpio.c ****             pGPIO->DIR &= ~bitValue;
 428              		.loc 1 254 0
 429 01dc FB68     		ldr	r3, [r7, #12]
 430 01de 1A68     		ldr	r2, [r3, #0]
 431 01e0 3B68     		ldr	r3, [r7, #0]
 432 01e2 6FEA0303 		mvn	r3, r3
 433 01e6 1A40     		ands	r2, r2, r3
 434 01e8 FB68     		ldr	r3, [r7, #12]
 435 01ea 1A60     		str	r2, [r3, #0]
 436              	.L47:
 255:../src/lib/lpc177x_8x/Drivers/source/lpc177x_8x_gpio.c ****         }
 256:../src/lib/lpc177x_8x/Drivers/source/lpc177x_8x_gpio.c ****     }
 257:../src/lib/lpc177x_8x/Drivers/source/lpc177x_8x_gpio.c **** }
 437              		.loc 1 257 0
 438 01ec 07F11007 		add	r7, r7, #16
 439 01f0 BD46     		mov	sp, r7
 440 01f2 80BD     		pop	{r7, pc}
 441              		.cfi_endproc
 442              	.LFE60:
 444              		.align	2
 445              		.global	GPIO_SetValue
 446              		.thumb
 447              		.thumb_func
 449              	GPIO_SetValue:
 450              	.LFB61:
 258:../src/lib/lpc177x_8x/Drivers/source/lpc177x_8x_gpio.c **** 
 259:../src/lib/lpc177x_8x/Drivers/source/lpc177x_8x_gpio.c **** 
 260:../src/lib/lpc177x_8x/Drivers/source/lpc177x_8x_gpio.c **** /*********************************************************************//**
 261:../src/lib/lpc177x_8x/Drivers/source/lpc177x_8x_gpio.c ****  * @brief       Set Value for bits that have output direction on GPIO port.
 262:../src/lib/lpc177x_8x/Drivers/source/lpc177x_8x_gpio.c ****  * @param[in]   portNum     Port number value, should be in range from 0 to 4
 263:../src/lib/lpc177x_8x/Drivers/source/lpc177x_8x_gpio.c ****  * @param[in]   bitValue    Value that contains all bits on GPIO to set,
 264:../src/lib/lpc177x_8x/Drivers/source/lpc177x_8x_gpio.c ****  *                          in range from 0 to 0xFFFFFFFF.
 265:../src/lib/lpc177x_8x/Drivers/source/lpc177x_8x_gpio.c ****  *                          example: value 0x5 to set bit 0 and bit 1.
 266:../src/lib/lpc177x_8x/Drivers/source/lpc177x_8x_gpio.c ****  * @return      None
 267:../src/lib/lpc177x_8x/Drivers/source/lpc177x_8x_gpio.c ****  *
 268:../src/lib/lpc177x_8x/Drivers/source/lpc177x_8x_gpio.c ****  * Note:
 269:../src/lib/lpc177x_8x/Drivers/source/lpc177x_8x_gpio.c ****  * - For all bits that has been set as input direction, this function will
 270:../src/lib/lpc177x_8x/Drivers/source/lpc177x_8x_gpio.c ****  * not effect.
 271:../src/lib/lpc177x_8x/Drivers/source/lpc177x_8x_gpio.c ****  * - For all remaining bits that are not activated in bitValue (value '0')
 272:../src/lib/lpc177x_8x/Drivers/source/lpc177x_8x_gpio.c ****  * will not be effected by this function.
 273:../src/lib/lpc177x_8x/Drivers/source/lpc177x_8x_gpio.c ****  **********************************************************************/
 274:../src/lib/lpc177x_8x/Drivers/source/lpc177x_8x_gpio.c **** void GPIO_SetValue(uint8_t portNum, uint32_t bitValue)
 275:../src/lib/lpc177x_8x/Drivers/source/lpc177x_8x_gpio.c **** {
 451              		.loc 1 275 0
 452              		.cfi_startproc
 453              		@ args = 0, pretend = 0, frame = 16
 454              		@ frame_needed = 1, uses_anonymous_args = 0
 455 01f4 80B5     		push	{r7, lr}
 456              	.LCFI16:
 457              		.cfi_def_cfa_offset 8
 458              		.cfi_offset 7, -8
 459              		.cfi_offset 14, -4
 460 01f6 84B0     		sub	sp, sp, #16
 461              	.LCFI17:
 462              		.cfi_def_cfa_offset 24
 463 01f8 00AF     		add	r7, sp, #0
 464              	.LCFI18:
 465              		.cfi_def_cfa_register 7
 466 01fa 0346     		mov	r3, r0
 467 01fc 3960     		str	r1, [r7, #0]
 468 01fe FB71     		strb	r3, [r7, #7]
 276:../src/lib/lpc177x_8x/Drivers/source/lpc177x_8x_gpio.c ****     LPC_GPIO_TypeDef *pGPIO = GPIO_GetPointer(portNum);
 469              		.loc 1 276 0
 470 0200 FB79     		ldrb	r3, [r7, #7]	@ zero_extendqisi2
 471 0202 1846     		mov	r0, r3
 472 0204 FFF7FCFE 		bl	GPIO_GetPointer
 473 0208 F860     		str	r0, [r7, #12]
 277:../src/lib/lpc177x_8x/Drivers/source/lpc177x_8x_gpio.c **** 
 278:../src/lib/lpc177x_8x/Drivers/source/lpc177x_8x_gpio.c ****     if (pGPIO != NULL)
 474              		.loc 1 278 0
 475 020a FB68     		ldr	r3, [r7, #12]
 476 020c 002B     		cmp	r3, #0
 477 020e 02D0     		beq	.L50
 279:../src/lib/lpc177x_8x/Drivers/source/lpc177x_8x_gpio.c ****     {
 280:../src/lib/lpc177x_8x/Drivers/source/lpc177x_8x_gpio.c ****         pGPIO->SET = bitValue;
 478              		.loc 1 280 0
 479 0210 FB68     		ldr	r3, [r7, #12]
 480 0212 3A68     		ldr	r2, [r7, #0]
 481 0214 9A61     		str	r2, [r3, #24]
 482              	.L50:
 281:../src/lib/lpc177x_8x/Drivers/source/lpc177x_8x_gpio.c ****     }
 282:../src/lib/lpc177x_8x/Drivers/source/lpc177x_8x_gpio.c **** }
 483              		.loc 1 282 0
 484 0216 07F11007 		add	r7, r7, #16
 485 021a BD46     		mov	sp, r7
 486 021c 80BD     		pop	{r7, pc}
 487              		.cfi_endproc
 488              	.LFE61:
 490 021e 00BF     		.align	2
 491              		.global	GPIO_ClearValue
 492              		.thumb
 493              		.thumb_func
 495              	GPIO_ClearValue:
 496              	.LFB62:
 283:../src/lib/lpc177x_8x/Drivers/source/lpc177x_8x_gpio.c **** 
 284:../src/lib/lpc177x_8x/Drivers/source/lpc177x_8x_gpio.c **** /*********************************************************************//**
 285:../src/lib/lpc177x_8x/Drivers/source/lpc177x_8x_gpio.c ****  * @brief       Clear Value for bits that have output direction on GPIO port.
 286:../src/lib/lpc177x_8x/Drivers/source/lpc177x_8x_gpio.c ****  * @param[in]   portNum     Port number value, should be in range from 0 to 4
 287:../src/lib/lpc177x_8x/Drivers/source/lpc177x_8x_gpio.c ****  * @param[in]   bitValue    Value that contains all bits on GPIO to clear,
 288:../src/lib/lpc177x_8x/Drivers/source/lpc177x_8x_gpio.c ****  *                          in range from 0 to 0xFFFFFFFF.
 289:../src/lib/lpc177x_8x/Drivers/source/lpc177x_8x_gpio.c ****  *                          example: value 0x5 to clear bit 0 and bit 1.
 290:../src/lib/lpc177x_8x/Drivers/source/lpc177x_8x_gpio.c ****  * @return      None
 291:../src/lib/lpc177x_8x/Drivers/source/lpc177x_8x_gpio.c ****  *
 292:../src/lib/lpc177x_8x/Drivers/source/lpc177x_8x_gpio.c ****  * Note:
 293:../src/lib/lpc177x_8x/Drivers/source/lpc177x_8x_gpio.c ****  * - For all bits that has been set as input direction, this function will
 294:../src/lib/lpc177x_8x/Drivers/source/lpc177x_8x_gpio.c ****  * not effect.
 295:../src/lib/lpc177x_8x/Drivers/source/lpc177x_8x_gpio.c ****  * - For all remaining bits that are not activated in bitValue (value '0')
 296:../src/lib/lpc177x_8x/Drivers/source/lpc177x_8x_gpio.c ****  * will not be effected by this function.
 297:../src/lib/lpc177x_8x/Drivers/source/lpc177x_8x_gpio.c ****  **********************************************************************/
 298:../src/lib/lpc177x_8x/Drivers/source/lpc177x_8x_gpio.c **** void GPIO_ClearValue(uint8_t portNum, uint32_t bitValue)
 299:../src/lib/lpc177x_8x/Drivers/source/lpc177x_8x_gpio.c **** {
 497              		.loc 1 299 0
 498              		.cfi_startproc
 499              		@ args = 0, pretend = 0, frame = 16
 500              		@ frame_needed = 1, uses_anonymous_args = 0
 501 0220 80B5     		push	{r7, lr}
 502              	.LCFI19:
 503              		.cfi_def_cfa_offset 8
 504              		.cfi_offset 7, -8
 505              		.cfi_offset 14, -4
 506 0222 84B0     		sub	sp, sp, #16
 507              	.LCFI20:
 508              		.cfi_def_cfa_offset 24
 509 0224 00AF     		add	r7, sp, #0
 510              	.LCFI21:
 511              		.cfi_def_cfa_register 7
 512 0226 0346     		mov	r3, r0
 513 0228 3960     		str	r1, [r7, #0]
 514 022a FB71     		strb	r3, [r7, #7]
 300:../src/lib/lpc177x_8x/Drivers/source/lpc177x_8x_gpio.c ****     LPC_GPIO_TypeDef *pGPIO = GPIO_GetPointer(portNum);
 515              		.loc 1 300 0
 516 022c FB79     		ldrb	r3, [r7, #7]	@ zero_extendqisi2
 517 022e 1846     		mov	r0, r3
 518 0230 FFF7E6FE 		bl	GPIO_GetPointer
 519 0234 F860     		str	r0, [r7, #12]
 301:../src/lib/lpc177x_8x/Drivers/source/lpc177x_8x_gpio.c **** 
 302:../src/lib/lpc177x_8x/Drivers/source/lpc177x_8x_gpio.c ****     if (pGPIO != NULL)
 520              		.loc 1 302 0
 521 0236 FB68     		ldr	r3, [r7, #12]
 522 0238 002B     		cmp	r3, #0
 523 023a 02D0     		beq	.L52
 303:../src/lib/lpc177x_8x/Drivers/source/lpc177x_8x_gpio.c ****     {
 304:../src/lib/lpc177x_8x/Drivers/source/lpc177x_8x_gpio.c ****         pGPIO->CLR = bitValue;
 524              		.loc 1 304 0
 525 023c FB68     		ldr	r3, [r7, #12]
 526 023e 3A68     		ldr	r2, [r7, #0]
 527 0240 DA61     		str	r2, [r3, #28]
 528              	.L52:
 305:../src/lib/lpc177x_8x/Drivers/source/lpc177x_8x_gpio.c ****     }
 306:../src/lib/lpc177x_8x/Drivers/source/lpc177x_8x_gpio.c **** }
 529              		.loc 1 306 0
 530 0242 07F11007 		add	r7, r7, #16
 531 0246 BD46     		mov	sp, r7
 532 0248 80BD     		pop	{r7, pc}
 533              		.cfi_endproc
 534              	.LFE62:
 536 024a 00BF     		.align	2
 537              		.global	GPIO_OutputValue
 538              		.thumb
 539              		.thumb_func
 541              	GPIO_OutputValue:
 542              	.LFB63:
 307:../src/lib/lpc177x_8x/Drivers/source/lpc177x_8x_gpio.c **** 
 308:../src/lib/lpc177x_8x/Drivers/source/lpc177x_8x_gpio.c **** /*********************************************************************//**
 309:../src/lib/lpc177x_8x/Drivers/source/lpc177x_8x_gpio.c ****  * @brief       Output to the GPIO pin an expected value
 310:../src/lib/lpc177x_8x/Drivers/source/lpc177x_8x_gpio.c ****  * @param[in]   portNum     Port number value, should be in range from 0 to 4
 311:../src/lib/lpc177x_8x/Drivers/source/lpc177x_8x_gpio.c ****  * @param[in]   bitValue    Value that contains all bits on GPIO to clear,
 312:../src/lib/lpc177x_8x/Drivers/source/lpc177x_8x_gpio.c ****  *                          in range from 0 to 0xFFFFFFFF.
 313:../src/lib/lpc177x_8x/Drivers/source/lpc177x_8x_gpio.c ****  *                          example: value 0x5 to clear bit 0 and bit 1.
 314:../src/lib/lpc177x_8x/Drivers/source/lpc177x_8x_gpio.c ****  * @return      None
 315:../src/lib/lpc177x_8x/Drivers/source/lpc177x_8x_gpio.c ****  *
 316:../src/lib/lpc177x_8x/Drivers/source/lpc177x_8x_gpio.c ****  * Note:
 317:../src/lib/lpc177x_8x/Drivers/source/lpc177x_8x_gpio.c ****  * - For all bits that has been set as input direction, this function will
 318:../src/lib/lpc177x_8x/Drivers/source/lpc177x_8x_gpio.c ****  * not effect.
 319:../src/lib/lpc177x_8x/Drivers/source/lpc177x_8x_gpio.c ****  * - For all remaining bits that are not activated in bitValue (value '0')
 320:../src/lib/lpc177x_8x/Drivers/source/lpc177x_8x_gpio.c ****  * will not be effected by this function.
 321:../src/lib/lpc177x_8x/Drivers/source/lpc177x_8x_gpio.c ****  **********************************************************************/
 322:../src/lib/lpc177x_8x/Drivers/source/lpc177x_8x_gpio.c **** void GPIO_OutputValue(uint8_t portNum, uint32_t bitMask, uint8_t value)
 323:../src/lib/lpc177x_8x/Drivers/source/lpc177x_8x_gpio.c **** {
 543              		.loc 1 323 0
 544              		.cfi_startproc
 545              		@ args = 0, pretend = 0, frame = 8
 546              		@ frame_needed = 1, uses_anonymous_args = 0
 547 024c 80B5     		push	{r7, lr}
 548              	.LCFI22:
 549              		.cfi_def_cfa_offset 8
 550              		.cfi_offset 7, -8
 551              		.cfi_offset 14, -4
 552 024e 82B0     		sub	sp, sp, #8
 553              	.LCFI23:
 554              		.cfi_def_cfa_offset 16
 555 0250 00AF     		add	r7, sp, #0
 556              	.LCFI24:
 557              		.cfi_def_cfa_register 7
 558 0252 3960     		str	r1, [r7, #0]
 559 0254 1346     		mov	r3, r2
 560 0256 0246     		mov	r2, r0
 561 0258 FA71     		strb	r2, [r7, #7]
 562 025a BB71     		strb	r3, [r7, #6]
 324:../src/lib/lpc177x_8x/Drivers/source/lpc177x_8x_gpio.c ****     if (value == 0)
 563              		.loc 1 324 0
 564 025c BB79     		ldrb	r3, [r7, #6]	@ zero_extendqisi2
 565 025e 002B     		cmp	r3, #0
 566 0260 05D1     		bne	.L55
 325:../src/lib/lpc177x_8x/Drivers/source/lpc177x_8x_gpio.c ****     {
 326:../src/lib/lpc177x_8x/Drivers/source/lpc177x_8x_gpio.c ****         GPIO_ClearValue(portNum, bitMask);
 567              		.loc 1 326 0
 568 0262 FB79     		ldrb	r3, [r7, #7]	@ zero_extendqisi2
 569 0264 1846     		mov	r0, r3
 570 0266 3968     		ldr	r1, [r7, #0]
 571 0268 FFF7FEFF 		bl	GPIO_ClearValue
 572 026c 04E0     		b	.L54
 573              	.L55:
 327:../src/lib/lpc177x_8x/Drivers/source/lpc177x_8x_gpio.c ****     }
 328:../src/lib/lpc177x_8x/Drivers/source/lpc177x_8x_gpio.c ****     else
 329:../src/lib/lpc177x_8x/Drivers/source/lpc177x_8x_gpio.c ****     {
 330:../src/lib/lpc177x_8x/Drivers/source/lpc177x_8x_gpio.c ****         GPIO_SetValue(portNum, bitMask);
 574              		.loc 1 330 0
 575 026e FB79     		ldrb	r3, [r7, #7]	@ zero_extendqisi2
 576 0270 1846     		mov	r0, r3
 577 0272 3968     		ldr	r1, [r7, #0]
 578 0274 FFF7FEFF 		bl	GPIO_SetValue
 579              	.L54:
 331:../src/lib/lpc177x_8x/Drivers/source/lpc177x_8x_gpio.c ****     }
 332:../src/lib/lpc177x_8x/Drivers/source/lpc177x_8x_gpio.c **** 
 333:../src/lib/lpc177x_8x/Drivers/source/lpc177x_8x_gpio.c **** }
 580              		.loc 1 333 0
 581 0278 07F10807 		add	r7, r7, #8
 582 027c BD46     		mov	sp, r7
 583 027e 80BD     		pop	{r7, pc}
 584              		.cfi_endproc
 585              	.LFE63:
 587              		.align	2
 588              		.global	GPIO_ReadValue
 589              		.thumb
 590              		.thumb_func
 592              	GPIO_ReadValue:
 593              	.LFB64:
 334:../src/lib/lpc177x_8x/Drivers/source/lpc177x_8x_gpio.c **** 
 335:../src/lib/lpc177x_8x/Drivers/source/lpc177x_8x_gpio.c **** 
 336:../src/lib/lpc177x_8x/Drivers/source/lpc177x_8x_gpio.c **** /*********************************************************************//**
 337:../src/lib/lpc177x_8x/Drivers/source/lpc177x_8x_gpio.c ****  * @brief       Read Current state on port pin that have input direction of GPIO
 338:../src/lib/lpc177x_8x/Drivers/source/lpc177x_8x_gpio.c ****  * @param[in]   portNum     Port number to read value, in range from 0 to 4
 339:../src/lib/lpc177x_8x/Drivers/source/lpc177x_8x_gpio.c ****  * @return      Current value of GPIO port.
 340:../src/lib/lpc177x_8x/Drivers/source/lpc177x_8x_gpio.c ****  *
 341:../src/lib/lpc177x_8x/Drivers/source/lpc177x_8x_gpio.c ****  * Note: Return value contain state of each port pin (bit) on that GPIO regardless
 342:../src/lib/lpc177x_8x/Drivers/source/lpc177x_8x_gpio.c ****  * its direction is input or output.
 343:../src/lib/lpc177x_8x/Drivers/source/lpc177x_8x_gpio.c ****  **********************************************************************/
 344:../src/lib/lpc177x_8x/Drivers/source/lpc177x_8x_gpio.c **** uint32_t GPIO_ReadValue(uint8_t portNum)
 345:../src/lib/lpc177x_8x/Drivers/source/lpc177x_8x_gpio.c **** {
 594              		.loc 1 345 0
 595              		.cfi_startproc
 596              		@ args = 0, pretend = 0, frame = 16
 597              		@ frame_needed = 1, uses_anonymous_args = 0
 598 0280 80B5     		push	{r7, lr}
 599              	.LCFI25:
 600              		.cfi_def_cfa_offset 8
 601              		.cfi_offset 7, -8
 602              		.cfi_offset 14, -4
 603 0282 84B0     		sub	sp, sp, #16
 604              	.LCFI26:
 605              		.cfi_def_cfa_offset 24
 606 0284 00AF     		add	r7, sp, #0
 607              	.LCFI27:
 608              		.cfi_def_cfa_register 7
 609 0286 0346     		mov	r3, r0
 610 0288 FB71     		strb	r3, [r7, #7]
 346:../src/lib/lpc177x_8x/Drivers/source/lpc177x_8x_gpio.c ****     LPC_GPIO_TypeDef *pGPIO = GPIO_GetPointer(portNum);
 611              		.loc 1 346 0
 612 028a FB79     		ldrb	r3, [r7, #7]	@ zero_extendqisi2
 613 028c 1846     		mov	r0, r3
 614 028e FFF7B7FE 		bl	GPIO_GetPointer
 615 0292 F860     		str	r0, [r7, #12]
 347:../src/lib/lpc177x_8x/Drivers/source/lpc177x_8x_gpio.c **** 
 348:../src/lib/lpc177x_8x/Drivers/source/lpc177x_8x_gpio.c ****     if (pGPIO != NULL)
 616              		.loc 1 348 0
 617 0294 FB68     		ldr	r3, [r7, #12]
 618 0296 002B     		cmp	r3, #0
 619 0298 02D0     		beq	.L58
 349:../src/lib/lpc177x_8x/Drivers/source/lpc177x_8x_gpio.c ****     {
 350:../src/lib/lpc177x_8x/Drivers/source/lpc177x_8x_gpio.c ****         return pGPIO->PIN;
 620              		.loc 1 350 0
 621 029a FB68     		ldr	r3, [r7, #12]
 622 029c 5B69     		ldr	r3, [r3, #20]
 623 029e 01E0     		b	.L59
 624              	.L58:
 351:../src/lib/lpc177x_8x/Drivers/source/lpc177x_8x_gpio.c ****     }
 352:../src/lib/lpc177x_8x/Drivers/source/lpc177x_8x_gpio.c **** 
 353:../src/lib/lpc177x_8x/Drivers/source/lpc177x_8x_gpio.c ****     return (0);
 625              		.loc 1 353 0
 626 02a0 4FF00003 		mov	r3, #0
 627              	.L59:
 354:../src/lib/lpc177x_8x/Drivers/source/lpc177x_8x_gpio.c **** }
 628              		.loc 1 354 0
 629 02a4 1846     		mov	r0, r3
 630 02a6 07F11007 		add	r7, r7, #16
 631 02aa BD46     		mov	sp, r7
 632 02ac 80BD     		pop	{r7, pc}
 633              		.cfi_endproc
 634              	.LFE64:
 636 02ae 00BF     		.align	2
 637              		.global	GPIO_IntCmd
 638              		.thumb
 639              		.thumb_func
 641              	GPIO_IntCmd:
 642              	.LFB65:
 355:../src/lib/lpc177x_8x/Drivers/source/lpc177x_8x_gpio.c **** 
 356:../src/lib/lpc177x_8x/Drivers/source/lpc177x_8x_gpio.c **** /*********************************************************************//**
 357:../src/lib/lpc177x_8x/Drivers/source/lpc177x_8x_gpio.c ****  * @brief       Enable GPIO interrupt (just used for P0.0-P0.30, P2.0-P2.13)
 358:../src/lib/lpc177x_8x/Drivers/source/lpc177x_8x_gpio.c ****  * @param[in]   portNum     Port number to read value, should be: 0 or 2
 359:../src/lib/lpc177x_8x/Drivers/source/lpc177x_8x_gpio.c ****  * @param[in]   bitValue    Value that contains all bits on GPIO to enable,
 360:../src/lib/lpc177x_8x/Drivers/source/lpc177x_8x_gpio.c ****  *                          in range from 0 to 0xFFFFFFFF.
 361:../src/lib/lpc177x_8x/Drivers/source/lpc177x_8x_gpio.c ****  * @param[in]   edgeState   state of edge, should be:
 362:../src/lib/lpc177x_8x/Drivers/source/lpc177x_8x_gpio.c ****  *                          - 0: Rising edge
 363:../src/lib/lpc177x_8x/Drivers/source/lpc177x_8x_gpio.c ****  *                          - 1: Falling edge
 364:../src/lib/lpc177x_8x/Drivers/source/lpc177x_8x_gpio.c ****  * @return      None
 365:../src/lib/lpc177x_8x/Drivers/source/lpc177x_8x_gpio.c ****  **********************************************************************/
 366:../src/lib/lpc177x_8x/Drivers/source/lpc177x_8x_gpio.c **** void GPIO_IntCmd(uint8_t portNum, uint32_t bitValue, uint8_t edgeState)
 367:../src/lib/lpc177x_8x/Drivers/source/lpc177x_8x_gpio.c **** {
 643              		.loc 1 367 0
 644              		.cfi_startproc
 645              		@ args = 0, pretend = 0, frame = 8
 646              		@ frame_needed = 1, uses_anonymous_args = 0
 647              		@ link register save eliminated.
 648 02b0 80B4     		push	{r7}
 649              	.LCFI28:
 650              		.cfi_def_cfa_offset 4
 651              		.cfi_offset 7, -4
 652 02b2 83B0     		sub	sp, sp, #12
 653              	.LCFI29:
 654              		.cfi_def_cfa_offset 16
 655 02b4 00AF     		add	r7, sp, #0
 656              	.LCFI30:
 657              		.cfi_def_cfa_register 7
 658 02b6 3960     		str	r1, [r7, #0]
 659 02b8 1346     		mov	r3, r2
 660 02ba 0246     		mov	r2, r0
 661 02bc FA71     		strb	r2, [r7, #7]
 662 02be BB71     		strb	r3, [r7, #6]
 368:../src/lib/lpc177x_8x/Drivers/source/lpc177x_8x_gpio.c ****     if((portNum == 0)&&(edgeState == 0))
 663              		.loc 1 368 0
 664 02c0 FB79     		ldrb	r3, [r7, #7]	@ zero_extendqisi2
 665 02c2 002B     		cmp	r3, #0
 666 02c4 06D1     		bne	.L61
 667              		.loc 1 368 0 is_stmt 0 discriminator 1
 668 02c6 BB79     		ldrb	r3, [r7, #6]	@ zero_extendqisi2
 669 02c8 002B     		cmp	r3, #0
 670 02ca 03D1     		bne	.L61
 369:../src/lib/lpc177x_8x/Drivers/source/lpc177x_8x_gpio.c ****         LPC_GPIOINT->IO0IntEnR = bitValue;
 671              		.loc 1 369 0 is_stmt 1
 672 02cc 134B     		ldr	r3, .L66
 673 02ce 3A68     		ldr	r2, [r7, #0]
 674 02d0 1A61     		str	r2, [r3, #16]
 675 02d2 1EE0     		b	.L60
 676              	.L61:
 370:../src/lib/lpc177x_8x/Drivers/source/lpc177x_8x_gpio.c ****     else if ((portNum == 2)&&(edgeState == 0))
 677              		.loc 1 370 0
 678 02d4 FB79     		ldrb	r3, [r7, #7]	@ zero_extendqisi2
 679 02d6 022B     		cmp	r3, #2
 680 02d8 06D1     		bne	.L63
 681              		.loc 1 370 0 is_stmt 0 discriminator 1
 682 02da BB79     		ldrb	r3, [r7, #6]	@ zero_extendqisi2
 683 02dc 002B     		cmp	r3, #0
 684 02de 03D1     		bne	.L63
 371:../src/lib/lpc177x_8x/Drivers/source/lpc177x_8x_gpio.c ****         LPC_GPIOINT->IO2IntEnR = bitValue;
 685              		.loc 1 371 0 is_stmt 1
 686 02e0 0E4B     		ldr	r3, .L66
 687 02e2 3A68     		ldr	r2, [r7, #0]
 688 02e4 1A63     		str	r2, [r3, #48]
 689 02e6 14E0     		b	.L60
 690              	.L63:
 372:../src/lib/lpc177x_8x/Drivers/source/lpc177x_8x_gpio.c ****     else if ((portNum == 0)&&(edgeState == 1))
 691              		.loc 1 372 0
 692 02e8 FB79     		ldrb	r3, [r7, #7]	@ zero_extendqisi2
 693 02ea 002B     		cmp	r3, #0
 694 02ec 06D1     		bne	.L64
 695              		.loc 1 372 0 is_stmt 0 discriminator 1
 696 02ee BB79     		ldrb	r3, [r7, #6]	@ zero_extendqisi2
 697 02f0 012B     		cmp	r3, #1
 698 02f2 03D1     		bne	.L64
 373:../src/lib/lpc177x_8x/Drivers/source/lpc177x_8x_gpio.c ****         LPC_GPIOINT->IO0IntEnF = bitValue;
 699              		.loc 1 373 0 is_stmt 1
 700 02f4 094B     		ldr	r3, .L66
 701 02f6 3A68     		ldr	r2, [r7, #0]
 702 02f8 5A61     		str	r2, [r3, #20]
 703 02fa 0AE0     		b	.L60
 704              	.L64:
 374:../src/lib/lpc177x_8x/Drivers/source/lpc177x_8x_gpio.c ****     else if ((portNum == 2)&&(edgeState == 1))
 705              		.loc 1 374 0
 706 02fc FB79     		ldrb	r3, [r7, #7]	@ zero_extendqisi2
 707 02fe 022B     		cmp	r3, #2
 708 0300 06D1     		bne	.L65
 709              		.loc 1 374 0 is_stmt 0 discriminator 1
 710 0302 BB79     		ldrb	r3, [r7, #6]	@ zero_extendqisi2
 711 0304 012B     		cmp	r3, #1
 712 0306 03D1     		bne	.L65
 375:../src/lib/lpc177x_8x/Drivers/source/lpc177x_8x_gpio.c ****         LPC_GPIOINT->IO2IntEnF = bitValue;
 713              		.loc 1 375 0 is_stmt 1
 714 0308 044B     		ldr	r3, .L66
 715 030a 3A68     		ldr	r2, [r7, #0]
 716 030c 5A63     		str	r2, [r3, #52]
 717 030e 00E0     		b	.L60
 718              	.L65:
 376:../src/lib/lpc177x_8x/Drivers/source/lpc177x_8x_gpio.c ****     else
 377:../src/lib/lpc177x_8x/Drivers/source/lpc177x_8x_gpio.c ****         //Error
 378:../src/lib/lpc177x_8x/Drivers/source/lpc177x_8x_gpio.c ****         while(1);
 719              		.loc 1 378 0 discriminator 1
 720 0310 FEE7     		b	.L65
 721              	.L60:
 379:../src/lib/lpc177x_8x/Drivers/source/lpc177x_8x_gpio.c **** }
 722              		.loc 1 379 0
 723 0312 07F10C07 		add	r7, r7, #12
 724 0316 BD46     		mov	sp, r7
 725 0318 80BC     		pop	{r7}
 726 031a 7047     		bx	lr
 727              	.L67:
 728              		.align	2
 729              	.L66:
 730 031c 80800240 		.word	1073905792
 731              		.cfi_endproc
 732              	.LFE65:
 734              		.align	2
 735              		.global	GPIO_GetIntStatus
 736              		.thumb
 737              		.thumb_func
 739              	GPIO_GetIntStatus:
 740              	.LFB66:
 380:../src/lib/lpc177x_8x/Drivers/source/lpc177x_8x_gpio.c **** 
 381:../src/lib/lpc177x_8x/Drivers/source/lpc177x_8x_gpio.c **** /*********************************************************************//**
 382:../src/lib/lpc177x_8x/Drivers/source/lpc177x_8x_gpio.c ****  * @brief       Get GPIO Interrupt Status (just used for P0.0-P0.30, P2.0-P2.13)
 383:../src/lib/lpc177x_8x/Drivers/source/lpc177x_8x_gpio.c ****  * @param[in]   portNum     Port number to read value, should be: 0 or 2
 384:../src/lib/lpc177x_8x/Drivers/source/lpc177x_8x_gpio.c ****  * @param[in]   pinNum      Pin number, should be: 0..30(with port 0) and 0..13
 385:../src/lib/lpc177x_8x/Drivers/source/lpc177x_8x_gpio.c ****  *                          (with port 2)
 386:../src/lib/lpc177x_8x/Drivers/source/lpc177x_8x_gpio.c ****  * @param[in]   edgeState   state of edge, should be:
 387:../src/lib/lpc177x_8x/Drivers/source/lpc177x_8x_gpio.c ****  *                          - 0: Rising edge
 388:../src/lib/lpc177x_8x/Drivers/source/lpc177x_8x_gpio.c ****  *                          - 1: Falling edge
 389:../src/lib/lpc177x_8x/Drivers/source/lpc177x_8x_gpio.c ****  * @return      Bool    could be:
 390:../src/lib/lpc177x_8x/Drivers/source/lpc177x_8x_gpio.c ****  *                      - ENABLE: Interrupt has been generated due to a rising
 391:../src/lib/lpc177x_8x/Drivers/source/lpc177x_8x_gpio.c ****  *                              edge on P0.0
 392:../src/lib/lpc177x_8x/Drivers/source/lpc177x_8x_gpio.c ****  *                      - DISABLE: A rising edge has not been detected on P0.0
 393:../src/lib/lpc177x_8x/Drivers/source/lpc177x_8x_gpio.c ****  **********************************************************************/
 394:../src/lib/lpc177x_8x/Drivers/source/lpc177x_8x_gpio.c **** FunctionalState GPIO_GetIntStatus(uint8_t portNum, uint32_t pinNum, uint8_t edgeState)
 395:../src/lib/lpc177x_8x/Drivers/source/lpc177x_8x_gpio.c **** {
 741              		.loc 1 395 0
 742              		.cfi_startproc
 743              		@ args = 0, pretend = 0, frame = 8
 744              		@ frame_needed = 1, uses_anonymous_args = 0
 745              		@ link register save eliminated.
 746 0320 80B4     		push	{r7}
 747              	.LCFI31:
 748              		.cfi_def_cfa_offset 4
 749              		.cfi_offset 7, -4
 750 0322 83B0     		sub	sp, sp, #12
 751              	.LCFI32:
 752              		.cfi_def_cfa_offset 16
 753 0324 00AF     		add	r7, sp, #0
 754              	.LCFI33:
 755              		.cfi_def_cfa_register 7
 756 0326 3960     		str	r1, [r7, #0]
 757 0328 1346     		mov	r3, r2
 758 032a 0246     		mov	r2, r0
 759 032c FA71     		strb	r2, [r7, #7]
 760 032e BB71     		strb	r3, [r7, #6]
 396:../src/lib/lpc177x_8x/Drivers/source/lpc177x_8x_gpio.c ****     if((portNum == 0) && (edgeState == 0))//Rising Edge
 761              		.loc 1 396 0
 762 0330 FB79     		ldrb	r3, [r7, #7]	@ zero_extendqisi2
 763 0332 002B     		cmp	r3, #0
 764 0334 0FD1     		bne	.L69
 765              		.loc 1 396 0 is_stmt 0 discriminator 1
 766 0336 BB79     		ldrb	r3, [r7, #6]	@ zero_extendqisi2
 767 0338 002B     		cmp	r3, #0
 768 033a 0CD1     		bne	.L69
 397:../src/lib/lpc177x_8x/Drivers/source/lpc177x_8x_gpio.c ****         return GPIO_IS_ENABLED(((LPC_GPIOINT->IO0IntStatR)>>pinNum)& 0x1);
 769              		.loc 1 397 0 is_stmt 1
 770 033c 264B     		ldr	r3, .L74
 771 033e 5A68     		ldr	r2, [r3, #4]
 772 0340 3B68     		ldr	r3, [r7, #0]
 773 0342 22FA03F3 		lsr	r3, r2, r3
 774 0346 03F00103 		and	r3, r3, #1
 775 034a 002B     		cmp	r3, #0
 776 034c 0CBF     		ite	eq
 777 034e 0023     		moveq	r3, #0
 778 0350 0123     		movne	r3, #1
 779 0352 DBB2     		uxtb	r3, r3
 780 0354 39E0     		b	.L70
 781              	.L69:
 398:../src/lib/lpc177x_8x/Drivers/source/lpc177x_8x_gpio.c ****     else if ((portNum == 2) && (edgeState == 0))
 782              		.loc 1 398 0
 783 0356 FB79     		ldrb	r3, [r7, #7]	@ zero_extendqisi2
 784 0358 022B     		cmp	r3, #2
 785 035a 0FD1     		bne	.L71
 786              		.loc 1 398 0 is_stmt 0 discriminator 1
 787 035c BB79     		ldrb	r3, [r7, #6]	@ zero_extendqisi2
 788 035e 002B     		cmp	r3, #0
 789 0360 0CD1     		bne	.L71
 399:../src/lib/lpc177x_8x/Drivers/source/lpc177x_8x_gpio.c ****         return GPIO_IS_ENABLED(((LPC_GPIOINT->IO2IntStatR)>>pinNum)& 0x1);
 790              		.loc 1 399 0 is_stmt 1
 791 0362 1D4B     		ldr	r3, .L74
 792 0364 5A6A     		ldr	r2, [r3, #36]
 793 0366 3B68     		ldr	r3, [r7, #0]
 794 0368 22FA03F3 		lsr	r3, r2, r3
 795 036c 03F00103 		and	r3, r3, #1
 796 0370 002B     		cmp	r3, #0
 797 0372 0CBF     		ite	eq
 798 0374 0023     		moveq	r3, #0
 799 0376 0123     		movne	r3, #1
 800 0378 DBB2     		uxtb	r3, r3
 801 037a 26E0     		b	.L70
 802              	.L71:
 400:../src/lib/lpc177x_8x/Drivers/source/lpc177x_8x_gpio.c ****     else if ((portNum == 0) && (edgeState == 1))//Falling Edge
 803              		.loc 1 400 0
 804 037c FB79     		ldrb	r3, [r7, #7]	@ zero_extendqisi2
 805 037e 002B     		cmp	r3, #0
 806 0380 0FD1     		bne	.L72
 807              		.loc 1 400 0 is_stmt 0 discriminator 1
 808 0382 BB79     		ldrb	r3, [r7, #6]	@ zero_extendqisi2
 809 0384 012B     		cmp	r3, #1
 810 0386 0CD1     		bne	.L72
 401:../src/lib/lpc177x_8x/Drivers/source/lpc177x_8x_gpio.c ****         return GPIO_IS_ENABLED(((LPC_GPIOINT->IO0IntStatF)>>pinNum)& 0x1);
 811              		.loc 1 401 0 is_stmt 1
 812 0388 134B     		ldr	r3, .L74
 813 038a 9A68     		ldr	r2, [r3, #8]
 814 038c 3B68     		ldr	r3, [r7, #0]
 815 038e 22FA03F3 		lsr	r3, r2, r3
 816 0392 03F00103 		and	r3, r3, #1
 817 0396 002B     		cmp	r3, #0
 818 0398 0CBF     		ite	eq
 819 039a 0023     		moveq	r3, #0
 820 039c 0123     		movne	r3, #1
 821 039e DBB2     		uxtb	r3, r3
 822 03a0 13E0     		b	.L70
 823              	.L72:
 402:../src/lib/lpc177x_8x/Drivers/source/lpc177x_8x_gpio.c ****     else if ((portNum == 2) && (edgeState == 1))
 824              		.loc 1 402 0
 825 03a2 FB79     		ldrb	r3, [r7, #7]	@ zero_extendqisi2
 826 03a4 022B     		cmp	r3, #2
 827 03a6 0FD1     		bne	.L73
 828              		.loc 1 402 0 is_stmt 0 discriminator 1
 829 03a8 BB79     		ldrb	r3, [r7, #6]	@ zero_extendqisi2
 830 03aa 012B     		cmp	r3, #1
 831 03ac 0CD1     		bne	.L73
 403:../src/lib/lpc177x_8x/Drivers/source/lpc177x_8x_gpio.c ****         return GPIO_IS_ENABLED(((LPC_GPIOINT->IO2IntStatF)>>pinNum)& 0x1);
 832              		.loc 1 403 0 is_stmt 1
 833 03ae 0A4B     		ldr	r3, .L74
 834 03b0 9A6A     		ldr	r2, [r3, #40]
 835 03b2 3B68     		ldr	r3, [r7, #0]
 836 03b4 22FA03F3 		lsr	r3, r2, r3
 837 03b8 03F00103 		and	r3, r3, #1
 838 03bc 002B     		cmp	r3, #0
 839 03be 0CBF     		ite	eq
 840 03c0 0023     		moveq	r3, #0
 841 03c2 0123     		movne	r3, #1
 842 03c4 DBB2     		uxtb	r3, r3
 843 03c6 00E0     		b	.L70
 844              	.L73:
 404:../src/lib/lpc177x_8x/Drivers/source/lpc177x_8x_gpio.c ****     else
 405:../src/lib/lpc177x_8x/Drivers/source/lpc177x_8x_gpio.c ****         //Error
 406:../src/lib/lpc177x_8x/Drivers/source/lpc177x_8x_gpio.c ****         while(1);
 845              		.loc 1 406 0 discriminator 1
 846 03c8 FEE7     		b	.L73
 847              	.L70:
 407:../src/lib/lpc177x_8x/Drivers/source/lpc177x_8x_gpio.c **** }
 848              		.loc 1 407 0
 849 03ca 1846     		mov	r0, r3
 850 03cc 07F10C07 		add	r7, r7, #12
 851 03d0 BD46     		mov	sp, r7
 852 03d2 80BC     		pop	{r7}
 853 03d4 7047     		bx	lr
 854              	.L75:
 855 03d6 00BF     		.align	2
 856              	.L74:
 857 03d8 80800240 		.word	1073905792
 858              		.cfi_endproc
 859              	.LFE66:
 861              		.align	2
 862              		.global	GPIO_ClearInt
 863              		.thumb
 864              		.thumb_func
 866              	GPIO_ClearInt:
 867              	.LFB67:
 408:../src/lib/lpc177x_8x/Drivers/source/lpc177x_8x_gpio.c **** /*********************************************************************//**
 409:../src/lib/lpc177x_8x/Drivers/source/lpc177x_8x_gpio.c ****  * @brief       Clear GPIO interrupt (just used for P0.0-P0.30, P2.0-P2.13)
 410:../src/lib/lpc177x_8x/Drivers/source/lpc177x_8x_gpio.c ****  * @param[in]   portNum     Port number to read value, should be: 0 or 2
 411:../src/lib/lpc177x_8x/Drivers/source/lpc177x_8x_gpio.c ****  * @param[in]   bitValue    Value that contains all bits on GPIO to enable,
 412:../src/lib/lpc177x_8x/Drivers/source/lpc177x_8x_gpio.c ****  *                          in range from 0 to 0xFFFFFFFF.
 413:../src/lib/lpc177x_8x/Drivers/source/lpc177x_8x_gpio.c ****  * @return      None
 414:../src/lib/lpc177x_8x/Drivers/source/lpc177x_8x_gpio.c ****  **********************************************************************/
 415:../src/lib/lpc177x_8x/Drivers/source/lpc177x_8x_gpio.c **** void GPIO_ClearInt(uint8_t portNum, uint32_t bitValue)
 416:../src/lib/lpc177x_8x/Drivers/source/lpc177x_8x_gpio.c **** {
 868              		.loc 1 416 0
 869              		.cfi_startproc
 870              		@ args = 0, pretend = 0, frame = 8
 871              		@ frame_needed = 1, uses_anonymous_args = 0
 872              		@ link register save eliminated.
 873 03dc 80B4     		push	{r7}
 874              	.LCFI34:
 875              		.cfi_def_cfa_offset 4
 876              		.cfi_offset 7, -4
 877 03de 83B0     		sub	sp, sp, #12
 878              	.LCFI35:
 879              		.cfi_def_cfa_offset 16
 880 03e0 00AF     		add	r7, sp, #0
 881              	.LCFI36:
 882              		.cfi_def_cfa_register 7
 883 03e2 0346     		mov	r3, r0
 884 03e4 3960     		str	r1, [r7, #0]
 885 03e6 FB71     		strb	r3, [r7, #7]
 417:../src/lib/lpc177x_8x/Drivers/source/lpc177x_8x_gpio.c ****     if(portNum == 0)
 886              		.loc 1 417 0
 887 03e8 FB79     		ldrb	r3, [r7, #7]	@ zero_extendqisi2
 888 03ea 002B     		cmp	r3, #0
 889 03ec 03D1     		bne	.L77
 418:../src/lib/lpc177x_8x/Drivers/source/lpc177x_8x_gpio.c ****         LPC_GPIOINT->IO0IntClr = bitValue;
 890              		.loc 1 418 0
 891 03ee 084B     		ldr	r3, .L80
 892 03f0 3A68     		ldr	r2, [r7, #0]
 893 03f2 DA60     		str	r2, [r3, #12]
 894 03f4 07E0     		b	.L76
 895              	.L77:
 419:../src/lib/lpc177x_8x/Drivers/source/lpc177x_8x_gpio.c ****     else if (portNum == 2)
 896              		.loc 1 419 0
 897 03f6 FB79     		ldrb	r3, [r7, #7]	@ zero_extendqisi2
 898 03f8 022B     		cmp	r3, #2
 899 03fa 03D1     		bne	.L79
 420:../src/lib/lpc177x_8x/Drivers/source/lpc177x_8x_gpio.c ****         LPC_GPIOINT->IO2IntClr = bitValue;
 900              		.loc 1 420 0
 901 03fc 044B     		ldr	r3, .L80
 902 03fe 3A68     		ldr	r2, [r7, #0]
 903 0400 DA62     		str	r2, [r3, #44]
 904 0402 00E0     		b	.L76
 905              	.L79:
 421:../src/lib/lpc177x_8x/Drivers/source/lpc177x_8x_gpio.c ****     else
 422:../src/lib/lpc177x_8x/Drivers/source/lpc177x_8x_gpio.c ****         //Invalid portNum
 423:../src/lib/lpc177x_8x/Drivers/source/lpc177x_8x_gpio.c ****         while(1);
 906              		.loc 1 423 0 discriminator 1
 907 0404 FEE7     		b	.L79
 908              	.L76:
 424:../src/lib/lpc177x_8x/Drivers/source/lpc177x_8x_gpio.c **** }
 909              		.loc 1 424 0
 910 0406 07F10C07 		add	r7, r7, #12
 911 040a BD46     		mov	sp, r7
 912 040c 80BC     		pop	{r7}
 913 040e 7047     		bx	lr
 914              	.L81:
 915              		.align	2
 916              	.L80:
 917 0410 80800240 		.word	1073905792
 918              		.cfi_endproc
 919              	.LFE67:
 921              		.align	2
 922              		.global	FIO_SetDir
 923              		.thumb
 924              		.thumb_func
 926              	FIO_SetDir:
 927              	.LFB68:
 425:../src/lib/lpc177x_8x/Drivers/source/lpc177x_8x_gpio.c **** 
 426:../src/lib/lpc177x_8x/Drivers/source/lpc177x_8x_gpio.c **** /* FIO word accessible ----------------------------------------------------------------- */
 427:../src/lib/lpc177x_8x/Drivers/source/lpc177x_8x_gpio.c **** /* Stub function for FIO (word-accessible) style */
 428:../src/lib/lpc177x_8x/Drivers/source/lpc177x_8x_gpio.c **** 
 429:../src/lib/lpc177x_8x/Drivers/source/lpc177x_8x_gpio.c **** /**
 430:../src/lib/lpc177x_8x/Drivers/source/lpc177x_8x_gpio.c ****  * @brief The same with GPIO_SetDir()
 431:../src/lib/lpc177x_8x/Drivers/source/lpc177x_8x_gpio.c ****  */
 432:../src/lib/lpc177x_8x/Drivers/source/lpc177x_8x_gpio.c **** void FIO_SetDir(uint8_t portNum, uint32_t bitValue, uint8_t dir)
 433:../src/lib/lpc177x_8x/Drivers/source/lpc177x_8x_gpio.c **** {
 928              		.loc 1 433 0
 929              		.cfi_startproc
 930              		@ args = 0, pretend = 0, frame = 8
 931              		@ frame_needed = 1, uses_anonymous_args = 0
 932 0414 80B5     		push	{r7, lr}
 933              	.LCFI37:
 934              		.cfi_def_cfa_offset 8
 935              		.cfi_offset 7, -8
 936              		.cfi_offset 14, -4
 937 0416 82B0     		sub	sp, sp, #8
 938              	.LCFI38:
 939              		.cfi_def_cfa_offset 16
 940 0418 00AF     		add	r7, sp, #0
 941              	.LCFI39:
 942              		.cfi_def_cfa_register 7
 943 041a 3960     		str	r1, [r7, #0]
 944 041c 1346     		mov	r3, r2
 945 041e 0246     		mov	r2, r0
 946 0420 FA71     		strb	r2, [r7, #7]
 947 0422 BB71     		strb	r3, [r7, #6]
 434:../src/lib/lpc177x_8x/Drivers/source/lpc177x_8x_gpio.c ****     GPIO_SetDir(portNum, bitValue, dir);
 948              		.loc 1 434 0
 949 0424 FA79     		ldrb	r2, [r7, #7]	@ zero_extendqisi2
 950 0426 BB79     		ldrb	r3, [r7, #6]	@ zero_extendqisi2
 951 0428 1046     		mov	r0, r2
 952 042a 3968     		ldr	r1, [r7, #0]
 953 042c 1A46     		mov	r2, r3
 954 042e FFF7FEFF 		bl	GPIO_SetDir
 435:../src/lib/lpc177x_8x/Drivers/source/lpc177x_8x_gpio.c **** }
 955              		.loc 1 435 0
 956 0432 07F10807 		add	r7, r7, #8
 957 0436 BD46     		mov	sp, r7
 958 0438 80BD     		pop	{r7, pc}
 959              		.cfi_endproc
 960              	.LFE68:
 962 043a 00BF     		.align	2
 963              		.global	FIO_SetValue
 964              		.thumb
 965              		.thumb_func
 967              	FIO_SetValue:
 968              	.LFB69:
 436:../src/lib/lpc177x_8x/Drivers/source/lpc177x_8x_gpio.c **** 
 437:../src/lib/lpc177x_8x/Drivers/source/lpc177x_8x_gpio.c **** /**
 438:../src/lib/lpc177x_8x/Drivers/source/lpc177x_8x_gpio.c ****  * @brief The same with GPIO_SetValue()
 439:../src/lib/lpc177x_8x/Drivers/source/lpc177x_8x_gpio.c ****  */
 440:../src/lib/lpc177x_8x/Drivers/source/lpc177x_8x_gpio.c **** void FIO_SetValue(uint8_t portNum, uint32_t bitValue)
 441:../src/lib/lpc177x_8x/Drivers/source/lpc177x_8x_gpio.c **** {
 969              		.loc 1 441 0
 970              		.cfi_startproc
 971              		@ args = 0, pretend = 0, frame = 8
 972              		@ frame_needed = 1, uses_anonymous_args = 0
 973 043c 80B5     		push	{r7, lr}
 974              	.LCFI40:
 975              		.cfi_def_cfa_offset 8
 976              		.cfi_offset 7, -8
 977              		.cfi_offset 14, -4
 978 043e 82B0     		sub	sp, sp, #8
 979              	.LCFI41:
 980              		.cfi_def_cfa_offset 16
 981 0440 00AF     		add	r7, sp, #0
 982              	.LCFI42:
 983              		.cfi_def_cfa_register 7
 984 0442 0346     		mov	r3, r0
 985 0444 3960     		str	r1, [r7, #0]
 986 0446 FB71     		strb	r3, [r7, #7]
 442:../src/lib/lpc177x_8x/Drivers/source/lpc177x_8x_gpio.c ****     GPIO_SetValue(portNum, bitValue);
 987              		.loc 1 442 0
 988 0448 FB79     		ldrb	r3, [r7, #7]	@ zero_extendqisi2
 989 044a 1846     		mov	r0, r3
 990 044c 3968     		ldr	r1, [r7, #0]
 991 044e FFF7FEFF 		bl	GPIO_SetValue
 443:../src/lib/lpc177x_8x/Drivers/source/lpc177x_8x_gpio.c **** }
 992              		.loc 1 443 0
 993 0452 07F10807 		add	r7, r7, #8
 994 0456 BD46     		mov	sp, r7
 995 0458 80BD     		pop	{r7, pc}
 996              		.cfi_endproc
 997              	.LFE69:
 999 045a 00BF     		.align	2
 1000              		.global	FIO_ClearValue
 1001              		.thumb
 1002              		.thumb_func
 1004              	FIO_ClearValue:
 1005              	.LFB70:
 444:../src/lib/lpc177x_8x/Drivers/source/lpc177x_8x_gpio.c **** 
 445:../src/lib/lpc177x_8x/Drivers/source/lpc177x_8x_gpio.c **** /**
 446:../src/lib/lpc177x_8x/Drivers/source/lpc177x_8x_gpio.c ****  * @brief The same with GPIO_ClearValue()
 447:../src/lib/lpc177x_8x/Drivers/source/lpc177x_8x_gpio.c ****  */
 448:../src/lib/lpc177x_8x/Drivers/source/lpc177x_8x_gpio.c **** void FIO_ClearValue(uint8_t portNum, uint32_t bitValue)
 449:../src/lib/lpc177x_8x/Drivers/source/lpc177x_8x_gpio.c **** {
 1006              		.loc 1 449 0
 1007              		.cfi_startproc
 1008              		@ args = 0, pretend = 0, frame = 8
 1009              		@ frame_needed = 1, uses_anonymous_args = 0
 1010 045c 80B5     		push	{r7, lr}
 1011              	.LCFI43:
 1012              		.cfi_def_cfa_offset 8
 1013              		.cfi_offset 7, -8
 1014              		.cfi_offset 14, -4
 1015 045e 82B0     		sub	sp, sp, #8
 1016              	.LCFI44:
 1017              		.cfi_def_cfa_offset 16
 1018 0460 00AF     		add	r7, sp, #0
 1019              	.LCFI45:
 1020              		.cfi_def_cfa_register 7
 1021 0462 0346     		mov	r3, r0
 1022 0464 3960     		str	r1, [r7, #0]
 1023 0466 FB71     		strb	r3, [r7, #7]
 450:../src/lib/lpc177x_8x/Drivers/source/lpc177x_8x_gpio.c ****     GPIO_ClearValue(portNum, bitValue);
 1024              		.loc 1 450 0
 1025 0468 FB79     		ldrb	r3, [r7, #7]	@ zero_extendqisi2
 1026 046a 1846     		mov	r0, r3
 1027 046c 3968     		ldr	r1, [r7, #0]
 1028 046e FFF7FEFF 		bl	GPIO_ClearValue
 451:../src/lib/lpc177x_8x/Drivers/source/lpc177x_8x_gpio.c **** }
 1029              		.loc 1 451 0
 1030 0472 07F10807 		add	r7, r7, #8
 1031 0476 BD46     		mov	sp, r7
 1032 0478 80BD     		pop	{r7, pc}
 1033              		.cfi_endproc
 1034              	.LFE70:
 1036 047a 00BF     		.align	2
 1037              		.global	FIO_ReadValue
 1038              		.thumb
 1039              		.thumb_func
 1041              	FIO_ReadValue:
 1042              	.LFB71:
 452:../src/lib/lpc177x_8x/Drivers/source/lpc177x_8x_gpio.c **** 
 453:../src/lib/lpc177x_8x/Drivers/source/lpc177x_8x_gpio.c **** /**
 454:../src/lib/lpc177x_8x/Drivers/source/lpc177x_8x_gpio.c ****  * @brief The same with GPIO_ReadValue()
 455:../src/lib/lpc177x_8x/Drivers/source/lpc177x_8x_gpio.c ****  */
 456:../src/lib/lpc177x_8x/Drivers/source/lpc177x_8x_gpio.c **** uint32_t FIO_ReadValue(uint8_t portNum)
 457:../src/lib/lpc177x_8x/Drivers/source/lpc177x_8x_gpio.c **** {
 1043              		.loc 1 457 0
 1044              		.cfi_startproc
 1045              		@ args = 0, pretend = 0, frame = 8
 1046              		@ frame_needed = 1, uses_anonymous_args = 0
 1047 047c 80B5     		push	{r7, lr}
 1048              	.LCFI46:
 1049              		.cfi_def_cfa_offset 8
 1050              		.cfi_offset 7, -8
 1051              		.cfi_offset 14, -4
 1052 047e 82B0     		sub	sp, sp, #8
 1053              	.LCFI47:
 1054              		.cfi_def_cfa_offset 16
 1055 0480 00AF     		add	r7, sp, #0
 1056              	.LCFI48:
 1057              		.cfi_def_cfa_register 7
 1058 0482 0346     		mov	r3, r0
 1059 0484 FB71     		strb	r3, [r7, #7]
 458:../src/lib/lpc177x_8x/Drivers/source/lpc177x_8x_gpio.c ****     return (GPIO_ReadValue(portNum));
 1060              		.loc 1 458 0
 1061 0486 FB79     		ldrb	r3, [r7, #7]	@ zero_extendqisi2
 1062 0488 1846     		mov	r0, r3
 1063 048a FFF7FEFF 		bl	GPIO_ReadValue
 1064 048e 0346     		mov	r3, r0
 459:../src/lib/lpc177x_8x/Drivers/source/lpc177x_8x_gpio.c **** }
 1065              		.loc 1 459 0
 1066 0490 1846     		mov	r0, r3
 1067 0492 07F10807 		add	r7, r7, #8
 1068 0496 BD46     		mov	sp, r7
 1069 0498 80BD     		pop	{r7, pc}
 1070              		.cfi_endproc
 1071              	.LFE71:
 1073 049a 00BF     		.align	2
 1074              		.global	FIO_IntCmd
 1075              		.thumb
 1076              		.thumb_func
 1078              	FIO_IntCmd:
 1079              	.LFB72:
 460:../src/lib/lpc177x_8x/Drivers/source/lpc177x_8x_gpio.c **** 
 461:../src/lib/lpc177x_8x/Drivers/source/lpc177x_8x_gpio.c **** /**
 462:../src/lib/lpc177x_8x/Drivers/source/lpc177x_8x_gpio.c ****  * @brief The same with GPIO_IntCmd()
 463:../src/lib/lpc177x_8x/Drivers/source/lpc177x_8x_gpio.c ****  */
 464:../src/lib/lpc177x_8x/Drivers/source/lpc177x_8x_gpio.c **** void FIO_IntCmd(uint8_t portNum, uint32_t bitValue, uint8_t edgeState)
 465:../src/lib/lpc177x_8x/Drivers/source/lpc177x_8x_gpio.c **** {
 1080              		.loc 1 465 0
 1081              		.cfi_startproc
 1082              		@ args = 0, pretend = 0, frame = 8
 1083              		@ frame_needed = 1, uses_anonymous_args = 0
 1084 049c 80B5     		push	{r7, lr}
 1085              	.LCFI49:
 1086              		.cfi_def_cfa_offset 8
 1087              		.cfi_offset 7, -8
 1088              		.cfi_offset 14, -4
 1089 049e 82B0     		sub	sp, sp, #8
 1090              	.LCFI50:
 1091              		.cfi_def_cfa_offset 16
 1092 04a0 00AF     		add	r7, sp, #0
 1093              	.LCFI51:
 1094              		.cfi_def_cfa_register 7
 1095 04a2 3960     		str	r1, [r7, #0]
 1096 04a4 1346     		mov	r3, r2
 1097 04a6 0246     		mov	r2, r0
 1098 04a8 FA71     		strb	r2, [r7, #7]
 1099 04aa BB71     		strb	r3, [r7, #6]
 466:../src/lib/lpc177x_8x/Drivers/source/lpc177x_8x_gpio.c ****     GPIO_IntCmd(portNum, bitValue, edgeState);
 1100              		.loc 1 466 0
 1101 04ac FA79     		ldrb	r2, [r7, #7]	@ zero_extendqisi2
 1102 04ae BB79     		ldrb	r3, [r7, #6]	@ zero_extendqisi2
 1103 04b0 1046     		mov	r0, r2
 1104 04b2 3968     		ldr	r1, [r7, #0]
 1105 04b4 1A46     		mov	r2, r3
 1106 04b6 FFF7FEFF 		bl	GPIO_IntCmd
 467:../src/lib/lpc177x_8x/Drivers/source/lpc177x_8x_gpio.c **** }
 1107              		.loc 1 467 0
 1108 04ba 07F10807 		add	r7, r7, #8
 1109 04be BD46     		mov	sp, r7
 1110 04c0 80BD     		pop	{r7, pc}
 1111              		.cfi_endproc
 1112              	.LFE72:
 1114 04c2 00BF     		.align	2
 1115              		.global	FIO_GetIntStatus
 1116              		.thumb
 1117              		.thumb_func
 1119              	FIO_GetIntStatus:
 1120              	.LFB73:
 468:../src/lib/lpc177x_8x/Drivers/source/lpc177x_8x_gpio.c **** 
 469:../src/lib/lpc177x_8x/Drivers/source/lpc177x_8x_gpio.c **** /**
 470:../src/lib/lpc177x_8x/Drivers/source/lpc177x_8x_gpio.c ****  * @brief The same with GPIO_GetIntStatus()
 471:../src/lib/lpc177x_8x/Drivers/source/lpc177x_8x_gpio.c ****  */
 472:../src/lib/lpc177x_8x/Drivers/source/lpc177x_8x_gpio.c **** FunctionalState FIO_GetIntStatus(uint8_t portNum, uint32_t pinNum, uint8_t edgeState)
 473:../src/lib/lpc177x_8x/Drivers/source/lpc177x_8x_gpio.c **** {
 1121              		.loc 1 473 0
 1122              		.cfi_startproc
 1123              		@ args = 0, pretend = 0, frame = 8
 1124              		@ frame_needed = 1, uses_anonymous_args = 0
 1125 04c4 80B5     		push	{r7, lr}
 1126              	.LCFI52:
 1127              		.cfi_def_cfa_offset 8
 1128              		.cfi_offset 7, -8
 1129              		.cfi_offset 14, -4
 1130 04c6 82B0     		sub	sp, sp, #8
 1131              	.LCFI53:
 1132              		.cfi_def_cfa_offset 16
 1133 04c8 00AF     		add	r7, sp, #0
 1134              	.LCFI54:
 1135              		.cfi_def_cfa_register 7
 1136 04ca 3960     		str	r1, [r7, #0]
 1137 04cc 1346     		mov	r3, r2
 1138 04ce 0246     		mov	r2, r0
 1139 04d0 FA71     		strb	r2, [r7, #7]
 1140 04d2 BB71     		strb	r3, [r7, #6]
 474:../src/lib/lpc177x_8x/Drivers/source/lpc177x_8x_gpio.c ****     return (GPIO_GetIntStatus(portNum, pinNum, edgeState));
 1141              		.loc 1 474 0
 1142 04d4 FA79     		ldrb	r2, [r7, #7]	@ zero_extendqisi2
 1143 04d6 BB79     		ldrb	r3, [r7, #6]	@ zero_extendqisi2
 1144 04d8 1046     		mov	r0, r2
 1145 04da 3968     		ldr	r1, [r7, #0]
 1146 04dc 1A46     		mov	r2, r3
 1147 04de FFF7FEFF 		bl	GPIO_GetIntStatus
 1148 04e2 0346     		mov	r3, r0
 475:../src/lib/lpc177x_8x/Drivers/source/lpc177x_8x_gpio.c **** }
 1149              		.loc 1 475 0
 1150 04e4 1846     		mov	r0, r3
 1151 04e6 07F10807 		add	r7, r7, #8
 1152 04ea BD46     		mov	sp, r7
 1153 04ec 80BD     		pop	{r7, pc}
 1154              		.cfi_endproc
 1155              	.LFE73:
 1157 04ee 00BF     		.align	2
 1158              		.global	FIO_ClearInt
 1159              		.thumb
 1160              		.thumb_func
 1162              	FIO_ClearInt:
 1163              	.LFB74:
 476:../src/lib/lpc177x_8x/Drivers/source/lpc177x_8x_gpio.c **** 
 477:../src/lib/lpc177x_8x/Drivers/source/lpc177x_8x_gpio.c **** /**
 478:../src/lib/lpc177x_8x/Drivers/source/lpc177x_8x_gpio.c ****  * @brief The same with GPIO_ClearInt()
 479:../src/lib/lpc177x_8x/Drivers/source/lpc177x_8x_gpio.c ****  */
 480:../src/lib/lpc177x_8x/Drivers/source/lpc177x_8x_gpio.c **** void FIO_ClearInt(uint8_t portNum, uint32_t bitValue)
 481:../src/lib/lpc177x_8x/Drivers/source/lpc177x_8x_gpio.c **** {
 1164              		.loc 1 481 0
 1165              		.cfi_startproc
 1166              		@ args = 0, pretend = 0, frame = 8
 1167              		@ frame_needed = 1, uses_anonymous_args = 0
 1168 04f0 80B5     		push	{r7, lr}
 1169              	.LCFI55:
 1170              		.cfi_def_cfa_offset 8
 1171              		.cfi_offset 7, -8
 1172              		.cfi_offset 14, -4
 1173 04f2 82B0     		sub	sp, sp, #8
 1174              	.LCFI56:
 1175              		.cfi_def_cfa_offset 16
 1176 04f4 00AF     		add	r7, sp, #0
 1177              	.LCFI57:
 1178              		.cfi_def_cfa_register 7
 1179 04f6 0346     		mov	r3, r0
 1180 04f8 3960     		str	r1, [r7, #0]
 1181 04fa FB71     		strb	r3, [r7, #7]
 482:../src/lib/lpc177x_8x/Drivers/source/lpc177x_8x_gpio.c ****     GPIO_ClearInt(portNum, bitValue);
 1182              		.loc 1 482 0
 1183 04fc FB79     		ldrb	r3, [r7, #7]	@ zero_extendqisi2
 1184 04fe 1846     		mov	r0, r3
 1185 0500 3968     		ldr	r1, [r7, #0]
 1186 0502 FFF7FEFF 		bl	GPIO_ClearInt
 483:../src/lib/lpc177x_8x/Drivers/source/lpc177x_8x_gpio.c **** }
 1187              		.loc 1 483 0
 1188 0506 07F10807 		add	r7, r7, #8
 1189 050a BD46     		mov	sp, r7
 1190 050c 80BD     		pop	{r7, pc}
 1191              		.cfi_endproc
 1192              	.LFE74:
 1194 050e 00BF     		.align	2
 1195              		.global	FIO_SetMask
 1196              		.thumb
 1197              		.thumb_func
 1199              	FIO_SetMask:
 1200              	.LFB75:
 484:../src/lib/lpc177x_8x/Drivers/source/lpc177x_8x_gpio.c **** /*********************************************************************//**
 485:../src/lib/lpc177x_8x/Drivers/source/lpc177x_8x_gpio.c ****  * @brief       Set mask value for bits in FIO port
 486:../src/lib/lpc177x_8x/Drivers/source/lpc177x_8x_gpio.c ****  * @param[in]   portNum     Port number, in range from 0 to 4
 487:../src/lib/lpc177x_8x/Drivers/source/lpc177x_8x_gpio.c ****  * @param[in]   bitValue    Value that contains all bits in to set,
 488:../src/lib/lpc177x_8x/Drivers/source/lpc177x_8x_gpio.c ****  *                          in range from 0 to 0xFFFFFFFF.
 489:../src/lib/lpc177x_8x/Drivers/source/lpc177x_8x_gpio.c ****  * @param[in]   maskValue   Mask value contains state value for each bit:
 490:../src/lib/lpc177x_8x/Drivers/source/lpc177x_8x_gpio.c ****  *                          - 0: not mask.
 491:../src/lib/lpc177x_8x/Drivers/source/lpc177x_8x_gpio.c ****  *                          - 1: mask.
 492:../src/lib/lpc177x_8x/Drivers/source/lpc177x_8x_gpio.c ****  * @return      None
 493:../src/lib/lpc177x_8x/Drivers/source/lpc177x_8x_gpio.c ****  *
 494:../src/lib/lpc177x_8x/Drivers/source/lpc177x_8x_gpio.c ****  * Note:
 495:../src/lib/lpc177x_8x/Drivers/source/lpc177x_8x_gpio.c ****  * - All remaining bits that are not activated in bitValue (value '0')
 496:../src/lib/lpc177x_8x/Drivers/source/lpc177x_8x_gpio.c ****  * will not be effected by this function.
 497:../src/lib/lpc177x_8x/Drivers/source/lpc177x_8x_gpio.c ****  * - After executing this function, in mask register, value '0' on each bit
 498:../src/lib/lpc177x_8x/Drivers/source/lpc177x_8x_gpio.c ****  * enables an access to the corresponding physical pin via a read or write access,
 499:../src/lib/lpc177x_8x/Drivers/source/lpc177x_8x_gpio.c ****  * while value '1' on bit (masked) that corresponding pin will not be changed
 500:../src/lib/lpc177x_8x/Drivers/source/lpc177x_8x_gpio.c ****  * with write access and if read, will not be reflected in the updated pin.
 501:../src/lib/lpc177x_8x/Drivers/source/lpc177x_8x_gpio.c ****  **********************************************************************/
 502:../src/lib/lpc177x_8x/Drivers/source/lpc177x_8x_gpio.c **** void FIO_SetMask(uint8_t portNum, uint32_t bitValue, uint8_t maskValue)
 503:../src/lib/lpc177x_8x/Drivers/source/lpc177x_8x_gpio.c **** {
 1201              		.loc 1 503 0
 1202              		.cfi_startproc
 1203              		@ args = 0, pretend = 0, frame = 16
 1204              		@ frame_needed = 1, uses_anonymous_args = 0
 1205 0510 80B5     		push	{r7, lr}
 1206              	.LCFI58:
 1207              		.cfi_def_cfa_offset 8
 1208              		.cfi_offset 7, -8
 1209              		.cfi_offset 14, -4
 1210 0512 84B0     		sub	sp, sp, #16
 1211              	.LCFI59:
 1212              		.cfi_def_cfa_offset 24
 1213 0514 00AF     		add	r7, sp, #0
 1214              	.LCFI60:
 1215              		.cfi_def_cfa_register 7
 1216 0516 3960     		str	r1, [r7, #0]
 1217 0518 1346     		mov	r3, r2
 1218 051a 0246     		mov	r2, r0
 1219 051c FA71     		strb	r2, [r7, #7]
 1220 051e BB71     		strb	r3, [r7, #6]
 504:../src/lib/lpc177x_8x/Drivers/source/lpc177x_8x_gpio.c ****     LPC_GPIO_TypeDef *pFIO = GPIO_GetPointer(portNum);
 1221              		.loc 1 504 0
 1222 0520 FB79     		ldrb	r3, [r7, #7]	@ zero_extendqisi2
 1223 0522 1846     		mov	r0, r3
 1224 0524 FFF76CFD 		bl	GPIO_GetPointer
 1225 0528 F860     		str	r0, [r7, #12]
 505:../src/lib/lpc177x_8x/Drivers/source/lpc177x_8x_gpio.c **** 
 506:../src/lib/lpc177x_8x/Drivers/source/lpc177x_8x_gpio.c ****     if(pFIO != NULL)
 1226              		.loc 1 506 0
 1227 052a FB68     		ldr	r3, [r7, #12]
 1228 052c 002B     		cmp	r3, #0
 1229 052e 11D0     		beq	.L91
 507:../src/lib/lpc177x_8x/Drivers/source/lpc177x_8x_gpio.c ****     {
 508:../src/lib/lpc177x_8x/Drivers/source/lpc177x_8x_gpio.c ****         // Mask
 509:../src/lib/lpc177x_8x/Drivers/source/lpc177x_8x_gpio.c ****         if (maskValue)
 1230              		.loc 1 509 0
 1231 0530 BB79     		ldrb	r3, [r7, #6]	@ zero_extendqisi2
 1232 0532 002B     		cmp	r3, #0
 1233 0534 06D0     		beq	.L93
 510:../src/lib/lpc177x_8x/Drivers/source/lpc177x_8x_gpio.c ****         {
 511:../src/lib/lpc177x_8x/Drivers/source/lpc177x_8x_gpio.c ****             pFIO->MASK |= bitValue;
 1234              		.loc 1 511 0
 1235 0536 FB68     		ldr	r3, [r7, #12]
 1236 0538 1A69     		ldr	r2, [r3, #16]
 1237 053a 3B68     		ldr	r3, [r7, #0]
 1238 053c 1A43     		orrs	r2, r2, r3
 1239 053e FB68     		ldr	r3, [r7, #12]
 1240 0540 1A61     		str	r2, [r3, #16]
 1241 0542 07E0     		b	.L91
 1242              	.L93:
 512:../src/lib/lpc177x_8x/Drivers/source/lpc177x_8x_gpio.c ****         }
 513:../src/lib/lpc177x_8x/Drivers/source/lpc177x_8x_gpio.c ****         // Un-mask
 514:../src/lib/lpc177x_8x/Drivers/source/lpc177x_8x_gpio.c ****         else
 515:../src/lib/lpc177x_8x/Drivers/source/lpc177x_8x_gpio.c ****         {
 516:../src/lib/lpc177x_8x/Drivers/source/lpc177x_8x_gpio.c ****             pFIO->MASK &= ~bitValue;
 1243              		.loc 1 516 0
 1244 0544 FB68     		ldr	r3, [r7, #12]
 1245 0546 1A69     		ldr	r2, [r3, #16]
 1246 0548 3B68     		ldr	r3, [r7, #0]
 1247 054a 6FEA0303 		mvn	r3, r3
 1248 054e 1A40     		ands	r2, r2, r3
 1249 0550 FB68     		ldr	r3, [r7, #12]
 1250 0552 1A61     		str	r2, [r3, #16]
 1251              	.L91:
 517:../src/lib/lpc177x_8x/Drivers/source/lpc177x_8x_gpio.c ****         }
 518:../src/lib/lpc177x_8x/Drivers/source/lpc177x_8x_gpio.c ****     }
 519:../src/lib/lpc177x_8x/Drivers/source/lpc177x_8x_gpio.c **** }
 1252              		.loc 1 519 0
 1253 0554 07F11007 		add	r7, r7, #16
 1254 0558 BD46     		mov	sp, r7
 1255 055a 80BD     		pop	{r7, pc}
 1256              		.cfi_endproc
 1257              	.LFE75:
 1259              		.align	2
 1260              		.global	FIO_HalfWordSetDir
 1261              		.thumb
 1262              		.thumb_func
 1264              	FIO_HalfWordSetDir:
 1265              	.LFB76:
 520:../src/lib/lpc177x_8x/Drivers/source/lpc177x_8x_gpio.c **** 
 521:../src/lib/lpc177x_8x/Drivers/source/lpc177x_8x_gpio.c **** 
 522:../src/lib/lpc177x_8x/Drivers/source/lpc177x_8x_gpio.c **** /* FIO halfword accessible ------------------------------------------------------------- */
 523:../src/lib/lpc177x_8x/Drivers/source/lpc177x_8x_gpio.c **** 
 524:../src/lib/lpc177x_8x/Drivers/source/lpc177x_8x_gpio.c **** /*********************************************************************//**
 525:../src/lib/lpc177x_8x/Drivers/source/lpc177x_8x_gpio.c ****  * @brief       Set direction for FIO port in halfword accessible style
 526:../src/lib/lpc177x_8x/Drivers/source/lpc177x_8x_gpio.c ****  * @param[in]   portNum     Port number, in range from 0 to 4
 527:../src/lib/lpc177x_8x/Drivers/source/lpc177x_8x_gpio.c ****  * @param[in]   halfwordNum HalfWord part number, should be 0 (lower) or 1(upper)
 528:../src/lib/lpc177x_8x/Drivers/source/lpc177x_8x_gpio.c ****  * @param[in]   bitValue    Value that contains all bits in to set direction,
 529:../src/lib/lpc177x_8x/Drivers/source/lpc177x_8x_gpio.c ****  *                          in range from 0 to 0xFFFF.
 530:../src/lib/lpc177x_8x/Drivers/source/lpc177x_8x_gpio.c ****  * @param[in]   dir         Direction value, should be:
 531:../src/lib/lpc177x_8x/Drivers/source/lpc177x_8x_gpio.c ****  *                          - 0: Input.
 532:../src/lib/lpc177x_8x/Drivers/source/lpc177x_8x_gpio.c ****  *                          - 1: Output.
 533:../src/lib/lpc177x_8x/Drivers/source/lpc177x_8x_gpio.c ****  * @return      None
 534:../src/lib/lpc177x_8x/Drivers/source/lpc177x_8x_gpio.c ****  *
 535:../src/lib/lpc177x_8x/Drivers/source/lpc177x_8x_gpio.c ****  * Note: All remaining bits that are not activated in bitValue (value '0')
 536:../src/lib/lpc177x_8x/Drivers/source/lpc177x_8x_gpio.c ****  * will not be effected by this function.
 537:../src/lib/lpc177x_8x/Drivers/source/lpc177x_8x_gpio.c ****  **********************************************************************/
 538:../src/lib/lpc177x_8x/Drivers/source/lpc177x_8x_gpio.c **** void FIO_HalfWordSetDir(uint8_t portNum, uint8_t halfwordNum, uint16_t bitValue, uint8_t dir)
 539:../src/lib/lpc177x_8x/Drivers/source/lpc177x_8x_gpio.c **** {
 1266              		.loc 1 539 0
 1267              		.cfi_startproc
 1268              		@ args = 0, pretend = 0, frame = 16
 1269              		@ frame_needed = 1, uses_anonymous_args = 0
 1270 055c 80B5     		push	{r7, lr}
 1271              	.LCFI61:
 1272              		.cfi_def_cfa_offset 8
 1273              		.cfi_offset 7, -8
 1274              		.cfi_offset 14, -4
 1275 055e 84B0     		sub	sp, sp, #16
 1276              	.LCFI62:
 1277              		.cfi_def_cfa_offset 24
 1278 0560 00AF     		add	r7, sp, #0
 1279              	.LCFI63:
 1280              		.cfi_def_cfa_register 7
 1281 0562 F871     		strb	r0, [r7, #7]
 1282 0564 B971     		strb	r1, [r7, #6]
 1283 0566 BA80     		strh	r2, [r7, #4]	@ movhi
 1284 0568 FB70     		strb	r3, [r7, #3]
 540:../src/lib/lpc177x_8x/Drivers/source/lpc177x_8x_gpio.c ****     GPIO_HalfWord_TypeDef *pFIO = FIO_HalfWordGetPointer(portNum);
 1285              		.loc 1 540 0
 1286 056a FB79     		ldrb	r3, [r7, #7]	@ zero_extendqisi2
 1287 056c 1846     		mov	r0, r3
 1288 056e FFF787FD 		bl	FIO_HalfWordGetPointer
 1289 0572 F860     		str	r0, [r7, #12]
 541:../src/lib/lpc177x_8x/Drivers/source/lpc177x_8x_gpio.c **** 
 542:../src/lib/lpc177x_8x/Drivers/source/lpc177x_8x_gpio.c ****     if(pFIO != NULL)
 1290              		.loc 1 542 0
 1291 0574 FB68     		ldr	r3, [r7, #12]
 1292 0576 002B     		cmp	r3, #0
 1293 0578 35D0     		beq	.L94
 543:../src/lib/lpc177x_8x/Drivers/source/lpc177x_8x_gpio.c ****     {
 544:../src/lib/lpc177x_8x/Drivers/source/lpc177x_8x_gpio.c ****         // Output direction
 545:../src/lib/lpc177x_8x/Drivers/source/lpc177x_8x_gpio.c ****         if (dir)
 1294              		.loc 1 545 0
 1295 057a FB78     		ldrb	r3, [r7, #3]	@ zero_extendqisi2
 1296 057c 002B     		cmp	r3, #0
 1297 057e 14D0     		beq	.L96
 546:../src/lib/lpc177x_8x/Drivers/source/lpc177x_8x_gpio.c ****         {
 547:../src/lib/lpc177x_8x/Drivers/source/lpc177x_8x_gpio.c ****             // Upper
 548:../src/lib/lpc177x_8x/Drivers/source/lpc177x_8x_gpio.c ****             if(halfwordNum)
 1298              		.loc 1 548 0
 1299 0580 BB79     		ldrb	r3, [r7, #6]	@ zero_extendqisi2
 1300 0582 002B     		cmp	r3, #0
 1301 0584 08D0     		beq	.L97
 549:../src/lib/lpc177x_8x/Drivers/source/lpc177x_8x_gpio.c ****             {
 550:../src/lib/lpc177x_8x/Drivers/source/lpc177x_8x_gpio.c ****                 pFIO->FIODIRU |= bitValue;
 1302              		.loc 1 550 0
 1303 0586 FB68     		ldr	r3, [r7, #12]
 1304 0588 5B88     		ldrh	r3, [r3, #2]	@ movhi
 1305 058a 9AB2     		uxth	r2, r3
 1306 058c BB88     		ldrh	r3, [r7, #4]	@ movhi
 1307 058e 1343     		orrs	r3, r3, r2
 1308 0590 9AB2     		uxth	r2, r3
 1309 0592 FB68     		ldr	r3, [r7, #12]
 1310 0594 5A80     		strh	r2, [r3, #2]	@ movhi
 1311 0596 26E0     		b	.L94
 1312              	.L97:
 551:../src/lib/lpc177x_8x/Drivers/source/lpc177x_8x_gpio.c ****             }
 552:../src/lib/lpc177x_8x/Drivers/source/lpc177x_8x_gpio.c ****             // lower
 553:../src/lib/lpc177x_8x/Drivers/source/lpc177x_8x_gpio.c ****             else
 554:../src/lib/lpc177x_8x/Drivers/source/lpc177x_8x_gpio.c ****             {
 555:../src/lib/lpc177x_8x/Drivers/source/lpc177x_8x_gpio.c ****                 pFIO->FIODIRL |= bitValue;
 1313              		.loc 1 555 0
 1314 0598 FB68     		ldr	r3, [r7, #12]
 1315 059a 1B88     		ldrh	r3, [r3, #0]	@ movhi
 1316 059c 9AB2     		uxth	r2, r3
 1317 059e BB88     		ldrh	r3, [r7, #4]	@ movhi
 1318 05a0 1343     		orrs	r3, r3, r2
 1319 05a2 9AB2     		uxth	r2, r3
 1320 05a4 FB68     		ldr	r3, [r7, #12]
 1321 05a6 1A80     		strh	r2, [r3, #0]	@ movhi
 1322 05a8 1DE0     		b	.L94
 1323              	.L96:
 556:../src/lib/lpc177x_8x/Drivers/source/lpc177x_8x_gpio.c ****             }
 557:../src/lib/lpc177x_8x/Drivers/source/lpc177x_8x_gpio.c ****         }
 558:../src/lib/lpc177x_8x/Drivers/source/lpc177x_8x_gpio.c ****         // Input direction
 559:../src/lib/lpc177x_8x/Drivers/source/lpc177x_8x_gpio.c ****         else
 560:../src/lib/lpc177x_8x/Drivers/source/lpc177x_8x_gpio.c ****         {
 561:../src/lib/lpc177x_8x/Drivers/source/lpc177x_8x_gpio.c ****             // Upper
 562:../src/lib/lpc177x_8x/Drivers/source/lpc177x_8x_gpio.c ****             if(halfwordNum)
 1324              		.loc 1 562 0
 1325 05aa BB79     		ldrb	r3, [r7, #6]	@ zero_extendqisi2
 1326 05ac 002B     		cmp	r3, #0
 1327 05ae 0DD0     		beq	.L98
 563:../src/lib/lpc177x_8x/Drivers/source/lpc177x_8x_gpio.c ****             {
 564:../src/lib/lpc177x_8x/Drivers/source/lpc177x_8x_gpio.c ****                 pFIO->FIODIRU &= ~bitValue;
 1328              		.loc 1 564 0
 1329 05b0 FB68     		ldr	r3, [r7, #12]
 1330 05b2 5B88     		ldrh	r3, [r3, #2]	@ movhi
 1331 05b4 9BB2     		uxth	r3, r3
 1332 05b6 9AB2     		uxth	r2, r3
 1333 05b8 BB88     		ldrh	r3, [r7, #4]
 1334 05ba 6FEA0303 		mvn	r3, r3
 1335 05be 9BB2     		uxth	r3, r3
 1336 05c0 1340     		ands	r3, r3, r2
 1337 05c2 9BB2     		uxth	r3, r3
 1338 05c4 9AB2     		uxth	r2, r3
 1339 05c6 FB68     		ldr	r3, [r7, #12]
 1340 05c8 5A80     		strh	r2, [r3, #2]	@ movhi
 1341 05ca 0CE0     		b	.L94
 1342              	.L98:
 565:../src/lib/lpc177x_8x/Drivers/source/lpc177x_8x_gpio.c ****             }
 566:../src/lib/lpc177x_8x/Drivers/source/lpc177x_8x_gpio.c ****             // lower
 567:../src/lib/lpc177x_8x/Drivers/source/lpc177x_8x_gpio.c ****             else
 568:../src/lib/lpc177x_8x/Drivers/source/lpc177x_8x_gpio.c ****             {
 569:../src/lib/lpc177x_8x/Drivers/source/lpc177x_8x_gpio.c ****                 pFIO->FIODIRL &= ~bitValue;
 1343              		.loc 1 569 0
 1344 05cc FB68     		ldr	r3, [r7, #12]
 1345 05ce 1B88     		ldrh	r3, [r3, #0]	@ movhi
 1346 05d0 9BB2     		uxth	r3, r3
 1347 05d2 9AB2     		uxth	r2, r3
 1348 05d4 BB88     		ldrh	r3, [r7, #4]
 1349 05d6 6FEA0303 		mvn	r3, r3
 1350 05da 9BB2     		uxth	r3, r3
 1351 05dc 1340     		ands	r3, r3, r2
 1352 05de 9BB2     		uxth	r3, r3
 1353 05e0 9AB2     		uxth	r2, r3
 1354 05e2 FB68     		ldr	r3, [r7, #12]
 1355 05e4 1A80     		strh	r2, [r3, #0]	@ movhi
 1356              	.L94:
 570:../src/lib/lpc177x_8x/Drivers/source/lpc177x_8x_gpio.c ****             }
 571:../src/lib/lpc177x_8x/Drivers/source/lpc177x_8x_gpio.c ****         }
 572:../src/lib/lpc177x_8x/Drivers/source/lpc177x_8x_gpio.c ****     }
 573:../src/lib/lpc177x_8x/Drivers/source/lpc177x_8x_gpio.c **** }
 1357              		.loc 1 573 0
 1358 05e6 07F11007 		add	r7, r7, #16
 1359 05ea BD46     		mov	sp, r7
 1360 05ec 80BD     		pop	{r7, pc}
 1361              		.cfi_endproc
 1362              	.LFE76:
 1364 05ee 00BF     		.align	2
 1365              		.global	FIO_HalfWordSetMask
 1366              		.thumb
 1367              		.thumb_func
 1369              	FIO_HalfWordSetMask:
 1370              	.LFB77:
 574:../src/lib/lpc177x_8x/Drivers/source/lpc177x_8x_gpio.c **** 
 575:../src/lib/lpc177x_8x/Drivers/source/lpc177x_8x_gpio.c **** 
 576:../src/lib/lpc177x_8x/Drivers/source/lpc177x_8x_gpio.c **** /*********************************************************************//**
 577:../src/lib/lpc177x_8x/Drivers/source/lpc177x_8x_gpio.c ****  * @brief       Set mask value for bits in FIO port in halfword accessible style
 578:../src/lib/lpc177x_8x/Drivers/source/lpc177x_8x_gpio.c ****  * @param[in]   portNum     Port number, in range from 0 to 4
 579:../src/lib/lpc177x_8x/Drivers/source/lpc177x_8x_gpio.c ****  * @param[in]   halfwordNum HalfWord part number, should be 0 (lower) or 1(upper)
 580:../src/lib/lpc177x_8x/Drivers/source/lpc177x_8x_gpio.c ****  * @param[in]   bitValue    Value that contains all bits in to set,
 581:../src/lib/lpc177x_8x/Drivers/source/lpc177x_8x_gpio.c ****  *                          in range from 0 to 0xFFFF.
 582:../src/lib/lpc177x_8x/Drivers/source/lpc177x_8x_gpio.c ****  * @param[in]   maskValue   Mask value contains state value for each bit:
 583:../src/lib/lpc177x_8x/Drivers/source/lpc177x_8x_gpio.c ****  *                  - 0: not mask.
 584:../src/lib/lpc177x_8x/Drivers/source/lpc177x_8x_gpio.c ****  *                  - 1: mask.
 585:../src/lib/lpc177x_8x/Drivers/source/lpc177x_8x_gpio.c ****  * @return      None
 586:../src/lib/lpc177x_8x/Drivers/source/lpc177x_8x_gpio.c ****  *
 587:../src/lib/lpc177x_8x/Drivers/source/lpc177x_8x_gpio.c ****  * Note:
 588:../src/lib/lpc177x_8x/Drivers/source/lpc177x_8x_gpio.c ****  * - All remaining bits that are not activated in bitValue (value '0')
 589:../src/lib/lpc177x_8x/Drivers/source/lpc177x_8x_gpio.c ****  * will not be effected by this function.
 590:../src/lib/lpc177x_8x/Drivers/source/lpc177x_8x_gpio.c ****  * - After executing this function, in mask register, value '0' on each bit
 591:../src/lib/lpc177x_8x/Drivers/source/lpc177x_8x_gpio.c ****  * enables an access to the corresponding physical pin via a read or write access,
 592:../src/lib/lpc177x_8x/Drivers/source/lpc177x_8x_gpio.c ****  * while value '1' on bit (masked) that corresponding pin will not be changed
 593:../src/lib/lpc177x_8x/Drivers/source/lpc177x_8x_gpio.c ****  * with write access and if read, will not be reflected in the updated pin.
 594:../src/lib/lpc177x_8x/Drivers/source/lpc177x_8x_gpio.c ****  **********************************************************************/
 595:../src/lib/lpc177x_8x/Drivers/source/lpc177x_8x_gpio.c **** void FIO_HalfWordSetMask(uint8_t portNum, uint8_t halfwordNum, uint16_t bitValue, uint8_t maskValue
 596:../src/lib/lpc177x_8x/Drivers/source/lpc177x_8x_gpio.c **** {
 1371              		.loc 1 596 0
 1372              		.cfi_startproc
 1373              		@ args = 0, pretend = 0, frame = 16
 1374              		@ frame_needed = 1, uses_anonymous_args = 0
 1375 05f0 80B5     		push	{r7, lr}
 1376              	.LCFI64:
 1377              		.cfi_def_cfa_offset 8
 1378              		.cfi_offset 7, -8
 1379              		.cfi_offset 14, -4
 1380 05f2 84B0     		sub	sp, sp, #16
 1381              	.LCFI65:
 1382              		.cfi_def_cfa_offset 24
 1383 05f4 00AF     		add	r7, sp, #0
 1384              	.LCFI66:
 1385              		.cfi_def_cfa_register 7
 1386 05f6 F871     		strb	r0, [r7, #7]
 1387 05f8 B971     		strb	r1, [r7, #6]
 1388 05fa BA80     		strh	r2, [r7, #4]	@ movhi
 1389 05fc FB70     		strb	r3, [r7, #3]
 597:../src/lib/lpc177x_8x/Drivers/source/lpc177x_8x_gpio.c ****     GPIO_HalfWord_TypeDef *pFIO = FIO_HalfWordGetPointer(portNum);
 1390              		.loc 1 597 0
 1391 05fe FB79     		ldrb	r3, [r7, #7]	@ zero_extendqisi2
 1392 0600 1846     		mov	r0, r3
 1393 0602 FFF73DFD 		bl	FIO_HalfWordGetPointer
 1394 0606 F860     		str	r0, [r7, #12]
 598:../src/lib/lpc177x_8x/Drivers/source/lpc177x_8x_gpio.c **** 
 599:../src/lib/lpc177x_8x/Drivers/source/lpc177x_8x_gpio.c ****     if(pFIO != NULL)
 1395              		.loc 1 599 0
 1396 0608 FB68     		ldr	r3, [r7, #12]
 1397 060a 002B     		cmp	r3, #0
 1398 060c 35D0     		beq	.L99
 600:../src/lib/lpc177x_8x/Drivers/source/lpc177x_8x_gpio.c ****     {
 601:../src/lib/lpc177x_8x/Drivers/source/lpc177x_8x_gpio.c ****         // Mask
 602:../src/lib/lpc177x_8x/Drivers/source/lpc177x_8x_gpio.c ****         if (maskValue)
 1399              		.loc 1 602 0
 1400 060e FB78     		ldrb	r3, [r7, #3]	@ zero_extendqisi2
 1401 0610 002B     		cmp	r3, #0
 1402 0612 14D0     		beq	.L101
 603:../src/lib/lpc177x_8x/Drivers/source/lpc177x_8x_gpio.c ****         {
 604:../src/lib/lpc177x_8x/Drivers/source/lpc177x_8x_gpio.c ****             // Upper
 605:../src/lib/lpc177x_8x/Drivers/source/lpc177x_8x_gpio.c ****             if(halfwordNum)
 1403              		.loc 1 605 0
 1404 0614 BB79     		ldrb	r3, [r7, #6]	@ zero_extendqisi2
 1405 0616 002B     		cmp	r3, #0
 1406 0618 08D0     		beq	.L102
 606:../src/lib/lpc177x_8x/Drivers/source/lpc177x_8x_gpio.c ****             {
 607:../src/lib/lpc177x_8x/Drivers/source/lpc177x_8x_gpio.c ****                 pFIO->FIOMASKU |= bitValue;
 1407              		.loc 1 607 0
 1408 061a FB68     		ldr	r3, [r7, #12]
 1409 061c 5B8A     		ldrh	r3, [r3, #18]	@ movhi
 1410 061e 9AB2     		uxth	r2, r3
 1411 0620 BB88     		ldrh	r3, [r7, #4]	@ movhi
 1412 0622 1343     		orrs	r3, r3, r2
 1413 0624 9AB2     		uxth	r2, r3
 1414 0626 FB68     		ldr	r3, [r7, #12]
 1415 0628 5A82     		strh	r2, [r3, #18]	@ movhi
 1416 062a 26E0     		b	.L99
 1417              	.L102:
 608:../src/lib/lpc177x_8x/Drivers/source/lpc177x_8x_gpio.c ****             }
 609:../src/lib/lpc177x_8x/Drivers/source/lpc177x_8x_gpio.c ****             // lower
 610:../src/lib/lpc177x_8x/Drivers/source/lpc177x_8x_gpio.c ****             else
 611:../src/lib/lpc177x_8x/Drivers/source/lpc177x_8x_gpio.c ****             {
 612:../src/lib/lpc177x_8x/Drivers/source/lpc177x_8x_gpio.c ****                 pFIO->FIOMASKL |= bitValue;
 1418              		.loc 1 612 0
 1419 062c FB68     		ldr	r3, [r7, #12]
 1420 062e 1B8A     		ldrh	r3, [r3, #16]	@ movhi
 1421 0630 9AB2     		uxth	r2, r3
 1422 0632 BB88     		ldrh	r3, [r7, #4]	@ movhi
 1423 0634 1343     		orrs	r3, r3, r2
 1424 0636 9AB2     		uxth	r2, r3
 1425 0638 FB68     		ldr	r3, [r7, #12]
 1426 063a 1A82     		strh	r2, [r3, #16]	@ movhi
 1427 063c 1DE0     		b	.L99
 1428              	.L101:
 613:../src/lib/lpc177x_8x/Drivers/source/lpc177x_8x_gpio.c ****             }
 614:../src/lib/lpc177x_8x/Drivers/source/lpc177x_8x_gpio.c ****         }
 615:../src/lib/lpc177x_8x/Drivers/source/lpc177x_8x_gpio.c ****         // Un-mask
 616:../src/lib/lpc177x_8x/Drivers/source/lpc177x_8x_gpio.c ****         else
 617:../src/lib/lpc177x_8x/Drivers/source/lpc177x_8x_gpio.c ****         {
 618:../src/lib/lpc177x_8x/Drivers/source/lpc177x_8x_gpio.c ****             // Upper
 619:../src/lib/lpc177x_8x/Drivers/source/lpc177x_8x_gpio.c ****             if(halfwordNum)
 1429              		.loc 1 619 0
 1430 063e BB79     		ldrb	r3, [r7, #6]	@ zero_extendqisi2
 1431 0640 002B     		cmp	r3, #0
 1432 0642 0DD0     		beq	.L103
 620:../src/lib/lpc177x_8x/Drivers/source/lpc177x_8x_gpio.c ****             {
 621:../src/lib/lpc177x_8x/Drivers/source/lpc177x_8x_gpio.c ****                 pFIO->FIOMASKU &= ~bitValue;
 1433              		.loc 1 621 0
 1434 0644 FB68     		ldr	r3, [r7, #12]
 1435 0646 5B8A     		ldrh	r3, [r3, #18]	@ movhi
 1436 0648 9BB2     		uxth	r3, r3
 1437 064a 9AB2     		uxth	r2, r3
 1438 064c BB88     		ldrh	r3, [r7, #4]
 1439 064e 6FEA0303 		mvn	r3, r3
 1440 0652 9BB2     		uxth	r3, r3
 1441 0654 1340     		ands	r3, r3, r2
 1442 0656 9BB2     		uxth	r3, r3
 1443 0658 9AB2     		uxth	r2, r3
 1444 065a FB68     		ldr	r3, [r7, #12]
 1445 065c 5A82     		strh	r2, [r3, #18]	@ movhi
 1446 065e 0CE0     		b	.L99
 1447              	.L103:
 622:../src/lib/lpc177x_8x/Drivers/source/lpc177x_8x_gpio.c ****             }
 623:../src/lib/lpc177x_8x/Drivers/source/lpc177x_8x_gpio.c ****             // lower
 624:../src/lib/lpc177x_8x/Drivers/source/lpc177x_8x_gpio.c ****             else
 625:../src/lib/lpc177x_8x/Drivers/source/lpc177x_8x_gpio.c ****             {
 626:../src/lib/lpc177x_8x/Drivers/source/lpc177x_8x_gpio.c ****                 pFIO->FIOMASKL &= ~bitValue;
 1448              		.loc 1 626 0
 1449 0660 FB68     		ldr	r3, [r7, #12]
 1450 0662 1B8A     		ldrh	r3, [r3, #16]	@ movhi
 1451 0664 9BB2     		uxth	r3, r3
 1452 0666 9AB2     		uxth	r2, r3
 1453 0668 BB88     		ldrh	r3, [r7, #4]
 1454 066a 6FEA0303 		mvn	r3, r3
 1455 066e 9BB2     		uxth	r3, r3
 1456 0670 1340     		ands	r3, r3, r2
 1457 0672 9BB2     		uxth	r3, r3
 1458 0674 9AB2     		uxth	r2, r3
 1459 0676 FB68     		ldr	r3, [r7, #12]
 1460 0678 1A82     		strh	r2, [r3, #16]	@ movhi
 1461              	.L99:
 627:../src/lib/lpc177x_8x/Drivers/source/lpc177x_8x_gpio.c ****             }
 628:../src/lib/lpc177x_8x/Drivers/source/lpc177x_8x_gpio.c ****         }
 629:../src/lib/lpc177x_8x/Drivers/source/lpc177x_8x_gpio.c ****     }
 630:../src/lib/lpc177x_8x/Drivers/source/lpc177x_8x_gpio.c **** }
 1462              		.loc 1 630 0
 1463 067a 07F11007 		add	r7, r7, #16
 1464 067e BD46     		mov	sp, r7
 1465 0680 80BD     		pop	{r7, pc}
 1466              		.cfi_endproc
 1467              	.LFE77:
 1469 0682 00BF     		.align	2
 1470              		.global	FIO_HalfWordSetValue
 1471              		.thumb
 1472              		.thumb_func
 1474              	FIO_HalfWordSetValue:
 1475              	.LFB78:
 631:../src/lib/lpc177x_8x/Drivers/source/lpc177x_8x_gpio.c **** 
 632:../src/lib/lpc177x_8x/Drivers/source/lpc177x_8x_gpio.c **** 
 633:../src/lib/lpc177x_8x/Drivers/source/lpc177x_8x_gpio.c **** /*********************************************************************//**
 634:../src/lib/lpc177x_8x/Drivers/source/lpc177x_8x_gpio.c ****  * @brief       Set bits for FIO port in halfword accessible style
 635:../src/lib/lpc177x_8x/Drivers/source/lpc177x_8x_gpio.c ****  * @param[in]   portNum     Port number, in range from 0 to 4
 636:../src/lib/lpc177x_8x/Drivers/source/lpc177x_8x_gpio.c ****  * @param[in]   halfwordNum HalfWord part number, should be 0 (lower) or 1(upper)
 637:../src/lib/lpc177x_8x/Drivers/source/lpc177x_8x_gpio.c ****  * @param[in]   bitValue    Value that contains all bits in to set,
 638:../src/lib/lpc177x_8x/Drivers/source/lpc177x_8x_gpio.c ****  *                          in range from 0 to 0xFFFF.
 639:../src/lib/lpc177x_8x/Drivers/source/lpc177x_8x_gpio.c ****  * @return      None
 640:../src/lib/lpc177x_8x/Drivers/source/lpc177x_8x_gpio.c ****  *
 641:../src/lib/lpc177x_8x/Drivers/source/lpc177x_8x_gpio.c ****  * Note:
 642:../src/lib/lpc177x_8x/Drivers/source/lpc177x_8x_gpio.c ****  * - For all bits that has been set as input direction, this function will
 643:../src/lib/lpc177x_8x/Drivers/source/lpc177x_8x_gpio.c ****  * not effect.
 644:../src/lib/lpc177x_8x/Drivers/source/lpc177x_8x_gpio.c ****  * - For all remaining bits that are not activated in bitValue (value '0')
 645:../src/lib/lpc177x_8x/Drivers/source/lpc177x_8x_gpio.c ****  * will not be effected by this function.
 646:../src/lib/lpc177x_8x/Drivers/source/lpc177x_8x_gpio.c ****  **********************************************************************/
 647:../src/lib/lpc177x_8x/Drivers/source/lpc177x_8x_gpio.c **** void FIO_HalfWordSetValue(uint8_t portNum, uint8_t halfwordNum, uint16_t bitValue)
 648:../src/lib/lpc177x_8x/Drivers/source/lpc177x_8x_gpio.c **** {
 1476              		.loc 1 648 0
 1477              		.cfi_startproc
 1478              		@ args = 0, pretend = 0, frame = 16
 1479              		@ frame_needed = 1, uses_anonymous_args = 0
 1480 0684 80B5     		push	{r7, lr}
 1481              	.LCFI67:
 1482              		.cfi_def_cfa_offset 8
 1483              		.cfi_offset 7, -8
 1484              		.cfi_offset 14, -4
 1485 0686 84B0     		sub	sp, sp, #16
 1486              	.LCFI68:
 1487              		.cfi_def_cfa_offset 24
 1488 0688 00AF     		add	r7, sp, #0
 1489              	.LCFI69:
 1490              		.cfi_def_cfa_register 7
 1491 068a 1346     		mov	r3, r2
 1492 068c 0246     		mov	r2, r0
 1493 068e FA71     		strb	r2, [r7, #7]
 1494 0690 0A46     		mov	r2, r1
 1495 0692 BA71     		strb	r2, [r7, #6]
 1496 0694 BB80     		strh	r3, [r7, #4]	@ movhi
 649:../src/lib/lpc177x_8x/Drivers/source/lpc177x_8x_gpio.c ****     GPIO_HalfWord_TypeDef *pFIO = FIO_HalfWordGetPointer(portNum);
 1497              		.loc 1 649 0
 1498 0696 FB79     		ldrb	r3, [r7, #7]	@ zero_extendqisi2
 1499 0698 1846     		mov	r0, r3
 1500 069a FFF7F1FC 		bl	FIO_HalfWordGetPointer
 1501 069e F860     		str	r0, [r7, #12]
 650:../src/lib/lpc177x_8x/Drivers/source/lpc177x_8x_gpio.c **** 
 651:../src/lib/lpc177x_8x/Drivers/source/lpc177x_8x_gpio.c ****     if(pFIO != NULL)
 1502              		.loc 1 651 0
 1503 06a0 FB68     		ldr	r3, [r7, #12]
 1504 06a2 002B     		cmp	r3, #0
 1505 06a4 09D0     		beq	.L104
 652:../src/lib/lpc177x_8x/Drivers/source/lpc177x_8x_gpio.c ****     {
 653:../src/lib/lpc177x_8x/Drivers/source/lpc177x_8x_gpio.c ****         // Upper
 654:../src/lib/lpc177x_8x/Drivers/source/lpc177x_8x_gpio.c ****         if(halfwordNum)
 1506              		.loc 1 654 0
 1507 06a6 BB79     		ldrb	r3, [r7, #6]	@ zero_extendqisi2
 1508 06a8 002B     		cmp	r3, #0
 1509 06aa 03D0     		beq	.L106
 655:../src/lib/lpc177x_8x/Drivers/source/lpc177x_8x_gpio.c ****         {
 656:../src/lib/lpc177x_8x/Drivers/source/lpc177x_8x_gpio.c ****             pFIO->FIOSETU = bitValue;
 1510              		.loc 1 656 0
 1511 06ac FB68     		ldr	r3, [r7, #12]
 1512 06ae BA88     		ldrh	r2, [r7, #4]	@ movhi
 1513 06b0 5A83     		strh	r2, [r3, #26]	@ movhi
 1514 06b2 02E0     		b	.L104
 1515              	.L106:
 657:../src/lib/lpc177x_8x/Drivers/source/lpc177x_8x_gpio.c ****         }
 658:../src/lib/lpc177x_8x/Drivers/source/lpc177x_8x_gpio.c ****         // lower
 659:../src/lib/lpc177x_8x/Drivers/source/lpc177x_8x_gpio.c ****         else
 660:../src/lib/lpc177x_8x/Drivers/source/lpc177x_8x_gpio.c ****         {
 661:../src/lib/lpc177x_8x/Drivers/source/lpc177x_8x_gpio.c ****             pFIO->FIOSETL = bitValue;
 1516              		.loc 1 661 0
 1517 06b4 FB68     		ldr	r3, [r7, #12]
 1518 06b6 BA88     		ldrh	r2, [r7, #4]	@ movhi
 1519 06b8 1A83     		strh	r2, [r3, #24]	@ movhi
 1520              	.L104:
 662:../src/lib/lpc177x_8x/Drivers/source/lpc177x_8x_gpio.c ****         }
 663:../src/lib/lpc177x_8x/Drivers/source/lpc177x_8x_gpio.c ****     }
 664:../src/lib/lpc177x_8x/Drivers/source/lpc177x_8x_gpio.c **** }
 1521              		.loc 1 664 0
 1522 06ba 07F11007 		add	r7, r7, #16
 1523 06be BD46     		mov	sp, r7
 1524 06c0 80BD     		pop	{r7, pc}
 1525              		.cfi_endproc
 1526              	.LFE78:
 1528 06c2 00BF     		.align	2
 1529              		.global	FIO_HalfWordClearValue
 1530              		.thumb
 1531              		.thumb_func
 1533              	FIO_HalfWordClearValue:
 1534              	.LFB79:
 665:../src/lib/lpc177x_8x/Drivers/source/lpc177x_8x_gpio.c **** 
 666:../src/lib/lpc177x_8x/Drivers/source/lpc177x_8x_gpio.c **** 
 667:../src/lib/lpc177x_8x/Drivers/source/lpc177x_8x_gpio.c **** /*********************************************************************//**
 668:../src/lib/lpc177x_8x/Drivers/source/lpc177x_8x_gpio.c ****  * @brief       Clear bits for FIO port in halfword accessible style
 669:../src/lib/lpc177x_8x/Drivers/source/lpc177x_8x_gpio.c ****  * @param[in]   portNum     Port number, in range from 0 to 4
 670:../src/lib/lpc177x_8x/Drivers/source/lpc177x_8x_gpio.c ****  * @param[in]   halfwordNum HalfWord part number, should be 0 (lower) or 1(upper)
 671:../src/lib/lpc177x_8x/Drivers/source/lpc177x_8x_gpio.c ****  * @param[in]   bitValue    Value that contains all bits in to clear,
 672:../src/lib/lpc177x_8x/Drivers/source/lpc177x_8x_gpio.c ****  *                          in range from 0 to 0xFFFF.
 673:../src/lib/lpc177x_8x/Drivers/source/lpc177x_8x_gpio.c ****  * @return      None
 674:../src/lib/lpc177x_8x/Drivers/source/lpc177x_8x_gpio.c ****  *
 675:../src/lib/lpc177x_8x/Drivers/source/lpc177x_8x_gpio.c ****  * Note:
 676:../src/lib/lpc177x_8x/Drivers/source/lpc177x_8x_gpio.c ****  * - For all bits that has been set as input direction, this function will
 677:../src/lib/lpc177x_8x/Drivers/source/lpc177x_8x_gpio.c ****  * not effect.
 678:../src/lib/lpc177x_8x/Drivers/source/lpc177x_8x_gpio.c ****  * - For all remaining bits that are not activated in bitValue (value '0')
 679:../src/lib/lpc177x_8x/Drivers/source/lpc177x_8x_gpio.c ****  * will not be effected by this function.
 680:../src/lib/lpc177x_8x/Drivers/source/lpc177x_8x_gpio.c ****  **********************************************************************/
 681:../src/lib/lpc177x_8x/Drivers/source/lpc177x_8x_gpio.c **** void FIO_HalfWordClearValue(uint8_t portNum, uint8_t halfwordNum, uint16_t bitValue)
 682:../src/lib/lpc177x_8x/Drivers/source/lpc177x_8x_gpio.c **** {
 1535              		.loc 1 682 0
 1536              		.cfi_startproc
 1537              		@ args = 0, pretend = 0, frame = 16
 1538              		@ frame_needed = 1, uses_anonymous_args = 0
 1539 06c4 80B5     		push	{r7, lr}
 1540              	.LCFI70:
 1541              		.cfi_def_cfa_offset 8
 1542              		.cfi_offset 7, -8
 1543              		.cfi_offset 14, -4
 1544 06c6 84B0     		sub	sp, sp, #16
 1545              	.LCFI71:
 1546              		.cfi_def_cfa_offset 24
 1547 06c8 00AF     		add	r7, sp, #0
 1548              	.LCFI72:
 1549              		.cfi_def_cfa_register 7
 1550 06ca 1346     		mov	r3, r2
 1551 06cc 0246     		mov	r2, r0
 1552 06ce FA71     		strb	r2, [r7, #7]
 1553 06d0 0A46     		mov	r2, r1
 1554 06d2 BA71     		strb	r2, [r7, #6]
 1555 06d4 BB80     		strh	r3, [r7, #4]	@ movhi
 683:../src/lib/lpc177x_8x/Drivers/source/lpc177x_8x_gpio.c ****     GPIO_HalfWord_TypeDef *pFIO = FIO_HalfWordGetPointer(portNum);
 1556              		.loc 1 683 0
 1557 06d6 FB79     		ldrb	r3, [r7, #7]	@ zero_extendqisi2
 1558 06d8 1846     		mov	r0, r3
 1559 06da FFF7D1FC 		bl	FIO_HalfWordGetPointer
 1560 06de F860     		str	r0, [r7, #12]
 684:../src/lib/lpc177x_8x/Drivers/source/lpc177x_8x_gpio.c **** 
 685:../src/lib/lpc177x_8x/Drivers/source/lpc177x_8x_gpio.c ****     if(pFIO != NULL)
 1561              		.loc 1 685 0
 1562 06e0 FB68     		ldr	r3, [r7, #12]
 1563 06e2 002B     		cmp	r3, #0
 1564 06e4 09D0     		beq	.L107
 686:../src/lib/lpc177x_8x/Drivers/source/lpc177x_8x_gpio.c ****     {
 687:../src/lib/lpc177x_8x/Drivers/source/lpc177x_8x_gpio.c ****         // Upper
 688:../src/lib/lpc177x_8x/Drivers/source/lpc177x_8x_gpio.c ****         if(halfwordNum)
 1565              		.loc 1 688 0
 1566 06e6 BB79     		ldrb	r3, [r7, #6]	@ zero_extendqisi2
 1567 06e8 002B     		cmp	r3, #0
 1568 06ea 03D0     		beq	.L109
 689:../src/lib/lpc177x_8x/Drivers/source/lpc177x_8x_gpio.c ****         {
 690:../src/lib/lpc177x_8x/Drivers/source/lpc177x_8x_gpio.c ****             pFIO->FIOCLRU = bitValue;
 1569              		.loc 1 690 0
 1570 06ec FB68     		ldr	r3, [r7, #12]
 1571 06ee BA88     		ldrh	r2, [r7, #4]	@ movhi
 1572 06f0 DA83     		strh	r2, [r3, #30]	@ movhi
 1573 06f2 02E0     		b	.L107
 1574              	.L109:
 691:../src/lib/lpc177x_8x/Drivers/source/lpc177x_8x_gpio.c ****         }
 692:../src/lib/lpc177x_8x/Drivers/source/lpc177x_8x_gpio.c ****         // lower
 693:../src/lib/lpc177x_8x/Drivers/source/lpc177x_8x_gpio.c ****         else
 694:../src/lib/lpc177x_8x/Drivers/source/lpc177x_8x_gpio.c ****         {
 695:../src/lib/lpc177x_8x/Drivers/source/lpc177x_8x_gpio.c ****             pFIO->FIOCLRL = bitValue;
 1575              		.loc 1 695 0
 1576 06f4 FB68     		ldr	r3, [r7, #12]
 1577 06f6 BA88     		ldrh	r2, [r7, #4]	@ movhi
 1578 06f8 9A83     		strh	r2, [r3, #28]	@ movhi
 1579              	.L107:
 696:../src/lib/lpc177x_8x/Drivers/source/lpc177x_8x_gpio.c ****         }
 697:../src/lib/lpc177x_8x/Drivers/source/lpc177x_8x_gpio.c ****     }
 698:../src/lib/lpc177x_8x/Drivers/source/lpc177x_8x_gpio.c **** }
 1580              		.loc 1 698 0
 1581 06fa 07F11007 		add	r7, r7, #16
 1582 06fe BD46     		mov	sp, r7
 1583 0700 80BD     		pop	{r7, pc}
 1584              		.cfi_endproc
 1585              	.LFE79:
 1587 0702 00BF     		.align	2
 1588              		.global	FIO_HalfWordReadValue
 1589              		.thumb
 1590              		.thumb_func
 1592              	FIO_HalfWordReadValue:
 1593              	.LFB80:
 699:../src/lib/lpc177x_8x/Drivers/source/lpc177x_8x_gpio.c **** 
 700:../src/lib/lpc177x_8x/Drivers/source/lpc177x_8x_gpio.c **** 
 701:../src/lib/lpc177x_8x/Drivers/source/lpc177x_8x_gpio.c **** /*********************************************************************//**
 702:../src/lib/lpc177x_8x/Drivers/source/lpc177x_8x_gpio.c ****  * @brief       Read Current state on port pin that have input direction of GPIO
 703:../src/lib/lpc177x_8x/Drivers/source/lpc177x_8x_gpio.c ****  *              in halfword accessible style.
 704:../src/lib/lpc177x_8x/Drivers/source/lpc177x_8x_gpio.c ****  * @param[in]   portNum     Port number, in range from 0 to 4
 705:../src/lib/lpc177x_8x/Drivers/source/lpc177x_8x_gpio.c ****  * @param[in]   halfwordNum HalfWord part number, should be 0 (lower) or 1(upper)
 706:../src/lib/lpc177x_8x/Drivers/source/lpc177x_8x_gpio.c ****  * @return      Current value of FIO port pin of specified halfword.
 707:../src/lib/lpc177x_8x/Drivers/source/lpc177x_8x_gpio.c ****  * Note: Return value contain state of each port pin (bit) on that FIO regardless
 708:../src/lib/lpc177x_8x/Drivers/source/lpc177x_8x_gpio.c ****  * its direction is input or output.
 709:../src/lib/lpc177x_8x/Drivers/source/lpc177x_8x_gpio.c ****  **********************************************************************/
 710:../src/lib/lpc177x_8x/Drivers/source/lpc177x_8x_gpio.c **** uint16_t FIO_HalfWordReadValue(uint8_t portNum, uint8_t halfwordNum)
 711:../src/lib/lpc177x_8x/Drivers/source/lpc177x_8x_gpio.c **** {
 1594              		.loc 1 711 0
 1595              		.cfi_startproc
 1596              		@ args = 0, pretend = 0, frame = 16
 1597              		@ frame_needed = 1, uses_anonymous_args = 0
 1598 0704 80B5     		push	{r7, lr}
 1599              	.LCFI73:
 1600              		.cfi_def_cfa_offset 8
 1601              		.cfi_offset 7, -8
 1602              		.cfi_offset 14, -4
 1603 0706 84B0     		sub	sp, sp, #16
 1604              	.LCFI74:
 1605              		.cfi_def_cfa_offset 24
 1606 0708 00AF     		add	r7, sp, #0
 1607              	.LCFI75:
 1608              		.cfi_def_cfa_register 7
 1609 070a 0246     		mov	r2, r0
 1610 070c 0B46     		mov	r3, r1
 1611 070e FA71     		strb	r2, [r7, #7]
 1612 0710 BB71     		strb	r3, [r7, #6]
 712:../src/lib/lpc177x_8x/Drivers/source/lpc177x_8x_gpio.c ****     GPIO_HalfWord_TypeDef *pFIO = FIO_HalfWordGetPointer(portNum);
 1613              		.loc 1 712 0
 1614 0712 FB79     		ldrb	r3, [r7, #7]	@ zero_extendqisi2
 1615 0714 1846     		mov	r0, r3
 1616 0716 FFF7B3FC 		bl	FIO_HalfWordGetPointer
 1617 071a F860     		str	r0, [r7, #12]
 713:../src/lib/lpc177x_8x/Drivers/source/lpc177x_8x_gpio.c **** 
 714:../src/lib/lpc177x_8x/Drivers/source/lpc177x_8x_gpio.c ****     if(pFIO != NULL)
 1618              		.loc 1 714 0
 1619 071c FB68     		ldr	r3, [r7, #12]
 1620 071e 002B     		cmp	r3, #0
 1621 0720 0AD0     		beq	.L111
 715:../src/lib/lpc177x_8x/Drivers/source/lpc177x_8x_gpio.c ****     {
 716:../src/lib/lpc177x_8x/Drivers/source/lpc177x_8x_gpio.c ****         // Upper
 717:../src/lib/lpc177x_8x/Drivers/source/lpc177x_8x_gpio.c ****         if(halfwordNum)
 1622              		.loc 1 717 0
 1623 0722 BB79     		ldrb	r3, [r7, #6]	@ zero_extendqisi2
 1624 0724 002B     		cmp	r3, #0
 1625 0726 03D0     		beq	.L112
 718:../src/lib/lpc177x_8x/Drivers/source/lpc177x_8x_gpio.c ****         {
 719:../src/lib/lpc177x_8x/Drivers/source/lpc177x_8x_gpio.c ****             return (pFIO->FIOPINU);
 1626              		.loc 1 719 0
 1627 0728 FB68     		ldr	r3, [r7, #12]
 1628 072a DB8A     		ldrh	r3, [r3, #22]	@ movhi
 1629 072c 9BB2     		uxth	r3, r3
 1630 072e 05E0     		b	.L113
 1631              	.L112:
 720:../src/lib/lpc177x_8x/Drivers/source/lpc177x_8x_gpio.c ****         }
 721:../src/lib/lpc177x_8x/Drivers/source/lpc177x_8x_gpio.c ****         // lower
 722:../src/lib/lpc177x_8x/Drivers/source/lpc177x_8x_gpio.c ****         else
 723:../src/lib/lpc177x_8x/Drivers/source/lpc177x_8x_gpio.c ****         {
 724:../src/lib/lpc177x_8x/Drivers/source/lpc177x_8x_gpio.c ****             return (pFIO->FIOPINL);
 1632              		.loc 1 724 0
 1633 0730 FB68     		ldr	r3, [r7, #12]
 1634 0732 9B8A     		ldrh	r3, [r3, #20]	@ movhi
 1635 0734 9BB2     		uxth	r3, r3
 1636 0736 01E0     		b	.L113
 1637              	.L111:
 725:../src/lib/lpc177x_8x/Drivers/source/lpc177x_8x_gpio.c ****         }
 726:../src/lib/lpc177x_8x/Drivers/source/lpc177x_8x_gpio.c ****     }
 727:../src/lib/lpc177x_8x/Drivers/source/lpc177x_8x_gpio.c **** 
 728:../src/lib/lpc177x_8x/Drivers/source/lpc177x_8x_gpio.c ****     return (0);
 1638              		.loc 1 728 0
 1639 0738 4FF00003 		mov	r3, #0
 1640              	.L113:
 729:../src/lib/lpc177x_8x/Drivers/source/lpc177x_8x_gpio.c **** }
 1641              		.loc 1 729 0
 1642 073c 1846     		mov	r0, r3
 1643 073e 07F11007 		add	r7, r7, #16
 1644 0742 BD46     		mov	sp, r7
 1645 0744 80BD     		pop	{r7, pc}
 1646              		.cfi_endproc
 1647              	.LFE80:
 1649 0746 00BF     		.align	2
 1650              		.global	FIO_ByteSetDir
 1651              		.thumb
 1652              		.thumb_func
 1654              	FIO_ByteSetDir:
 1655              	.LFB81:
 730:../src/lib/lpc177x_8x/Drivers/source/lpc177x_8x_gpio.c **** 
 731:../src/lib/lpc177x_8x/Drivers/source/lpc177x_8x_gpio.c **** 
 732:../src/lib/lpc177x_8x/Drivers/source/lpc177x_8x_gpio.c **** /* FIO Byte accessible ------------------------------------------------------------ */
 733:../src/lib/lpc177x_8x/Drivers/source/lpc177x_8x_gpio.c **** 
 734:../src/lib/lpc177x_8x/Drivers/source/lpc177x_8x_gpio.c **** /*********************************************************************//**
 735:../src/lib/lpc177x_8x/Drivers/source/lpc177x_8x_gpio.c ****  * @brief       Set direction for FIO port in byte accessible style
 736:../src/lib/lpc177x_8x/Drivers/source/lpc177x_8x_gpio.c ****  * @param[in]   portNum     Port number, in range from 0 to 4
 737:../src/lib/lpc177x_8x/Drivers/source/lpc177x_8x_gpio.c ****  * @param[in]   byteNum     Byte part number, should be in range from 0 to 3
 738:../src/lib/lpc177x_8x/Drivers/source/lpc177x_8x_gpio.c ****  * @param[in]   bitValue    Value that contains all bits in to set direction,
 739:../src/lib/lpc177x_8x/Drivers/source/lpc177x_8x_gpio.c ****  *                          in range from 0 to 0xFF.
 740:../src/lib/lpc177x_8x/Drivers/source/lpc177x_8x_gpio.c ****  * @param[in]   dir         Direction value, should be:
 741:../src/lib/lpc177x_8x/Drivers/source/lpc177x_8x_gpio.c ****  *                          - 0: Input.
 742:../src/lib/lpc177x_8x/Drivers/source/lpc177x_8x_gpio.c ****  *                          - 1: Output.
 743:../src/lib/lpc177x_8x/Drivers/source/lpc177x_8x_gpio.c ****  * @return      None
 744:../src/lib/lpc177x_8x/Drivers/source/lpc177x_8x_gpio.c ****  *
 745:../src/lib/lpc177x_8x/Drivers/source/lpc177x_8x_gpio.c ****  * Note: All remaining bits that are not activated in bitValue (value '0')
 746:../src/lib/lpc177x_8x/Drivers/source/lpc177x_8x_gpio.c ****  * will not be effected by this function.
 747:../src/lib/lpc177x_8x/Drivers/source/lpc177x_8x_gpio.c ****  **********************************************************************/
 748:../src/lib/lpc177x_8x/Drivers/source/lpc177x_8x_gpio.c **** void FIO_ByteSetDir(uint8_t portNum, uint8_t byteNum, uint8_t bitValue, uint8_t dir)
 749:../src/lib/lpc177x_8x/Drivers/source/lpc177x_8x_gpio.c **** {
 1656              		.loc 1 749 0
 1657              		.cfi_startproc
 1658              		@ args = 0, pretend = 0, frame = 16
 1659              		@ frame_needed = 1, uses_anonymous_args = 0
 1660 0748 80B5     		push	{r7, lr}
 1661              	.LCFI76:
 1662              		.cfi_def_cfa_offset 8
 1663              		.cfi_offset 7, -8
 1664              		.cfi_offset 14, -4
 1665 074a 84B0     		sub	sp, sp, #16
 1666              	.LCFI77:
 1667              		.cfi_def_cfa_offset 24
 1668 074c 00AF     		add	r7, sp, #0
 1669              	.LCFI78:
 1670              		.cfi_def_cfa_register 7
 1671 074e F871     		strb	r0, [r7, #7]
 1672 0750 B971     		strb	r1, [r7, #6]
 1673 0752 7A71     		strb	r2, [r7, #5]
 1674 0754 3B71     		strb	r3, [r7, #4]
 750:../src/lib/lpc177x_8x/Drivers/source/lpc177x_8x_gpio.c ****     GPIO_Byte_TypeDef *pFIO = FIO_ByteGetPointer(portNum);
 1675              		.loc 1 750 0
 1676 0756 FB79     		ldrb	r3, [r7, #7]	@ zero_extendqisi2
 1677 0758 1846     		mov	r0, r3
 1678 075a FFF7D1FC 		bl	FIO_ByteGetPointer
 1679 075e F860     		str	r0, [r7, #12]
 751:../src/lib/lpc177x_8x/Drivers/source/lpc177x_8x_gpio.c **** 
 752:../src/lib/lpc177x_8x/Drivers/source/lpc177x_8x_gpio.c ****     if(pFIO != NULL)
 1680              		.loc 1 752 0
 1681 0760 FB68     		ldr	r3, [r7, #12]
 1682 0762 002B     		cmp	r3, #0
 1683 0764 22D0     		beq	.L114
 753:../src/lib/lpc177x_8x/Drivers/source/lpc177x_8x_gpio.c ****     {
 754:../src/lib/lpc177x_8x/Drivers/source/lpc177x_8x_gpio.c ****         // Output direction
 755:../src/lib/lpc177x_8x/Drivers/source/lpc177x_8x_gpio.c ****         if (dir)
 1684              		.loc 1 755 0
 1685 0766 3B79     		ldrb	r3, [r7, #4]	@ zero_extendqisi2
 1686 0768 002B     		cmp	r3, #0
 1687 076a 0DD0     		beq	.L116
 756:../src/lib/lpc177x_8x/Drivers/source/lpc177x_8x_gpio.c ****         {
 757:../src/lib/lpc177x_8x/Drivers/source/lpc177x_8x_gpio.c ****             if (byteNum <= 3)
 1688              		.loc 1 757 0
 1689 076c BB79     		ldrb	r3, [r7, #6]	@ zero_extendqisi2
 1690 076e 032B     		cmp	r3, #3
 1691 0770 1CD8     		bhi	.L114
 758:../src/lib/lpc177x_8x/Drivers/source/lpc177x_8x_gpio.c ****             {
 759:../src/lib/lpc177x_8x/Drivers/source/lpc177x_8x_gpio.c ****                 pFIO->FIODIR[byteNum] |= bitValue;
 1692              		.loc 1 759 0
 1693 0772 BB79     		ldrb	r3, [r7, #6]	@ zero_extendqisi2
 1694 0774 BA79     		ldrb	r2, [r7, #6]	@ zero_extendqisi2
 1695 0776 F968     		ldr	r1, [r7, #12]
 1696 0778 8A5C     		ldrb	r2, [r1, r2]
 1697 077a D1B2     		uxtb	r1, r2
 1698 077c 7A79     		ldrb	r2, [r7, #5]
 1699 077e 0A43     		orrs	r2, r2, r1
 1700 0780 D1B2     		uxtb	r1, r2
 1701 0782 FA68     		ldr	r2, [r7, #12]
 1702 0784 D154     		strb	r1, [r2, r3]
 1703 0786 11E0     		b	.L114
 1704              	.L116:
 760:../src/lib/lpc177x_8x/Drivers/source/lpc177x_8x_gpio.c ****             }
 761:../src/lib/lpc177x_8x/Drivers/source/lpc177x_8x_gpio.c ****         }
 762:../src/lib/lpc177x_8x/Drivers/source/lpc177x_8x_gpio.c ****         // Input direction
 763:../src/lib/lpc177x_8x/Drivers/source/lpc177x_8x_gpio.c ****         else
 764:../src/lib/lpc177x_8x/Drivers/source/lpc177x_8x_gpio.c ****         {
 765:../src/lib/lpc177x_8x/Drivers/source/lpc177x_8x_gpio.c ****             if (byteNum <= 3)
 1705              		.loc 1 765 0
 1706 0788 BB79     		ldrb	r3, [r7, #6]	@ zero_extendqisi2
 1707 078a 032B     		cmp	r3, #3
 1708 078c 0ED8     		bhi	.L114
 766:../src/lib/lpc177x_8x/Drivers/source/lpc177x_8x_gpio.c ****             {
 767:../src/lib/lpc177x_8x/Drivers/source/lpc177x_8x_gpio.c ****                 pFIO->FIODIR[byteNum] &= ~bitValue;
 1709              		.loc 1 767 0
 1710 078e BB79     		ldrb	r3, [r7, #6]	@ zero_extendqisi2
 1711 0790 BA79     		ldrb	r2, [r7, #6]	@ zero_extendqisi2
 1712 0792 F968     		ldr	r1, [r7, #12]
 1713 0794 8A5C     		ldrb	r2, [r1, r2]
 1714 0796 D2B2     		uxtb	r2, r2
 1715 0798 D1B2     		uxtb	r1, r2
 1716 079a 7A79     		ldrb	r2, [r7, #5]	@ zero_extendqisi2
 1717 079c 6FEA0202 		mvn	r2, r2
 1718 07a0 D2B2     		uxtb	r2, r2
 1719 07a2 0A40     		ands	r2, r2, r1
 1720 07a4 D2B2     		uxtb	r2, r2
 1721 07a6 D1B2     		uxtb	r1, r2
 1722 07a8 FA68     		ldr	r2, [r7, #12]
 1723 07aa D154     		strb	r1, [r2, r3]
 1724              	.L114:
 768:../src/lib/lpc177x_8x/Drivers/source/lpc177x_8x_gpio.c ****             }
 769:../src/lib/lpc177x_8x/Drivers/source/lpc177x_8x_gpio.c ****         }
 770:../src/lib/lpc177x_8x/Drivers/source/lpc177x_8x_gpio.c ****     }
 771:../src/lib/lpc177x_8x/Drivers/source/lpc177x_8x_gpio.c **** }
 1725              		.loc 1 771 0
 1726 07ac 07F11007 		add	r7, r7, #16
 1727 07b0 BD46     		mov	sp, r7
 1728 07b2 80BD     		pop	{r7, pc}
 1729              		.cfi_endproc
 1730              	.LFE81:
 1732              		.align	2
 1733              		.global	FIO_ByteSetMask
 1734              		.thumb
 1735              		.thumb_func
 1737              	FIO_ByteSetMask:
 1738              	.LFB82:
 772:../src/lib/lpc177x_8x/Drivers/source/lpc177x_8x_gpio.c **** 
 773:../src/lib/lpc177x_8x/Drivers/source/lpc177x_8x_gpio.c **** /*********************************************************************//**
 774:../src/lib/lpc177x_8x/Drivers/source/lpc177x_8x_gpio.c ****  * @brief       Set mask value for bits in FIO port in byte accessible style
 775:../src/lib/lpc177x_8x/Drivers/source/lpc177x_8x_gpio.c ****  * @param[in]   portNum     Port number, in range from 0 to 4
 776:../src/lib/lpc177x_8x/Drivers/source/lpc177x_8x_gpio.c ****  * @param[in]   byteNum     Byte part number, should be in range from 0 to 3
 777:../src/lib/lpc177x_8x/Drivers/source/lpc177x_8x_gpio.c ****  * @param[in]   bitValue    Value that contains all bits in to set mask,
 778:../src/lib/lpc177x_8x/Drivers/source/lpc177x_8x_gpio.c ****  *                          in range from 0 to 0xFF.
 779:../src/lib/lpc177x_8x/Drivers/source/lpc177x_8x_gpio.c ****  * @param[in]   maskValue   Mask value contains state value for each bit:
 780:../src/lib/lpc177x_8x/Drivers/source/lpc177x_8x_gpio.c ****  *                          - 0: not mask.
 781:../src/lib/lpc177x_8x/Drivers/source/lpc177x_8x_gpio.c ****  *                          - 1: mask.
 782:../src/lib/lpc177x_8x/Drivers/source/lpc177x_8x_gpio.c ****  * @return      None
 783:../src/lib/lpc177x_8x/Drivers/source/lpc177x_8x_gpio.c ****  *
 784:../src/lib/lpc177x_8x/Drivers/source/lpc177x_8x_gpio.c ****  * Note:
 785:../src/lib/lpc177x_8x/Drivers/source/lpc177x_8x_gpio.c ****  * - All remaining bits that are not activated in bitValue (value '0')
 786:../src/lib/lpc177x_8x/Drivers/source/lpc177x_8x_gpio.c ****  * will not be effected by this function.
 787:../src/lib/lpc177x_8x/Drivers/source/lpc177x_8x_gpio.c ****  * - After executing this function, in mask register, value '0' on each bit
 788:../src/lib/lpc177x_8x/Drivers/source/lpc177x_8x_gpio.c ****  * enables an access to the corresponding physical pin via a read or write access,
 789:../src/lib/lpc177x_8x/Drivers/source/lpc177x_8x_gpio.c ****  * while value '1' on bit (masked) that corresponding pin will not be changed
 790:../src/lib/lpc177x_8x/Drivers/source/lpc177x_8x_gpio.c ****  * with write access and if read, will not be reflected in the updated pin.
 791:../src/lib/lpc177x_8x/Drivers/source/lpc177x_8x_gpio.c ****  **********************************************************************/
 792:../src/lib/lpc177x_8x/Drivers/source/lpc177x_8x_gpio.c **** void FIO_ByteSetMask(uint8_t portNum, uint8_t byteNum, uint8_t bitValue, uint8_t maskValue)
 793:../src/lib/lpc177x_8x/Drivers/source/lpc177x_8x_gpio.c **** {
 1739              		.loc 1 793 0
 1740              		.cfi_startproc
 1741              		@ args = 0, pretend = 0, frame = 16
 1742              		@ frame_needed = 1, uses_anonymous_args = 0
 1743 07b4 80B5     		push	{r7, lr}
 1744              	.LCFI79:
 1745              		.cfi_def_cfa_offset 8
 1746              		.cfi_offset 7, -8
 1747              		.cfi_offset 14, -4
 1748 07b6 84B0     		sub	sp, sp, #16
 1749              	.LCFI80:
 1750              		.cfi_def_cfa_offset 24
 1751 07b8 00AF     		add	r7, sp, #0
 1752              	.LCFI81:
 1753              		.cfi_def_cfa_register 7
 1754 07ba F871     		strb	r0, [r7, #7]
 1755 07bc B971     		strb	r1, [r7, #6]
 1756 07be 7A71     		strb	r2, [r7, #5]
 1757 07c0 3B71     		strb	r3, [r7, #4]
 794:../src/lib/lpc177x_8x/Drivers/source/lpc177x_8x_gpio.c ****     GPIO_Byte_TypeDef *pFIO = FIO_ByteGetPointer(portNum);
 1758              		.loc 1 794 0
 1759 07c2 FB79     		ldrb	r3, [r7, #7]	@ zero_extendqisi2
 1760 07c4 1846     		mov	r0, r3
 1761 07c6 FFF79BFC 		bl	FIO_ByteGetPointer
 1762 07ca F860     		str	r0, [r7, #12]
 795:../src/lib/lpc177x_8x/Drivers/source/lpc177x_8x_gpio.c **** 
 796:../src/lib/lpc177x_8x/Drivers/source/lpc177x_8x_gpio.c ****     if(pFIO != NULL)
 1763              		.loc 1 796 0
 1764 07cc FB68     		ldr	r3, [r7, #12]
 1765 07ce 002B     		cmp	r3, #0
 1766 07d0 26D0     		beq	.L117
 797:../src/lib/lpc177x_8x/Drivers/source/lpc177x_8x_gpio.c ****     {
 798:../src/lib/lpc177x_8x/Drivers/source/lpc177x_8x_gpio.c ****         // Mask
 799:../src/lib/lpc177x_8x/Drivers/source/lpc177x_8x_gpio.c ****         if (maskValue)
 1767              		.loc 1 799 0
 1768 07d2 3B79     		ldrb	r3, [r7, #4]	@ zero_extendqisi2
 1769 07d4 002B     		cmp	r3, #0
 1770 07d6 0FD0     		beq	.L119
 800:../src/lib/lpc177x_8x/Drivers/source/lpc177x_8x_gpio.c ****         {
 801:../src/lib/lpc177x_8x/Drivers/source/lpc177x_8x_gpio.c ****             if (byteNum <= 3)
 1771              		.loc 1 801 0
 1772 07d8 BB79     		ldrb	r3, [r7, #6]	@ zero_extendqisi2
 1773 07da 032B     		cmp	r3, #3
 1774 07dc 20D8     		bhi	.L117
 802:../src/lib/lpc177x_8x/Drivers/source/lpc177x_8x_gpio.c ****             {
 803:../src/lib/lpc177x_8x/Drivers/source/lpc177x_8x_gpio.c ****                 pFIO->FIOMASK[byteNum] |= bitValue;
 1775              		.loc 1 803 0
 1776 07de BB79     		ldrb	r3, [r7, #6]	@ zero_extendqisi2
 1777 07e0 BA79     		ldrb	r2, [r7, #6]	@ zero_extendqisi2
 1778 07e2 F968     		ldr	r1, [r7, #12]
 1779 07e4 8A18     		adds	r2, r1, r2
 1780 07e6 127C     		ldrb	r2, [r2, #16]
 1781 07e8 D1B2     		uxtb	r1, r2
 1782 07ea 7A79     		ldrb	r2, [r7, #5]
 1783 07ec 0A43     		orrs	r2, r2, r1
 1784 07ee D2B2     		uxtb	r2, r2
 1785 07f0 F968     		ldr	r1, [r7, #12]
 1786 07f2 CB18     		adds	r3, r1, r3
 1787 07f4 1A74     		strb	r2, [r3, #16]
 1788 07f6 13E0     		b	.L117
 1789              	.L119:
 804:../src/lib/lpc177x_8x/Drivers/source/lpc177x_8x_gpio.c ****             }
 805:../src/lib/lpc177x_8x/Drivers/source/lpc177x_8x_gpio.c ****         }
 806:../src/lib/lpc177x_8x/Drivers/source/lpc177x_8x_gpio.c ****         // Un-mask
 807:../src/lib/lpc177x_8x/Drivers/source/lpc177x_8x_gpio.c ****         else {
 808:../src/lib/lpc177x_8x/Drivers/source/lpc177x_8x_gpio.c ****             if (byteNum <= 3)
 1790              		.loc 1 808 0
 1791 07f8 BB79     		ldrb	r3, [r7, #6]	@ zero_extendqisi2
 1792 07fa 032B     		cmp	r3, #3
 1793 07fc 10D8     		bhi	.L117
 809:../src/lib/lpc177x_8x/Drivers/source/lpc177x_8x_gpio.c ****             {
 810:../src/lib/lpc177x_8x/Drivers/source/lpc177x_8x_gpio.c ****                 pFIO->FIOMASK[byteNum] &= ~bitValue;
 1794              		.loc 1 810 0
 1795 07fe BB79     		ldrb	r3, [r7, #6]	@ zero_extendqisi2
 1796 0800 BA79     		ldrb	r2, [r7, #6]	@ zero_extendqisi2
 1797 0802 F968     		ldr	r1, [r7, #12]
 1798 0804 8A18     		adds	r2, r1, r2
 1799 0806 127C     		ldrb	r2, [r2, #16]
 1800 0808 D2B2     		uxtb	r2, r2
 1801 080a D1B2     		uxtb	r1, r2
 1802 080c 7A79     		ldrb	r2, [r7, #5]	@ zero_extendqisi2
 1803 080e 6FEA0202 		mvn	r2, r2
 1804 0812 D2B2     		uxtb	r2, r2
 1805 0814 0A40     		ands	r2, r2, r1
 1806 0816 D2B2     		uxtb	r2, r2
 1807 0818 D2B2     		uxtb	r2, r2
 1808 081a F968     		ldr	r1, [r7, #12]
 1809 081c CB18     		adds	r3, r1, r3
 1810 081e 1A74     		strb	r2, [r3, #16]
 1811              	.L117:
 811:../src/lib/lpc177x_8x/Drivers/source/lpc177x_8x_gpio.c ****             }
 812:../src/lib/lpc177x_8x/Drivers/source/lpc177x_8x_gpio.c ****         }
 813:../src/lib/lpc177x_8x/Drivers/source/lpc177x_8x_gpio.c ****     }
 814:../src/lib/lpc177x_8x/Drivers/source/lpc177x_8x_gpio.c **** }
 1812              		.loc 1 814 0
 1813 0820 07F11007 		add	r7, r7, #16
 1814 0824 BD46     		mov	sp, r7
 1815 0826 80BD     		pop	{r7, pc}
 1816              		.cfi_endproc
 1817              	.LFE82:
 1819              		.align	2
 1820              		.global	FIO_ByteSetValue
 1821              		.thumb
 1822              		.thumb_func
 1824              	FIO_ByteSetValue:
 1825              	.LFB83:
 815:../src/lib/lpc177x_8x/Drivers/source/lpc177x_8x_gpio.c **** 
 816:../src/lib/lpc177x_8x/Drivers/source/lpc177x_8x_gpio.c **** 
 817:../src/lib/lpc177x_8x/Drivers/source/lpc177x_8x_gpio.c **** /*********************************************************************//**
 818:../src/lib/lpc177x_8x/Drivers/source/lpc177x_8x_gpio.c ****  * @brief       Set bits for FIO port in byte accessible style
 819:../src/lib/lpc177x_8x/Drivers/source/lpc177x_8x_gpio.c ****  * @param[in]   portNum     Port number, in range from 0 to 4
 820:../src/lib/lpc177x_8x/Drivers/source/lpc177x_8x_gpio.c ****  * @param[in]   byteNum     Byte part number, should be in range from 0 to 3
 821:../src/lib/lpc177x_8x/Drivers/source/lpc177x_8x_gpio.c ****  * @param[in]   bitValue    Value that contains all bits in to set,
 822:../src/lib/lpc177x_8x/Drivers/source/lpc177x_8x_gpio.c ****  *                          in range from 0 to 0xFF.
 823:../src/lib/lpc177x_8x/Drivers/source/lpc177x_8x_gpio.c ****  * @return      None
 824:../src/lib/lpc177x_8x/Drivers/source/lpc177x_8x_gpio.c ****  *
 825:../src/lib/lpc177x_8x/Drivers/source/lpc177x_8x_gpio.c ****  * Note:
 826:../src/lib/lpc177x_8x/Drivers/source/lpc177x_8x_gpio.c ****  * - For all bits that has been set as input direction, this function will
 827:../src/lib/lpc177x_8x/Drivers/source/lpc177x_8x_gpio.c ****  * not effect.
 828:../src/lib/lpc177x_8x/Drivers/source/lpc177x_8x_gpio.c ****  * - For all remaining bits that are not activated in bitValue (value '0')
 829:../src/lib/lpc177x_8x/Drivers/source/lpc177x_8x_gpio.c ****  * will not be effected by this function.
 830:../src/lib/lpc177x_8x/Drivers/source/lpc177x_8x_gpio.c ****  **********************************************************************/
 831:../src/lib/lpc177x_8x/Drivers/source/lpc177x_8x_gpio.c **** void FIO_ByteSetValue(uint8_t portNum, uint8_t byteNum, uint8_t bitValue)
 832:../src/lib/lpc177x_8x/Drivers/source/lpc177x_8x_gpio.c **** {
 1826              		.loc 1 832 0
 1827              		.cfi_startproc
 1828              		@ args = 0, pretend = 0, frame = 16
 1829              		@ frame_needed = 1, uses_anonymous_args = 0
 1830 0828 80B5     		push	{r7, lr}
 1831              	.LCFI82:
 1832              		.cfi_def_cfa_offset 8
 1833              		.cfi_offset 7, -8
 1834              		.cfi_offset 14, -4
 1835 082a 84B0     		sub	sp, sp, #16
 1836              	.LCFI83:
 1837              		.cfi_def_cfa_offset 24
 1838 082c 00AF     		add	r7, sp, #0
 1839              	.LCFI84:
 1840              		.cfi_def_cfa_register 7
 1841 082e 1346     		mov	r3, r2
 1842 0830 0246     		mov	r2, r0
 1843 0832 FA71     		strb	r2, [r7, #7]
 1844 0834 0A46     		mov	r2, r1
 1845 0836 BA71     		strb	r2, [r7, #6]
 1846 0838 7B71     		strb	r3, [r7, #5]
 833:../src/lib/lpc177x_8x/Drivers/source/lpc177x_8x_gpio.c ****     GPIO_Byte_TypeDef *pFIO = FIO_ByteGetPointer(portNum);
 1847              		.loc 1 833 0
 1848 083a FB79     		ldrb	r3, [r7, #7]	@ zero_extendqisi2
 1849 083c 1846     		mov	r0, r3
 1850 083e FFF75FFC 		bl	FIO_ByteGetPointer
 1851 0842 F860     		str	r0, [r7, #12]
 834:../src/lib/lpc177x_8x/Drivers/source/lpc177x_8x_gpio.c **** 
 835:../src/lib/lpc177x_8x/Drivers/source/lpc177x_8x_gpio.c ****     if (pFIO != NULL) {
 1852              		.loc 1 835 0
 1853 0844 FB68     		ldr	r3, [r7, #12]
 1854 0846 002B     		cmp	r3, #0
 1855 0848 07D0     		beq	.L120
 836:../src/lib/lpc177x_8x/Drivers/source/lpc177x_8x_gpio.c ****         if (byteNum <= 3)
 1856              		.loc 1 836 0
 1857 084a BB79     		ldrb	r3, [r7, #6]	@ zero_extendqisi2
 1858 084c 032B     		cmp	r3, #3
 1859 084e 04D8     		bhi	.L120
 837:../src/lib/lpc177x_8x/Drivers/source/lpc177x_8x_gpio.c ****         {
 838:../src/lib/lpc177x_8x/Drivers/source/lpc177x_8x_gpio.c ****             pFIO->FIOSET[byteNum] = bitValue;
 1860              		.loc 1 838 0
 1861 0850 BB79     		ldrb	r3, [r7, #6]	@ zero_extendqisi2
 1862 0852 FA68     		ldr	r2, [r7, #12]
 1863 0854 D318     		adds	r3, r2, r3
 1864 0856 7A79     		ldrb	r2, [r7, #5]
 1865 0858 1A76     		strb	r2, [r3, #24]
 1866              	.L120:
 839:../src/lib/lpc177x_8x/Drivers/source/lpc177x_8x_gpio.c ****         }
 840:../src/lib/lpc177x_8x/Drivers/source/lpc177x_8x_gpio.c ****     }
 841:../src/lib/lpc177x_8x/Drivers/source/lpc177x_8x_gpio.c **** }
 1867              		.loc 1 841 0
 1868 085a 07F11007 		add	r7, r7, #16
 1869 085e BD46     		mov	sp, r7
 1870 0860 80BD     		pop	{r7, pc}
 1871              		.cfi_endproc
 1872              	.LFE83:
 1874 0862 00BF     		.align	2
 1875              		.global	FIO_ByteClearValue
 1876              		.thumb
 1877              		.thumb_func
 1879              	FIO_ByteClearValue:
 1880              	.LFB84:
 842:../src/lib/lpc177x_8x/Drivers/source/lpc177x_8x_gpio.c **** 
 843:../src/lib/lpc177x_8x/Drivers/source/lpc177x_8x_gpio.c **** 
 844:../src/lib/lpc177x_8x/Drivers/source/lpc177x_8x_gpio.c **** /*********************************************************************//**
 845:../src/lib/lpc177x_8x/Drivers/source/lpc177x_8x_gpio.c ****  * @brief       Clear bits for FIO port in byte accessible style
 846:../src/lib/lpc177x_8x/Drivers/source/lpc177x_8x_gpio.c ****  * @param[in]   portNum     Port number, in range from 0 to 4
 847:../src/lib/lpc177x_8x/Drivers/source/lpc177x_8x_gpio.c ****  * @param[in]   byteNum     Byte part number, should be in range from 0 to 3
 848:../src/lib/lpc177x_8x/Drivers/source/lpc177x_8x_gpio.c ****  * @param[in]   bitValue    Value that contains all bits in to clear,
 849:../src/lib/lpc177x_8x/Drivers/source/lpc177x_8x_gpio.c ****  *                          in range from 0 to 0xFF.
 850:../src/lib/lpc177x_8x/Drivers/source/lpc177x_8x_gpio.c ****  * @return      None
 851:../src/lib/lpc177x_8x/Drivers/source/lpc177x_8x_gpio.c ****  *
 852:../src/lib/lpc177x_8x/Drivers/source/lpc177x_8x_gpio.c ****  * Note:
 853:../src/lib/lpc177x_8x/Drivers/source/lpc177x_8x_gpio.c ****  * - For all bits that has been set as input direction, this function will
 854:../src/lib/lpc177x_8x/Drivers/source/lpc177x_8x_gpio.c ****  * not effect.
 855:../src/lib/lpc177x_8x/Drivers/source/lpc177x_8x_gpio.c ****  * - For all remaining bits that are not activated in bitValue (value '0')
 856:../src/lib/lpc177x_8x/Drivers/source/lpc177x_8x_gpio.c ****  * will not be effected by this function.
 857:../src/lib/lpc177x_8x/Drivers/source/lpc177x_8x_gpio.c ****  **********************************************************************/
 858:../src/lib/lpc177x_8x/Drivers/source/lpc177x_8x_gpio.c **** void FIO_ByteClearValue(uint8_t portNum, uint8_t byteNum, uint8_t bitValue)
 859:../src/lib/lpc177x_8x/Drivers/source/lpc177x_8x_gpio.c **** {
 1881              		.loc 1 859 0
 1882              		.cfi_startproc
 1883              		@ args = 0, pretend = 0, frame = 16
 1884              		@ frame_needed = 1, uses_anonymous_args = 0
 1885 0864 80B5     		push	{r7, lr}
 1886              	.LCFI85:
 1887              		.cfi_def_cfa_offset 8
 1888              		.cfi_offset 7, -8
 1889              		.cfi_offset 14, -4
 1890 0866 84B0     		sub	sp, sp, #16
 1891              	.LCFI86:
 1892              		.cfi_def_cfa_offset 24
 1893 0868 00AF     		add	r7, sp, #0
 1894              	.LCFI87:
 1895              		.cfi_def_cfa_register 7
 1896 086a 1346     		mov	r3, r2
 1897 086c 0246     		mov	r2, r0
 1898 086e FA71     		strb	r2, [r7, #7]
 1899 0870 0A46     		mov	r2, r1
 1900 0872 BA71     		strb	r2, [r7, #6]
 1901 0874 7B71     		strb	r3, [r7, #5]
 860:../src/lib/lpc177x_8x/Drivers/source/lpc177x_8x_gpio.c ****     GPIO_Byte_TypeDef *pFIO = FIO_ByteGetPointer(portNum);
 1902              		.loc 1 860 0
 1903 0876 FB79     		ldrb	r3, [r7, #7]	@ zero_extendqisi2
 1904 0878 1846     		mov	r0, r3
 1905 087a FFF741FC 		bl	FIO_ByteGetPointer
 1906 087e F860     		str	r0, [r7, #12]
 861:../src/lib/lpc177x_8x/Drivers/source/lpc177x_8x_gpio.c **** 
 862:../src/lib/lpc177x_8x/Drivers/source/lpc177x_8x_gpio.c ****     if (pFIO != NULL)
 1907              		.loc 1 862 0
 1908 0880 FB68     		ldr	r3, [r7, #12]
 1909 0882 002B     		cmp	r3, #0
 1910 0884 07D0     		beq	.L122
 863:../src/lib/lpc177x_8x/Drivers/source/lpc177x_8x_gpio.c ****     {
 864:../src/lib/lpc177x_8x/Drivers/source/lpc177x_8x_gpio.c ****         if (byteNum <= 3)
 1911              		.loc 1 864 0
 1912 0886 BB79     		ldrb	r3, [r7, #6]	@ zero_extendqisi2
 1913 0888 032B     		cmp	r3, #3
 1914 088a 04D8     		bhi	.L122
 865:../src/lib/lpc177x_8x/Drivers/source/lpc177x_8x_gpio.c ****         {
 866:../src/lib/lpc177x_8x/Drivers/source/lpc177x_8x_gpio.c ****             pFIO->FIOCLR[byteNum] = bitValue;
 1915              		.loc 1 866 0
 1916 088c BB79     		ldrb	r3, [r7, #6]	@ zero_extendqisi2
 1917 088e FA68     		ldr	r2, [r7, #12]
 1918 0890 D318     		adds	r3, r2, r3
 1919 0892 7A79     		ldrb	r2, [r7, #5]
 1920 0894 1A77     		strb	r2, [r3, #28]
 1921              	.L122:
 867:../src/lib/lpc177x_8x/Drivers/source/lpc177x_8x_gpio.c ****         }
 868:../src/lib/lpc177x_8x/Drivers/source/lpc177x_8x_gpio.c ****     }
 869:../src/lib/lpc177x_8x/Drivers/source/lpc177x_8x_gpio.c **** }
 1922              		.loc 1 869 0
 1923 0896 07F11007 		add	r7, r7, #16
 1924 089a BD46     		mov	sp, r7
 1925 089c 80BD     		pop	{r7, pc}
 1926              		.cfi_endproc
 1927              	.LFE84:
 1929 089e 00BF     		.align	2
 1930              		.global	FIO_ByteReadValue
 1931              		.thumb
 1932              		.thumb_func
 1934              	FIO_ByteReadValue:
 1935              	.LFB85:
 870:../src/lib/lpc177x_8x/Drivers/source/lpc177x_8x_gpio.c **** 
 871:../src/lib/lpc177x_8x/Drivers/source/lpc177x_8x_gpio.c **** 
 872:../src/lib/lpc177x_8x/Drivers/source/lpc177x_8x_gpio.c **** /*********************************************************************//**
 873:../src/lib/lpc177x_8x/Drivers/source/lpc177x_8x_gpio.c ****  * @brief       Read Current state on port pin that have input direction of GPIO
 874:../src/lib/lpc177x_8x/Drivers/source/lpc177x_8x_gpio.c ****  *              in byte accessible style.
 875:../src/lib/lpc177x_8x/Drivers/source/lpc177x_8x_gpio.c ****  * @param[in]   portNum     Port number, in range from 0 to 4
 876:../src/lib/lpc177x_8x/Drivers/source/lpc177x_8x_gpio.c ****  * @param[in]   byteNum     Byte part number, should be in range from 0 to 3
 877:../src/lib/lpc177x_8x/Drivers/source/lpc177x_8x_gpio.c ****  * @return      Current value of FIO port pin of specified byte part.
 878:../src/lib/lpc177x_8x/Drivers/source/lpc177x_8x_gpio.c ****  * Note: Return value contain state of each port pin (bit) on that FIO regardless
 879:../src/lib/lpc177x_8x/Drivers/source/lpc177x_8x_gpio.c ****  * its direction is input or output.
 880:../src/lib/lpc177x_8x/Drivers/source/lpc177x_8x_gpio.c ****  **********************************************************************/
 881:../src/lib/lpc177x_8x/Drivers/source/lpc177x_8x_gpio.c **** uint8_t FIO_ByteReadValue(uint8_t portNum, uint8_t byteNum)
 882:../src/lib/lpc177x_8x/Drivers/source/lpc177x_8x_gpio.c **** {
 1936              		.loc 1 882 0
 1937              		.cfi_startproc
 1938              		@ args = 0, pretend = 0, frame = 16
 1939              		@ frame_needed = 1, uses_anonymous_args = 0
 1940 08a0 80B5     		push	{r7, lr}
 1941              	.LCFI88:
 1942              		.cfi_def_cfa_offset 8
 1943              		.cfi_offset 7, -8
 1944              		.cfi_offset 14, -4
 1945 08a2 84B0     		sub	sp, sp, #16
 1946              	.LCFI89:
 1947              		.cfi_def_cfa_offset 24
 1948 08a4 00AF     		add	r7, sp, #0
 1949              	.LCFI90:
 1950              		.cfi_def_cfa_register 7
 1951 08a6 0246     		mov	r2, r0
 1952 08a8 0B46     		mov	r3, r1
 1953 08aa FA71     		strb	r2, [r7, #7]
 1954 08ac BB71     		strb	r3, [r7, #6]
 883:../src/lib/lpc177x_8x/Drivers/source/lpc177x_8x_gpio.c ****     GPIO_Byte_TypeDef *pFIO = FIO_ByteGetPointer(portNum);
 1955              		.loc 1 883 0
 1956 08ae FB79     		ldrb	r3, [r7, #7]	@ zero_extendqisi2
 1957 08b0 1846     		mov	r0, r3
 1958 08b2 FFF725FC 		bl	FIO_ByteGetPointer
 1959 08b6 F860     		str	r0, [r7, #12]
 884:../src/lib/lpc177x_8x/Drivers/source/lpc177x_8x_gpio.c **** 
 885:../src/lib/lpc177x_8x/Drivers/source/lpc177x_8x_gpio.c ****     if (pFIO != NULL)
 1960              		.loc 1 885 0
 1961 08b8 FB68     		ldr	r3, [r7, #12]
 1962 08ba 002B     		cmp	r3, #0
 1963 08bc 08D0     		beq	.L125
 886:../src/lib/lpc177x_8x/Drivers/source/lpc177x_8x_gpio.c ****     {
 887:../src/lib/lpc177x_8x/Drivers/source/lpc177x_8x_gpio.c ****         if (byteNum <= 3)
 1964              		.loc 1 887 0
 1965 08be BB79     		ldrb	r3, [r7, #6]	@ zero_extendqisi2
 1966 08c0 032B     		cmp	r3, #3
 1967 08c2 05D8     		bhi	.L125
 888:../src/lib/lpc177x_8x/Drivers/source/lpc177x_8x_gpio.c ****         {
 889:../src/lib/lpc177x_8x/Drivers/source/lpc177x_8x_gpio.c ****             return (pFIO->FIOPIN[byteNum]);
 1968              		.loc 1 889 0
 1969 08c4 BB79     		ldrb	r3, [r7, #6]	@ zero_extendqisi2
 1970 08c6 FA68     		ldr	r2, [r7, #12]
 1971 08c8 D318     		adds	r3, r2, r3
 1972 08ca 1B7D     		ldrb	r3, [r3, #20]
 1973 08cc DBB2     		uxtb	r3, r3
 1974 08ce 01E0     		b	.L126
 1975              	.L125:
 890:../src/lib/lpc177x_8x/Drivers/source/lpc177x_8x_gpio.c ****         }
 891:../src/lib/lpc177x_8x/Drivers/source/lpc177x_8x_gpio.c ****     }
 892:../src/lib/lpc177x_8x/Drivers/source/lpc177x_8x_gpio.c ****     return (0);
 1976              		.loc 1 892 0
 1977 08d0 4FF00003 		mov	r3, #0
 1978              	.L126:
 893:../src/lib/lpc177x_8x/Drivers/source/lpc177x_8x_gpio.c **** }
 1979              		.loc 1 893 0
 1980 08d4 1846     		mov	r0, r3
 1981 08d6 07F11007 		add	r7, r7, #16
 1982 08da BD46     		mov	sp, r7
 1983 08dc 80BD     		pop	{r7, pc}
 1984              		.cfi_endproc
 1985              	.LFE85:
 1987              	.Letext0:
 1988              		.file 2 "g:\\program files\\codesourcery\\sourcery_codebench_lite_for_arm_eabi\\bin\\../lib/gcc/ar
 1989              		.file 3 "D:\\workspace_gnu\\RTT_Demo0\\src\\lib\\lpc177x_8x\\Drivers\\include/lpc_types.h"
 1990              		.file 4 "D:\\workspace_gnu\\RTT_Demo0\\src\\lib\\lpc177x_8x\\Core\\Device\\NXP\\LPC177x_8x\\Includ
 1991              		.file 5 "D:\\workspace_gnu\\RTT_Demo0\\src\\lib\\lpc177x_8x\\Drivers\\include/lpc177x_8x_gpio.h"
 1992              		.file 6 "D:\\workspace_gnu\\RTT_Demo0\\src\\lib\\lpc177x_8x\\Core\\CMSIS\\Include/core_cm3.h"