   1              		.syntax unified
   2              		.cpu cortex-m4
   3              		.fpu softvfp
   4              		.eabi_attribute 20, 1
   5              		.eabi_attribute 21, 1
   6              		.eabi_attribute 23, 3
   7              		.eabi_attribute 24, 1
   8              		.eabi_attribute 25, 1
   9              		.eabi_attribute 26, 1
  10              		.eabi_attribute 30, 6
  11              		.eabi_attribute 34, 1
  12              		.eabi_attribute 18, 4
  13              		.thumb
  14              		.file	"lpc177x_8x_mcpwm.c"
  15              		.text
  16              	.Ltext0:
  17              		.cfi_sections	.debug_frame
  18              		.align	2
  19              		.global	MCPWM_Init
  20              		.thumb
  21              		.thumb_func
  23              	MCPWM_Init:
  24              	.LFB55:
  25              		.file 1 "../src/lib/lpc177x_8x/Drivers/source/lpc177x_8x_mcpwm.c"
   1:../src/lib/lpc177x_8x/Drivers/source/lpc177x_8x_mcpwm.c **** /**********************************************************************
   2:../src/lib/lpc177x_8x/Drivers/source/lpc177x_8x_mcpwm.c **** * $Id$      lpc177x_8x_mcpwm.c          2011-06-02
   3:../src/lib/lpc177x_8x/Drivers/source/lpc177x_8x_mcpwm.c **** *//**
   4:../src/lib/lpc177x_8x/Drivers/source/lpc177x_8x_mcpwm.c **** * @file     lpc177x_8x_mcpwm.c
   5:../src/lib/lpc177x_8x/Drivers/source/lpc177x_8x_mcpwm.c **** * @brief    Contains all functions support for Motor Control PWM
   6:../src/lib/lpc177x_8x/Drivers/source/lpc177x_8x_mcpwm.c **** *           firmware library on LPC177x_8x
   7:../src/lib/lpc177x_8x/Drivers/source/lpc177x_8x_mcpwm.c **** * @version  1.0
   8:../src/lib/lpc177x_8x/Drivers/source/lpc177x_8x_mcpwm.c **** * @date     02. June. 2011
   9:../src/lib/lpc177x_8x/Drivers/source/lpc177x_8x_mcpwm.c **** * @author   NXP MCU SW Application Team
  10:../src/lib/lpc177x_8x/Drivers/source/lpc177x_8x_mcpwm.c **** * 
  11:../src/lib/lpc177x_8x/Drivers/source/lpc177x_8x_mcpwm.c **** * Copyright(C) 2011, NXP Semiconductor
  12:../src/lib/lpc177x_8x/Drivers/source/lpc177x_8x_mcpwm.c **** * All rights reserved.
  13:../src/lib/lpc177x_8x/Drivers/source/lpc177x_8x_mcpwm.c **** *
  14:../src/lib/lpc177x_8x/Drivers/source/lpc177x_8x_mcpwm.c **** ***********************************************************************
  15:../src/lib/lpc177x_8x/Drivers/source/lpc177x_8x_mcpwm.c **** * Software that is described herein is for illustrative purposes only
  16:../src/lib/lpc177x_8x/Drivers/source/lpc177x_8x_mcpwm.c **** * which provides customers with programming information regarding the
  17:../src/lib/lpc177x_8x/Drivers/source/lpc177x_8x_mcpwm.c **** * products. This software is supplied "AS IS" without any warranties.
  18:../src/lib/lpc177x_8x/Drivers/source/lpc177x_8x_mcpwm.c **** * NXP Semiconductors assumes no responsibility or liability for the
  19:../src/lib/lpc177x_8x/Drivers/source/lpc177x_8x_mcpwm.c **** * use of the software, conveys no license or title under any patent,
  20:../src/lib/lpc177x_8x/Drivers/source/lpc177x_8x_mcpwm.c **** * copyright, or mask work right to the product. NXP Semiconductors
  21:../src/lib/lpc177x_8x/Drivers/source/lpc177x_8x_mcpwm.c **** * reserves the right to make changes in the software without
  22:../src/lib/lpc177x_8x/Drivers/source/lpc177x_8x_mcpwm.c **** * notification. NXP Semiconductors also make no representation or
  23:../src/lib/lpc177x_8x/Drivers/source/lpc177x_8x_mcpwm.c **** * warranty that such application will be suitable for the specified
  24:../src/lib/lpc177x_8x/Drivers/source/lpc177x_8x_mcpwm.c **** * use without further testing or modification.
  25:../src/lib/lpc177x_8x/Drivers/source/lpc177x_8x_mcpwm.c **** * Permission to use, copy, modify, and distribute this software and its
  26:../src/lib/lpc177x_8x/Drivers/source/lpc177x_8x_mcpwm.c **** * documentation is hereby granted, under NXP Semiconductors'
  27:../src/lib/lpc177x_8x/Drivers/source/lpc177x_8x_mcpwm.c **** * relevant copyright in the software, without fee, provided that it
  28:../src/lib/lpc177x_8x/Drivers/source/lpc177x_8x_mcpwm.c **** * is used in conjunction with NXP Semiconductors microcontrollers.  This
  29:../src/lib/lpc177x_8x/Drivers/source/lpc177x_8x_mcpwm.c **** * copyright, permission, and disclaimer notice must appear in all copies of
  30:../src/lib/lpc177x_8x/Drivers/source/lpc177x_8x_mcpwm.c **** * this code.
  31:../src/lib/lpc177x_8x/Drivers/source/lpc177x_8x_mcpwm.c **** **********************************************************************/
  32:../src/lib/lpc177x_8x/Drivers/source/lpc177x_8x_mcpwm.c **** 
  33:../src/lib/lpc177x_8x/Drivers/source/lpc177x_8x_mcpwm.c **** 
  34:../src/lib/lpc177x_8x/Drivers/source/lpc177x_8x_mcpwm.c **** /* Peripheral group ----------------------------------------------------------- */
  35:../src/lib/lpc177x_8x/Drivers/source/lpc177x_8x_mcpwm.c **** /** @addtogroup MCPWM
  36:../src/lib/lpc177x_8x/Drivers/source/lpc177x_8x_mcpwm.c ****  * @{
  37:../src/lib/lpc177x_8x/Drivers/source/lpc177x_8x_mcpwm.c ****  */
  38:../src/lib/lpc177x_8x/Drivers/source/lpc177x_8x_mcpwm.c **** #ifdef __BUILD_WITH_EXAMPLE__
  39:../src/lib/lpc177x_8x/Drivers/source/lpc177x_8x_mcpwm.c **** #include "lpc177x_8x_libcfg.h"
  40:../src/lib/lpc177x_8x/Drivers/source/lpc177x_8x_mcpwm.c **** #else
  41:../src/lib/lpc177x_8x/Drivers/source/lpc177x_8x_mcpwm.c **** #include "lpc177x_8x_libcfg_default.h"
  42:../src/lib/lpc177x_8x/Drivers/source/lpc177x_8x_mcpwm.c **** #endif /* __BUILD_WITH_EXAMPLE__ */
  43:../src/lib/lpc177x_8x/Drivers/source/lpc177x_8x_mcpwm.c **** #ifdef _MCPWM
  44:../src/lib/lpc177x_8x/Drivers/source/lpc177x_8x_mcpwm.c **** 
  45:../src/lib/lpc177x_8x/Drivers/source/lpc177x_8x_mcpwm.c **** /* Includes ------------------------------------------------------------------- */
  46:../src/lib/lpc177x_8x/Drivers/source/lpc177x_8x_mcpwm.c **** #include "lpc177x_8x_mcpwm.h"
  47:../src/lib/lpc177x_8x/Drivers/source/lpc177x_8x_mcpwm.c **** #include "lpc177x_8x_clkpwr.h"
  48:../src/lib/lpc177x_8x/Drivers/source/lpc177x_8x_mcpwm.c **** 
  49:../src/lib/lpc177x_8x/Drivers/source/lpc177x_8x_mcpwm.c **** /* Public Functions ----------------------------------------------------------- */
  50:../src/lib/lpc177x_8x/Drivers/source/lpc177x_8x_mcpwm.c **** /** @addtogroup MCPWM_Public_Functions
  51:../src/lib/lpc177x_8x/Drivers/source/lpc177x_8x_mcpwm.c ****  * @{
  52:../src/lib/lpc177x_8x/Drivers/source/lpc177x_8x_mcpwm.c ****  */
  53:../src/lib/lpc177x_8x/Drivers/source/lpc177x_8x_mcpwm.c **** 
  54:../src/lib/lpc177x_8x/Drivers/source/lpc177x_8x_mcpwm.c **** /*********************************************************************//**
  55:../src/lib/lpc177x_8x/Drivers/source/lpc177x_8x_mcpwm.c ****  * @brief       Initializes the MCPWM peripheral
  56:../src/lib/lpc177x_8x/Drivers/source/lpc177x_8x_mcpwm.c ****  * @param[in]   MCPWMx      Motor Control PWM peripheral selected,
  57:../src/lib/lpc177x_8x/Drivers/source/lpc177x_8x_mcpwm.c ****  *              Should be: LPC_MCPWM
  58:../src/lib/lpc177x_8x/Drivers/source/lpc177x_8x_mcpwm.c ****  * @return      None
  59:../src/lib/lpc177x_8x/Drivers/source/lpc177x_8x_mcpwm.c ****  **********************************************************************/
  60:../src/lib/lpc177x_8x/Drivers/source/lpc177x_8x_mcpwm.c **** void MCPWM_Init(LPC_MCPWM_TypeDef *MCPWMx)
  61:../src/lib/lpc177x_8x/Drivers/source/lpc177x_8x_mcpwm.c **** {
  26              		.loc 1 61 0
  27              		.cfi_startproc
  28              		@ args = 0, pretend = 0, frame = 8
  29              		@ frame_needed = 1, uses_anonymous_args = 0
  30 0000 80B5     		push	{r7, lr}
  31              	.LCFI0:
  32              		.cfi_def_cfa_offset 8
  33              		.cfi_offset 7, -8
  34              		.cfi_offset 14, -4
  35 0002 82B0     		sub	sp, sp, #8
  36              	.LCFI1:
  37              		.cfi_def_cfa_offset 16
  38 0004 00AF     		add	r7, sp, #0
  39              	.LCFI2:
  40              		.cfi_def_cfa_register 7
  41 0006 7860     		str	r0, [r7, #4]
  62:../src/lib/lpc177x_8x/Drivers/source/lpc177x_8x_mcpwm.c ****     /* Turn On MCPWM PCLK */
  63:../src/lib/lpc177x_8x/Drivers/source/lpc177x_8x_mcpwm.c ****     CLKPWR_ConfigPPWR(CLKPWR_PCONP_PCMCPWM, ENABLE);
  42              		.loc 1 63 0
  43 0008 4FF40030 		mov	r0, #131072
  44 000c 4FF00101 		mov	r1, #1
  45 0010 FFF7FEFF 		bl	CLKPWR_ConfigPPWR
  64:../src/lib/lpc177x_8x/Drivers/source/lpc177x_8x_mcpwm.c **** 
  65:../src/lib/lpc177x_8x/Drivers/source/lpc177x_8x_mcpwm.c ****     MCPWMx->CAP_CLR = MCPWM_CAPCLR_CAP(0) | MCPWM_CAPCLR_CAP(1) | MCPWM_CAPCLR_CAP(2);
  46              		.loc 1 65 0
  47 0014 7B68     		ldr	r3, [r7, #4]
  48 0016 4FF00702 		mov	r2, #7
  49 001a 5A67     		str	r2, [r3, #116]
  66:../src/lib/lpc177x_8x/Drivers/source/lpc177x_8x_mcpwm.c **** 
  67:../src/lib/lpc177x_8x/Drivers/source/lpc177x_8x_mcpwm.c ****     MCPWMx->INTF_CLR = MCPWM_INT_ILIM(0) | MCPWM_INT_ILIM(1) | MCPWM_INT_ILIM(2) \
  50              		.loc 1 67 0
  51 001c 7B68     		ldr	r3, [r7, #4]
  52 001e 40F27772 		movw	r2, #1911
  53 0022 1A67     		str	r2, [r3, #112]
  68:../src/lib/lpc177x_8x/Drivers/source/lpc177x_8x_mcpwm.c ****                                 | MCPWM_INT_IMAT(0) | MCPWM_INT_IMAT(1) | MCPWM_INT_IMAT(2) \
  69:../src/lib/lpc177x_8x/Drivers/source/lpc177x_8x_mcpwm.c ****                                 | MCPWM_INT_ICAP(0) | MCPWM_INT_ICAP(1) | MCPWM_INT_ICAP(2);
  70:../src/lib/lpc177x_8x/Drivers/source/lpc177x_8x_mcpwm.c **** 
  71:../src/lib/lpc177x_8x/Drivers/source/lpc177x_8x_mcpwm.c ****     MCPWMx->INTEN_CLR = MCPWM_INT_ILIM(0) | MCPWM_INT_ILIM(1) | MCPWM_INT_ILIM(2) \
  54              		.loc 1 71 0
  55 0024 7B68     		ldr	r3, [r7, #4]
  56 0026 40F27772 		movw	r2, #1911
  57 002a 9A65     		str	r2, [r3, #88]
  72:../src/lib/lpc177x_8x/Drivers/source/lpc177x_8x_mcpwm.c ****                                 | MCPWM_INT_IMAT(0) | MCPWM_INT_IMAT(1) | MCPWM_INT_IMAT(2) \
  73:../src/lib/lpc177x_8x/Drivers/source/lpc177x_8x_mcpwm.c ****                                 | MCPWM_INT_ICAP(0) | MCPWM_INT_ICAP(1) | MCPWM_INT_ICAP(2);
  74:../src/lib/lpc177x_8x/Drivers/source/lpc177x_8x_mcpwm.c **** }
  58              		.loc 1 74 0
  59 002c 07F10807 		add	r7, r7, #8
  60 0030 BD46     		mov	sp, r7
  61 0032 80BD     		pop	{r7, pc}
  62              		.cfi_endproc
  63              	.LFE55:
  65              		.align	2
  66              		.global	MCPWM_ConfigChannel
  67              		.thumb
  68              		.thumb_func
  70              	MCPWM_ConfigChannel:
  71              	.LFB56:
  75:../src/lib/lpc177x_8x/Drivers/source/lpc177x_8x_mcpwm.c **** 
  76:../src/lib/lpc177x_8x/Drivers/source/lpc177x_8x_mcpwm.c **** 
  77:../src/lib/lpc177x_8x/Drivers/source/lpc177x_8x_mcpwm.c **** /*********************************************************************//**
  78:../src/lib/lpc177x_8x/Drivers/source/lpc177x_8x_mcpwm.c ****  * @brief       Configures each channel in MCPWM peripheral according to the
  79:../src/lib/lpc177x_8x/Drivers/source/lpc177x_8x_mcpwm.c ****  *              specified parameters in the MCPWM_CHANNEL_CFG_Type.
  80:../src/lib/lpc177x_8x/Drivers/source/lpc177x_8x_mcpwm.c ****  * @param[in]   MCPWMx          Motor Control PWM peripheral selected
  81:../src/lib/lpc177x_8x/Drivers/source/lpc177x_8x_mcpwm.c ****  *                              should be: LPC_MCPWM
  82:../src/lib/lpc177x_8x/Drivers/source/lpc177x_8x_mcpwm.c ****  * @param[in]   channelNum      Channel number, should be: 0..2.
  83:../src/lib/lpc177x_8x/Drivers/source/lpc177x_8x_mcpwm.c ****  * @param[in]   channelSetup    Pointer to a MCPWM_CHANNEL_CFG_Type structure
  84:../src/lib/lpc177x_8x/Drivers/source/lpc177x_8x_mcpwm.c **** *                               that contains the configuration information for the
  85:../src/lib/lpc177x_8x/Drivers/source/lpc177x_8x_mcpwm.c **** *                               specified MCPWM channel.
  86:../src/lib/lpc177x_8x/Drivers/source/lpc177x_8x_mcpwm.c ****  * @return      None
  87:../src/lib/lpc177x_8x/Drivers/source/lpc177x_8x_mcpwm.c ****  **********************************************************************/
  88:../src/lib/lpc177x_8x/Drivers/source/lpc177x_8x_mcpwm.c **** void MCPWM_ConfigChannel(LPC_MCPWM_TypeDef *MCPWMx, uint32_t channelNum,
  89:../src/lib/lpc177x_8x/Drivers/source/lpc177x_8x_mcpwm.c ****                         MCPWM_CHANNEL_CFG_Type * channelSetup)
  90:../src/lib/lpc177x_8x/Drivers/source/lpc177x_8x_mcpwm.c **** {
  72              		.loc 1 90 0
  73              		.cfi_startproc
  74              		@ args = 0, pretend = 0, frame = 16
  75              		@ frame_needed = 1, uses_anonymous_args = 0
  76              		@ link register save eliminated.
  77 0034 80B4     		push	{r7}
  78              	.LCFI3:
  79              		.cfi_def_cfa_offset 4
  80              		.cfi_offset 7, -4
  81 0036 85B0     		sub	sp, sp, #20
  82              	.LCFI4:
  83              		.cfi_def_cfa_offset 24
  84 0038 00AF     		add	r7, sp, #0
  85              	.LCFI5:
  86              		.cfi_def_cfa_register 7
  87 003a F860     		str	r0, [r7, #12]
  88 003c B960     		str	r1, [r7, #8]
  89 003e 7A60     		str	r2, [r7, #4]
  91:../src/lib/lpc177x_8x/Drivers/source/lpc177x_8x_mcpwm.c ****     if (channelNum < MCPWM_MAX_CHANNEL)
  90              		.loc 1 91 0
  91 0040 BB68     		ldr	r3, [r7, #8]
  92 0042 022B     		cmp	r3, #2
  93 0044 00F20281 		bhi	.L2
  92:../src/lib/lpc177x_8x/Drivers/source/lpc177x_8x_mcpwm.c ****     {
  93:../src/lib/lpc177x_8x/Drivers/source/lpc177x_8x_mcpwm.c ****         if (channelNum == MCPWM_CHANNEL_0)
  94              		.loc 1 93 0
  95 0048 BB68     		ldr	r3, [r7, #8]
  96 004a 002B     		cmp	r3, #0
  97 004c 0CD1     		bne	.L4
  94:../src/lib/lpc177x_8x/Drivers/source/lpc177x_8x_mcpwm.c ****         {
  95:../src/lib/lpc177x_8x/Drivers/source/lpc177x_8x_mcpwm.c ****             MCPWMx->TC0 = channelSetup->channelTimercounterValue;
  98              		.loc 1 95 0
  99 004e 7B68     		ldr	r3, [r7, #4]
 100 0050 5A69     		ldr	r2, [r3, #20]
 101 0052 FB68     		ldr	r3, [r7, #12]
 102 0054 9A61     		str	r2, [r3, #24]
  96:../src/lib/lpc177x_8x/Drivers/source/lpc177x_8x_mcpwm.c ****             MCPWMx->LIM0 = channelSetup->channelPeriodValue;
 103              		.loc 1 96 0
 104 0056 7B68     		ldr	r3, [r7, #4]
 105 0058 9A69     		ldr	r2, [r3, #24]
 106 005a FB68     		ldr	r3, [r7, #12]
 107 005c 5A62     		str	r2, [r3, #36]
  97:../src/lib/lpc177x_8x/Drivers/source/lpc177x_8x_mcpwm.c ****             MCPWMx->MAT0 = channelSetup->channelPulsewidthValue;
 108              		.loc 1 97 0
 109 005e 7B68     		ldr	r3, [r7, #4]
 110 0060 DA69     		ldr	r2, [r3, #28]
 111 0062 FB68     		ldr	r3, [r7, #12]
 112 0064 1A63     		str	r2, [r3, #48]
 113 0066 1FE0     		b	.L5
 114              	.L4:
  98:../src/lib/lpc177x_8x/Drivers/source/lpc177x_8x_mcpwm.c ****         }
  99:../src/lib/lpc177x_8x/Drivers/source/lpc177x_8x_mcpwm.c ****         else if (channelNum == MCPWM_CHANNEL_1)
 115              		.loc 1 99 0
 116 0068 BB68     		ldr	r3, [r7, #8]
 117 006a 012B     		cmp	r3, #1
 118 006c 0CD1     		bne	.L6
 100:../src/lib/lpc177x_8x/Drivers/source/lpc177x_8x_mcpwm.c ****         {
 101:../src/lib/lpc177x_8x/Drivers/source/lpc177x_8x_mcpwm.c ****             MCPWMx->TC1 = channelSetup->channelTimercounterValue;
 119              		.loc 1 101 0
 120 006e 7B68     		ldr	r3, [r7, #4]
 121 0070 5A69     		ldr	r2, [r3, #20]
 122 0072 FB68     		ldr	r3, [r7, #12]
 123 0074 DA61     		str	r2, [r3, #28]
 102:../src/lib/lpc177x_8x/Drivers/source/lpc177x_8x_mcpwm.c ****             MCPWMx->LIM1 = channelSetup->channelPeriodValue;
 124              		.loc 1 102 0
 125 0076 7B68     		ldr	r3, [r7, #4]
 126 0078 9A69     		ldr	r2, [r3, #24]
 127 007a FB68     		ldr	r3, [r7, #12]
 128 007c 9A62     		str	r2, [r3, #40]
 103:../src/lib/lpc177x_8x/Drivers/source/lpc177x_8x_mcpwm.c ****             MCPWMx->MAT1 = channelSetup->channelPulsewidthValue;
 129              		.loc 1 103 0
 130 007e 7B68     		ldr	r3, [r7, #4]
 131 0080 DA69     		ldr	r2, [r3, #28]
 132 0082 FB68     		ldr	r3, [r7, #12]
 133 0084 5A63     		str	r2, [r3, #52]
 134 0086 0FE0     		b	.L5
 135              	.L6:
 104:../src/lib/lpc177x_8x/Drivers/source/lpc177x_8x_mcpwm.c ****         }
 105:../src/lib/lpc177x_8x/Drivers/source/lpc177x_8x_mcpwm.c ****         else if (channelNum == MCPWM_CHANNEL_2)
 136              		.loc 1 105 0
 137 0088 BB68     		ldr	r3, [r7, #8]
 138 008a 022B     		cmp	r3, #2
 139 008c 40F0DD80 		bne	.L35
 106:../src/lib/lpc177x_8x/Drivers/source/lpc177x_8x_mcpwm.c ****         {
 107:../src/lib/lpc177x_8x/Drivers/source/lpc177x_8x_mcpwm.c ****             MCPWMx->TC2 = channelSetup->channelTimercounterValue;
 140              		.loc 1 107 0
 141 0090 7B68     		ldr	r3, [r7, #4]
 142 0092 5A69     		ldr	r2, [r3, #20]
 143 0094 FB68     		ldr	r3, [r7, #12]
 144 0096 1A62     		str	r2, [r3, #32]
 108:../src/lib/lpc177x_8x/Drivers/source/lpc177x_8x_mcpwm.c ****             MCPWMx->LIM2 = channelSetup->channelPeriodValue;
 145              		.loc 1 108 0
 146 0098 7B68     		ldr	r3, [r7, #4]
 147 009a 9A69     		ldr	r2, [r3, #24]
 148 009c FB68     		ldr	r3, [r7, #12]
 149 009e DA62     		str	r2, [r3, #44]
 109:../src/lib/lpc177x_8x/Drivers/source/lpc177x_8x_mcpwm.c ****             MCPWMx->MAT2 = channelSetup->channelPulsewidthValue;
 150              		.loc 1 109 0
 151 00a0 7B68     		ldr	r3, [r7, #4]
 152 00a2 DA69     		ldr	r2, [r3, #28]
 153 00a4 FB68     		ldr	r3, [r7, #12]
 154 00a6 9A63     		str	r2, [r3, #56]
 155              	.L5:
 110:../src/lib/lpc177x_8x/Drivers/source/lpc177x_8x_mcpwm.c ****         }
 111:../src/lib/lpc177x_8x/Drivers/source/lpc177x_8x_mcpwm.c ****         else
 112:../src/lib/lpc177x_8x/Drivers/source/lpc177x_8x_mcpwm.c ****         {
 113:../src/lib/lpc177x_8x/Drivers/source/lpc177x_8x_mcpwm.c ****             return;
 114:../src/lib/lpc177x_8x/Drivers/source/lpc177x_8x_mcpwm.c ****         }
 115:../src/lib/lpc177x_8x/Drivers/source/lpc177x_8x_mcpwm.c **** 
 116:../src/lib/lpc177x_8x/Drivers/source/lpc177x_8x_mcpwm.c ****         if (channelSetup->channelType == MCPWM_CHANNEL_CENTER_MODE)
 156              		.loc 1 116 0
 157 00a8 7B68     		ldr	r3, [r7, #4]
 158 00aa 1B68     		ldr	r3, [r3, #0]
 159 00ac 012B     		cmp	r3, #1
 160 00ae 11D1     		bne	.L8
 117:../src/lib/lpc177x_8x/Drivers/source/lpc177x_8x_mcpwm.c ****         {
 118:../src/lib/lpc177x_8x/Drivers/source/lpc177x_8x_mcpwm.c ****             MCPWMx->CON_SET = MCPWM_CON_CENTER(channelNum);
 161              		.loc 1 118 0
 162 00b0 BB68     		ldr	r3, [r7, #8]
 163 00b2 022B     		cmp	r3, #2
 164 00b4 09D8     		bhi	.L9
 165              		.loc 1 118 0 is_stmt 0 discriminator 1
 166 00b6 BB68     		ldr	r3, [r7, #8]
 167 00b8 4FEAC303 		lsl	r3, r3, #3
 168 00bc 03F10103 		add	r3, r3, #1
 169 00c0 4FF00102 		mov	r2, #1
 170 00c4 02FA03F3 		lsl	r3, r2, r3
 171 00c8 01E0     		b	.L10
 172              	.L9:
 173              		.loc 1 118 0 discriminator 2
 174 00ca 4FF00003 		mov	r3, #0
 175              	.L10:
 176              		.loc 1 118 0 discriminator 3
 177 00ce FA68     		ldr	r2, [r7, #12]
 178 00d0 5360     		str	r3, [r2, #4]
 179 00d2 10E0     		b	.L11
 180              	.L8:
 119:../src/lib/lpc177x_8x/Drivers/source/lpc177x_8x_mcpwm.c ****         }
 120:../src/lib/lpc177x_8x/Drivers/source/lpc177x_8x_mcpwm.c ****         else
 121:../src/lib/lpc177x_8x/Drivers/source/lpc177x_8x_mcpwm.c ****         {
 122:../src/lib/lpc177x_8x/Drivers/source/lpc177x_8x_mcpwm.c ****             MCPWMx->CON_CLR = MCPWM_CON_CENTER(channelNum);
 181              		.loc 1 122 0 is_stmt 1
 182 00d4 BB68     		ldr	r3, [r7, #8]
 183 00d6 022B     		cmp	r3, #2
 184 00d8 09D8     		bhi	.L12
 185              		.loc 1 122 0 is_stmt 0 discriminator 1
 186 00da BB68     		ldr	r3, [r7, #8]
 187 00dc 4FEAC303 		lsl	r3, r3, #3
 188 00e0 03F10103 		add	r3, r3, #1
 189 00e4 4FF00102 		mov	r2, #1
 190 00e8 02FA03F3 		lsl	r3, r2, r3
 191 00ec 01E0     		b	.L13
 192              	.L12:
 193              		.loc 1 122 0 discriminator 2
 194 00ee 4FF00003 		mov	r3, #0
 195              	.L13:
 196              		.loc 1 122 0 discriminator 3
 197 00f2 FA68     		ldr	r2, [r7, #12]
 198 00f4 9360     		str	r3, [r2, #8]
 199              	.L11:
 123:../src/lib/lpc177x_8x/Drivers/source/lpc177x_8x_mcpwm.c ****         }
 124:../src/lib/lpc177x_8x/Drivers/source/lpc177x_8x_mcpwm.c **** 
 125:../src/lib/lpc177x_8x/Drivers/source/lpc177x_8x_mcpwm.c ****         if (channelSetup->channelPolarity == MCPWM_CHANNEL_PASSIVE_HI)
 200              		.loc 1 125 0 is_stmt 1
 201 00f6 7B68     		ldr	r3, [r7, #4]
 202 00f8 5B68     		ldr	r3, [r3, #4]
 203 00fa 012B     		cmp	r3, #1
 204 00fc 11D1     		bne	.L14
 126:../src/lib/lpc177x_8x/Drivers/source/lpc177x_8x_mcpwm.c ****         {
 127:../src/lib/lpc177x_8x/Drivers/source/lpc177x_8x_mcpwm.c ****             MCPWMx->CON_SET = MCPWM_CON_POLAR(channelNum);
 205              		.loc 1 127 0
 206 00fe BB68     		ldr	r3, [r7, #8]
 207 0100 022B     		cmp	r3, #2
 208 0102 09D8     		bhi	.L15
 209              		.loc 1 127 0 is_stmt 0 discriminator 1
 210 0104 BB68     		ldr	r3, [r7, #8]
 211 0106 4FEAC303 		lsl	r3, r3, #3
 212 010a 03F10203 		add	r3, r3, #2
 213 010e 4FF00102 		mov	r2, #1
 214 0112 02FA03F3 		lsl	r3, r2, r3
 215 0116 01E0     		b	.L16
 216              	.L15:
 217              		.loc 1 127 0 discriminator 2
 218 0118 4FF00003 		mov	r3, #0
 219              	.L16:
 220              		.loc 1 127 0 discriminator 3
 221 011c FA68     		ldr	r2, [r7, #12]
 222 011e 5360     		str	r3, [r2, #4]
 223 0120 10E0     		b	.L17
 224              	.L14:
 128:../src/lib/lpc177x_8x/Drivers/source/lpc177x_8x_mcpwm.c ****         }
 129:../src/lib/lpc177x_8x/Drivers/source/lpc177x_8x_mcpwm.c ****         else
 130:../src/lib/lpc177x_8x/Drivers/source/lpc177x_8x_mcpwm.c ****         {
 131:../src/lib/lpc177x_8x/Drivers/source/lpc177x_8x_mcpwm.c ****             MCPWMx->CON_CLR = MCPWM_CON_POLAR(channelNum);
 225              		.loc 1 131 0 is_stmt 1
 226 0122 BB68     		ldr	r3, [r7, #8]
 227 0124 022B     		cmp	r3, #2
 228 0126 09D8     		bhi	.L18
 229              		.loc 1 131 0 is_stmt 0 discriminator 1
 230 0128 BB68     		ldr	r3, [r7, #8]
 231 012a 4FEAC303 		lsl	r3, r3, #3
 232 012e 03F10203 		add	r3, r3, #2
 233 0132 4FF00102 		mov	r2, #1
 234 0136 02FA03F3 		lsl	r3, r2, r3
 235 013a 01E0     		b	.L19
 236              	.L18:
 237              		.loc 1 131 0 discriminator 2
 238 013c 4FF00003 		mov	r3, #0
 239              	.L19:
 240              		.loc 1 131 0 discriminator 3
 241 0140 FA68     		ldr	r2, [r7, #12]
 242 0142 9360     		str	r3, [r2, #8]
 243              	.L17:
 132:../src/lib/lpc177x_8x/Drivers/source/lpc177x_8x_mcpwm.c ****         }
 133:../src/lib/lpc177x_8x/Drivers/source/lpc177x_8x_mcpwm.c **** 
 134:../src/lib/lpc177x_8x/Drivers/source/lpc177x_8x_mcpwm.c ****         if (channelSetup->channelDeadtimeEnable == ENABLE)
 244              		.loc 1 134 0 is_stmt 1
 245 0144 7B68     		ldr	r3, [r7, #4]
 246 0146 9B68     		ldr	r3, [r3, #8]
 247 0148 012B     		cmp	r3, #1
 248 014a 45D1     		bne	.L20
 135:../src/lib/lpc177x_8x/Drivers/source/lpc177x_8x_mcpwm.c ****         {
 136:../src/lib/lpc177x_8x/Drivers/source/lpc177x_8x_mcpwm.c ****             MCPWMx->CON_SET = MCPWM_CON_DTE(channelNum);
 249              		.loc 1 136 0
 250 014c BB68     		ldr	r3, [r7, #8]
 251 014e 022B     		cmp	r3, #2
 252 0150 09D8     		bhi	.L21
 253              		.loc 1 136 0 is_stmt 0 discriminator 1
 254 0152 BB68     		ldr	r3, [r7, #8]
 255 0154 4FEAC303 		lsl	r3, r3, #3
 256 0158 03F10303 		add	r3, r3, #3
 257 015c 4FF00102 		mov	r2, #1
 258 0160 02FA03F3 		lsl	r3, r2, r3
 259 0164 01E0     		b	.L22
 260              	.L21:
 261              		.loc 1 136 0 discriminator 2
 262 0166 4FF00003 		mov	r3, #0
 263              	.L22:
 264              		.loc 1 136 0 discriminator 3
 265 016a FA68     		ldr	r2, [r7, #12]
 266 016c 5360     		str	r3, [r2, #4]
 137:../src/lib/lpc177x_8x/Drivers/source/lpc177x_8x_mcpwm.c **** 
 138:../src/lib/lpc177x_8x/Drivers/source/lpc177x_8x_mcpwm.c ****             MCPWMx->DT &= ~(MCPWM_DT(channelNum, 0x3FF));
 267              		.loc 1 138 0 is_stmt 1 discriminator 3
 268 016e FB68     		ldr	r3, [r7, #12]
 269 0170 D96B     		ldr	r1, [r3, #60]
 270 0172 BB68     		ldr	r3, [r7, #8]
 271 0174 022B     		cmp	r3, #2
 272 0176 0DD8     		bhi	.L23
 273              		.loc 1 138 0 is_stmt 0 discriminator 1
 274 0178 BA68     		ldr	r2, [r7, #8]
 275 017a 1346     		mov	r3, r2
 276 017c 4FEA8303 		lsl	r3, r3, #2
 277 0180 9B18     		adds	r3, r3, r2
 278 0182 4FEA4303 		lsl	r3, r3, #1
 279 0186 40F2FF32 		movw	r2, #1023
 280 018a 02FA03F3 		lsl	r3, r2, r3
 281 018e 6FEA0303 		mvn	r3, r3
 282 0192 01E0     		b	.L24
 283              	.L23:
 284              		.loc 1 138 0 discriminator 2
 285 0194 4FF0FF33 		mov	r3, #-1
 286              	.L24:
 287              		.loc 1 138 0 discriminator 3
 288 0198 01EA0302 		and	r2, r1, r3
 289 019c FB68     		ldr	r3, [r7, #12]
 290 019e DA63     		str	r2, [r3, #60]
 139:../src/lib/lpc177x_8x/Drivers/source/lpc177x_8x_mcpwm.c **** 
 140:../src/lib/lpc177x_8x/Drivers/source/lpc177x_8x_mcpwm.c ****             MCPWMx->DT |= MCPWM_DT(channelNum, channelSetup->channelDeadtimeValue);
 291              		.loc 1 140 0 is_stmt 1 discriminator 3
 292 01a0 FB68     		ldr	r3, [r7, #12]
 293 01a2 D86B     		ldr	r0, [r3, #60]
 294 01a4 BB68     		ldr	r3, [r7, #8]
 295 01a6 022B     		cmp	r3, #2
 296 01a8 0FD8     		bhi	.L25
 297              		.loc 1 140 0 is_stmt 0 discriminator 1
 298 01aa 7B68     		ldr	r3, [r7, #4]
 299 01ac DB68     		ldr	r3, [r3, #12]
 300 01ae 4FEA8352 		lsl	r2, r3, #22
 301 01b2 4FEA9252 		lsr	r2, r2, #22
 302 01b6 B968     		ldr	r1, [r7, #8]
 303 01b8 0B46     		mov	r3, r1
 304 01ba 4FEA8303 		lsl	r3, r3, #2
 305 01be 5B18     		adds	r3, r3, r1
 306 01c0 4FEA4303 		lsl	r3, r3, #1
 307 01c4 02FA03F3 		lsl	r3, r2, r3
 308 01c8 01E0     		b	.L26
 309              	.L25:
 310              		.loc 1 140 0 discriminator 2
 311 01ca 4FF00003 		mov	r3, #0
 312              	.L26:
 313              		.loc 1 140 0 discriminator 3
 314 01ce 40EA0302 		orr	r2, r0, r3
 315 01d2 FB68     		ldr	r3, [r7, #12]
 316 01d4 DA63     		str	r2, [r3, #60]
 317 01d6 10E0     		b	.L27
 318              	.L20:
 141:../src/lib/lpc177x_8x/Drivers/source/lpc177x_8x_mcpwm.c ****         }
 142:../src/lib/lpc177x_8x/Drivers/source/lpc177x_8x_mcpwm.c ****         else
 143:../src/lib/lpc177x_8x/Drivers/source/lpc177x_8x_mcpwm.c ****         {
 144:../src/lib/lpc177x_8x/Drivers/source/lpc177x_8x_mcpwm.c ****             MCPWMx->CON_CLR = MCPWM_CON_DTE(channelNum);
 319              		.loc 1 144 0 is_stmt 1
 320 01d8 BB68     		ldr	r3, [r7, #8]
 321 01da 022B     		cmp	r3, #2
 322 01dc 09D8     		bhi	.L28
 323              		.loc 1 144 0 is_stmt 0 discriminator 1
 324 01de BB68     		ldr	r3, [r7, #8]
 325 01e0 4FEAC303 		lsl	r3, r3, #3
 326 01e4 03F10303 		add	r3, r3, #3
 327 01e8 4FF00102 		mov	r2, #1
 328 01ec 02FA03F3 		lsl	r3, r2, r3
 329 01f0 01E0     		b	.L29
 330              	.L28:
 331              		.loc 1 144 0 discriminator 2
 332 01f2 4FF00003 		mov	r3, #0
 333              	.L29:
 334              		.loc 1 144 0 discriminator 3
 335 01f6 FA68     		ldr	r2, [r7, #12]
 336 01f8 9360     		str	r3, [r2, #8]
 337              	.L27:
 145:../src/lib/lpc177x_8x/Drivers/source/lpc177x_8x_mcpwm.c ****         }
 146:../src/lib/lpc177x_8x/Drivers/source/lpc177x_8x_mcpwm.c **** 
 147:../src/lib/lpc177x_8x/Drivers/source/lpc177x_8x_mcpwm.c ****         if (channelSetup->channelUpdateEnable == ENABLE)
 338              		.loc 1 147 0 is_stmt 1
 339 01fa 7B68     		ldr	r3, [r7, #4]
 340 01fc 1B69     		ldr	r3, [r3, #16]
 341 01fe 012B     		cmp	r3, #1
 342 0200 11D1     		bne	.L30
 148:../src/lib/lpc177x_8x/Drivers/source/lpc177x_8x_mcpwm.c ****         {
 149:../src/lib/lpc177x_8x/Drivers/source/lpc177x_8x_mcpwm.c ****             MCPWMx->CON_CLR = MCPWM_CON_DISUP(channelNum);
 343              		.loc 1 149 0
 344 0202 BB68     		ldr	r3, [r7, #8]
 345 0204 022B     		cmp	r3, #2
 346 0206 09D8     		bhi	.L31
 347              		.loc 1 149 0 is_stmt 0 discriminator 1
 348 0208 BB68     		ldr	r3, [r7, #8]
 349 020a 4FEAC303 		lsl	r3, r3, #3
 350 020e 03F10403 		add	r3, r3, #4
 351 0212 4FF00102 		mov	r2, #1
 352 0216 02FA03F3 		lsl	r3, r2, r3
 353 021a 01E0     		b	.L32
 354              	.L31:
 355              		.loc 1 149 0 discriminator 2
 356 021c 4FF00003 		mov	r3, #0
 357              	.L32:
 358              		.loc 1 149 0 discriminator 3
 359 0220 FA68     		ldr	r2, [r7, #12]
 360 0222 9360     		str	r3, [r2, #8]
 361 0224 12E0     		b	.L2
 362              	.L30:
 150:../src/lib/lpc177x_8x/Drivers/source/lpc177x_8x_mcpwm.c ****         }
 151:../src/lib/lpc177x_8x/Drivers/source/lpc177x_8x_mcpwm.c ****         else
 152:../src/lib/lpc177x_8x/Drivers/source/lpc177x_8x_mcpwm.c ****         {
 153:../src/lib/lpc177x_8x/Drivers/source/lpc177x_8x_mcpwm.c ****             MCPWMx->CON_SET = MCPWM_CON_DISUP(channelNum);
 363              		.loc 1 153 0 is_stmt 1
 364 0226 BB68     		ldr	r3, [r7, #8]
 365 0228 022B     		cmp	r3, #2
 366 022a 09D8     		bhi	.L33
 367              		.loc 1 153 0 is_stmt 0 discriminator 1
 368 022c BB68     		ldr	r3, [r7, #8]
 369 022e 4FEAC303 		lsl	r3, r3, #3
 370 0232 03F10403 		add	r3, r3, #4
 371 0236 4FF00102 		mov	r2, #1
 372 023a 02FA03F3 		lsl	r3, r2, r3
 373 023e 01E0     		b	.L34
 374              	.L33:
 375              		.loc 1 153 0 discriminator 2
 376 0240 4FF00003 		mov	r3, #0
 377              	.L34:
 378              		.loc 1 153 0 discriminator 3
 379 0244 FA68     		ldr	r2, [r7, #12]
 380 0246 5360     		str	r3, [r2, #4]
 381 0248 00E0     		b	.L2
 382              	.L35:
 113:../src/lib/lpc177x_8x/Drivers/source/lpc177x_8x_mcpwm.c ****             return;
 383              		.loc 1 113 0 is_stmt 1
 384 024a 00BF     		nop
 385              	.L2:
 154:../src/lib/lpc177x_8x/Drivers/source/lpc177x_8x_mcpwm.c ****         }
 155:../src/lib/lpc177x_8x/Drivers/source/lpc177x_8x_mcpwm.c ****     }
 156:../src/lib/lpc177x_8x/Drivers/source/lpc177x_8x_mcpwm.c **** }
 386              		.loc 1 156 0
 387 024c 07F11407 		add	r7, r7, #20
 388 0250 BD46     		mov	sp, r7
 389 0252 80BC     		pop	{r7}
 390 0254 7047     		bx	lr
 391              		.cfi_endproc
 392              	.LFE56:
 394 0256 00BF     		.align	2
 395              		.global	MCPWM_WriteToShadow
 396              		.thumb
 397              		.thumb_func
 399              	MCPWM_WriteToShadow:
 400              	.LFB57:
 157:../src/lib/lpc177x_8x/Drivers/source/lpc177x_8x_mcpwm.c **** 
 158:../src/lib/lpc177x_8x/Drivers/source/lpc177x_8x_mcpwm.c **** 
 159:../src/lib/lpc177x_8x/Drivers/source/lpc177x_8x_mcpwm.c **** /*********************************************************************//**
 160:../src/lib/lpc177x_8x/Drivers/source/lpc177x_8x_mcpwm.c ****  * @brief       Write to MCPWM shadow registers - Update the value for period
 161:../src/lib/lpc177x_8x/Drivers/source/lpc177x_8x_mcpwm.c ****  *              and pulse width in MCPWM peripheral.
 162:../src/lib/lpc177x_8x/Drivers/source/lpc177x_8x_mcpwm.c ****  * @param[in]   MCPWMx          Motor Control PWM peripheral selected
 163:../src/lib/lpc177x_8x/Drivers/source/lpc177x_8x_mcpwm.c ****  *                              Should be: LPC_MCPWM
 164:../src/lib/lpc177x_8x/Drivers/source/lpc177x_8x_mcpwm.c ****  * @param[in]   channelNum      Channel Number, should be: 0..2.
 165:../src/lib/lpc177x_8x/Drivers/source/lpc177x_8x_mcpwm.c ****  * @param[in]   channelSetup    Pointer to a MCPWM_CHANNEL_CFG_Type structure
 166:../src/lib/lpc177x_8x/Drivers/source/lpc177x_8x_mcpwm.c **** *                               that contains the configuration information for the
 167:../src/lib/lpc177x_8x/Drivers/source/lpc177x_8x_mcpwm.c **** *                               specified MCPWM channel.
 168:../src/lib/lpc177x_8x/Drivers/source/lpc177x_8x_mcpwm.c ****  * @return      None
 169:../src/lib/lpc177x_8x/Drivers/source/lpc177x_8x_mcpwm.c ****  **********************************************************************/
 170:../src/lib/lpc177x_8x/Drivers/source/lpc177x_8x_mcpwm.c **** void MCPWM_WriteToShadow(LPC_MCPWM_TypeDef *MCPWMx, uint32_t channelNum,
 171:../src/lib/lpc177x_8x/Drivers/source/lpc177x_8x_mcpwm.c ****                                                     MCPWM_CHANNEL_CFG_Type *channelSetup)
 172:../src/lib/lpc177x_8x/Drivers/source/lpc177x_8x_mcpwm.c **** {
 401              		.loc 1 172 0
 402              		.cfi_startproc
 403              		@ args = 0, pretend = 0, frame = 16
 404              		@ frame_needed = 1, uses_anonymous_args = 0
 405              		@ link register save eliminated.
 406 0258 80B4     		push	{r7}
 407              	.LCFI6:
 408              		.cfi_def_cfa_offset 4
 409              		.cfi_offset 7, -4
 410 025a 85B0     		sub	sp, sp, #20
 411              	.LCFI7:
 412              		.cfi_def_cfa_offset 24
 413 025c 00AF     		add	r7, sp, #0
 414              	.LCFI8:
 415              		.cfi_def_cfa_register 7
 416 025e F860     		str	r0, [r7, #12]
 417 0260 B960     		str	r1, [r7, #8]
 418 0262 7A60     		str	r2, [r7, #4]
 173:../src/lib/lpc177x_8x/Drivers/source/lpc177x_8x_mcpwm.c ****     if (channelNum == MCPWM_CHANNEL_0)
 419              		.loc 1 173 0
 420 0264 BB68     		ldr	r3, [r7, #8]
 421 0266 002B     		cmp	r3, #0
 422 0268 08D1     		bne	.L37
 174:../src/lib/lpc177x_8x/Drivers/source/lpc177x_8x_mcpwm.c ****     {
 175:../src/lib/lpc177x_8x/Drivers/source/lpc177x_8x_mcpwm.c ****         MCPWMx->LIM0 = channelSetup->channelPeriodValue;
 423              		.loc 1 175 0
 424 026a 7B68     		ldr	r3, [r7, #4]
 425 026c 9A69     		ldr	r2, [r3, #24]
 426 026e FB68     		ldr	r3, [r7, #12]
 427 0270 5A62     		str	r2, [r3, #36]
 176:../src/lib/lpc177x_8x/Drivers/source/lpc177x_8x_mcpwm.c ****         MCPWMx->MAT0 = channelSetup->channelPulsewidthValue;
 428              		.loc 1 176 0
 429 0272 7B68     		ldr	r3, [r7, #4]
 430 0274 DA69     		ldr	r2, [r3, #28]
 431 0276 FB68     		ldr	r3, [r7, #12]
 432 0278 1A63     		str	r2, [r3, #48]
 433 027a 16E0     		b	.L36
 434              	.L37:
 177:../src/lib/lpc177x_8x/Drivers/source/lpc177x_8x_mcpwm.c ****     }
 178:../src/lib/lpc177x_8x/Drivers/source/lpc177x_8x_mcpwm.c ****     else if (channelNum == MCPWM_CHANNEL_1)
 435              		.loc 1 178 0
 436 027c BB68     		ldr	r3, [r7, #8]
 437 027e 012B     		cmp	r3, #1
 438 0280 08D1     		bne	.L39
 179:../src/lib/lpc177x_8x/Drivers/source/lpc177x_8x_mcpwm.c ****     {
 180:../src/lib/lpc177x_8x/Drivers/source/lpc177x_8x_mcpwm.c ****         MCPWMx->LIM1 = channelSetup->channelPeriodValue;
 439              		.loc 1 180 0
 440 0282 7B68     		ldr	r3, [r7, #4]
 441 0284 9A69     		ldr	r2, [r3, #24]
 442 0286 FB68     		ldr	r3, [r7, #12]
 443 0288 9A62     		str	r2, [r3, #40]
 181:../src/lib/lpc177x_8x/Drivers/source/lpc177x_8x_mcpwm.c ****         MCPWMx->MAT1 = channelSetup->channelPulsewidthValue;
 444              		.loc 1 181 0
 445 028a 7B68     		ldr	r3, [r7, #4]
 446 028c DA69     		ldr	r2, [r3, #28]
 447 028e FB68     		ldr	r3, [r7, #12]
 448 0290 5A63     		str	r2, [r3, #52]
 449 0292 0AE0     		b	.L36
 450              	.L39:
 182:../src/lib/lpc177x_8x/Drivers/source/lpc177x_8x_mcpwm.c ****     }
 183:../src/lib/lpc177x_8x/Drivers/source/lpc177x_8x_mcpwm.c ****     else if (channelNum == MCPWM_CHANNEL_2)
 451              		.loc 1 183 0
 452 0294 BB68     		ldr	r3, [r7, #8]
 453 0296 022B     		cmp	r3, #2
 454 0298 07D1     		bne	.L36
 184:../src/lib/lpc177x_8x/Drivers/source/lpc177x_8x_mcpwm.c ****     {
 185:../src/lib/lpc177x_8x/Drivers/source/lpc177x_8x_mcpwm.c ****         MCPWMx->LIM2 = channelSetup->channelPeriodValue;
 455              		.loc 1 185 0
 456 029a 7B68     		ldr	r3, [r7, #4]
 457 029c 9A69     		ldr	r2, [r3, #24]
 458 029e FB68     		ldr	r3, [r7, #12]
 459 02a0 DA62     		str	r2, [r3, #44]
 186:../src/lib/lpc177x_8x/Drivers/source/lpc177x_8x_mcpwm.c ****         MCPWMx->MAT2 = channelSetup->channelPulsewidthValue;
 460              		.loc 1 186 0
 461 02a2 7B68     		ldr	r3, [r7, #4]
 462 02a4 DA69     		ldr	r2, [r3, #28]
 463 02a6 FB68     		ldr	r3, [r7, #12]
 464 02a8 9A63     		str	r2, [r3, #56]
 465              	.L36:
 187:../src/lib/lpc177x_8x/Drivers/source/lpc177x_8x_mcpwm.c ****     }
 188:../src/lib/lpc177x_8x/Drivers/source/lpc177x_8x_mcpwm.c **** }
 466              		.loc 1 188 0
 467 02aa 07F11407 		add	r7, r7, #20
 468 02ae BD46     		mov	sp, r7
 469 02b0 80BC     		pop	{r7}
 470 02b2 7047     		bx	lr
 471              		.cfi_endproc
 472              	.LFE57:
 474              		.align	2
 475              		.global	MCPWM_ConfigCapture
 476              		.thumb
 477              		.thumb_func
 479              	MCPWM_ConfigCapture:
 480              	.LFB58:
 189:../src/lib/lpc177x_8x/Drivers/source/lpc177x_8x_mcpwm.c **** 
 190:../src/lib/lpc177x_8x/Drivers/source/lpc177x_8x_mcpwm.c **** 
 191:../src/lib/lpc177x_8x/Drivers/source/lpc177x_8x_mcpwm.c **** 
 192:../src/lib/lpc177x_8x/Drivers/source/lpc177x_8x_mcpwm.c **** /*********************************************************************//**
 193:../src/lib/lpc177x_8x/Drivers/source/lpc177x_8x_mcpwm.c ****  * @brief       Configures capture function in MCPWM peripheral
 194:../src/lib/lpc177x_8x/Drivers/source/lpc177x_8x_mcpwm.c ****  * @param[in]   MCPWMx          Motor Control PWM peripheral selected
 195:../src/lib/lpc177x_8x/Drivers/source/lpc177x_8x_mcpwm.c ****  *                              Should be: LPC_MCPWM
 196:../src/lib/lpc177x_8x/Drivers/source/lpc177x_8x_mcpwm.c ****  * @param[in]   channelNum      MCI (Motor Control Input pin) number
 197:../src/lib/lpc177x_8x/Drivers/source/lpc177x_8x_mcpwm.c ****  *                              Should be: 0..2
 198:../src/lib/lpc177x_8x/Drivers/source/lpc177x_8x_mcpwm.c ****  * @param[in]   captureConfig   Pointer to a MCPWM_CAPTURE_CFG_Type structure
 199:../src/lib/lpc177x_8x/Drivers/source/lpc177x_8x_mcpwm.c **** *                               that contains the configuration information for the
 200:../src/lib/lpc177x_8x/Drivers/source/lpc177x_8x_mcpwm.c **** *                               specified MCPWM capture.
 201:../src/lib/lpc177x_8x/Drivers/source/lpc177x_8x_mcpwm.c ****  * @return
 202:../src/lib/lpc177x_8x/Drivers/source/lpc177x_8x_mcpwm.c ****  **********************************************************************/
 203:../src/lib/lpc177x_8x/Drivers/source/lpc177x_8x_mcpwm.c **** void MCPWM_ConfigCapture(LPC_MCPWM_TypeDef *MCPWMx, uint32_t channelNum,
 204:../src/lib/lpc177x_8x/Drivers/source/lpc177x_8x_mcpwm.c ****                                                 MCPWM_CAPTURE_CFG_Type *captureConfig)
 205:../src/lib/lpc177x_8x/Drivers/source/lpc177x_8x_mcpwm.c **** {
 481              		.loc 1 205 0
 482              		.cfi_startproc
 483              		@ args = 0, pretend = 0, frame = 16
 484              		@ frame_needed = 1, uses_anonymous_args = 0
 485              		@ link register save eliminated.
 486 02b4 80B4     		push	{r7}
 487              	.LCFI9:
 488              		.cfi_def_cfa_offset 4
 489              		.cfi_offset 7, -4
 490 02b6 85B0     		sub	sp, sp, #20
 491              	.LCFI10:
 492              		.cfi_def_cfa_offset 24
 493 02b8 00AF     		add	r7, sp, #0
 494              	.LCFI11:
 495              		.cfi_def_cfa_register 7
 496 02ba F860     		str	r0, [r7, #12]
 497 02bc B960     		str	r1, [r7, #8]
 498 02be 7A60     		str	r2, [r7, #4]
 206:../src/lib/lpc177x_8x/Drivers/source/lpc177x_8x_mcpwm.c ****     if (channelNum < MCPWM_MAX_CHANNEL)
 499              		.loc 1 206 0
 500 02c0 BB68     		ldr	r3, [r7, #8]
 501 02c2 022B     		cmp	r3, #2
 502 02c4 00F2C080 		bhi	.L40
 207:../src/lib/lpc177x_8x/Drivers/source/lpc177x_8x_mcpwm.c ****     {
 208:../src/lib/lpc177x_8x/Drivers/source/lpc177x_8x_mcpwm.c **** 
 209:../src/lib/lpc177x_8x/Drivers/source/lpc177x_8x_mcpwm.c ****         if (captureConfig->captureFalling == ENABLE)
 503              		.loc 1 209 0
 504 02c8 7B68     		ldr	r3, [r7, #4]
 505 02ca 9B68     		ldr	r3, [r3, #8]
 506 02cc 012B     		cmp	r3, #1
 507 02ce 1CD1     		bne	.L42
 210:../src/lib/lpc177x_8x/Drivers/source/lpc177x_8x_mcpwm.c ****         {
 211:../src/lib/lpc177x_8x/Drivers/source/lpc177x_8x_mcpwm.c ****             MCPWMx->CAPCON_SET = MCPWM_CAPCON_CAPMCI_FE(captureConfig->captureChannel, channelNum);
 508              		.loc 1 211 0
 509 02d0 7B68     		ldr	r3, [r7, #4]
 510 02d2 1B68     		ldr	r3, [r3, #0]
 511 02d4 022B     		cmp	r3, #2
 512 02d6 13D8     		bhi	.L43
 513              		.loc 1 211 0 is_stmt 0 discriminator 1
 514 02d8 BB68     		ldr	r3, [r7, #8]
 515 02da 022B     		cmp	r3, #2
 516 02dc 10D8     		bhi	.L43
 517              		.loc 1 211 0 discriminator 3
 518 02de 7B68     		ldr	r3, [r7, #4]
 519 02e0 1A68     		ldr	r2, [r3, #0]
 520 02e2 1346     		mov	r3, r2
 521 02e4 4FEA4303 		lsl	r3, r3, #1
 522 02e8 9A18     		adds	r2, r3, r2
 523 02ea BB68     		ldr	r3, [r7, #8]
 524 02ec D318     		adds	r3, r2, r3
 525 02ee 4FEA4303 		lsl	r3, r3, #1
 526 02f2 03F10103 		add	r3, r3, #1
 527 02f6 4FF00102 		mov	r2, #1
 528 02fa 02FA03F3 		lsl	r3, r2, r3
 529 02fe 01E0     		b	.L44
 530              	.L43:
 531              		.loc 1 211 0 discriminator 2
 532 0300 4FF00003 		mov	r3, #0
 533              	.L44:
 534              		.loc 1 211 0 discriminator 4
 535 0304 FA68     		ldr	r2, [r7, #12]
 536 0306 1361     		str	r3, [r2, #16]
 537 0308 1BE0     		b	.L45
 538              	.L42:
 212:../src/lib/lpc177x_8x/Drivers/source/lpc177x_8x_mcpwm.c ****         }
 213:../src/lib/lpc177x_8x/Drivers/source/lpc177x_8x_mcpwm.c ****         else
 214:../src/lib/lpc177x_8x/Drivers/source/lpc177x_8x_mcpwm.c ****         {
 215:../src/lib/lpc177x_8x/Drivers/source/lpc177x_8x_mcpwm.c ****             MCPWMx->CAPCON_CLR = MCPWM_CAPCON_CAPMCI_FE(captureConfig->captureChannel, channelNum);
 539              		.loc 1 215 0 is_stmt 1
 540 030a 7B68     		ldr	r3, [r7, #4]
 541 030c 1B68     		ldr	r3, [r3, #0]
 542 030e 022B     		cmp	r3, #2
 543 0310 13D8     		bhi	.L46
 544              		.loc 1 215 0 is_stmt 0 discriminator 1
 545 0312 BB68     		ldr	r3, [r7, #8]
 546 0314 022B     		cmp	r3, #2
 547 0316 10D8     		bhi	.L46
 548              		.loc 1 215 0 discriminator 3
 549 0318 7B68     		ldr	r3, [r7, #4]
 550 031a 1A68     		ldr	r2, [r3, #0]
 551 031c 1346     		mov	r3, r2
 552 031e 4FEA4303 		lsl	r3, r3, #1
 553 0322 9A18     		adds	r2, r3, r2
 554 0324 BB68     		ldr	r3, [r7, #8]
 555 0326 D318     		adds	r3, r2, r3
 556 0328 4FEA4303 		lsl	r3, r3, #1
 557 032c 03F10103 		add	r3, r3, #1
 558 0330 4FF00102 		mov	r2, #1
 559 0334 02FA03F3 		lsl	r3, r2, r3
 560 0338 01E0     		b	.L47
 561              	.L46:
 562              		.loc 1 215 0 discriminator 2
 563 033a 4FF00003 		mov	r3, #0
 564              	.L47:
 565              		.loc 1 215 0 discriminator 4
 566 033e FA68     		ldr	r2, [r7, #12]
 567 0340 5361     		str	r3, [r2, #20]
 568              	.L45:
 216:../src/lib/lpc177x_8x/Drivers/source/lpc177x_8x_mcpwm.c ****         }
 217:../src/lib/lpc177x_8x/Drivers/source/lpc177x_8x_mcpwm.c **** 
 218:../src/lib/lpc177x_8x/Drivers/source/lpc177x_8x_mcpwm.c ****         if (captureConfig->captureRising == ENABLE)
 569              		.loc 1 218 0 is_stmt 1
 570 0342 7B68     		ldr	r3, [r7, #4]
 571 0344 5B68     		ldr	r3, [r3, #4]
 572 0346 012B     		cmp	r3, #1
 573 0348 1AD1     		bne	.L48
 219:../src/lib/lpc177x_8x/Drivers/source/lpc177x_8x_mcpwm.c ****         {
 220:../src/lib/lpc177x_8x/Drivers/source/lpc177x_8x_mcpwm.c ****             MCPWMx->CAPCON_SET = MCPWM_CAPCON_CAPMCI_RE(captureConfig->captureChannel, channelNum);
 574              		.loc 1 220 0
 575 034a 7B68     		ldr	r3, [r7, #4]
 576 034c 1B68     		ldr	r3, [r3, #0]
 577 034e 022B     		cmp	r3, #2
 578 0350 11D8     		bhi	.L49
 579              		.loc 1 220 0 is_stmt 0 discriminator 1
 580 0352 BB68     		ldr	r3, [r7, #8]
 581 0354 022B     		cmp	r3, #2
 582 0356 0ED8     		bhi	.L49
 583              		.loc 1 220 0 discriminator 3
 584 0358 7B68     		ldr	r3, [r7, #4]
 585 035a 1A68     		ldr	r2, [r3, #0]
 586 035c 1346     		mov	r3, r2
 587 035e 4FEA4303 		lsl	r3, r3, #1
 588 0362 9A18     		adds	r2, r3, r2
 589 0364 BB68     		ldr	r3, [r7, #8]
 590 0366 D318     		adds	r3, r2, r3
 591 0368 4FEA4303 		lsl	r3, r3, #1
 592 036c 4FF00102 		mov	r2, #1
 593 0370 02FA03F3 		lsl	r3, r2, r3
 594 0374 01E0     		b	.L50
 595              	.L49:
 596              		.loc 1 220 0 discriminator 2
 597 0376 4FF00003 		mov	r3, #0
 598              	.L50:
 599              		.loc 1 220 0 discriminator 4
 600 037a FA68     		ldr	r2, [r7, #12]
 601 037c 1361     		str	r3, [r2, #16]
 602 037e 19E0     		b	.L51
 603              	.L48:
 221:../src/lib/lpc177x_8x/Drivers/source/lpc177x_8x_mcpwm.c ****         }
 222:../src/lib/lpc177x_8x/Drivers/source/lpc177x_8x_mcpwm.c ****         else
 223:../src/lib/lpc177x_8x/Drivers/source/lpc177x_8x_mcpwm.c ****         {
 224:../src/lib/lpc177x_8x/Drivers/source/lpc177x_8x_mcpwm.c ****             MCPWMx->CAPCON_CLR = MCPWM_CAPCON_CAPMCI_RE(captureConfig->captureChannel, channelNum);
 604              		.loc 1 224 0 is_stmt 1
 605 0380 7B68     		ldr	r3, [r7, #4]
 606 0382 1B68     		ldr	r3, [r3, #0]
 607 0384 022B     		cmp	r3, #2
 608 0386 11D8     		bhi	.L52
 609              		.loc 1 224 0 is_stmt 0 discriminator 1
 610 0388 BB68     		ldr	r3, [r7, #8]
 611 038a 022B     		cmp	r3, #2
 612 038c 0ED8     		bhi	.L52
 613              		.loc 1 224 0 discriminator 3
 614 038e 7B68     		ldr	r3, [r7, #4]
 615 0390 1A68     		ldr	r2, [r3, #0]
 616 0392 1346     		mov	r3, r2
 617 0394 4FEA4303 		lsl	r3, r3, #1
 618 0398 9A18     		adds	r2, r3, r2
 619 039a BB68     		ldr	r3, [r7, #8]
 620 039c D318     		adds	r3, r2, r3
 621 039e 4FEA4303 		lsl	r3, r3, #1
 622 03a2 4FF00102 		mov	r2, #1
 623 03a6 02FA03F3 		lsl	r3, r2, r3
 624 03aa 01E0     		b	.L53
 625              	.L52:
 626              		.loc 1 224 0 discriminator 2
 627 03ac 4FF00003 		mov	r3, #0
 628              	.L53:
 629              		.loc 1 224 0 discriminator 4
 630 03b0 FA68     		ldr	r2, [r7, #12]
 631 03b2 5361     		str	r3, [r2, #20]
 632              	.L51:
 225:../src/lib/lpc177x_8x/Drivers/source/lpc177x_8x_mcpwm.c ****         }
 226:../src/lib/lpc177x_8x/Drivers/source/lpc177x_8x_mcpwm.c **** 
 227:../src/lib/lpc177x_8x/Drivers/source/lpc177x_8x_mcpwm.c ****         if (captureConfig->timerReset == ENABLE)
 633              		.loc 1 227 0 is_stmt 1
 634 03b4 7B68     		ldr	r3, [r7, #4]
 635 03b6 DB68     		ldr	r3, [r3, #12]
 636 03b8 012B     		cmp	r3, #1
 637 03ba 11D1     		bne	.L54
 228:../src/lib/lpc177x_8x/Drivers/source/lpc177x_8x_mcpwm.c ****         {
 229:../src/lib/lpc177x_8x/Drivers/source/lpc177x_8x_mcpwm.c ****             MCPWMx->CAPCON_SET = MCPWM_CAPCON_RT(captureConfig->captureChannel);
 638              		.loc 1 229 0
 639 03bc 7B68     		ldr	r3, [r7, #4]
 640 03be 1B68     		ldr	r3, [r3, #0]
 641 03c0 022B     		cmp	r3, #2
 642 03c2 08D8     		bhi	.L55
 643              		.loc 1 229 0 is_stmt 0 discriminator 1
 644 03c4 7B68     		ldr	r3, [r7, #4]
 645 03c6 1B68     		ldr	r3, [r3, #0]
 646 03c8 03F11203 		add	r3, r3, #18
 647 03cc 4FF00102 		mov	r2, #1
 648 03d0 02FA03F3 		lsl	r3, r2, r3
 649 03d4 01E0     		b	.L56
 650              	.L55:
 651              		.loc 1 229 0 discriminator 2
 652 03d6 4FF00003 		mov	r3, #0
 653              	.L56:
 654              		.loc 1 229 0 discriminator 3
 655 03da FA68     		ldr	r2, [r7, #12]
 656 03dc 1361     		str	r3, [r2, #16]
 657 03de 10E0     		b	.L57
 658              	.L54:
 230:../src/lib/lpc177x_8x/Drivers/source/lpc177x_8x_mcpwm.c ****         }
 231:../src/lib/lpc177x_8x/Drivers/source/lpc177x_8x_mcpwm.c ****         else
 232:../src/lib/lpc177x_8x/Drivers/source/lpc177x_8x_mcpwm.c ****         {
 233:../src/lib/lpc177x_8x/Drivers/source/lpc177x_8x_mcpwm.c ****             MCPWMx->CAPCON_CLR = MCPWM_CAPCON_RT(captureConfig->captureChannel);
 659              		.loc 1 233 0 is_stmt 1
 660 03e0 7B68     		ldr	r3, [r7, #4]
 661 03e2 1B68     		ldr	r3, [r3, #0]
 662 03e4 022B     		cmp	r3, #2
 663 03e6 08D8     		bhi	.L58
 664              		.loc 1 233 0 is_stmt 0 discriminator 1
 665 03e8 7B68     		ldr	r3, [r7, #4]
 666 03ea 1B68     		ldr	r3, [r3, #0]
 667 03ec 03F11203 		add	r3, r3, #18
 668 03f0 4FF00102 		mov	r2, #1
 669 03f4 02FA03F3 		lsl	r3, r2, r3
 670 03f8 01E0     		b	.L59
 671              	.L58:
 672              		.loc 1 233 0 discriminator 2
 673 03fa 4FF00003 		mov	r3, #0
 674              	.L59:
 675              		.loc 1 233 0 discriminator 3
 676 03fe FA68     		ldr	r2, [r7, #12]
 677 0400 5361     		str	r3, [r2, #20]
 678              	.L57:
 234:../src/lib/lpc177x_8x/Drivers/source/lpc177x_8x_mcpwm.c ****         }
 235:../src/lib/lpc177x_8x/Drivers/source/lpc177x_8x_mcpwm.c **** 
 236:../src/lib/lpc177x_8x/Drivers/source/lpc177x_8x_mcpwm.c ****         if (captureConfig->hnfEnable == ENABLE)
 679              		.loc 1 236 0 is_stmt 1
 680 0402 7B68     		ldr	r3, [r7, #4]
 681 0404 1B69     		ldr	r3, [r3, #16]
 682 0406 012B     		cmp	r3, #1
 683 0408 0FD1     		bne	.L60
 237:../src/lib/lpc177x_8x/Drivers/source/lpc177x_8x_mcpwm.c ****         {
 238:../src/lib/lpc177x_8x/Drivers/source/lpc177x_8x_mcpwm.c ****             MCPWMx->CAPCON_SET = MCPWM_CAPCON_HNFCAP(channelNum);
 684              		.loc 1 238 0
 685 040a BB68     		ldr	r3, [r7, #8]
 686 040c 022B     		cmp	r3, #2
 687 040e 07D8     		bhi	.L61
 688              		.loc 1 238 0 is_stmt 0 discriminator 1
 689 0410 BB68     		ldr	r3, [r7, #8]
 690 0412 03F11503 		add	r3, r3, #21
 691 0416 4FF00102 		mov	r2, #1
 692 041a 02FA03F3 		lsl	r3, r2, r3
 693 041e 01E0     		b	.L62
 694              	.L61:
 695              		.loc 1 238 0 discriminator 2
 696 0420 4FF00003 		mov	r3, #0
 697              	.L62:
 698              		.loc 1 238 0 discriminator 3
 699 0424 FA68     		ldr	r2, [r7, #12]
 700 0426 1361     		str	r3, [r2, #16]
 701 0428 0EE0     		b	.L40
 702              	.L60:
 239:../src/lib/lpc177x_8x/Drivers/source/lpc177x_8x_mcpwm.c ****         }
 240:../src/lib/lpc177x_8x/Drivers/source/lpc177x_8x_mcpwm.c ****         else
 241:../src/lib/lpc177x_8x/Drivers/source/lpc177x_8x_mcpwm.c ****         {
 242:../src/lib/lpc177x_8x/Drivers/source/lpc177x_8x_mcpwm.c ****             MCPWMx->CAPCON_CLR = MCPWM_CAPCON_HNFCAP(channelNum);
 703              		.loc 1 242 0 is_stmt 1
 704 042a BB68     		ldr	r3, [r7, #8]
 705 042c 022B     		cmp	r3, #2
 706 042e 07D8     		bhi	.L63
 707              		.loc 1 242 0 is_stmt 0 discriminator 1
 708 0430 BB68     		ldr	r3, [r7, #8]
 709 0432 03F11503 		add	r3, r3, #21
 710 0436 4FF00102 		mov	r2, #1
 711 043a 02FA03F3 		lsl	r3, r2, r3
 712 043e 01E0     		b	.L64
 713              	.L63:
 714              		.loc 1 242 0 discriminator 2
 715 0440 4FF00003 		mov	r3, #0
 716              	.L64:
 717              		.loc 1 242 0 discriminator 3
 718 0444 FA68     		ldr	r2, [r7, #12]
 719 0446 5361     		str	r3, [r2, #20]
 720              	.L40:
 243:../src/lib/lpc177x_8x/Drivers/source/lpc177x_8x_mcpwm.c ****         }
 244:../src/lib/lpc177x_8x/Drivers/source/lpc177x_8x_mcpwm.c ****     }
 245:../src/lib/lpc177x_8x/Drivers/source/lpc177x_8x_mcpwm.c **** }
 721              		.loc 1 245 0 is_stmt 1
 722 0448 07F11407 		add	r7, r7, #20
 723 044c BD46     		mov	sp, r7
 724 044e 80BC     		pop	{r7}
 725 0450 7047     		bx	lr
 726              		.cfi_endproc
 727              	.LFE58:
 729 0452 00BF     		.align	2
 730              		.global	MCPWM_ClearCapture
 731              		.thumb
 732              		.thumb_func
 734              	MCPWM_ClearCapture:
 735              	.LFB59:
 246:../src/lib/lpc177x_8x/Drivers/source/lpc177x_8x_mcpwm.c **** 
 247:../src/lib/lpc177x_8x/Drivers/source/lpc177x_8x_mcpwm.c **** 
 248:../src/lib/lpc177x_8x/Drivers/source/lpc177x_8x_mcpwm.c **** /*********************************************************************//**
 249:../src/lib/lpc177x_8x/Drivers/source/lpc177x_8x_mcpwm.c ****  * @brief       Clears current captured value in specified capture channel
 250:../src/lib/lpc177x_8x/Drivers/source/lpc177x_8x_mcpwm.c ****  * @param[in]   MCPWMx      Motor Control PWM peripheral selected
 251:../src/lib/lpc177x_8x/Drivers/source/lpc177x_8x_mcpwm.c ****  *                          Should be: LPC_MCPWM
 252:../src/lib/lpc177x_8x/Drivers/source/lpc177x_8x_mcpwm.c ****  * @param[in]   captureChannel  Capture channel number, should be: 0..2
 253:../src/lib/lpc177x_8x/Drivers/source/lpc177x_8x_mcpwm.c ****  * @return      None
 254:../src/lib/lpc177x_8x/Drivers/source/lpc177x_8x_mcpwm.c ****  **********************************************************************/
 255:../src/lib/lpc177x_8x/Drivers/source/lpc177x_8x_mcpwm.c **** void MCPWM_ClearCapture(LPC_MCPWM_TypeDef *MCPWMx, uint32_t captureChannel)
 256:../src/lib/lpc177x_8x/Drivers/source/lpc177x_8x_mcpwm.c **** {
 736              		.loc 1 256 0
 737              		.cfi_startproc
 738              		@ args = 0, pretend = 0, frame = 8
 739              		@ frame_needed = 1, uses_anonymous_args = 0
 740              		@ link register save eliminated.
 741 0454 80B4     		push	{r7}
 742              	.LCFI12:
 743              		.cfi_def_cfa_offset 4
 744              		.cfi_offset 7, -4
 745 0456 83B0     		sub	sp, sp, #12
 746              	.LCFI13:
 747              		.cfi_def_cfa_offset 16
 748 0458 00AF     		add	r7, sp, #0
 749              	.LCFI14:
 750              		.cfi_def_cfa_register 7
 751 045a 7860     		str	r0, [r7, #4]
 752 045c 3960     		str	r1, [r7, #0]
 257:../src/lib/lpc177x_8x/Drivers/source/lpc177x_8x_mcpwm.c ****     MCPWMx->CAP_CLR = MCPWM_CAPCLR_CAP(captureChannel);
 753              		.loc 1 257 0
 754 045e 3B68     		ldr	r3, [r7, #0]
 755 0460 022B     		cmp	r3, #2
 756 0462 05D8     		bhi	.L66
 757              		.loc 1 257 0 is_stmt 0 discriminator 1
 758 0464 3B68     		ldr	r3, [r7, #0]
 759 0466 4FF00102 		mov	r2, #1
 760 046a 02FA03F3 		lsl	r3, r2, r3
 761 046e 01E0     		b	.L67
 762              	.L66:
 763              		.loc 1 257 0 discriminator 2
 764 0470 4FF00003 		mov	r3, #0
 765              	.L67:
 766              		.loc 1 257 0 discriminator 3
 767 0474 7A68     		ldr	r2, [r7, #4]
 768 0476 5367     		str	r3, [r2, #116]
 258:../src/lib/lpc177x_8x/Drivers/source/lpc177x_8x_mcpwm.c **** }
 769              		.loc 1 258 0 is_stmt 1 discriminator 3
 770 0478 07F10C07 		add	r7, r7, #12
 771 047c BD46     		mov	sp, r7
 772 047e 80BC     		pop	{r7}
 773 0480 7047     		bx	lr
 774              		.cfi_endproc
 775              	.LFE59:
 777 0482 00BF     		.align	2
 778              		.global	MCPWM_GetCapture
 779              		.thumb
 780              		.thumb_func
 782              	MCPWM_GetCapture:
 783              	.LFB60:
 259:../src/lib/lpc177x_8x/Drivers/source/lpc177x_8x_mcpwm.c **** 
 260:../src/lib/lpc177x_8x/Drivers/source/lpc177x_8x_mcpwm.c **** /*********************************************************************//**
 261:../src/lib/lpc177x_8x/Drivers/source/lpc177x_8x_mcpwm.c ****  * @brief       Get current captured value in specified capture channel
 262:../src/lib/lpc177x_8x/Drivers/source/lpc177x_8x_mcpwm.c ****  * @param[in]   MCPWMx      Motor Control PWM peripheral selected,
 263:../src/lib/lpc177x_8x/Drivers/source/lpc177x_8x_mcpwm.c ****  *                          Should be: LPC_MCPWM
 264:../src/lib/lpc177x_8x/Drivers/source/lpc177x_8x_mcpwm.c ****  * @param[in]   captureChannel  Capture channel number, should be: 0..2
 265:../src/lib/lpc177x_8x/Drivers/source/lpc177x_8x_mcpwm.c ****  * @return      None
 266:../src/lib/lpc177x_8x/Drivers/source/lpc177x_8x_mcpwm.c ****  **********************************************************************/
 267:../src/lib/lpc177x_8x/Drivers/source/lpc177x_8x_mcpwm.c **** uint32_t MCPWM_GetCapture(LPC_MCPWM_TypeDef *MCPWMx, uint32_t captureChannel)
 268:../src/lib/lpc177x_8x/Drivers/source/lpc177x_8x_mcpwm.c **** {
 784              		.loc 1 268 0
 785              		.cfi_startproc
 786              		@ args = 0, pretend = 0, frame = 8
 787              		@ frame_needed = 1, uses_anonymous_args = 0
 788              		@ link register save eliminated.
 789 0484 80B4     		push	{r7}
 790              	.LCFI15:
 791              		.cfi_def_cfa_offset 4
 792              		.cfi_offset 7, -4
 793 0486 83B0     		sub	sp, sp, #12
 794              	.LCFI16:
 795              		.cfi_def_cfa_offset 16
 796 0488 00AF     		add	r7, sp, #0
 797              	.LCFI17:
 798              		.cfi_def_cfa_register 7
 799 048a 7860     		str	r0, [r7, #4]
 800 048c 3960     		str	r1, [r7, #0]
 269:../src/lib/lpc177x_8x/Drivers/source/lpc177x_8x_mcpwm.c ****     if (captureChannel == MCPWM_CHANNEL_0)
 801              		.loc 1 269 0
 802 048e 3B68     		ldr	r3, [r7, #0]
 803 0490 002B     		cmp	r3, #0
 804 0492 02D1     		bne	.L69
 270:../src/lib/lpc177x_8x/Drivers/source/lpc177x_8x_mcpwm.c ****     {
 271:../src/lib/lpc177x_8x/Drivers/source/lpc177x_8x_mcpwm.c ****         return (MCPWMx->CAP0);
 805              		.loc 1 271 0
 806 0494 7B68     		ldr	r3, [r7, #4]
 807 0496 5B6C     		ldr	r3, [r3, #68]
 808 0498 0DE0     		b	.L70
 809              	.L69:
 272:../src/lib/lpc177x_8x/Drivers/source/lpc177x_8x_mcpwm.c ****     }
 273:../src/lib/lpc177x_8x/Drivers/source/lpc177x_8x_mcpwm.c ****     else if (captureChannel == MCPWM_CHANNEL_1)
 810              		.loc 1 273 0
 811 049a 3B68     		ldr	r3, [r7, #0]
 812 049c 012B     		cmp	r3, #1
 813 049e 02D1     		bne	.L71
 274:../src/lib/lpc177x_8x/Drivers/source/lpc177x_8x_mcpwm.c ****     {
 275:../src/lib/lpc177x_8x/Drivers/source/lpc177x_8x_mcpwm.c ****         return (MCPWMx->CAP1);
 814              		.loc 1 275 0
 815 04a0 7B68     		ldr	r3, [r7, #4]
 816 04a2 9B6C     		ldr	r3, [r3, #72]
 817 04a4 07E0     		b	.L70
 818              	.L71:
 276:../src/lib/lpc177x_8x/Drivers/source/lpc177x_8x_mcpwm.c ****     }
 277:../src/lib/lpc177x_8x/Drivers/source/lpc177x_8x_mcpwm.c ****     else if (captureChannel == MCPWM_CHANNEL_2)
 819              		.loc 1 277 0
 820 04a6 3B68     		ldr	r3, [r7, #0]
 821 04a8 022B     		cmp	r3, #2
 822 04aa 02D1     		bne	.L72
 278:../src/lib/lpc177x_8x/Drivers/source/lpc177x_8x_mcpwm.c ****     {
 279:../src/lib/lpc177x_8x/Drivers/source/lpc177x_8x_mcpwm.c ****         return (MCPWMx->CAP2);
 823              		.loc 1 279 0
 824 04ac 7B68     		ldr	r3, [r7, #4]
 825 04ae DB6C     		ldr	r3, [r3, #76]
 826 04b0 01E0     		b	.L70
 827              	.L72:
 280:../src/lib/lpc177x_8x/Drivers/source/lpc177x_8x_mcpwm.c ****     }
 281:../src/lib/lpc177x_8x/Drivers/source/lpc177x_8x_mcpwm.c ****     return (0);
 828              		.loc 1 281 0
 829 04b2 4FF00003 		mov	r3, #0
 830              	.L70:
 282:../src/lib/lpc177x_8x/Drivers/source/lpc177x_8x_mcpwm.c **** }
 831              		.loc 1 282 0
 832 04b6 1846     		mov	r0, r3
 833 04b8 07F10C07 		add	r7, r7, #12
 834 04bc BD46     		mov	sp, r7
 835 04be 80BC     		pop	{r7}
 836 04c0 7047     		bx	lr
 837              		.cfi_endproc
 838              	.LFE60:
 840 04c2 00BF     		.align	2
 841              		.global	MCPWM_CountConfig
 842              		.thumb
 843              		.thumb_func
 845              	MCPWM_CountConfig:
 846              	.LFB61:
 283:../src/lib/lpc177x_8x/Drivers/source/lpc177x_8x_mcpwm.c **** 
 284:../src/lib/lpc177x_8x/Drivers/source/lpc177x_8x_mcpwm.c **** 
 285:../src/lib/lpc177x_8x/Drivers/source/lpc177x_8x_mcpwm.c **** /*********************************************************************//**
 286:../src/lib/lpc177x_8x/Drivers/source/lpc177x_8x_mcpwm.c ****  * @brief       Configures Count control in MCPWM peripheral
 287:../src/lib/lpc177x_8x/Drivers/source/lpc177x_8x_mcpwm.c ****  * @param[in]   MCPWMx      Motor Control PWM peripheral selected
 288:../src/lib/lpc177x_8x/Drivers/source/lpc177x_8x_mcpwm.c ****  *                          Should be: LPC_MCPWM
 289:../src/lib/lpc177x_8x/Drivers/source/lpc177x_8x_mcpwm.c ****  * @param[in]   channelNum  Channel number, should be: 0..2
 290:../src/lib/lpc177x_8x/Drivers/source/lpc177x_8x_mcpwm.c ****  * @param[in]   countMode   Count mode, should be:
 291:../src/lib/lpc177x_8x/Drivers/source/lpc177x_8x_mcpwm.c ****  *                          - ENABLE: Enables count mode.
 292:../src/lib/lpc177x_8x/Drivers/source/lpc177x_8x_mcpwm.c ****  *                          - DISABLE: Disable count mode, the channel is in timer mode.
 293:../src/lib/lpc177x_8x/Drivers/source/lpc177x_8x_mcpwm.c ****  * @param[in]   countConfig Pointer to a MCPWM_COUNT_CFG_Type structure
 294:../src/lib/lpc177x_8x/Drivers/source/lpc177x_8x_mcpwm.c **** *                           that contains the configuration information for the
 295:../src/lib/lpc177x_8x/Drivers/source/lpc177x_8x_mcpwm.c **** *                           specified MCPWM count control.
 296:../src/lib/lpc177x_8x/Drivers/source/lpc177x_8x_mcpwm.c ****  * @return      None
 297:../src/lib/lpc177x_8x/Drivers/source/lpc177x_8x_mcpwm.c ****  **********************************************************************/
 298:../src/lib/lpc177x_8x/Drivers/source/lpc177x_8x_mcpwm.c **** void MCPWM_CountConfig(LPC_MCPWM_TypeDef *MCPWMx, uint32_t channelNum,
 299:../src/lib/lpc177x_8x/Drivers/source/lpc177x_8x_mcpwm.c ****                                     uint32_t countMode, MCPWM_COUNT_CFG_Type *countConfig)
 300:../src/lib/lpc177x_8x/Drivers/source/lpc177x_8x_mcpwm.c **** {
 847              		.loc 1 300 0
 848              		.cfi_startproc
 849              		@ args = 0, pretend = 0, frame = 16
 850              		@ frame_needed = 1, uses_anonymous_args = 0
 851              		@ link register save eliminated.
 852 04c4 80B4     		push	{r7}
 853              	.LCFI18:
 854              		.cfi_def_cfa_offset 4
 855              		.cfi_offset 7, -4
 856 04c6 85B0     		sub	sp, sp, #20
 857              	.LCFI19:
 858              		.cfi_def_cfa_offset 24
 859 04c8 00AF     		add	r7, sp, #0
 860              	.LCFI20:
 861              		.cfi_def_cfa_register 7
 862 04ca F860     		str	r0, [r7, #12]
 863 04cc B960     		str	r1, [r7, #8]
 864 04ce 7A60     		str	r2, [r7, #4]
 865 04d0 3B60     		str	r3, [r7, #0]
 301:../src/lib/lpc177x_8x/Drivers/source/lpc177x_8x_mcpwm.c ****     if (channelNum < MCPWM_MAX_CHANNEL)
 866              		.loc 1 301 0
 867 04d2 BB68     		ldr	r3, [r7, #8]
 868 04d4 022B     		cmp	r3, #2
 869 04d6 00F29980 		bhi	.L73
 302:../src/lib/lpc177x_8x/Drivers/source/lpc177x_8x_mcpwm.c ****     {
 303:../src/lib/lpc177x_8x/Drivers/source/lpc177x_8x_mcpwm.c ****         if (countMode == ENABLE)
 870              		.loc 1 303 0
 871 04da 7B68     		ldr	r3, [r7, #4]
 872 04dc 012B     		cmp	r3, #1
 873 04de 40F08680 		bne	.L75
 304:../src/lib/lpc177x_8x/Drivers/source/lpc177x_8x_mcpwm.c ****         {
 305:../src/lib/lpc177x_8x/Drivers/source/lpc177x_8x_mcpwm.c ****             MCPWMx->CNTCON_SET = MCPWM_CNTCON_CNTR(channelNum);
 874              		.loc 1 305 0
 875 04e2 BB68     		ldr	r3, [r7, #8]
 876 04e4 022B     		cmp	r3, #2
 877 04e6 07D8     		bhi	.L76
 878              		.loc 1 305 0 is_stmt 0 discriminator 1
 879 04e8 BB68     		ldr	r3, [r7, #8]
 880 04ea 03F11D03 		add	r3, r3, #29
 881 04ee 4FF00102 		mov	r2, #1
 882 04f2 02FA03F3 		lsl	r3, r2, r3
 883 04f6 01E0     		b	.L77
 884              	.L76:
 885              		.loc 1 305 0 discriminator 2
 886 04f8 4FF00003 		mov	r3, #0
 887              	.L77:
 888              		.loc 1 305 0 discriminator 3
 889 04fc FA68     		ldr	r2, [r7, #12]
 890 04fe 1366     		str	r3, [r2, #96]
 306:../src/lib/lpc177x_8x/Drivers/source/lpc177x_8x_mcpwm.c **** 
 307:../src/lib/lpc177x_8x/Drivers/source/lpc177x_8x_mcpwm.c ****             if (countConfig->countFalling == ENABLE)
 891              		.loc 1 307 0 is_stmt 1 discriminator 3
 892 0500 3B68     		ldr	r3, [r7, #0]
 893 0502 9B68     		ldr	r3, [r3, #8]
 894 0504 012B     		cmp	r3, #1
 895 0506 1CD1     		bne	.L78
 308:../src/lib/lpc177x_8x/Drivers/source/lpc177x_8x_mcpwm.c ****             {
 309:../src/lib/lpc177x_8x/Drivers/source/lpc177x_8x_mcpwm.c ****                 MCPWMx->CNTCON_SET = MCPWM_CNTCON_TCMCI_FE(countConfig->counterChannel,channelNum);
 896              		.loc 1 309 0
 897 0508 3B68     		ldr	r3, [r7, #0]
 898 050a 1B68     		ldr	r3, [r3, #0]
 899 050c 022B     		cmp	r3, #2
 900 050e 13D8     		bhi	.L79
 901              		.loc 1 309 0 is_stmt 0 discriminator 1
 902 0510 BB68     		ldr	r3, [r7, #8]
 903 0512 022B     		cmp	r3, #2
 904 0514 10D8     		bhi	.L79
 905              		.loc 1 309 0 discriminator 3
 906 0516 3B68     		ldr	r3, [r7, #0]
 907 0518 1A68     		ldr	r2, [r3, #0]
 908 051a 1346     		mov	r3, r2
 909 051c 4FEA4303 		lsl	r3, r3, #1
 910 0520 9A18     		adds	r2, r3, r2
 911 0522 BB68     		ldr	r3, [r7, #8]
 912 0524 D318     		adds	r3, r2, r3
 913 0526 4FEA4303 		lsl	r3, r3, #1
 914 052a 03F10103 		add	r3, r3, #1
 915 052e 4FF00102 		mov	r2, #1
 916 0532 02FA03F3 		lsl	r3, r2, r3
 917 0536 01E0     		b	.L80
 918              	.L79:
 919              		.loc 1 309 0 discriminator 2
 920 0538 4FF00003 		mov	r3, #0
 921              	.L80:
 922              		.loc 1 309 0 discriminator 4
 923 053c FA68     		ldr	r2, [r7, #12]
 924 053e 1366     		str	r3, [r2, #96]
 925 0540 1BE0     		b	.L81
 926              	.L78:
 310:../src/lib/lpc177x_8x/Drivers/source/lpc177x_8x_mcpwm.c ****             }
 311:../src/lib/lpc177x_8x/Drivers/source/lpc177x_8x_mcpwm.c ****             else
 312:../src/lib/lpc177x_8x/Drivers/source/lpc177x_8x_mcpwm.c ****             {
 313:../src/lib/lpc177x_8x/Drivers/source/lpc177x_8x_mcpwm.c ****                 MCPWMx->CNTCON_CLR = MCPWM_CNTCON_TCMCI_FE(countConfig->counterChannel,channelNum);
 927              		.loc 1 313 0 is_stmt 1
 928 0542 3B68     		ldr	r3, [r7, #0]
 929 0544 1B68     		ldr	r3, [r3, #0]
 930 0546 022B     		cmp	r3, #2
 931 0548 13D8     		bhi	.L82
 932              		.loc 1 313 0 is_stmt 0 discriminator 1
 933 054a BB68     		ldr	r3, [r7, #8]
 934 054c 022B     		cmp	r3, #2
 935 054e 10D8     		bhi	.L82
 936              		.loc 1 313 0 discriminator 3
 937 0550 3B68     		ldr	r3, [r7, #0]
 938 0552 1A68     		ldr	r2, [r3, #0]
 939 0554 1346     		mov	r3, r2
 940 0556 4FEA4303 		lsl	r3, r3, #1
 941 055a 9A18     		adds	r2, r3, r2
 942 055c BB68     		ldr	r3, [r7, #8]
 943 055e D318     		adds	r3, r2, r3
 944 0560 4FEA4303 		lsl	r3, r3, #1
 945 0564 03F10103 		add	r3, r3, #1
 946 0568 4FF00102 		mov	r2, #1
 947 056c 02FA03F3 		lsl	r3, r2, r3
 948 0570 01E0     		b	.L83
 949              	.L82:
 950              		.loc 1 313 0 discriminator 2
 951 0572 4FF00003 		mov	r3, #0
 952              	.L83:
 953              		.loc 1 313 0 discriminator 4
 954 0576 FA68     		ldr	r2, [r7, #12]
 955 0578 5366     		str	r3, [r2, #100]
 956              	.L81:
 314:../src/lib/lpc177x_8x/Drivers/source/lpc177x_8x_mcpwm.c ****             }
 315:../src/lib/lpc177x_8x/Drivers/source/lpc177x_8x_mcpwm.c **** 
 316:../src/lib/lpc177x_8x/Drivers/source/lpc177x_8x_mcpwm.c ****             if (countConfig->countRising == ENABLE)
 957              		.loc 1 316 0 is_stmt 1
 958 057a 3B68     		ldr	r3, [r7, #0]
 959 057c 5B68     		ldr	r3, [r3, #4]
 960 057e 012B     		cmp	r3, #1
 961 0580 1AD1     		bne	.L84
 317:../src/lib/lpc177x_8x/Drivers/source/lpc177x_8x_mcpwm.c ****             {
 318:../src/lib/lpc177x_8x/Drivers/source/lpc177x_8x_mcpwm.c ****                 MCPWMx->CNTCON_SET = MCPWM_CNTCON_TCMCI_RE(countConfig->counterChannel,channelNum);
 962              		.loc 1 318 0
 963 0582 3B68     		ldr	r3, [r7, #0]
 964 0584 1B68     		ldr	r3, [r3, #0]
 965 0586 022B     		cmp	r3, #2
 966 0588 11D8     		bhi	.L85
 967              		.loc 1 318 0 is_stmt 0 discriminator 1
 968 058a BB68     		ldr	r3, [r7, #8]
 969 058c 022B     		cmp	r3, #2
 970 058e 0ED8     		bhi	.L85
 971              		.loc 1 318 0 discriminator 3
 972 0590 3B68     		ldr	r3, [r7, #0]
 973 0592 1A68     		ldr	r2, [r3, #0]
 974 0594 1346     		mov	r3, r2
 975 0596 4FEA4303 		lsl	r3, r3, #1
 976 059a 9A18     		adds	r2, r3, r2
 977 059c BB68     		ldr	r3, [r7, #8]
 978 059e D318     		adds	r3, r2, r3
 979 05a0 4FEA4303 		lsl	r3, r3, #1
 980 05a4 4FF00102 		mov	r2, #1
 981 05a8 02FA03F3 		lsl	r3, r2, r3
 982 05ac 01E0     		b	.L86
 983              	.L85:
 984              		.loc 1 318 0 discriminator 2
 985 05ae 4FF00003 		mov	r3, #0
 986              	.L86:
 987              		.loc 1 318 0 discriminator 4
 988 05b2 FA68     		ldr	r2, [r7, #12]
 989 05b4 1366     		str	r3, [r2, #96]
 990 05b6 29E0     		b	.L73
 991              	.L84:
 319:../src/lib/lpc177x_8x/Drivers/source/lpc177x_8x_mcpwm.c ****             }
 320:../src/lib/lpc177x_8x/Drivers/source/lpc177x_8x_mcpwm.c ****             else
 321:../src/lib/lpc177x_8x/Drivers/source/lpc177x_8x_mcpwm.c ****             {
 322:../src/lib/lpc177x_8x/Drivers/source/lpc177x_8x_mcpwm.c ****                 MCPWMx->CNTCON_CLR = MCPWM_CNTCON_TCMCI_RE(countConfig->counterChannel,channelNum);
 992              		.loc 1 322 0 is_stmt 1
 993 05b8 3B68     		ldr	r3, [r7, #0]
 994 05ba 1B68     		ldr	r3, [r3, #0]
 995 05bc 022B     		cmp	r3, #2
 996 05be 11D8     		bhi	.L87
 997              		.loc 1 322 0 is_stmt 0 discriminator 1
 998 05c0 BB68     		ldr	r3, [r7, #8]
 999 05c2 022B     		cmp	r3, #2
 1000 05c4 0ED8     		bhi	.L87
 1001              		.loc 1 322 0 discriminator 3
 1002 05c6 3B68     		ldr	r3, [r7, #0]
 1003 05c8 1A68     		ldr	r2, [r3, #0]
 1004 05ca 1346     		mov	r3, r2
 1005 05cc 4FEA4303 		lsl	r3, r3, #1
 1006 05d0 9A18     		adds	r2, r3, r2
 1007 05d2 BB68     		ldr	r3, [r7, #8]
 1008 05d4 D318     		adds	r3, r2, r3
 1009 05d6 4FEA4303 		lsl	r3, r3, #1
 1010 05da 4FF00102 		mov	r2, #1
 1011 05de 02FA03F3 		lsl	r3, r2, r3
 1012 05e2 01E0     		b	.L88
 1013              	.L87:
 1014              		.loc 1 322 0 discriminator 2
 1015 05e4 4FF00003 		mov	r3, #0
 1016              	.L88:
 1017              		.loc 1 322 0 discriminator 4
 1018 05e8 FA68     		ldr	r2, [r7, #12]
 1019 05ea 5366     		str	r3, [r2, #100]
 1020 05ec 0EE0     		b	.L73
 1021              	.L75:
 323:../src/lib/lpc177x_8x/Drivers/source/lpc177x_8x_mcpwm.c ****             }
 324:../src/lib/lpc177x_8x/Drivers/source/lpc177x_8x_mcpwm.c ****         }
 325:../src/lib/lpc177x_8x/Drivers/source/lpc177x_8x_mcpwm.c ****         else
 326:../src/lib/lpc177x_8x/Drivers/source/lpc177x_8x_mcpwm.c ****         {
 327:../src/lib/lpc177x_8x/Drivers/source/lpc177x_8x_mcpwm.c ****             MCPWMx->CNTCON_CLR = MCPWM_CNTCON_CNTR(channelNum);
 1022              		.loc 1 327 0 is_stmt 1
 1023 05ee BB68     		ldr	r3, [r7, #8]
 1024 05f0 022B     		cmp	r3, #2
 1025 05f2 07D8     		bhi	.L89
 1026              		.loc 1 327 0 is_stmt 0 discriminator 1
 1027 05f4 BB68     		ldr	r3, [r7, #8]
 1028 05f6 03F11D03 		add	r3, r3, #29
 1029 05fa 4FF00102 		mov	r2, #1
 1030 05fe 02FA03F3 		lsl	r3, r2, r3
 1031 0602 01E0     		b	.L90
 1032              	.L89:
 1033              		.loc 1 327 0 discriminator 2
 1034 0604 4FF00003 		mov	r3, #0
 1035              	.L90:
 1036              		.loc 1 327 0 discriminator 3
 1037 0608 FA68     		ldr	r2, [r7, #12]
 1038 060a 5366     		str	r3, [r2, #100]
 1039              	.L73:
 328:../src/lib/lpc177x_8x/Drivers/source/lpc177x_8x_mcpwm.c ****         }
 329:../src/lib/lpc177x_8x/Drivers/source/lpc177x_8x_mcpwm.c ****     }
 330:../src/lib/lpc177x_8x/Drivers/source/lpc177x_8x_mcpwm.c **** }
 1040              		.loc 1 330 0 is_stmt 1
 1041 060c 07F11407 		add	r7, r7, #20
 1042 0610 BD46     		mov	sp, r7
 1043 0612 80BC     		pop	{r7}
 1044 0614 7047     		bx	lr
 1045              		.cfi_endproc
 1046              	.LFE61:
 1048 0616 00BF     		.align	2
 1049              		.global	MCPWM_Start
 1050              		.thumb
 1051              		.thumb_func
 1053              	MCPWM_Start:
 1054              	.LFB62:
 331:../src/lib/lpc177x_8x/Drivers/source/lpc177x_8x_mcpwm.c **** 
 332:../src/lib/lpc177x_8x/Drivers/source/lpc177x_8x_mcpwm.c **** 
 333:../src/lib/lpc177x_8x/Drivers/source/lpc177x_8x_mcpwm.c **** /*********************************************************************//**
 334:../src/lib/lpc177x_8x/Drivers/source/lpc177x_8x_mcpwm.c ****  * @brief       Start MCPWM activity for each MCPWM channel
 335:../src/lib/lpc177x_8x/Drivers/source/lpc177x_8x_mcpwm.c ****  * @param[in]   MCPWMx      Motor Control PWM peripheral selected
 336:../src/lib/lpc177x_8x/Drivers/source/lpc177x_8x_mcpwm.c ****  *                          Should be: LPC_MCPWM
 337:../src/lib/lpc177x_8x/Drivers/source/lpc177x_8x_mcpwm.c ****  * @param[in]   channel0    State of this command on channel 0:
 338:../src/lib/lpc177x_8x/Drivers/source/lpc177x_8x_mcpwm.c ****  *                          - ENABLE: 'Start' command will effect on channel 0
 339:../src/lib/lpc177x_8x/Drivers/source/lpc177x_8x_mcpwm.c ****  *                          - DISABLE: 'Start' command will not effect on channel 0
 340:../src/lib/lpc177x_8x/Drivers/source/lpc177x_8x_mcpwm.c ****  * @param[in]   channel1    State of this command on channel 1:
 341:../src/lib/lpc177x_8x/Drivers/source/lpc177x_8x_mcpwm.c ****  *                          - ENABLE: 'Start' command will effect on channel 1
 342:../src/lib/lpc177x_8x/Drivers/source/lpc177x_8x_mcpwm.c ****  *                          - DISABLE: 'Start' command will not effect on channel 1
 343:../src/lib/lpc177x_8x/Drivers/source/lpc177x_8x_mcpwm.c ****  * @param[in]   channel2    State of this command on channel 2:
 344:../src/lib/lpc177x_8x/Drivers/source/lpc177x_8x_mcpwm.c ****  *                          - ENABLE: 'Start' command will effect on channel 2
 345:../src/lib/lpc177x_8x/Drivers/source/lpc177x_8x_mcpwm.c ****  *                          - DISABLE: 'Start' command will not effect on channel 2
 346:../src/lib/lpc177x_8x/Drivers/source/lpc177x_8x_mcpwm.c ****  * @return      None
 347:../src/lib/lpc177x_8x/Drivers/source/lpc177x_8x_mcpwm.c ****  **********************************************************************/
 348:../src/lib/lpc177x_8x/Drivers/source/lpc177x_8x_mcpwm.c **** void MCPWM_Start(LPC_MCPWM_TypeDef *MCPWMx, uint32_t channel0,
 349:../src/lib/lpc177x_8x/Drivers/source/lpc177x_8x_mcpwm.c ****                                     uint32_t channel1, uint32_t channel2)
 350:../src/lib/lpc177x_8x/Drivers/source/lpc177x_8x_mcpwm.c **** {
 1055              		.loc 1 350 0
 1056              		.cfi_startproc
 1057              		@ args = 0, pretend = 0, frame = 24
 1058              		@ frame_needed = 1, uses_anonymous_args = 0
 1059              		@ link register save eliminated.
 1060 0618 80B4     		push	{r7}
 1061              	.LCFI21:
 1062              		.cfi_def_cfa_offset 4
 1063              		.cfi_offset 7, -4
 1064 061a 87B0     		sub	sp, sp, #28
 1065              	.LCFI22:
 1066              		.cfi_def_cfa_offset 32
 1067 061c 00AF     		add	r7, sp, #0
 1068              	.LCFI23:
 1069              		.cfi_def_cfa_register 7
 1070 061e F860     		str	r0, [r7, #12]
 1071 0620 B960     		str	r1, [r7, #8]
 1072 0622 7A60     		str	r2, [r7, #4]
 1073 0624 3B60     		str	r3, [r7, #0]
 351:../src/lib/lpc177x_8x/Drivers/source/lpc177x_8x_mcpwm.c ****     uint32_t regVal = 0;
 1074              		.loc 1 351 0
 1075 0626 4FF00003 		mov	r3, #0
 1076 062a 7B61     		str	r3, [r7, #20]
 352:../src/lib/lpc177x_8x/Drivers/source/lpc177x_8x_mcpwm.c **** 
 353:../src/lib/lpc177x_8x/Drivers/source/lpc177x_8x_mcpwm.c ****     regVal = (channel0 ? MCPWM_CON_RUN(0) : 0) | (channel1 ? MCPWM_CON_RUN(1) : 0) \
 1077              		.loc 1 353 0
 1078 062c BB68     		ldr	r3, [r7, #8]
 1079 062e 002B     		cmp	r3, #0
 1080 0630 02D0     		beq	.L92
 1081              		.loc 1 353 0 is_stmt 0 discriminator 1
 1082 0632 4FF00102 		mov	r2, #1
 1083 0636 01E0     		b	.L93
 1084              	.L92:
 1085              		.loc 1 353 0 discriminator 2
 1086 0638 4FF00002 		mov	r2, #0
 1087              	.L93:
 1088              		.loc 1 353 0 discriminator 3
 1089 063c 7B68     		ldr	r3, [r7, #4]
 1090 063e 002B     		cmp	r3, #0
 1091 0640 02D0     		beq	.L94
 1092              		.loc 1 353 0 discriminator 1
 1093 0642 4FF48073 		mov	r3, #256
 1094 0646 01E0     		b	.L95
 1095              	.L94:
 1096              		.loc 1 353 0 discriminator 2
 1097 0648 4FF00003 		mov	r3, #0
 1098              	.L95:
 1099              		.loc 1 353 0 discriminator 3
 1100 064c 1A43     		orrs	r2, r2, r3
 354:../src/lib/lpc177x_8x/Drivers/source/lpc177x_8x_mcpwm.c ****                 | (channel2 ? MCPWM_CON_RUN(2) : 0);
 1101              		.loc 1 354 0 is_stmt 1 discriminator 3
 1102 064e 3B68     		ldr	r3, [r7, #0]
 1103 0650 002B     		cmp	r3, #0
 1104 0652 02D0     		beq	.L96
 1105              		.loc 1 354 0 is_stmt 0 discriminator 1
 1106 0654 4FF48033 		mov	r3, #65536
 1107 0658 01E0     		b	.L97
 1108              	.L96:
 1109              		.loc 1 354 0 discriminator 2
 1110 065a 4FF00003 		mov	r3, #0
 1111              	.L97:
 353:../src/lib/lpc177x_8x/Drivers/source/lpc177x_8x_mcpwm.c ****     regVal = (channel0 ? MCPWM_CON_RUN(0) : 0) | (channel1 ? MCPWM_CON_RUN(1) : 0) \
 1112              		.loc 1 353 0 is_stmt 1
 1113 065e 1343     		orrs	r3, r3, r2
 1114 0660 7B61     		str	r3, [r7, #20]
 355:../src/lib/lpc177x_8x/Drivers/source/lpc177x_8x_mcpwm.c **** 
 356:../src/lib/lpc177x_8x/Drivers/source/lpc177x_8x_mcpwm.c ****     MCPWMx->CON_SET = regVal;
 1115              		.loc 1 356 0
 1116 0662 FB68     		ldr	r3, [r7, #12]
 1117 0664 7A69     		ldr	r2, [r7, #20]
 1118 0666 5A60     		str	r2, [r3, #4]
 357:../src/lib/lpc177x_8x/Drivers/source/lpc177x_8x_mcpwm.c **** }
 1119              		.loc 1 357 0
 1120 0668 07F11C07 		add	r7, r7, #28
 1121 066c BD46     		mov	sp, r7
 1122 066e 80BC     		pop	{r7}
 1123 0670 7047     		bx	lr
 1124              		.cfi_endproc
 1125              	.LFE62:
 1127 0672 00BF     		.align	2
 1128              		.global	MCPWM_Stop
 1129              		.thumb
 1130              		.thumb_func
 1132              	MCPWM_Stop:
 1133              	.LFB63:
 358:../src/lib/lpc177x_8x/Drivers/source/lpc177x_8x_mcpwm.c **** 
 359:../src/lib/lpc177x_8x/Drivers/source/lpc177x_8x_mcpwm.c **** 
 360:../src/lib/lpc177x_8x/Drivers/source/lpc177x_8x_mcpwm.c **** /*********************************************************************//**
 361:../src/lib/lpc177x_8x/Drivers/source/lpc177x_8x_mcpwm.c ****  * @brief       Stop MCPWM activity for each MCPWM channel
 362:../src/lib/lpc177x_8x/Drivers/source/lpc177x_8x_mcpwm.c ****  * @param[in]   MCPWMx      Motor Control PWM peripheral selected
 363:../src/lib/lpc177x_8x/Drivers/source/lpc177x_8x_mcpwm.c ****  *                          Should be: LPC_MCPWM
 364:../src/lib/lpc177x_8x/Drivers/source/lpc177x_8x_mcpwm.c ****  * @param[in]   channel0    State of this command on channel 0:
 365:../src/lib/lpc177x_8x/Drivers/source/lpc177x_8x_mcpwm.c ****  *                          - ENABLE: 'Stop' command will effect on channel 0
 366:../src/lib/lpc177x_8x/Drivers/source/lpc177x_8x_mcpwm.c ****  *                          - DISABLE: 'Stop' command will not effect on channel 0
 367:../src/lib/lpc177x_8x/Drivers/source/lpc177x_8x_mcpwm.c ****  * @param[in]   channel1    State of this command on channel 1:
 368:../src/lib/lpc177x_8x/Drivers/source/lpc177x_8x_mcpwm.c ****  *                          - ENABLE: 'Stop' command will effect on channel 1
 369:../src/lib/lpc177x_8x/Drivers/source/lpc177x_8x_mcpwm.c ****  *                          - DISABLE: 'Stop' command will not effect on channel 1
 370:../src/lib/lpc177x_8x/Drivers/source/lpc177x_8x_mcpwm.c ****  * @param[in]   channel2    State of this command on channel 2:
 371:../src/lib/lpc177x_8x/Drivers/source/lpc177x_8x_mcpwm.c ****  *                          - ENABLE: 'Stop' command will effect on channel 2
 372:../src/lib/lpc177x_8x/Drivers/source/lpc177x_8x_mcpwm.c ****  *                          - DISABLE: 'Stop' command will not effect on channel 2
 373:../src/lib/lpc177x_8x/Drivers/source/lpc177x_8x_mcpwm.c ****  * @return      None
 374:../src/lib/lpc177x_8x/Drivers/source/lpc177x_8x_mcpwm.c ****  **********************************************************************/
 375:../src/lib/lpc177x_8x/Drivers/source/lpc177x_8x_mcpwm.c **** void MCPWM_Stop(LPC_MCPWM_TypeDef *MCPWMx, uint32_t channel0,
 376:../src/lib/lpc177x_8x/Drivers/source/lpc177x_8x_mcpwm.c ****         uint32_t channel1, uint32_t channel2)
 377:../src/lib/lpc177x_8x/Drivers/source/lpc177x_8x_mcpwm.c **** {
 1134              		.loc 1 377 0
 1135              		.cfi_startproc
 1136              		@ args = 0, pretend = 0, frame = 24
 1137              		@ frame_needed = 1, uses_anonymous_args = 0
 1138              		@ link register save eliminated.
 1139 0674 80B4     		push	{r7}
 1140              	.LCFI24:
 1141              		.cfi_def_cfa_offset 4
 1142              		.cfi_offset 7, -4
 1143 0676 87B0     		sub	sp, sp, #28
 1144              	.LCFI25:
 1145              		.cfi_def_cfa_offset 32
 1146 0678 00AF     		add	r7, sp, #0
 1147              	.LCFI26:
 1148              		.cfi_def_cfa_register 7
 1149 067a F860     		str	r0, [r7, #12]
 1150 067c B960     		str	r1, [r7, #8]
 1151 067e 7A60     		str	r2, [r7, #4]
 1152 0680 3B60     		str	r3, [r7, #0]
 378:../src/lib/lpc177x_8x/Drivers/source/lpc177x_8x_mcpwm.c ****     uint32_t regVal = 0;
 1153              		.loc 1 378 0
 1154 0682 4FF00003 		mov	r3, #0
 1155 0686 7B61     		str	r3, [r7, #20]
 379:../src/lib/lpc177x_8x/Drivers/source/lpc177x_8x_mcpwm.c **** 
 380:../src/lib/lpc177x_8x/Drivers/source/lpc177x_8x_mcpwm.c ****     regVal = (channel0 ? MCPWM_CON_RUN(0) : 0) | (channel1 ? MCPWM_CON_RUN(1) : 0) \
 1156              		.loc 1 380 0
 1157 0688 BB68     		ldr	r3, [r7, #8]
 1158 068a 002B     		cmp	r3, #0
 1159 068c 02D0     		beq	.L99
 1160              		.loc 1 380 0 is_stmt 0 discriminator 1
 1161 068e 4FF00102 		mov	r2, #1
 1162 0692 01E0     		b	.L100
 1163              	.L99:
 1164              		.loc 1 380 0 discriminator 2
 1165 0694 4FF00002 		mov	r2, #0
 1166              	.L100:
 1167              		.loc 1 380 0 discriminator 3
 1168 0698 7B68     		ldr	r3, [r7, #4]
 1169 069a 002B     		cmp	r3, #0
 1170 069c 02D0     		beq	.L101
 1171              		.loc 1 380 0 discriminator 1
 1172 069e 4FF48073 		mov	r3, #256
 1173 06a2 01E0     		b	.L102
 1174              	.L101:
 1175              		.loc 1 380 0 discriminator 2
 1176 06a4 4FF00003 		mov	r3, #0
 1177              	.L102:
 1178              		.loc 1 380 0 discriminator 3
 1179 06a8 1A43     		orrs	r2, r2, r3
 381:../src/lib/lpc177x_8x/Drivers/source/lpc177x_8x_mcpwm.c ****                 | (channel2 ? MCPWM_CON_RUN(2) : 0);
 1180              		.loc 1 381 0 is_stmt 1 discriminator 3
 1181 06aa 3B68     		ldr	r3, [r7, #0]
 1182 06ac 002B     		cmp	r3, #0
 1183 06ae 02D0     		beq	.L103
 1184              		.loc 1 381 0 is_stmt 0 discriminator 1
 1185 06b0 4FF48033 		mov	r3, #65536
 1186 06b4 01E0     		b	.L104
 1187              	.L103:
 1188              		.loc 1 381 0 discriminator 2
 1189 06b6 4FF00003 		mov	r3, #0
 1190              	.L104:
 380:../src/lib/lpc177x_8x/Drivers/source/lpc177x_8x_mcpwm.c ****     regVal = (channel0 ? MCPWM_CON_RUN(0) : 0) | (channel1 ? MCPWM_CON_RUN(1) : 0) \
 1191              		.loc 1 380 0 is_stmt 1
 1192 06ba 1343     		orrs	r3, r3, r2
 1193 06bc 7B61     		str	r3, [r7, #20]
 382:../src/lib/lpc177x_8x/Drivers/source/lpc177x_8x_mcpwm.c **** 
 383:../src/lib/lpc177x_8x/Drivers/source/lpc177x_8x_mcpwm.c ****     MCPWMx->CON_CLR = regVal;
 1194              		.loc 1 383 0
 1195 06be FB68     		ldr	r3, [r7, #12]
 1196 06c0 7A69     		ldr	r2, [r7, #20]
 1197 06c2 9A60     		str	r2, [r3, #8]
 384:../src/lib/lpc177x_8x/Drivers/source/lpc177x_8x_mcpwm.c **** }
 1198              		.loc 1 384 0
 1199 06c4 07F11C07 		add	r7, r7, #28
 1200 06c8 BD46     		mov	sp, r7
 1201 06ca 80BC     		pop	{r7}
 1202 06cc 7047     		bx	lr
 1203              		.cfi_endproc
 1204              	.LFE63:
 1206 06ce 00BF     		.align	2
 1207              		.global	MCPWM_ACMode
 1208              		.thumb
 1209              		.thumb_func
 1211              	MCPWM_ACMode:
 1212              	.LFB64:
 385:../src/lib/lpc177x_8x/Drivers/source/lpc177x_8x_mcpwm.c **** 
 386:../src/lib/lpc177x_8x/Drivers/source/lpc177x_8x_mcpwm.c **** 
 387:../src/lib/lpc177x_8x/Drivers/source/lpc177x_8x_mcpwm.c **** /*********************************************************************//**
 388:../src/lib/lpc177x_8x/Drivers/source/lpc177x_8x_mcpwm.c ****  * @brief       Enables/Disables 3-phase AC motor mode on MCPWM peripheral
 389:../src/lib/lpc177x_8x/Drivers/source/lpc177x_8x_mcpwm.c ****  * @param[in]   MCPWMx      Motor Control PWM peripheral selected
 390:../src/lib/lpc177x_8x/Drivers/source/lpc177x_8x_mcpwm.c ****  *                          Should be: LPC_MCPWM
 391:../src/lib/lpc177x_8x/Drivers/source/lpc177x_8x_mcpwm.c ****  * @param[in]   acMode      State of this command, should be:
 392:../src/lib/lpc177x_8x/Drivers/source/lpc177x_8x_mcpwm.c ****  *                          - ENABLE.
 393:../src/lib/lpc177x_8x/Drivers/source/lpc177x_8x_mcpwm.c ****  *                          - DISABLE.
 394:../src/lib/lpc177x_8x/Drivers/source/lpc177x_8x_mcpwm.c ****  * @return      None
 395:../src/lib/lpc177x_8x/Drivers/source/lpc177x_8x_mcpwm.c ****  **********************************************************************/
 396:../src/lib/lpc177x_8x/Drivers/source/lpc177x_8x_mcpwm.c **** void MCPWM_ACMode(LPC_MCPWM_TypeDef *MCPWMx, uint32_t acMode)
 397:../src/lib/lpc177x_8x/Drivers/source/lpc177x_8x_mcpwm.c **** {
 1213              		.loc 1 397 0
 1214              		.cfi_startproc
 1215              		@ args = 0, pretend = 0, frame = 8
 1216              		@ frame_needed = 1, uses_anonymous_args = 0
 1217              		@ link register save eliminated.
 1218 06d0 80B4     		push	{r7}
 1219              	.LCFI27:
 1220              		.cfi_def_cfa_offset 4
 1221              		.cfi_offset 7, -4
 1222 06d2 83B0     		sub	sp, sp, #12
 1223              	.LCFI28:
 1224              		.cfi_def_cfa_offset 16
 1225 06d4 00AF     		add	r7, sp, #0
 1226              	.LCFI29:
 1227              		.cfi_def_cfa_register 7
 1228 06d6 7860     		str	r0, [r7, #4]
 1229 06d8 3960     		str	r1, [r7, #0]
 398:../src/lib/lpc177x_8x/Drivers/source/lpc177x_8x_mcpwm.c ****     if (acMode)
 1230              		.loc 1 398 0
 1231 06da 3B68     		ldr	r3, [r7, #0]
 1232 06dc 002B     		cmp	r3, #0
 1233 06de 04D0     		beq	.L106
 399:../src/lib/lpc177x_8x/Drivers/source/lpc177x_8x_mcpwm.c ****     {
 400:../src/lib/lpc177x_8x/Drivers/source/lpc177x_8x_mcpwm.c ****         MCPWMx->CON_SET = MCPWM_CON_ACMODE;
 1234              		.loc 1 400 0
 1235 06e0 7B68     		ldr	r3, [r7, #4]
 1236 06e2 4FF08042 		mov	r2, #1073741824
 1237 06e6 5A60     		str	r2, [r3, #4]
 1238 06e8 03E0     		b	.L105
 1239              	.L106:
 401:../src/lib/lpc177x_8x/Drivers/source/lpc177x_8x_mcpwm.c ****     }
 402:../src/lib/lpc177x_8x/Drivers/source/lpc177x_8x_mcpwm.c ****     else
 403:../src/lib/lpc177x_8x/Drivers/source/lpc177x_8x_mcpwm.c ****     {
 404:../src/lib/lpc177x_8x/Drivers/source/lpc177x_8x_mcpwm.c ****         MCPWMx->CON_CLR = MCPWM_CON_ACMODE;
 1240              		.loc 1 404 0
 1241 06ea 7B68     		ldr	r3, [r7, #4]
 1242 06ec 4FF08042 		mov	r2, #1073741824
 1243 06f0 9A60     		str	r2, [r3, #8]
 1244              	.L105:
 405:../src/lib/lpc177x_8x/Drivers/source/lpc177x_8x_mcpwm.c ****     }
 406:../src/lib/lpc177x_8x/Drivers/source/lpc177x_8x_mcpwm.c **** }
 1245              		.loc 1 406 0
 1246 06f2 07F10C07 		add	r7, r7, #12
 1247 06f6 BD46     		mov	sp, r7
 1248 06f8 80BC     		pop	{r7}
 1249 06fa 7047     		bx	lr
 1250              		.cfi_endproc
 1251              	.LFE64:
 1253              		.align	2
 1254              		.global	MCPWM_DCMode
 1255              		.thumb
 1256              		.thumb_func
 1258              	MCPWM_DCMode:
 1259              	.LFB65:
 407:../src/lib/lpc177x_8x/Drivers/source/lpc177x_8x_mcpwm.c **** 
 408:../src/lib/lpc177x_8x/Drivers/source/lpc177x_8x_mcpwm.c **** 
 409:../src/lib/lpc177x_8x/Drivers/source/lpc177x_8x_mcpwm.c **** /*********************************************************************//**
 410:../src/lib/lpc177x_8x/Drivers/source/lpc177x_8x_mcpwm.c ****  * @brief       Enables/Disables 3-phase DC motor mode on MCPWM peripheral
 411:../src/lib/lpc177x_8x/Drivers/source/lpc177x_8x_mcpwm.c ****  * @param[in]   MCPWMx          Motor Control PWM peripheral selected
 412:../src/lib/lpc177x_8x/Drivers/source/lpc177x_8x_mcpwm.c ****  *                              Should be: LPC_MCPWM
 413:../src/lib/lpc177x_8x/Drivers/source/lpc177x_8x_mcpwm.c ****  * @param[in]   dcMode          State of this command, should be:
 414:../src/lib/lpc177x_8x/Drivers/source/lpc177x_8x_mcpwm.c ****  *                              - ENABLE.
 415:../src/lib/lpc177x_8x/Drivers/source/lpc177x_8x_mcpwm.c ****  *                              - DISABLE.
 416:../src/lib/lpc177x_8x/Drivers/source/lpc177x_8x_mcpwm.c ****  * @param[in]   outputInvered   Polarity of the MCOB outputs for all 3 channels,
 417:../src/lib/lpc177x_8x/Drivers/source/lpc177x_8x_mcpwm.c ****  *                              should be:
 418:../src/lib/lpc177x_8x/Drivers/source/lpc177x_8x_mcpwm.c ****  *                              - ENABLE: The MCOB outputs have opposite polarity
 419:../src/lib/lpc177x_8x/Drivers/source/lpc177x_8x_mcpwm.c ****  *                                  from the MCOA outputs.
 420:../src/lib/lpc177x_8x/Drivers/source/lpc177x_8x_mcpwm.c ****  *                              - DISABLE: The MCOB outputs have the same basic
 421:../src/lib/lpc177x_8x/Drivers/source/lpc177x_8x_mcpwm.c ****  *                                  polarity as the MCOA outputs.
 422:../src/lib/lpc177x_8x/Drivers/source/lpc177x_8x_mcpwm.c ****  * @param[in]   outputPattern   A value contains bits that enables/disables the specified
 423:../src/lib/lpc177x_8x/Drivers/source/lpc177x_8x_mcpwm.c ****  *                              output pins route to the internal MCOA0 signal, should be:
 424:../src/lib/lpc177x_8x/Drivers/source/lpc177x_8x_mcpwm.c ****                                 - MCPWM_PATENT_A0:   MCOA0 tracks internal MCOA0
 425:../src/lib/lpc177x_8x/Drivers/source/lpc177x_8x_mcpwm.c ****                                 - MCPWM_PATENT_B0:   MCOB0 tracks internal MCOA0
 426:../src/lib/lpc177x_8x/Drivers/source/lpc177x_8x_mcpwm.c ****                                 - MCPWM_PATENT_A1:   MCOA1 tracks internal MCOA0
 427:../src/lib/lpc177x_8x/Drivers/source/lpc177x_8x_mcpwm.c ****                                 - MCPWM_PATENT_B1:   MCOB1 tracks internal MCOA0
 428:../src/lib/lpc177x_8x/Drivers/source/lpc177x_8x_mcpwm.c ****                                 - MCPWM_PATENT_A2:   MCOA2 tracks internal MCOA0
 429:../src/lib/lpc177x_8x/Drivers/source/lpc177x_8x_mcpwm.c ****                                 - MCPWM_PATENT_B2:   MCOB2 tracks internal MCOA0
 430:../src/lib/lpc177x_8x/Drivers/source/lpc177x_8x_mcpwm.c ****  * @return      None
 431:../src/lib/lpc177x_8x/Drivers/source/lpc177x_8x_mcpwm.c ****  *
 432:../src/lib/lpc177x_8x/Drivers/source/lpc177x_8x_mcpwm.c ****  * Note: all these outputPatent values above can be ORed together for using as input parameter.
 433:../src/lib/lpc177x_8x/Drivers/source/lpc177x_8x_mcpwm.c ****  **********************************************************************/
 434:../src/lib/lpc177x_8x/Drivers/source/lpc177x_8x_mcpwm.c **** void MCPWM_DCMode(LPC_MCPWM_TypeDef *MCPWMx, uint32_t dcMode,
 435:../src/lib/lpc177x_8x/Drivers/source/lpc177x_8x_mcpwm.c ****                     uint32_t outputInvered, uint32_t outputPattern)
 436:../src/lib/lpc177x_8x/Drivers/source/lpc177x_8x_mcpwm.c **** {
 1260              		.loc 1 436 0
 1261              		.cfi_startproc
 1262              		@ args = 0, pretend = 0, frame = 16
 1263              		@ frame_needed = 1, uses_anonymous_args = 0
 1264              		@ link register save eliminated.
 1265 06fc 80B4     		push	{r7}
 1266              	.LCFI30:
 1267              		.cfi_def_cfa_offset 4
 1268              		.cfi_offset 7, -4
 1269 06fe 85B0     		sub	sp, sp, #20
 1270              	.LCFI31:
 1271              		.cfi_def_cfa_offset 24
 1272 0700 00AF     		add	r7, sp, #0
 1273              	.LCFI32:
 1274              		.cfi_def_cfa_register 7
 1275 0702 F860     		str	r0, [r7, #12]
 1276 0704 B960     		str	r1, [r7, #8]
 1277 0706 7A60     		str	r2, [r7, #4]
 1278 0708 3B60     		str	r3, [r7, #0]
 437:../src/lib/lpc177x_8x/Drivers/source/lpc177x_8x_mcpwm.c ****     if (dcMode)
 1279              		.loc 1 437 0
 1280 070a BB68     		ldr	r3, [r7, #8]
 1281 070c 002B     		cmp	r3, #0
 1282 070e 04D0     		beq	.L109
 438:../src/lib/lpc177x_8x/Drivers/source/lpc177x_8x_mcpwm.c ****     {
 439:../src/lib/lpc177x_8x/Drivers/source/lpc177x_8x_mcpwm.c ****         MCPWMx->CON_SET = MCPWM_CON_DCMODE;
 1283              		.loc 1 439 0
 1284 0710 FB68     		ldr	r3, [r7, #12]
 1285 0712 4FF00042 		mov	r2, #-2147483648
 1286 0716 5A60     		str	r2, [r3, #4]
 1287 0718 03E0     		b	.L110
 1288              	.L109:
 440:../src/lib/lpc177x_8x/Drivers/source/lpc177x_8x_mcpwm.c ****     }
 441:../src/lib/lpc177x_8x/Drivers/source/lpc177x_8x_mcpwm.c ****     else
 442:../src/lib/lpc177x_8x/Drivers/source/lpc177x_8x_mcpwm.c ****     {
 443:../src/lib/lpc177x_8x/Drivers/source/lpc177x_8x_mcpwm.c ****         MCPWMx->CON_CLR = MCPWM_CON_DCMODE;
 1289              		.loc 1 443 0
 1290 071a FB68     		ldr	r3, [r7, #12]
 1291 071c 4FF00042 		mov	r2, #-2147483648
 1292 0720 9A60     		str	r2, [r3, #8]
 1293              	.L110:
 444:../src/lib/lpc177x_8x/Drivers/source/lpc177x_8x_mcpwm.c ****     }
 445:../src/lib/lpc177x_8x/Drivers/source/lpc177x_8x_mcpwm.c **** 
 446:../src/lib/lpc177x_8x/Drivers/source/lpc177x_8x_mcpwm.c ****     if (outputInvered)
 1294              		.loc 1 446 0
 1295 0722 7B68     		ldr	r3, [r7, #4]
 1296 0724 002B     		cmp	r3, #0
 1297 0726 04D0     		beq	.L111
 447:../src/lib/lpc177x_8x/Drivers/source/lpc177x_8x_mcpwm.c ****     {
 448:../src/lib/lpc177x_8x/Drivers/source/lpc177x_8x_mcpwm.c ****         MCPWMx->CON_SET = MCPWM_CON_INVBDC;
 1298              		.loc 1 448 0
 1299 0728 FB68     		ldr	r3, [r7, #12]
 1300 072a 4FF00052 		mov	r2, #536870912
 1301 072e 5A60     		str	r2, [r3, #4]
 1302 0730 03E0     		b	.L112
 1303              	.L111:
 449:../src/lib/lpc177x_8x/Drivers/source/lpc177x_8x_mcpwm.c ****     }
 450:../src/lib/lpc177x_8x/Drivers/source/lpc177x_8x_mcpwm.c ****     else
 451:../src/lib/lpc177x_8x/Drivers/source/lpc177x_8x_mcpwm.c ****     {
 452:../src/lib/lpc177x_8x/Drivers/source/lpc177x_8x_mcpwm.c ****         MCPWMx->CON_CLR = MCPWM_CON_INVBDC;
 1304              		.loc 1 452 0
 1305 0732 FB68     		ldr	r3, [r7, #12]
 1306 0734 4FF00052 		mov	r2, #536870912
 1307 0738 9A60     		str	r2, [r3, #8]
 1308              	.L112:
 453:../src/lib/lpc177x_8x/Drivers/source/lpc177x_8x_mcpwm.c ****     }
 454:../src/lib/lpc177x_8x/Drivers/source/lpc177x_8x_mcpwm.c **** 
 455:../src/lib/lpc177x_8x/Drivers/source/lpc177x_8x_mcpwm.c ****     MCPWMx->CP = outputPattern;
 1309              		.loc 1 455 0
 1310 073a FB68     		ldr	r3, [r7, #12]
 1311 073c 3A68     		ldr	r2, [r7, #0]
 1312 073e 1A64     		str	r2, [r3, #64]
 456:../src/lib/lpc177x_8x/Drivers/source/lpc177x_8x_mcpwm.c **** }
 1313              		.loc 1 456 0
 1314 0740 07F11407 		add	r7, r7, #20
 1315 0744 BD46     		mov	sp, r7
 1316 0746 80BC     		pop	{r7}
 1317 0748 7047     		bx	lr
 1318              		.cfi_endproc
 1319              	.LFE65:
 1321 074a 00BF     		.align	2
 1322              		.global	MCPWM_IntConfig
 1323              		.thumb
 1324              		.thumb_func
 1326              	MCPWM_IntConfig:
 1327              	.LFB66:
 457:../src/lib/lpc177x_8x/Drivers/source/lpc177x_8x_mcpwm.c **** 
 458:../src/lib/lpc177x_8x/Drivers/source/lpc177x_8x_mcpwm.c **** 
 459:../src/lib/lpc177x_8x/Drivers/source/lpc177x_8x_mcpwm.c **** /*********************************************************************//**
 460:../src/lib/lpc177x_8x/Drivers/source/lpc177x_8x_mcpwm.c ****  * @brief       Configures the specified interrupt in MCPWM peripheral
 461:../src/lib/lpc177x_8x/Drivers/source/lpc177x_8x_mcpwm.c ****  * @param[in]   MCPWMx      Motor Control PWM peripheral selected
 462:../src/lib/lpc177x_8x/Drivers/source/lpc177x_8x_mcpwm.c ****  *                          Should be: LPC_MCPWM
 463:../src/lib/lpc177x_8x/Drivers/source/lpc177x_8x_mcpwm.c ****  * @param[in]   ulIntType   Interrupt type, should be:
 464:../src/lib/lpc177x_8x/Drivers/source/lpc177x_8x_mcpwm.c ****  *                          - MCPWM_INTFLAG_LIM0: Limit interrupt for channel (0)
 465:../src/lib/lpc177x_8x/Drivers/source/lpc177x_8x_mcpwm.c ****  *                          - MCPWM_INTFLAG_MAT0: Match interrupt for channel (0)
 466:../src/lib/lpc177x_8x/Drivers/source/lpc177x_8x_mcpwm.c ****  *                          - MCPWM_INTFLAG_CAP0: Capture interrupt for channel (0)
 467:../src/lib/lpc177x_8x/Drivers/source/lpc177x_8x_mcpwm.c ****  *                          - MCPWM_INTFLAG_LIM1: Limit interrupt for channel (1)
 468:../src/lib/lpc177x_8x/Drivers/source/lpc177x_8x_mcpwm.c ****  *                          - MCPWM_INTFLAG_MAT1: Match interrupt for channel (1)
 469:../src/lib/lpc177x_8x/Drivers/source/lpc177x_8x_mcpwm.c ****  *                          - MCPWM_INTFLAG_CAP1: Capture interrupt for channel (1)
 470:../src/lib/lpc177x_8x/Drivers/source/lpc177x_8x_mcpwm.c ****  *                          - MCPWM_INTFLAG_LIM2: Limit interrupt for channel (2)
 471:../src/lib/lpc177x_8x/Drivers/source/lpc177x_8x_mcpwm.c ****  *                          - MCPWM_INTFLAG_MAT2: Match interrupt for channel (2)
 472:../src/lib/lpc177x_8x/Drivers/source/lpc177x_8x_mcpwm.c ****  *                          - MCPWM_INTFLAG_CAP2: Capture interrupt for channel (2)
 473:../src/lib/lpc177x_8x/Drivers/source/lpc177x_8x_mcpwm.c ****  *                          - MCPWM_INTFLAG_ABORT: Fast abort interrupt
 474:../src/lib/lpc177x_8x/Drivers/source/lpc177x_8x_mcpwm.c ****  * @param[in]   NewState    New State of this command, should be:
 475:../src/lib/lpc177x_8x/Drivers/source/lpc177x_8x_mcpwm.c ****  *                          - ENABLE.
 476:../src/lib/lpc177x_8x/Drivers/source/lpc177x_8x_mcpwm.c ****  *                          - DISABLE.
 477:../src/lib/lpc177x_8x/Drivers/source/lpc177x_8x_mcpwm.c ****  * @return      None
 478:../src/lib/lpc177x_8x/Drivers/source/lpc177x_8x_mcpwm.c ****  *
 479:../src/lib/lpc177x_8x/Drivers/source/lpc177x_8x_mcpwm.c ****  * Note: all these ulIntType values above can be ORed together for using as input parameter.
 480:../src/lib/lpc177x_8x/Drivers/source/lpc177x_8x_mcpwm.c ****  **********************************************************************/
 481:../src/lib/lpc177x_8x/Drivers/source/lpc177x_8x_mcpwm.c **** void MCPWM_IntConfig(LPC_MCPWM_TypeDef *MCPWMx, uint32_t ulIntType, FunctionalState NewState)
 482:../src/lib/lpc177x_8x/Drivers/source/lpc177x_8x_mcpwm.c **** {
 1328              		.loc 1 482 0
 1329              		.cfi_startproc
 1330              		@ args = 0, pretend = 0, frame = 16
 1331              		@ frame_needed = 1, uses_anonymous_args = 0
 1332              		@ link register save eliminated.
 1333 074c 80B4     		push	{r7}
 1334              	.LCFI33:
 1335              		.cfi_def_cfa_offset 4
 1336              		.cfi_offset 7, -4
 1337 074e 85B0     		sub	sp, sp, #20
 1338              	.LCFI34:
 1339              		.cfi_def_cfa_offset 24
 1340 0750 00AF     		add	r7, sp, #0
 1341              	.LCFI35:
 1342              		.cfi_def_cfa_register 7
 1343 0752 F860     		str	r0, [r7, #12]
 1344 0754 B960     		str	r1, [r7, #8]
 1345 0756 1346     		mov	r3, r2
 1346 0758 FB71     		strb	r3, [r7, #7]
 483:../src/lib/lpc177x_8x/Drivers/source/lpc177x_8x_mcpwm.c ****     if (NewState)
 1347              		.loc 1 483 0
 1348 075a FB79     		ldrb	r3, [r7, #7]	@ zero_extendqisi2
 1349 075c 002B     		cmp	r3, #0
 1350 075e 03D0     		beq	.L114
 484:../src/lib/lpc177x_8x/Drivers/source/lpc177x_8x_mcpwm.c ****     {
 485:../src/lib/lpc177x_8x/Drivers/source/lpc177x_8x_mcpwm.c ****         MCPWMx->INTEN_SET = ulIntType;
 1351              		.loc 1 485 0
 1352 0760 FB68     		ldr	r3, [r7, #12]
 1353 0762 BA68     		ldr	r2, [r7, #8]
 1354 0764 5A65     		str	r2, [r3, #84]
 1355 0766 02E0     		b	.L113
 1356              	.L114:
 486:../src/lib/lpc177x_8x/Drivers/source/lpc177x_8x_mcpwm.c ****     }
 487:../src/lib/lpc177x_8x/Drivers/source/lpc177x_8x_mcpwm.c ****     else
 488:../src/lib/lpc177x_8x/Drivers/source/lpc177x_8x_mcpwm.c ****     {
 489:../src/lib/lpc177x_8x/Drivers/source/lpc177x_8x_mcpwm.c ****         MCPWMx->INTEN_CLR = ulIntType;
 1357              		.loc 1 489 0
 1358 0768 FB68     		ldr	r3, [r7, #12]
 1359 076a BA68     		ldr	r2, [r7, #8]
 1360 076c 9A65     		str	r2, [r3, #88]
 1361              	.L113:
 490:../src/lib/lpc177x_8x/Drivers/source/lpc177x_8x_mcpwm.c ****     }
 491:../src/lib/lpc177x_8x/Drivers/source/lpc177x_8x_mcpwm.c **** }
 1362              		.loc 1 491 0
 1363 076e 07F11407 		add	r7, r7, #20
 1364 0772 BD46     		mov	sp, r7
 1365 0774 80BC     		pop	{r7}
 1366 0776 7047     		bx	lr
 1367              		.cfi_endproc
 1368              	.LFE66:
 1370              		.align	2
 1371              		.global	MCPWM_IntSet
 1372              		.thumb
 1373              		.thumb_func
 1375              	MCPWM_IntSet:
 1376              	.LFB67:
 492:../src/lib/lpc177x_8x/Drivers/source/lpc177x_8x_mcpwm.c **** 
 493:../src/lib/lpc177x_8x/Drivers/source/lpc177x_8x_mcpwm.c **** 
 494:../src/lib/lpc177x_8x/Drivers/source/lpc177x_8x_mcpwm.c **** /*********************************************************************//**
 495:../src/lib/lpc177x_8x/Drivers/source/lpc177x_8x_mcpwm.c ****  * @brief       Sets/Forces the specified interrupt for MCPWM peripheral
 496:../src/lib/lpc177x_8x/Drivers/source/lpc177x_8x_mcpwm.c ****  * @param[in]   MCPWMx      Motor Control PWM peripheral selected
 497:../src/lib/lpc177x_8x/Drivers/source/lpc177x_8x_mcpwm.c ****  *                          Should be LPC_MCPWM
 498:../src/lib/lpc177x_8x/Drivers/source/lpc177x_8x_mcpwm.c ****  * @param[in]   ulIntType   Interrupt type, should be:
 499:../src/lib/lpc177x_8x/Drivers/source/lpc177x_8x_mcpwm.c ****  *                          - MCPWM_INTFLAG_LIM0: Limit interrupt for channel (0)
 500:../src/lib/lpc177x_8x/Drivers/source/lpc177x_8x_mcpwm.c ****  *                          - MCPWM_INTFLAG_MAT0: Match interrupt for channel (0)
 501:../src/lib/lpc177x_8x/Drivers/source/lpc177x_8x_mcpwm.c ****  *                          - MCPWM_INTFLAG_CAP0: Capture interrupt for channel (0)
 502:../src/lib/lpc177x_8x/Drivers/source/lpc177x_8x_mcpwm.c ****  *                          - MCPWM_INTFLAG_LIM1: Limit interrupt for channel (1)
 503:../src/lib/lpc177x_8x/Drivers/source/lpc177x_8x_mcpwm.c ****  *                          - MCPWM_INTFLAG_MAT1: Match interrupt for channel (1)
 504:../src/lib/lpc177x_8x/Drivers/source/lpc177x_8x_mcpwm.c ****  *                          - MCPWM_INTFLAG_CAP1: Capture interrupt for channel (1)
 505:../src/lib/lpc177x_8x/Drivers/source/lpc177x_8x_mcpwm.c ****  *                          - MCPWM_INTFLAG_LIM2: Limit interrupt for channel (2)
 506:../src/lib/lpc177x_8x/Drivers/source/lpc177x_8x_mcpwm.c ****  *                          - MCPWM_INTFLAG_MAT2: Match interrupt for channel (2)
 507:../src/lib/lpc177x_8x/Drivers/source/lpc177x_8x_mcpwm.c ****  *                          - MCPWM_INTFLAG_CAP2: Capture interrupt for channel (2)
 508:../src/lib/lpc177x_8x/Drivers/source/lpc177x_8x_mcpwm.c ****  *                          - MCPWM_INTFLAG_ABORT: Fast abort interrupt
 509:../src/lib/lpc177x_8x/Drivers/source/lpc177x_8x_mcpwm.c ****  * @return      None
 510:../src/lib/lpc177x_8x/Drivers/source/lpc177x_8x_mcpwm.c ****  * Note: all these ulIntType values above can be ORed together for using as input parameter.
 511:../src/lib/lpc177x_8x/Drivers/source/lpc177x_8x_mcpwm.c ****  **********************************************************************/
 512:../src/lib/lpc177x_8x/Drivers/source/lpc177x_8x_mcpwm.c **** void MCPWM_IntSet(LPC_MCPWM_TypeDef *MCPWMx, uint32_t ulIntType)
 513:../src/lib/lpc177x_8x/Drivers/source/lpc177x_8x_mcpwm.c **** {
 1377              		.loc 1 513 0
 1378              		.cfi_startproc
 1379              		@ args = 0, pretend = 0, frame = 8
 1380              		@ frame_needed = 1, uses_anonymous_args = 0
 1381              		@ link register save eliminated.
 1382 0778 80B4     		push	{r7}
 1383              	.LCFI36:
 1384              		.cfi_def_cfa_offset 4
 1385              		.cfi_offset 7, -4
 1386 077a 83B0     		sub	sp, sp, #12
 1387              	.LCFI37:
 1388              		.cfi_def_cfa_offset 16
 1389 077c 00AF     		add	r7, sp, #0
 1390              	.LCFI38:
 1391              		.cfi_def_cfa_register 7
 1392 077e 7860     		str	r0, [r7, #4]
 1393 0780 3960     		str	r1, [r7, #0]
 514:../src/lib/lpc177x_8x/Drivers/source/lpc177x_8x_mcpwm.c ****     MCPWMx->INTF_SET = ulIntType;
 1394              		.loc 1 514 0
 1395 0782 7B68     		ldr	r3, [r7, #4]
 1396 0784 3A68     		ldr	r2, [r7, #0]
 1397 0786 DA66     		str	r2, [r3, #108]
 515:../src/lib/lpc177x_8x/Drivers/source/lpc177x_8x_mcpwm.c **** }
 1398              		.loc 1 515 0
 1399 0788 07F10C07 		add	r7, r7, #12
 1400 078c BD46     		mov	sp, r7
 1401 078e 80BC     		pop	{r7}
 1402 0790 7047     		bx	lr
 1403              		.cfi_endproc
 1404              	.LFE67:
 1406 0792 00BF     		.align	2
 1407              		.global	MCPWM_IntClear
 1408              		.thumb
 1409              		.thumb_func
 1411              	MCPWM_IntClear:
 1412              	.LFB68:
 516:../src/lib/lpc177x_8x/Drivers/source/lpc177x_8x_mcpwm.c **** 
 517:../src/lib/lpc177x_8x/Drivers/source/lpc177x_8x_mcpwm.c **** 
 518:../src/lib/lpc177x_8x/Drivers/source/lpc177x_8x_mcpwm.c **** /*********************************************************************//**
 519:../src/lib/lpc177x_8x/Drivers/source/lpc177x_8x_mcpwm.c ****  * @brief       Clear the specified interrupt pending for MCPWM peripheral
 520:../src/lib/lpc177x_8x/Drivers/source/lpc177x_8x_mcpwm.c ****  * @param[in]   MCPWMx      Motor Control PWM peripheral selected,
 521:../src/lib/lpc177x_8x/Drivers/source/lpc177x_8x_mcpwm.c ****  *                          should be: LPC_MCPWM
 522:../src/lib/lpc177x_8x/Drivers/source/lpc177x_8x_mcpwm.c ****  * @param[in]   ulIntType   Interrupt type, should be:
 523:../src/lib/lpc177x_8x/Drivers/source/lpc177x_8x_mcpwm.c ****  *                          - MCPWM_INTFLAG_LIM0: Limit interrupt for channel (0)
 524:../src/lib/lpc177x_8x/Drivers/source/lpc177x_8x_mcpwm.c ****  *                          - MCPWM_INTFLAG_MAT0: Match interrupt for channel (0)
 525:../src/lib/lpc177x_8x/Drivers/source/lpc177x_8x_mcpwm.c ****  *                          - MCPWM_INTFLAG_CAP0: Capture interrupt for channel (0)
 526:../src/lib/lpc177x_8x/Drivers/source/lpc177x_8x_mcpwm.c ****  *                          - MCPWM_INTFLAG_LIM1: Limit interrupt for channel (1)
 527:../src/lib/lpc177x_8x/Drivers/source/lpc177x_8x_mcpwm.c ****  *                          - MCPWM_INTFLAG_MAT1: Match interrupt for channel (1)
 528:../src/lib/lpc177x_8x/Drivers/source/lpc177x_8x_mcpwm.c ****  *                          - MCPWM_INTFLAG_CAP1: Capture interrupt for channel (1)
 529:../src/lib/lpc177x_8x/Drivers/source/lpc177x_8x_mcpwm.c ****  *                          - MCPWM_INTFLAG_LIM2: Limit interrupt for channel (2)
 530:../src/lib/lpc177x_8x/Drivers/source/lpc177x_8x_mcpwm.c ****  *                          - MCPWM_INTFLAG_MAT2: Match interrupt for channel (2)
 531:../src/lib/lpc177x_8x/Drivers/source/lpc177x_8x_mcpwm.c ****  *                          - MCPWM_INTFLAG_CAP2: Capture interrupt for channel (2)
 532:../src/lib/lpc177x_8x/Drivers/source/lpc177x_8x_mcpwm.c ****  *                          - MCPWM_INTFLAG_ABORT: Fast abort interrupt
 533:../src/lib/lpc177x_8x/Drivers/source/lpc177x_8x_mcpwm.c ****  * @return      None
 534:../src/lib/lpc177x_8x/Drivers/source/lpc177x_8x_mcpwm.c ****  * Note: all these ulIntType values above can be ORed together for using as input parameter.
 535:../src/lib/lpc177x_8x/Drivers/source/lpc177x_8x_mcpwm.c ****  **********************************************************************/
 536:../src/lib/lpc177x_8x/Drivers/source/lpc177x_8x_mcpwm.c **** void MCPWM_IntClear(LPC_MCPWM_TypeDef *MCPWMx, uint32_t ulIntType)
 537:../src/lib/lpc177x_8x/Drivers/source/lpc177x_8x_mcpwm.c **** {
 1413              		.loc 1 537 0
 1414              		.cfi_startproc
 1415              		@ args = 0, pretend = 0, frame = 8
 1416              		@ frame_needed = 1, uses_anonymous_args = 0
 1417              		@ link register save eliminated.
 1418 0794 80B4     		push	{r7}
 1419              	.LCFI39:
 1420              		.cfi_def_cfa_offset 4
 1421              		.cfi_offset 7, -4
 1422 0796 83B0     		sub	sp, sp, #12
 1423              	.LCFI40:
 1424              		.cfi_def_cfa_offset 16
 1425 0798 00AF     		add	r7, sp, #0
 1426              	.LCFI41:
 1427              		.cfi_def_cfa_register 7
 1428 079a 7860     		str	r0, [r7, #4]
 1429 079c 3960     		str	r1, [r7, #0]
 538:../src/lib/lpc177x_8x/Drivers/source/lpc177x_8x_mcpwm.c ****     MCPWMx->INTF_CLR = ulIntType;
 1430              		.loc 1 538 0
 1431 079e 7B68     		ldr	r3, [r7, #4]
 1432 07a0 3A68     		ldr	r2, [r7, #0]
 1433 07a2 1A67     		str	r2, [r3, #112]
 539:../src/lib/lpc177x_8x/Drivers/source/lpc177x_8x_mcpwm.c **** }
 1434              		.loc 1 539 0
 1435 07a4 07F10C07 		add	r7, r7, #12
 1436 07a8 BD46     		mov	sp, r7
 1437 07aa 80BC     		pop	{r7}
 1438 07ac 7047     		bx	lr
 1439              		.cfi_endproc
 1440              	.LFE68:
 1442 07ae 00BF     		.align	2
 1443              		.global	MCPWM_GetIntStatus
 1444              		.thumb
 1445              		.thumb_func
 1447              	MCPWM_GetIntStatus:
 1448              	.LFB69:
 540:../src/lib/lpc177x_8x/Drivers/source/lpc177x_8x_mcpwm.c **** 
 541:../src/lib/lpc177x_8x/Drivers/source/lpc177x_8x_mcpwm.c **** 
 542:../src/lib/lpc177x_8x/Drivers/source/lpc177x_8x_mcpwm.c **** /*********************************************************************//**
 543:../src/lib/lpc177x_8x/Drivers/source/lpc177x_8x_mcpwm.c ****  * @brief       Check whether if the specified interrupt in MCPWM is set or not
 544:../src/lib/lpc177x_8x/Drivers/source/lpc177x_8x_mcpwm.c ****  * @param[in]   MCPWMx      Motor Control PWM peripheral selected,
 545:../src/lib/lpc177x_8x/Drivers/source/lpc177x_8x_mcpwm.c ****  *                          should be: LPC_MCPWM
 546:../src/lib/lpc177x_8x/Drivers/source/lpc177x_8x_mcpwm.c ****  * @param[in]   ulIntType   Interrupt type, should be:
 547:../src/lib/lpc177x_8x/Drivers/source/lpc177x_8x_mcpwm.c ****  *                          - MCPWM_INTFLAG_LIM0: Limit interrupt for channel (0)
 548:../src/lib/lpc177x_8x/Drivers/source/lpc177x_8x_mcpwm.c ****  *                          - MCPWM_INTFLAG_MAT0: Match interrupt for channel (0)
 549:../src/lib/lpc177x_8x/Drivers/source/lpc177x_8x_mcpwm.c ****  *                          - MCPWM_INTFLAG_CAP0: Capture interrupt for channel (0)
 550:../src/lib/lpc177x_8x/Drivers/source/lpc177x_8x_mcpwm.c ****  *                          - MCPWM_INTFLAG_LIM1: Limit interrupt for channel (1)
 551:../src/lib/lpc177x_8x/Drivers/source/lpc177x_8x_mcpwm.c ****  *                          - MCPWM_INTFLAG_MAT1: Match interrupt for channel (1)
 552:../src/lib/lpc177x_8x/Drivers/source/lpc177x_8x_mcpwm.c ****  *                          - MCPWM_INTFLAG_CAP1: Capture interrupt for channel (1)
 553:../src/lib/lpc177x_8x/Drivers/source/lpc177x_8x_mcpwm.c ****  *                          - MCPWM_INTFLAG_LIM2: Limit interrupt for channel (2)
 554:../src/lib/lpc177x_8x/Drivers/source/lpc177x_8x_mcpwm.c ****  *                          - MCPWM_INTFLAG_MAT2: Match interrupt for channel (2)
 555:../src/lib/lpc177x_8x/Drivers/source/lpc177x_8x_mcpwm.c ****  *                          - MCPWM_INTFLAG_CAP2: Capture interrupt for channel (2)
 556:../src/lib/lpc177x_8x/Drivers/source/lpc177x_8x_mcpwm.c ****  *                          - MCPWM_INTFLAG_ABORT: Fast abort interrupt
 557:../src/lib/lpc177x_8x/Drivers/source/lpc177x_8x_mcpwm.c ****  * @return      None
 558:../src/lib/lpc177x_8x/Drivers/source/lpc177x_8x_mcpwm.c ****  **********************************************************************/
 559:../src/lib/lpc177x_8x/Drivers/source/lpc177x_8x_mcpwm.c **** FlagStatus MCPWM_GetIntStatus(LPC_MCPWM_TypeDef *MCPWMx, uint32_t ulIntType)
 560:../src/lib/lpc177x_8x/Drivers/source/lpc177x_8x_mcpwm.c **** {
 1449              		.loc 1 560 0
 1450              		.cfi_startproc
 1451              		@ args = 0, pretend = 0, frame = 8
 1452              		@ frame_needed = 1, uses_anonymous_args = 0
 1453              		@ link register save eliminated.
 1454 07b0 80B4     		push	{r7}
 1455              	.LCFI42:
 1456              		.cfi_def_cfa_offset 4
 1457              		.cfi_offset 7, -4
 1458 07b2 83B0     		sub	sp, sp, #12
 1459              	.LCFI43:
 1460              		.cfi_def_cfa_offset 16
 1461 07b4 00AF     		add	r7, sp, #0
 1462              	.LCFI44:
 1463              		.cfi_def_cfa_register 7
 1464 07b6 7860     		str	r0, [r7, #4]
 1465 07b8 3960     		str	r1, [r7, #0]
 561:../src/lib/lpc177x_8x/Drivers/source/lpc177x_8x_mcpwm.c ****     return ((MCPWMx->INTF & ulIntType) ? SET : RESET);
 1466              		.loc 1 561 0
 1467 07ba 7B68     		ldr	r3, [r7, #4]
 1468 07bc 9A6E     		ldr	r2, [r3, #104]
 1469 07be 3B68     		ldr	r3, [r7, #0]
 1470 07c0 1340     		ands	r3, r3, r2
 1471 07c2 002B     		cmp	r3, #0
 1472 07c4 0CBF     		ite	eq
 1473 07c6 0023     		moveq	r3, #0
 1474 07c8 0123     		movne	r3, #1
 1475 07ca DBB2     		uxtb	r3, r3
 562:../src/lib/lpc177x_8x/Drivers/source/lpc177x_8x_mcpwm.c **** }
 1476              		.loc 1 562 0
 1477 07cc 1846     		mov	r0, r3
 1478 07ce 07F10C07 		add	r7, r7, #12
 1479 07d2 BD46     		mov	sp, r7
 1480 07d4 80BC     		pop	{r7}
 1481 07d6 7047     		bx	lr
 1482              		.cfi_endproc
 1483              	.LFE69:
 1485              	.Letext0:
 1486              		.file 2 "g:\\program files\\codesourcery\\sourcery_codebench_lite_for_arm_eabi\\bin\\../lib/gcc/ar
 1487              		.file 3 "D:\\workspace_gnu\\RTT_Demo0\\src\\lib\\lpc177x_8x\\Drivers\\include/lpc_types.h"
 1488              		.file 4 "D:\\workspace_gnu\\RTT_Demo0\\src\\lib\\lpc177x_8x\\Core\\Device\\NXP\\LPC177x_8x\\Includ
 1489              		.file 5 "D:\\workspace_gnu\\RTT_Demo0\\src\\lib\\lpc177x_8x\\Drivers\\include/lpc177x_8x_mcpwm.h"
 1490              		.file 6 "D:\\workspace_gnu\\RTT_Demo0\\src\\lib\\lpc177x_8x\\Core\\CMSIS\\Include/core_cm3.h"